
software_LT24.elf:     file format elf32-littlenios2
software_LT24.elf
architecture: nios2:r1, flags 0x00000112:
EXEC_P, HAS_SYMS, D_PAGED
start address 0x020001bc

Program Header:
    LOAD off    0x00001020 vaddr 0x02000020 paddr 0x02000020 align 2**12
         filesz 0x0002be28 memsz 0x0002be28 flags r-x
    LOAD off    0x0002ce48 vaddr 0x0202be48 paddr 0x0202f1f0 align 2**12
         filesz 0x000033a8 memsz 0x000033a8 flags rw-
    LOAD off    0x00030598 vaddr 0x02032598 paddr 0x02032598 align 2**12
         filesz 0x00000000 memsz 0x00000150 flags rw-
    LOAD off    0x00030800 vaddr 0x04007800 paddr 0x04007800 align 2**12
         filesz 0x00000020 memsz 0x00000020 flags r-x

Sections:
Idx Name          Size      VMA       LMA       File off  Algn
  0 .entry        00000020  04007800  04007800  00030800  2**5
                  CONTENTS, ALLOC, LOAD, READONLY, CODE
  1 .exceptions   0000019c  02000020  02000020  00001020  2**2
                  CONTENTS, ALLOC, LOAD, READONLY, CODE
  2 .text         00011b70  020001bc  020001bc  000011bc  2**2
                  CONTENTS, ALLOC, LOAD, READONLY, CODE
  3 .rodata       0001a11c  02011d2c  02011d2c  00012d2c  2**2
                  CONTENTS, ALLOC, LOAD, READONLY, DATA
  4 .rwdata       000033a8  0202be48  0202f1f0  0002ce48  2**2
                  CONTENTS, ALLOC, LOAD, DATA, SMALL_DATA
  5 .bss          00000150  02032598  02032598  00030598  2**2
                  ALLOC, SMALL_DATA
  6 .SDRAM        00000000  020326e8  020326e8  00030820  2**0
                  CONTENTS
  7 .background_mem 00000000  04000000  04000000  00030820  2**0
                  CONTENTS
  8 .pic_mem      00000000  04004000  04004000  00030820  2**0
                  CONTENTS
  9 .epcs_flash_controller_0 00000000  04007820  04007820  00030820  2**0
                  CONTENTS
 10 .comment      00000023  00000000  00000000  00030820  2**0
                  CONTENTS, READONLY
 11 .debug_aranges 00000bb0  00000000  00000000  00030848  2**3
                  CONTENTS, READONLY, DEBUGGING
 12 .debug_info   000161c1  00000000  00000000  000313f8  2**0
                  CONTENTS, READONLY, DEBUGGING
 13 .debug_abbrev 000065ba  00000000  00000000  000475b9  2**0
                  CONTENTS, READONLY, DEBUGGING
 14 .debug_line   0000835f  00000000  00000000  0004db73  2**0
                  CONTENTS, READONLY, DEBUGGING
 15 .debug_frame  00002558  00000000  00000000  00055ed4  2**2
                  CONTENTS, READONLY, DEBUGGING
 16 .debug_str    00004ec1  00000000  00000000  0005842c  2**0
                  CONTENTS, READONLY, DEBUGGING
 17 .debug_loc    000093d8  00000000  00000000  0005d2ed  2**0
                  CONTENTS, READONLY, DEBUGGING
 18 .debug_alt_sim_info 00000060  00000000  00000000  000666c8  2**2
                  CONTENTS, READONLY, DEBUGGING
 19 .debug_ranges 00000b00  00000000  00000000  00066728  2**3
                  CONTENTS, READONLY, DEBUGGING
 20 .thread_model 00000003  00000000  00000000  0006c223  2**0
                  CONTENTS, READONLY
 21 .cpu          00000003  00000000  00000000  0006c226  2**0
                  CONTENTS, READONLY
 22 .qsys         00000001  00000000  00000000  0006c229  2**0
                  CONTENTS, READONLY
 23 .simulation_enabled 00000001  00000000  00000000  0006c22a  2**0
                  CONTENTS, READONLY
 24 .stderr_dev   00000009  00000000  00000000  0006c22b  2**0
                  CONTENTS, READONLY
 25 .stdin_dev    00000009  00000000  00000000  0006c234  2**0
                  CONTENTS, READONLY
 26 .stdout_dev   00000009  00000000  00000000  0006c23d  2**0
                  CONTENTS, READONLY
 27 .sopc_system_name 0000000d  00000000  00000000  0006c246  2**0
                  CONTENTS, READONLY
 28 .quartus_project_dir 00000018  00000000  00000000  0006c253  2**0
                  CONTENTS, READONLY
 29 .jdi          00003f0a  00000000  00000000  0006c26b  2**0
                  CONTENTS, READONLY
 30 .sopcinfo     00098847  00000000  00000000  00070175  2**0
                  CONTENTS, READONLY
SYMBOL TABLE:
04007800 l    d  .entry	00000000 .entry
02000020 l    d  .exceptions	00000000 .exceptions
020001bc l    d  .text	00000000 .text
02011d2c l    d  .rodata	00000000 .rodata
0202be48 l    d  .rwdata	00000000 .rwdata
02032598 l    d  .bss	00000000 .bss
020326e8 l    d  .SDRAM	00000000 .SDRAM
04000000 l    d  .background_mem	00000000 .background_mem
04004000 l    d  .pic_mem	00000000 .pic_mem
04007820 l    d  .epcs_flash_controller_0	00000000 .epcs_flash_controller_0
00000000 l    d  .comment	00000000 .comment
00000000 l    d  .debug_aranges	00000000 .debug_aranges
00000000 l    d  .debug_info	00000000 .debug_info
00000000 l    d  .debug_abbrev	00000000 .debug_abbrev
00000000 l    d  .debug_line	00000000 .debug_line
00000000 l    d  .debug_frame	00000000 .debug_frame
00000000 l    d  .debug_str	00000000 .debug_str
00000000 l    d  .debug_loc	00000000 .debug_loc
00000000 l    d  .debug_alt_sim_info	00000000 .debug_alt_sim_info
00000000 l    d  .debug_ranges	00000000 .debug_ranges
00000000 l    df *ABS*	00000000 ../software_LT24_bsp//obj/HAL/src/crt0.o
02000204 l       .text	00000000 alt_after_alt_main
00000000 l    df *ABS*	00000000 alt_exception_entry.o
02000094 l       .exceptions	00000000 alt_exception_unknown
00000000 l    df *ABS*	00000000 alt_irq_handler.c
00000000 l    df *ABS*	00000000 gui.c
00000000 l    df *ABS*	00000000 gui_vpg.c
00000000 l    df *ABS*	00000000 robinsun.c
00000000 l    df *ABS*	00000000 tahomabold_20.c
02011f1c l     O .rodata	000000b6 tahomabold_20_33
02011fd2 l     O .rodata	00000104 tahomabold_20_34
020120d6 l     O .rodata	000001a0 tahomabold_20_35
02012276 l     O .rodata	00000152 tahomabold_20_36
020123c8 l     O .rodata	00000270 tahomabold_20_37
02012638 l     O .rodata	000001ba tahomabold_20_38
020127f2 l     O .rodata	0000009c tahomabold_20_39
0201288e l     O .rodata	000000ea tahomabold_20_40
02012978 l     O .rodata	000000ea tahomabold_20_41
02012a62 l     O .rodata	00000152 tahomabold_20_42
02012bb4 l     O .rodata	000001a0 tahomabold_20_43
02012d54 l     O .rodata	0000009c tahomabold_20_44
02012df0 l     O .rodata	000000ea tahomabold_20_45
02012eda l     O .rodata	0000009c tahomabold_20_46
02012f76 l     O .rodata	00000138 tahomabold_20_47
020130ae l     O .rodata	00000152 tahomabold_20_48
02013200 l     O .rodata	00000152 tahomabold_20_49
02013352 l     O .rodata	00000152 tahomabold_20_50
020134a4 l     O .rodata	00000152 tahomabold_20_51
020135f6 l     O .rodata	00000152 tahomabold_20_52
02013748 l     O .rodata	00000152 tahomabold_20_53
0201389a l     O .rodata	00000152 tahomabold_20_54
020139ec l     O .rodata	00000152 tahomabold_20_55
02013b3e l     O .rodata	00000152 tahomabold_20_56
02013c90 l     O .rodata	00000152 tahomabold_20_57
02013de2 l     O .rodata	000000b6 tahomabold_20_58
02013e98 l     O .rodata	000000b6 tahomabold_20_59
02013f4e l     O .rodata	000001a0 tahomabold_20_60
020140ee l     O .rodata	000001a0 tahomabold_20_61
0201428e l     O .rodata	000001a0 tahomabold_20_62
0201442e l     O .rodata	0000011e tahomabold_20_63
0201454c l     O .rodata	000001d4 tahomabold_20_64
02014720 l     O .rodata	0000016c tahomabold_20_65
0201488c l     O .rodata	0000016c tahomabold_20_66
020149f8 l     O .rodata	00000152 tahomabold_20_67
02014b4a l     O .rodata	00000186 tahomabold_20_68
02014cd0 l     O .rodata	00000138 tahomabold_20_69
02014e08 l     O .rodata	00000138 tahomabold_20_70
02014f40 l     O .rodata	00000186 tahomabold_20_71
020150c6 l     O .rodata	00000186 tahomabold_20_72
0201524c l     O .rodata	00000104 tahomabold_20_73
02015350 l     O .rodata	00000104 tahomabold_20_74
02015454 l     O .rodata	0000016c tahomabold_20_75
020155c0 l     O .rodata	0000011e tahomabold_20_76
020156de l     O .rodata	000001d4 tahomabold_20_77
020158b2 l     O .rodata	00000186 tahomabold_20_78
02015a38 l     O .rodata	00000186 tahomabold_20_79
02015bbe l     O .rodata	00000152 tahomabold_20_80
02015d10 l     O .rodata	00000186 tahomabold_20_81
02015e96 l     O .rodata	00000186 tahomabold_20_82
0201601c l     O .rodata	00000152 tahomabold_20_83
0201616e l     O .rodata	00000138 tahomabold_20_84
020162a6 l     O .rodata	00000186 tahomabold_20_85
0201642c l     O .rodata	0000016c tahomabold_20_86
02016598 l     O .rodata	00000222 tahomabold_20_87
020167ba l     O .rodata	0000016c tahomabold_20_88
02016926 l     O .rodata	0000016c tahomabold_20_89
02016a92 l     O .rodata	00000138 tahomabold_20_90
02016bca l     O .rodata	000000ea tahomabold_20_91
02016cb4 l     O .rodata	00000138 tahomabold_20_92
02016dec l     O .rodata	000000ea tahomabold_20_93
02016ed6 l     O .rodata	000001a0 tahomabold_20_94
02017076 l     O .rodata	00000152 tahomabold_20_95
020171c8 l     O .rodata	0000011e tahomabold_20_96
020172e6 l     O .rodata	00000138 tahomabold_20_97
0201741e l     O .rodata	00000152 tahomabold_20_98
02017570 l     O .rodata	0000011e tahomabold_20_99
0201768e l     O .rodata	00000152 tahomabold_20_100
020177e0 l     O .rodata	00000138 tahomabold_20_101
02017918 l     O .rodata	000000d0 tahomabold_20_102
020179e8 l     O .rodata	00000152 tahomabold_20_103
02017b3a l     O .rodata	00000152 tahomabold_20_104
02017c8c l     O .rodata	0000009c tahomabold_20_105
02017d28 l     O .rodata	000000ea tahomabold_20_106
02017e12 l     O .rodata	00000138 tahomabold_20_107
02017f4a l     O .rodata	0000009c tahomabold_20_108
02017fe6 l     O .rodata	000001ee tahomabold_20_109
020181d4 l     O .rodata	00000152 tahomabold_20_110
02018326 l     O .rodata	00000138 tahomabold_20_111
0201845e l     O .rodata	00000152 tahomabold_20_112
020185b0 l     O .rodata	00000152 tahomabold_20_113
02018702 l     O .rodata	000000ea tahomabold_20_114
020187ec l     O .rodata	00000104 tahomabold_20_115
020188f0 l     O .rodata	000000d0 tahomabold_20_116
020189c0 l     O .rodata	00000152 tahomabold_20_117
02018b12 l     O .rodata	00000138 tahomabold_20_118
02018c4a l     O .rodata	000001d4 tahomabold_20_119
02018e1e l     O .rodata	00000138 tahomabold_20_120
02018f56 l     O .rodata	00000138 tahomabold_20_121
0201908e l     O .rodata	0000011e tahomabold_20_122
020191ac l     O .rodata	00000138 tahomabold_20_123
020192e4 l     O .rodata	00000152 tahomabold_20_124
02019436 l     O .rodata	00000138 tahomabold_20_125
0201956e l     O .rodata	000001a0 tahomabold_20_126
00000000 l    df *ABS*	00000000 tahomabold_32.c
0201970e l     O .rodata	000001b8 tahomabold_32_33
020198c6 l     O .rodata	00000280 tahomabold_32_34
02019b46 l     O .rodata	00000410 tahomabold_32_35
02019f56 l     O .rodata	00000320 tahomabold_32_36
0201a276 l     O .rodata	000005f0 tahomabold_32_37
0201a866 l     O .rodata	00000410 tahomabold_32_38
0201ac76 l     O .rodata	00000168 tahomabold_32_39
0201adde l     O .rodata	00000258 tahomabold_32_40
0201b036 l     O .rodata	00000258 tahomabold_32_41
0201b28e l     O .rodata	00000320 tahomabold_32_42
0201b5ae l     O .rodata	00000410 tahomabold_32_43
0201b9be l     O .rodata	00000190 tahomabold_32_44
0201bb4e l     O .rodata	00000230 tahomabold_32_45
0201bd7e l     O .rodata	00000190 tahomabold_32_46
0201bf0e l     O .rodata	000002d0 tahomabold_32_47
0201c1de l     O .rodata	00000320 tahomabold_32_48
0201c4fe l     O .rodata	00000320 tahomabold_32_49
0201c81e l     O .rodata	00000320 tahomabold_32_50
0201cb3e l     O .rodata	00000320 tahomabold_32_51
0201ce5e l     O .rodata	00000320 tahomabold_32_52
0201d17e l     O .rodata	00000320 tahomabold_32_53
0201d49e l     O .rodata	00000320 tahomabold_32_54
0201d7be l     O .rodata	00000320 tahomabold_32_55
0201dade l     O .rodata	00000320 tahomabold_32_56
0201ddfe l     O .rodata	00000320 tahomabold_32_57
0201e11e l     O .rodata	000001e0 tahomabold_32_58
0201e2fe l     O .rodata	000001e0 tahomabold_32_59
0201e4de l     O .rodata	00000410 tahomabold_32_60
0201e8ee l     O .rodata	00000410 tahomabold_32_61
0201ecfe l     O .rodata	00000410 tahomabold_32_62
0201f10e l     O .rodata	000002d0 tahomabold_32_63
0201f3de l     O .rodata	00000488 tahomabold_32_64
0201f866 l     O .rodata	00000370 tahomabold_32_65
0201fbd6 l     O .rodata	00000370 tahomabold_32_66
0201ff46 l     O .rodata	00000348 tahomabold_32_67
0202028e l     O .rodata	000003c0 tahomabold_32_68
0202064e l     O .rodata	00000320 tahomabold_32_69
0202096e l     O .rodata	000002f8 tahomabold_32_70
02020c66 l     O .rodata	000003c0 tahomabold_32_71
02021026 l     O .rodata	000003c0 tahomabold_32_72
020213e6 l     O .rodata	00000258 tahomabold_32_73
0202163e l     O .rodata	00000280 tahomabold_32_74
020218be l     O .rodata	00000398 tahomabold_32_75
02021c56 l     O .rodata	000002d0 tahomabold_32_76
02021f26 l     O .rodata	00000488 tahomabold_32_77
020223ae l     O .rodata	000003e8 tahomabold_32_78
02022796 l     O .rodata	000003e8 tahomabold_32_79
02022b7e l     O .rodata	00000348 tahomabold_32_80
02022ec6 l     O .rodata	000003e8 tahomabold_32_81
020232ae l     O .rodata	000003c0 tahomabold_32_82
0202366e l     O .rodata	00000320 tahomabold_32_83
0202398e l     O .rodata	00000320 tahomabold_32_84
02023cae l     O .rodata	000003c0 tahomabold_32_85
0202406e l     O .rodata	00000370 tahomabold_32_86
020243de l     O .rodata	00000528 tahomabold_32_87
02024906 l     O .rodata	00000370 tahomabold_32_88
02024c76 l     O .rodata	00000370 tahomabold_32_89
02024fe6 l     O .rodata	00000320 tahomabold_32_90
02025306 l     O .rodata	00000258 tahomabold_32_91
0202555e l     O .rodata	000002d0 tahomabold_32_92
0202582e l     O .rodata	00000258 tahomabold_32_93
02025a86 l     O .rodata	00000410 tahomabold_32_94
02025e96 l     O .rodata	00000320 tahomabold_32_95
020261b6 l     O .rodata	000002a8 tahomabold_32_96
0202645e l     O .rodata	000002f8 tahomabold_32_97
02026756 l     O .rodata	00000320 tahomabold_32_98
02026a76 l     O .rodata	000002a8 tahomabold_32_99
02026d1e l     O .rodata	00000320 tahomabold_32_100
0202703e l     O .rodata	000002f8 tahomabold_32_101
02027336 l     O .rodata	00000230 tahomabold_32_102
02027566 l     O .rodata	00000320 tahomabold_32_103
02027886 l     O .rodata	00000320 tahomabold_32_104
02027ba6 l     O .rodata	00000190 tahomabold_32_105
02027d36 l     O .rodata	00000208 tahomabold_32_106
02027f3e l     O .rodata	000002f8 tahomabold_32_107
02028236 l     O .rodata	00000190 tahomabold_32_108
020283c6 l     O .rodata	000004d8 tahomabold_32_109
0202889e l     O .rodata	00000320 tahomabold_32_110
02028bbe l     O .rodata	00000320 tahomabold_32_111
02028ede l     O .rodata	00000320 tahomabold_32_112
020291fe l     O .rodata	00000320 tahomabold_32_113
0202951e l     O .rodata	00000230 tahomabold_32_114
0202974e l     O .rodata	00000280 tahomabold_32_115
020299ce l     O .rodata	00000208 tahomabold_32_116
02029bd6 l     O .rodata	00000320 tahomabold_32_117
02029ef6 l     O .rodata	000002f8 tahomabold_32_118
0202a1ee l     O .rodata	00000460 tahomabold_32_119
0202a64e l     O .rodata	000002f8 tahomabold_32_120
0202a946 l     O .rodata	000002d0 tahomabold_32_121
0202ac16 l     O .rodata	000002a8 tahomabold_32_122
0202aebe l     O .rodata	00000320 tahomabold_32_123
0202b1de l     O .rodata	00000320 tahomabold_32_124
0202b4fe l     O .rodata	00000320 tahomabold_32_125
0202b81e l     O .rodata	00000410 tahomabold_32_126
00000000 l    df *ABS*	00000000 ILI9341.c
00000000 l    df *ABS*	00000000 geometry.c
00000000 l    df *ABS*	00000000 simple_graphics.c
00000000 l    df *ABS*	00000000 simple_text.c
00000000 l    df *ABS*	00000000 main.c
00000000 l    df *ABS*	00000000 touch_spi.c
00000000 l    df *ABS*	00000000 w_sqrt.c
00000000 l    df *ABS*	00000000 e_sqrt.c
00000000 l    df *ABS*	00000000 s_fpclassify.c
00000000 l    df *ABS*	00000000 s_lib_ver.c
00000000 l    df *ABS*	00000000 s_matherr.c
00000000 l    df *ABS*	00000000 lib2-divmod.c
0200a464 l     F .text	0000006c udivmodsi4
00000000 l    df *ABS*	00000000 adddf3.c
00000000 l    df *ABS*	00000000 divdf3.c
00000000 l    df *ABS*	00000000 ledf2.c
00000000 l    df *ABS*	00000000 muldf3.c
00000000 l    df *ABS*	00000000 subdf3.c
00000000 l    df *ABS*	00000000 fixdfsi.c
00000000 l    df *ABS*	00000000 floatsidf.c
00000000 l    df *ABS*	00000000 libgcc2.c
00000000 l    df *ABS*	00000000 libgcc2.c
00000000 l    df *ABS*	00000000 errno.c
00000000 l    df *ABS*	00000000 impure.c
0202d9ec l     O .rwdata	000000e0 impure_data
00000000 l    df *ABS*	00000000 malloc.c
00000000 l    df *ABS*	00000000 mallocr.c
00000000 l    df *ABS*	00000000 memcpy.c
00000000 l    df *ABS*	00000000 memset.c
00000000 l    df *ABS*	00000000 printf.c
00000000 l    df *ABS*	00000000 puts.c
00000000 l    df *ABS*	00000000 sbrkr.c
00000000 l    df *ABS*	00000000 sprintf.c
00000000 l    df *ABS*	00000000 strcpy.c
00000000 l    df *ABS*	00000000 strlen.c
00000000 l    df *ABS*	00000000 vfprintf.c
0200d31c l     F .text	0000006c print_repeat
00000000 l    df *ABS*	00000000 vfprintf.c
0200d8f0 l     F .text	0000006c print_repeat
00000000 l    df *ABS*	00000000 mallocr.c
00000000 l    df *ABS*	00000000 fvwrite_small_dev.c
00000000 l    df *ABS*	00000000 fvwrite_small_str.c
00000000 l    df *ABS*	00000000 int_errno.c
00000000 l    df *ABS*	00000000 memmove.c
00000000 l    df *ABS*	00000000 writer.c
00000000 l    df *ABS*	00000000 alt_alarm_start.c
00000000 l    df *ABS*	00000000 alt_iic.c
00000000 l    df *ABS*	00000000 alt_iic_isr_register.c
00000000 l    df *ABS*	00000000 alt_irq_vars.c
00000000 l    df *ABS*	00000000 alt_load.c
0200e880 l     F .text	00000064 alt_load_section
00000000 l    df *ABS*	00000000 alt_main.c
00000000 l    df *ABS*	00000000 alt_malloc_lock.c
00000000 l    df *ABS*	00000000 alt_sbrk.c
0202f1c4 l     O .rwdata	00000004 heap_end
00000000 l    df *ABS*	00000000 alt_tick.c
00000000 l    df *ABS*	00000000 alt_usleep.c
00000000 l    df *ABS*	00000000 alt_write.c
0200ec98 l     F .text	00000050 alt_get_errno
00000000 l    df *ABS*	00000000 alt_sys_init.c
0200ede0 l     F .text	00000038 alt_dev_reg
0202ded4 l     O .rwdata	000000cc epcs_flash_controller_0
0202dfa0 l     O .rwdata	00001060 JTAG_UART
00000000 l    df *ABS*	00000000 altera_avalon_epcs_flash_controller.c
0200eeb8 l     F .text	00000038 alt_flash_device_register
0200ef44 l     F .text	000003f8 alt_epcs_flash_query
0200f33c l     F .text	000000e8 alt_epcs_flash_memcmp
0200f710 l     F .text	00000094 alt_epcs_test_address
00000000 l    df *ABS*	00000000 altera_avalon_jtag_uart_fd.c
00000000 l    df *ABS*	00000000 altera_avalon_jtag_uart_init.c
0200fbd8 l     F .text	00000204 altera_avalon_jtag_uart_irq
0200fddc l     F .text	000000a8 altera_avalon_jtag_uart_timeout
00000000 l    df *ABS*	00000000 altera_avalon_jtag_uart_ioctl.c
00000000 l    df *ABS*	00000000 altera_avalon_jtag_uart_read.c
00000000 l    df *ABS*	00000000 altera_avalon_jtag_uart_write.c
00000000 l    df *ABS*	00000000 altera_avalon_spi.c
00000000 l    df *ABS*	00000000 altera_avalon_timer_sc.c
02010600 l     F .text	00000074 alt_avalon_timer_sc_irq
00000000 l    df *ABS*	00000000 epcs_commands.c
02010758 l     F .text	00000038 epcs_test_wip
02010790 l     F .text	00000038 epcs_await_wip_released
00000000 l    df *ABS*	00000000 alt_busy_sleep.c
00000000 l    df *ABS*	00000000 alt_close.c
02010e80 l     F .text	00000050 alt_get_errno
00000000 l    df *ABS*	00000000 alt_dcache_flush_all.c
00000000 l    df *ABS*	00000000 alt_dev.c
02010fe4 l     F .text	0000002c alt_dev_null_write
00000000 l    df *ABS*	00000000 alt_dev_llist_insert.c
02011010 l     F .text	00000050 alt_get_errno
00000000 l    df *ABS*	00000000 alt_do_ctors.c
00000000 l    df *ABS*	00000000 alt_do_dtors.c
00000000 l    df *ABS*	00000000 alt_errno.c
00000000 l    df *ABS*	00000000 alt_flash_dev.c
00000000 l    df *ABS*	00000000 alt_icache_flush_all.c
00000000 l    df *ABS*	00000000 alt_io_redirect.c
020112a4 l     F .text	000000c0 alt_open_fd
00000000 l    df *ABS*	00000000 alt_open.c
020113dc l     F .text	00000050 alt_get_errno
0201142c l     F .text	000000cc alt_file_locked
00000000 l    df *ABS*	00000000 alt_release_fd.c
00000000 l    df *ABS*	00000000 altera_nios2_gen2_irq.c
00000000 l    df *ABS*	00000000 alt_find_dev.c
00000000 l    df *ABS*	00000000 alt_find_file.c
00000000 l    df *ABS*	00000000 alt_get_fd.c
00000000 l    df *ABS*	00000000 alt_icache_flush.c
00000000 l    df *ABS*	00000000 atexit.c
00000000 l    df *ABS*	00000000 exit.c
00000000 l    df *ABS*	00000000 memcmp.c
00000000 l    df *ABS*	00000000 __atexit.c
00000000 l    df *ABS*	00000000 __call_atexit.c
00000000 l    df *ABS*	00000000 alt_exit.c
020070dc g     F .text	00000078 vid_draw_horiz_line
0200f684 g     F .text	0000008c alt_epcs_flash_get_info
02005790 g     F .text	0000006c LCD_DrawPoint
0200e964 g     F .text	00000078 alt_main
0200d2d4 g     F .text	0000002c strcpy
0200d114 g     F .text	00000080 _puts_r
020325e8 g     O .bss	00000100 alt_irq
02007240 g     F .text	0000006c vid_color_convert16_24
0200a024 g     F .text	00000130 sqrt
0202f1f0 g       *ABS*	00000000 __flash_rwdata_start
04004000 g       *ABS*	00000000 __alt_mem_pic_mem
02009a2c g     F .text	00000160 touch_enable_penirq
020326e8 g       *ABS*	00000000 __alt_heap_start
02005e68 g     F .text	00000138 LCD_Pattern_Horizon
0200d0c8 g     F .text	0000004c printf
02000a68 g     F .text	0000011c GUI_ROBINSUN_ShowWelcome
0200e9fc g     F .text	00000020 __malloc_unlock
02006d34 g     F .text	00000148 vid_draw_box
020064a8 g     F .text	00000044 PtCopy
02008b40 g     F .text	0000025c vid_print_string_alpha
02000b84 g     F .text	00000150 GUI_ROBINSUN_Init
0200e3b8 g     F .text	00000060 memmove
0202d5d4 g     O .rwdata	00000415 cour10_font_array
02006b10 g     F .text	0000011c vid_move_block
020116b0 g     F .text	00000020 altera_nios2_gen2_irq_init
0200c988 g     F .text	00000010 __errno
020107c8 g     F .text	000000f8 epcs_sector_erase
02009448 g     F .text	000000e0 vid_string_pixel_length_alpha
0200e31c g     F .text	0000009c __sfvwrite_small_str
04007800 g     F .entry	0000001c __reset
020060bc g     F .text	0000003c Clr_BUFFER_FLAG
02000020 g       *ABS*	00000000 __flash_exceptions_start
02005710 g     F .text	00000080 LCD_Clear
020325a4 g     O .bss	00000004 errno
020325b0 g     O .bss	00000004 alt_argv
020371a8 g       *ABS*	00000000 _gp
0200ec68 g     F .text	00000030 usleep
0200028c g     F .text	000000b0 VPG_ColorPanel
020009d4 g     F .text	00000094 GUI_ROBINSUN_CheckButton
02008d9c g     F .text	00000148 seperate_color_channels
0202f028 g     O .rwdata	00000180 alt_fd_list
02010a04 g     F .text	00000068 epcs_write_status_register
020116d0 g     F .text	00000090 alt_find_dev
0200d044 g     F .text	00000028 memcpy
0200c854 g     F .text	000000d0 .hidden __floatsidf
02007a30 g     F .text	00000738 vid_round_corner_points
02009760 g     F .text	00000068 Touch_UnInit
02011364 g     F .text	00000078 alt_io_redirect
0200b6f8 g     F .text	000000e0 .hidden __ltdf2
02011d2c g       *ABS*	00000000 __DTOR_END__
0200d194 g     F .text	00000014 puts
020064ec g     F .text	0000005c vid_clean_screen
0200f818 g     F .text	00000100 alt_epcs_flash_write_block
0200a3e8 g     F .text	00000074 __fpclassifyd
0200664c g     F .text	00000154 vid_scroll_string_init
0200ffd8 g     F .text	0000020c altera_avalon_jtag_uart_read
0200c998 g     F .text	00000014 malloc
0200d08c g     F .text	0000003c _printf_r
020095ec g     F .text	00000174 Touch_Init
0200a580 g     F .text	00000008 .hidden __udivsi3
02011928 g     F .text	0000008c alt_icache_flush
020325a0 g     O .bss	00000004 __malloc_top_pad
020014f8 g     F .text	000007c0 GUI_ROBINSUN_CompetitionChoice1_Draw
0200d1a8 g     F .text	00000050 _sbrk_r
020099bc g     F .text	00000030 touch_empty_fifo
020063c0 g     F .text	00000034 RectHeight
0202f1e0 g     O .rwdata	00000004 alt_max_fd
02000268 g     F .text	00000024 VPG_XLine
0203259c g     O .bss	00000004 __malloc_max_sbrked_mem
0202ca14 g     O .rwdata	00000bc0 tahomabold_32
0200a590 g     F .text	0000089c .hidden __adddf3
0200f7a4 g     F .text	00000074 alt_epcs_flash_erase_block
0200617c g     F .text	00000040 PtSet
0202f1ac g     O .rwdata	00000004 __fdlib_version
0202f1b0 g     O .rwdata	00000004 _global_impure_ptr
02007558 g     F .text	0000013c vid_draw_circle
02010ccc g     F .text	0000005c epcs_exit_4_bytes_mode
020326e8 g       *ABS*	00000000 __bss_end
0200e790 g     F .text	000000f0 alt_iic_isr_register
0200eb64 g     F .text	00000104 alt_tick
020062a0 g     F .text	00000088 RectOffset
020072f0 g     F .text	00000268 vid_draw_sloped_line
02000438 g     F .text	000000e4 VPG_VGrid
0200e744 g     F .text	0000004c alt_ic_irq_enabled
02007694 g     F .text	0000039c vid_draw_round_corner_box
0200eacc g     F .text	00000098 alt_alarm_stop
020325a8 g     O .bss	00000004 alt_irq_active
02005fa0 g     F .text	000000e0 LCD_Pattern_Vertical
020000ec g     F .exceptions	000000d0 alt_irq_handler
0202f000 g     O .rwdata	00000028 alt_dev_null
02010fa0 g     F .text	00000044 alt_dcache_flush_all
02009ed4 g     F .text	00000078 touch_alarm_callback
0200c7cc g     F .text	00000088 .hidden __fixdfsi
020099ec g     F .text	00000040 touch_is_pen_pressed
0202f1f0 g       *ABS*	00000000 __ram_rwdata_end
020085b4 g     F .text	00000378 vid_draw_triangle
0202f1d8 g     O .rwdata	00000008 alt_dev_list
0200ece8 g     F .text	000000f8 write
02008a10 g     F .text	00000130 CropImage16
0202be48 g       *ABS*	00000000 __ram_rodata_end
02000000 g       *ABS*	00000000 __alt_mem_SDRAM
0200b6f8 g     F .text	000000e0 .hidden __ledf2
020067a0 g     F .text	00000370 vid_scroll_string
02009bbc g     F .text	00000318 touch_get_xy
0200a588 g     F .text	00000008 .hidden __umodsi3
02009948 g     F .text	00000074 touch_isr
0200638c g     F .text	00000034 RectWidth
02010b88 g     F .text	00000068 epcs_read_electronic_signature
0200892c g     F .text	000000e4 CopyImage16
020326e8 g       *ABS*	00000000 end
0200092c g     F .text	000000a8 GUI_VPG
0200fb14 g     F .text	000000c4 altera_avalon_jtag_uart_init
02006e7c g     F .text	000000f0 vid_print_char
02011d2c g       *ABS*	00000000 __CTOR_LIST__
04000000 g       *ABS*	00000000 __alt_stack_pointer
02010674 g     F .text	00000088 alt_avalon_timer_sc_init
0200c924 g     F .text	00000064 .hidden __clzsi2
02000cd4 g     F .text	0000058c GUI_ROBINSUN_Draw
020101e4 g     F .text	00000218 altera_avalon_jtag_uart_write
020081bc g     F .text	00000054 min3
020007b0 g     F .text	0000017c GUI_ShowPAT
02006548 g     F .text	000000c4 vid_draw_line
0200d95c g     F .text	00000544 ___vfprintf_internal_r
0200d1f8 g     F .text	00000064 _sprintf_r
0200dfe8 g     F .text	00000288 _free_r
0202be48 g     O .rwdata	0000000c color_team
0200565c g     F .text	000000b4 LCD_SetCursor
02011b5c g     F .text	0000019c __call_exitprocs
0200033c g     F .text	000000fc VPG_Grid
0202f1b8 g     O .rwdata	00000004 __malloc_sbrk_base
020001bc g     F .text	0000004c _start
04000000 g       *ABS*	00000000 __alt_mem_background_mem
020325b8 g     O .bss	00000004 _alt_tick_rate
02009b8c g     F .text	00000030 touch_clear_input
020103fc g     F .text	00000204 alt_avalon_spi_command
020325bc g     O .bss	00000004 _alt_nticks
02008274 g     F .text	00000100 vid_put_pixel_in_span_map
02000600 g     F .text	000001b0 VPG_ColorBar
0200ee4c g     F .text	0000006c alt_sys_init
02011a18 g     F .text	00000144 __register_exitproc
02007048 g     F .text	00000094 vid_paint_block
0200fe84 g     F .text	00000068 altera_avalon_jtag_uart_close
0202be48 g       *ABS*	00000000 __ram_rwdata_start
02011d2c g       *ABS*	00000000 __ram_rodata_start
020325c0 g     O .bss	00000028 __malloc_current_mallinfo
0200051c g     F .text	000000e4 VPG_HGrid
020106fc g     F .text	0000005c epcs_read_status_register
020071a0 g     F .text	000000a0 vid_color_convert24_16
0200f9b0 g     F .text	00000060 altera_avalon_jtag_uart_read_fd
02011874 g     F .text	000000b4 alt_get_fd
02010d28 g     F .text	00000158 alt_busy_sleep
02009048 g     F .text	0000024c alpha_blending
02010bf0 g     F .text	00000080 epcs_read_device_id
020119e8 g     F .text	00000030 memcmp
0200fa70 g     F .text	00000050 altera_avalon_jtag_uart_close_fd
020326e8 g       *ABS*	00000000 __alt_stack_base
0200fac0 g     F .text	00000054 altera_avalon_jtag_uart_ioctl_fd
04007800 g       *ABS*	00000000 __alt_mem_epcs_flash_controller_0
0200ae2c g     F .text	000008cc .hidden __divdf3
0202dacc g     O .rwdata	00000408 __malloc_av_
0200b7d8 g     F .text	00000724 .hidden __muldf3
02011760 g     F .text	00000114 alt_find_file
02011060 g     F .text	000000a4 alt_dev_llist_insert
0200e9dc g     F .text	00000020 __malloc_lock
020072ac g     F .text	00000044 vid_copy_line_to_frame_buffer
0200ea1c g     F .text	000000b0 sbrk
0200d388 g     F .text	00000544 ___svfprintf_internal_r
0202f1e8 g     O .rwdata	00000008 alt_flash_dev_list
0200e270 g     F .text	000000ac __sfvwrite_small_dev
02032598 g       *ABS*	00000000 __bss_start
020057fc g     F .text	0000066c LCD_Init
02002720 g     F .text	000008bc GUI_ROBINSUN_CompetitionSummary_Draw
0200d06c g     F .text	00000020 memset
02009528 g     F .text	000000c4 main
020325b4 g     O .bss	00000004 alt_envp
02032598 g     O .bss	00000004 __malloc_max_total_mem
0200fa10 g     F .text	00000060 altera_avalon_jtag_uart_write_fd
0202be54 g     O .rwdata	00000bc0 tahomabold_20
0200a45c g     F .text	00000008 matherr
04000000 g       *ABS*	00000000 __alt_heap_limit
02009294 g     F .text	000001b4 vid_print_char_alpha
0202f1a8 g     O .rwdata	00000004 cour10_font
0200c9c0 g     F .text	00000684 _malloc_r
02001260 g     F .text	00000298 GUI_ROBINSUN_CompetitionChoice1_Init
0202f1e4 g     O .rwdata	00000004 alt_errno
020063f4 g     F .text	000000b4 PtDistance
02002fdc g     F .text	00002634 GUI_ROBINSUN
020061bc g     F .text	0000005c RectSet
02005610 g     F .text	0000004c Delay_Ms
0200a4d0 g     F .text	00000054 .hidden __divsi3
02006328 g     F .text	00000064 RectCopy
0200dec4 g     F .text	00000124 _malloc_trim_r
02011d2c g       *ABS*	00000000 __CTOR_END__
0200f424 g     F .text	00000260 alt_epcs_flash_write
02009004 g     F .text	00000044 read_from_frame
02011d2c g       *ABS*	00000000 __flash_rodata_start
02011d2c g       *ABS*	00000000 __DTOR_LIST__
02007008 g     F .text	00000040 vid_get_pixel
0200ee18 g     F .text	00000034 alt_irq_init
02011650 g     F .text	00000060 alt_release_fd
02001cb8 g     F .text	00000298 GUI_ROBINSUN_CompetitionChoice2_Init
0200d25c g     F .text	00000078 sprintf
0202bcf5 g     O .rodata	00000100 .hidden __clz_tab
020119b4 g     F .text	00000014 atexit
0200e418 g     F .text	00000058 _write_r
020060f8 g     F .text	00000084 IsPtInRect
0202f1b4 g     O .rwdata	00000004 _impure_ptr
020325ac g     O .bss	00000004 alt_argc
02011160 g     F .text	0000005c _do_dtors
0200241c g     F .text	00000304 GUI_ROBINSUN_CompetitionSummary_Init
02000020 g       .exceptions	00000000 alt_irq_entry
02009800 g     F .text	00000148 Touch_GetXY
0202f1d0 g     O .rwdata	00000008 alt_fs_list
0200d8cc g     F .text	00000024 __vfprintf_internal_unused
02006c2c g     F .text	00000108 vid_print_string
02000020 g       *ABS*	00000000 __ram_exceptions_start
020108c0 g     F .text	000000f4 epcs_read_buffer
0200a154 g     F .text	00000294 __ieee754_sqrt
0200eef0 g     F .text	00000054 alt_epcs_flash_init
0200e5b0 g     F .text	00000050 alt_ic_isr_register
0202f1f0 g       *ABS*	00000000 _edata
020326e8 g       *ABS*	00000000 _end
020111bc g     F .text	00000068 alt_flash_open_dev
02000208 g     F .text	00000060 ShowInfo
02008168 g     F .text	00000054 max3
020001bc g       *ABS*	00000000 __ram_exceptions_end
0200feec g     F .text	000000ec altera_avalon_jtag_uart_ioctl
0200e6a0 g     F .text	000000a4 alt_ic_irq_disable
02010c70 g     F .text	0000005c epcs_enter_4_bytes_mode
02007154 g     F .text	0000004c vid_merge_colors
0202f1bc g     O .rwdata	00000004 __malloc_trim_threshold
020119c8 g     F .text	00000020 exit
02011224 g     F .text	00000050 alt_flash_close_dev
0200a524 g     F .text	0000005c .hidden __modsi3
04000000 g       *ABS*	00000000 __alt_data_end
02000020 g     F .exceptions	00000000 alt_exception
02001f50 g     F .text	000004cc GUI_ROBINSUN_CompetitionChoice2_Draw
02009f4c g     F .text	000000d8 touch_xy_transform
02006f6c g     F .text	0000009c vid_set_pixel
02006080 g     F .text	0000003c Set_BUFFER_FLAG
02011cf8 g     F .text	00000034 _exit
0200e470 g     F .text	00000140 alt_alarm_start
0200660c g     F .text	00000040 vid_scroll_string_quit
0200d300 g     F .text	0000001c strlen
020109b4 g     F .text	00000050 epcs_write_enable
020114f8 g     F .text	00000158 open
02006218 g     F .text	00000088 RectInflate
02011274 g     F .text	00000030 alt_icache_flush_all
0202f1c0 g     O .rwdata	00000004 alt_priority_mask
0200e600 g     F .text	000000a0 alt_ic_irq_enable
0200dea0 g     F .text	00000024 __vfprintf_internal
0200befc g     F .text	000008d0 .hidden __subdf3
02008374 g     F .text	00000240 vid_bres_scan_edges
0200f918 g     F .text	00000098 alt_epcs_flash_read
0202f1c8 g     O .rwdata	00000008 alt_alarm_list
02008210 g     F .text	00000064 max_diff3
02011104 g     F .text	0000005c _do_ctors
02008ee4 g     F .text	00000120 merge_color_channels
02010ed0 g     F .text	000000d0 close
0200e8e4 g     F .text	00000080 alt_load
020097c8 g     F .text	00000038 Touch_EmptyFifo
0200c9ac g     F .text	00000014 free
02010a6c g     F .text	0000011c epcs_write_buffer



Disassembly of section .entry:

04007800 <__reset>:
#if NIOS2_ICACHE_SIZE > 0 && defined(ALT_ALLOW_CODE_AT_RESET) && (!defined(ALT_SIM_OPTIMIZE) || defined(NIOS2_ECC_PRESENT))
    /* Assume the instruction cache size is always a power of two. */
#if NIOS2_ICACHE_SIZE > 0x8000
    movhi r2, %hi(NIOS2_ICACHE_SIZE)
#else
    movui r2, NIOS2_ICACHE_SIZE
 4007800:	00900014 	movui	r2,16384
#endif

0:
    initi r2
 4007804:	1001483a 	initi	r2
    addi r2, r2, -NIOS2_ICACHE_LINE_SIZE
 4007808:	10bff804 	addi	r2,r2,-32
    bgt r2, zero, 0b
 400780c:	00bffd16 	blt	zero,r2,4007804 <__reset+0x4>
 * Jump to the _start entry point in the .text section if reset code
 * is allowed or if optimizing for RTL simulation.
 */
#if defined(ALT_ALLOW_CODE_AT_RESET) || defined(ALT_SIM_OPTIMIZE)
    /* Jump to the _start entry point in the .text section. */
    movhi r1, %hi(_start)
 4007810:	00408034 	movhi	at,512
    ori r1, r1, %lo(_start)
 4007814:	08406f14 	ori	at,at,444
    jmp r1
 4007818:	0800683a 	jmp	at
 400781c:	00000000 	call	0 <__alt_mem_SDRAM-0x2000000>

Disassembly of section .exceptions:

02000020 <alt_exception>:

#else /* ALT_EXCEPTION_STACK disabled */
        /* 
         * Reserve space on normal stack for registers about to be pushed.
         */
        addi  sp, sp, -76
 2000020:	deffed04 	addi	sp,sp,-76
         * documentation for details).
         *
         * Leave a gap in the stack frame at 4(sp) for the muldiv handler to
         * store zero into.
         */
        stw   ra,  0(sp)
 2000024:	dfc00015 	stw	ra,0(sp)
        stw   r1,   8(sp)
 2000028:	d8400215 	stw	at,8(sp)
        stw   r2,  12(sp)
 200002c:	d8800315 	stw	r2,12(sp)
        stw   r3,  16(sp)
 2000030:	d8c00415 	stw	r3,16(sp)
        stw   r4,  20(sp)
 2000034:	d9000515 	stw	r4,20(sp)
        stw   r5,  24(sp)
 2000038:	d9400615 	stw	r5,24(sp)
        stw   r6,  28(sp)
 200003c:	d9800715 	stw	r6,28(sp)
        stw   r7,  32(sp)
 2000040:	d9c00815 	stw	r7,32(sp)
        rdctl r5, estatus   /* Read early to avoid usage stall */
 2000044:	000b307a 	rdctl	r5,estatus
        stw   r8,  36(sp)
 2000048:	da000915 	stw	r8,36(sp)
        stw   r9,  40(sp)
 200004c:	da400a15 	stw	r9,40(sp)
        stw   r10, 44(sp)
 2000050:	da800b15 	stw	r10,44(sp)
        stw   r11, 48(sp)
 2000054:	dac00c15 	stw	r11,48(sp)
        stw   r12, 52(sp)
 2000058:	db000d15 	stw	r12,52(sp)
        stw   r13, 56(sp)
 200005c:	db400e15 	stw	r13,56(sp)
        stw   r14, 60(sp)
 2000060:	db800f15 	stw	r14,60(sp)
        stw   r15, 64(sp)
 2000064:	dbc01015 	stw	r15,64(sp)
        /*
         * ea-4 contains the address of the instruction being executed
         * when the exception occured. For interrupt exceptions, we will
         * will be re-issue the isntruction. Store it in 72(sp)
         */
        stw   r5,  68(sp)  /* estatus */
 2000068:	d9401115 	stw	r5,68(sp)
        addi  r15, ea, -4  /* instruction that caused exception */
 200006c:	ebffff04 	addi	r15,ea,-4
        stw   r15,  72(sp)
 2000070:	dbc01215 	stw	r15,72(sp)
#else
        /*
         * Test to see if the exception was a software exception or caused 
         * by an external interrupt, and vector accordingly.
         */
        rdctl r4, ipending
 2000074:	0009313a 	rdctl	r4,ipending
        andi  r2, r5, 1
 2000078:	2880004c 	andi	r2,r5,1
        beq   r2, zero, .Lnot_irq
 200007c:	10000326 	beq	r2,zero,200008c <alt_exception+0x6c>
        beq   r4, zero, .Lnot_irq
 2000080:	20000226 	beq	r4,zero,200008c <alt_exception+0x6c>
        /*
         * Now that all necessary registers have been preserved, call 
         * alt_irq_handler() to process the interrupts.
         */

        call alt_irq_handler
 2000084:	20000ec0 	call	20000ec <alt_irq_handler>

        .section .exceptions.irqreturn, "xa"

        br    .Lexception_exit
 2000088:	00000306 	br	2000098 <alt_exception_unknown+0x4>
         * upon completion, so we write ea (address of instruction *after*
         * the one where the exception occured) into 72(sp). The actual
         * instruction that caused the exception is written in r2, which these
         * handlers will utilize.
         */
        stw   ea,  72(sp)  /* Don't re-issue */
 200008c:	df401215 	stw	ea,72(sp)
        ldhu.n  r2, 0(r4)
        ldhu.n  r3, 2(r4)
        slli.n  r3, r3, 16
        or.n    r2, r2, r3 /* Instruction that caused exception */
#else
        ldw   r2, -4(ea)   /* Instruction that caused exception */
 2000090:	e8bfff17 	ldw	r2,-4(ea)

02000094 <alt_exception_unknown>:
#ifdef NIOS2_HAS_DEBUG_STUB
       /*
        *  Either tell the user now (if there is a debugger attached) or go into
        *  the debug monitor which will loop until a debugger is attached.
        */
        break
 2000094:	003da03a 	break	0
        /* 
         * Restore the saved registers, so that all general purpose registers 
         * have been restored to their state at the time the interrupt occured.
         */

        ldw   r5,  68(sp)
 2000098:	d9401117 	ldw	r5,68(sp)
        ldw   ea,  72(sp)  /* This becomes the PC once eret is executed */
 200009c:	df401217 	ldw	ea,72(sp)
        ldw   ra,   0(sp)
 20000a0:	dfc00017 	ldw	ra,0(sp)

        wrctl estatus, r5
 20000a4:	2801707a 	wrctl	estatus,r5

        ldw   r1,   8(sp)
 20000a8:	d8400217 	ldw	at,8(sp)
        ldw   r2,  12(sp)
 20000ac:	d8800317 	ldw	r2,12(sp)
        ldw   r3,  16(sp)
 20000b0:	d8c00417 	ldw	r3,16(sp)
        ldw   r4,  20(sp)
 20000b4:	d9000517 	ldw	r4,20(sp)
        ldw   r5,  24(sp)
 20000b8:	d9400617 	ldw	r5,24(sp)
        ldw   r6,  28(sp)
 20000bc:	d9800717 	ldw	r6,28(sp)
        ldw   r7,  32(sp)
 20000c0:	d9c00817 	ldw	r7,32(sp)

#if defined(ALT_EXCEPTION_STACK) && defined(ALT_STACK_CHECK)
        ldw   et, %gprel(alt_exception_old_stack_limit)(gp)
#endif

        ldw   r8,  36(sp)
 20000c4:	da000917 	ldw	r8,36(sp)
        ldw   r9,  40(sp)
 20000c8:	da400a17 	ldw	r9,40(sp)
        ldw   r10, 44(sp)
 20000cc:	da800b17 	ldw	r10,44(sp)
        ldw   r11, 48(sp)
 20000d0:	dac00c17 	ldw	r11,48(sp)
        ldw   r12, 52(sp)
 20000d4:	db000d17 	ldw	r12,52(sp)
        ldw   r13, 56(sp)
 20000d8:	db400e17 	ldw	r13,56(sp)
        ldw   r14, 60(sp)
 20000dc:	db800f17 	ldw	r14,60(sp)
        ldw   r15, 64(sp)
 20000e0:	dbc01017 	ldw	r15,64(sp)
        stw   et, %gprel(alt_stack_limit_value)(gp)
        stw   zero, %gprel(alt_exception_old_stack_limit)(gp)
#endif /* ALT_STACK_CHECK */
        ldw   sp,  76(sp)
#else /* ALT_EXCEPTION_STACK disabled */
        addi  sp, sp, 76
 20000e4:	dec01304 	addi	sp,sp,76

        /*
         * Return to the interrupted instruction.
         */

        eret
 20000e8:	ef80083a 	eret

020000ec <alt_irq_handler>:
 * instruction is present if the macro ALT_CI_INTERRUPT_VECTOR defined.
 */

void alt_irq_handler (void) __attribute__ ((section (".exceptions")));
void alt_irq_handler (void)
{
 20000ec:	defff904 	addi	sp,sp,-28
 20000f0:	dfc00615 	stw	ra,24(sp)
 20000f4:	df000515 	stw	fp,20(sp)
 20000f8:	df000504 	addi	fp,sp,20
  
  /*
   * Notify the operating system that we are at interrupt level.
   */ 
  
  ALT_OS_INT_ENTER();
 20000fc:	0001883a 	nop
#ifndef NIOS2_EIC_PRESENT
static ALT_INLINE alt_u32 ALT_ALWAYS_INLINE alt_irq_pending (void)
{
  alt_u32 active;

  NIOS2_READ_IPENDING (active);
 2000100:	0005313a 	rdctl	r2,ipending
 2000104:	e0bffe15 	stw	r2,-8(fp)

  return active;
 2000108:	e0bffe17 	ldw	r2,-8(fp)
   * Consider the case where the high priority interupt is asserted during
   * the interrupt entry sequence for a lower priority interrupt to see why
   * this is the case.
   */

  active = alt_irq_pending ();
 200010c:	e0bffb15 	stw	r2,-20(fp)

  do
  {
    i = 0;
 2000110:	e03ffd15 	stw	zero,-12(fp)
    mask = 1;
 2000114:	00800044 	movi	r2,1
 2000118:	e0bffc15 	stw	r2,-16(fp)
     * called to clear the interrupt condition.
     */

    do
    {
      if (active & mask)
 200011c:	e0fffb17 	ldw	r3,-20(fp)
 2000120:	e0bffc17 	ldw	r2,-16(fp)
 2000124:	1884703a 	and	r2,r3,r2
 2000128:	10001426 	beq	r2,zero,200017c <alt_irq_handler+0x90>
      { 
#ifdef ALT_ENHANCED_INTERRUPT_API_PRESENT
        alt_irq[i].handler(alt_irq[i].context); 
 200012c:	008080f4 	movhi	r2,515
 2000130:	10897a04 	addi	r2,r2,9704
 2000134:	e0fffd17 	ldw	r3,-12(fp)
 2000138:	180690fa 	slli	r3,r3,3
 200013c:	10c5883a 	add	r2,r2,r3
 2000140:	10c00017 	ldw	r3,0(r2)
 2000144:	008080f4 	movhi	r2,515
 2000148:	10897a04 	addi	r2,r2,9704
 200014c:	e13ffd17 	ldw	r4,-12(fp)
 2000150:	200890fa 	slli	r4,r4,3
 2000154:	1105883a 	add	r2,r2,r4
 2000158:	10800104 	addi	r2,r2,4
 200015c:	10800017 	ldw	r2,0(r2)
 2000160:	1009883a 	mov	r4,r2
 2000164:	183ee83a 	callr	r3
#else
        alt_irq[i].handler(alt_irq[i].context, i); 
#endif
        break;
 2000168:	0001883a 	nop
#ifndef NIOS2_EIC_PRESENT
static ALT_INLINE alt_u32 ALT_ALWAYS_INLINE alt_irq_pending (void)
{
  alt_u32 active;

  NIOS2_READ_IPENDING (active);
 200016c:	0005313a 	rdctl	r2,ipending
 2000170:	e0bfff15 	stw	r2,-4(fp)

  return active;
 2000174:	e0bfff17 	ldw	r2,-4(fp)
 2000178:	00000706 	br	2000198 <alt_irq_handler+0xac>
      }
      mask <<= 1;
 200017c:	e0bffc17 	ldw	r2,-16(fp)
 2000180:	1085883a 	add	r2,r2,r2
 2000184:	e0bffc15 	stw	r2,-16(fp)
      i++;
 2000188:	e0bffd17 	ldw	r2,-12(fp)
 200018c:	10800044 	addi	r2,r2,1
 2000190:	e0bffd15 	stw	r2,-12(fp)

    } while (1);
 2000194:	003fe106 	br	200011c <__reset+0xfdff891c>

    active = alt_irq_pending ();
 2000198:	e0bffb15 	stw	r2,-20(fp)
    
  } while (active);
 200019c:	e0bffb17 	ldw	r2,-20(fp)
 20001a0:	103fdb1e 	bne	r2,zero,2000110 <__reset+0xfdff8910>

  /*
   * Notify the operating system that interrupt processing is complete.
   */ 

  ALT_OS_INT_EXIT();
 20001a4:	0001883a 	nop
}
 20001a8:	e037883a 	mov	sp,fp
 20001ac:	dfc00117 	ldw	ra,4(sp)
 20001b0:	df000017 	ldw	fp,0(sp)
 20001b4:	dec00204 	addi	sp,sp,8
 20001b8:	f800283a 	ret

Disassembly of section .text:

020001bc <_start>:

    /* Assume the data cache size is always a power of two. */
#if NIOS2_DCACHE_SIZE > 0x8000
    movhi r2, %hi(NIOS2_DCACHE_SIZE)
#else
    movui r2, NIOS2_DCACHE_SIZE
 20001bc:	00880014 	movui	r2,8192
#endif

0:
    initd 0(r2)
 20001c0:	10000033 	initd	0(r2)
#ifdef NIOS2_ECC_PRESENT
    addi r2, r2, -4
#else
    addi r2, r2, -NIOS2_DCACHE_LINE_SIZE
 20001c4:	10bff804 	addi	r2,r2,-32
#endif
    bgt r2, zero, 0b
 20001c8:	00bffd16 	blt	zero,r2,20001c0 <__reset+0xfdff89c0>

    /*
     * Now that the caches are initialized, set up the stack pointer and global pointer.
     * The values provided by the linker are assumed to be correctly aligned.
     */
    movhi sp, %hi(__alt_stack_pointer)
 20001cc:	06c10034 	movhi	sp,1024
    ori sp, sp, %lo(__alt_stack_pointer)
 20001d0:	dec00014 	ori	sp,sp,0
    movhi gp, %hi(_gp)
 20001d4:	068080f4 	movhi	gp,515
    ori gp, gp, %lo(_gp)
 20001d8:	d69c6a14 	ori	gp,gp,29096
 */
#ifndef ALT_SIM_OPTIMIZE
    /* Log that the BSS is about to be cleared. */
    ALT_LOG_PUTS(alt_log_msg_bss)

    movhi r2, %hi(__bss_start)
 20001dc:	008080f4 	movhi	r2,515
    ori r2, r2, %lo(__bss_start)
 20001e0:	10896614 	ori	r2,r2,9624

    movhi r3, %hi(__bss_end)
 20001e4:	00c080f4 	movhi	r3,515
    ori r3, r3, %lo(__bss_end)
 20001e8:	18c9ba14 	ori	r3,r3,9960

    beq r2, r3, 1f
 20001ec:	10c00326 	beq	r2,r3,20001fc <_start+0x40>

0:
    stw zero, (r2)
 20001f0:	10000015 	stw	zero,0(r2)
    addi r2, r2, 4
 20001f4:	10800104 	addi	r2,r2,4
    bltu r2, r3, 0b
 20001f8:	10fffd36 	bltu	r2,r3,20001f0 <__reset+0xfdff89f0>
     * section aren't defined until alt_load() has been called).
     */
    mov   et, zero
#endif

    call alt_load
 20001fc:	200e8e40 	call	200e8e4 <alt_load>

    /* Log that alt_main is about to be called. */
    ALT_LOG_PUTS(alt_log_msg_alt_main)

    /* Call the C entry point. It should never return. */
    call alt_main
 2000200:	200e9640 	call	200e964 <alt_main>

02000204 <alt_after_alt_main>:

    /* Wait in infinite loop in case alt_main does return. */
alt_after_alt_main:
    br alt_after_alt_main
 2000204:	003fff06 	br	2000204 <__reset+0xfdff8a04>

02000208 <ShowInfo>:
#include "../graphic_lib/simple_graphics.h"
#include "../graphic_lib/geometry.h"



void ShowInfo(alt_video_display *pDisplay, char *pText){
 2000208:	defff904 	addi	sp,sp,-28
 200020c:	dfc00615 	stw	ra,24(sp)
 2000210:	df000515 	stw	fp,20(sp)
 2000214:	df000504 	addi	fp,sp,20
 2000218:	e13ffe15 	stw	r4,-8(fp)
 200021c:	e17fff15 	stw	r5,-4(fp)
    vid_print_string_alpha(1, 1, WHITE_24, BLACK_24, tahomabold_20, pDisplay, pText);
 2000220:	008080f4 	movhi	r2,515
 2000224:	10af9504 	addi	r2,r2,-16812
 2000228:	d8800015 	stw	r2,0(sp)
 200022c:	e0bffe17 	ldw	r2,-8(fp)
 2000230:	d8800115 	stw	r2,4(sp)
 2000234:	e0bfff17 	ldw	r2,-4(fp)
 2000238:	d8800215 	stw	r2,8(sp)
 200023c:	01000044 	movi	r4,1
 2000240:	01400044 	movi	r5,1
 2000244:	01804034 	movhi	r6,256
 2000248:	31bfffc4 	addi	r6,r6,-1
 200024c:	000f883a 	mov	r7,zero
 2000250:	2008b400 	call	2008b40 <vid_print_string_alpha>
}
 2000254:	e037883a 	mov	sp,fp
 2000258:	dfc00117 	ldw	ra,4(sp)
 200025c:	df000017 	ldw	fp,0(sp)
 2000260:	dec00204 	addi	sp,sp,8
 2000264:	f800283a 	ret

02000268 <VPG_XLine>:


void VPG_XLine(alt_video_display *pDisplay){
 2000268:	defffe04 	addi	sp,sp,-8
 200026c:	df000115 	stw	fp,4(sp)
 2000270:	df000104 	addi	fp,sp,4
 2000274:	e13fff15 	stw	r4,-4(fp)
return ;
 2000278:	0001883a 	nop

    // show text
    ShowInfo(pDisplay, "X Line");


}
 200027c:	e037883a 	mov	sp,fp
 2000280:	df000017 	ldw	fp,0(sp)
 2000284:	dec00104 	addi	sp,sp,4
 2000288:	f800283a 	ret

0200028c <VPG_ColorPanel>:


void VPG_ColorPanel(alt_video_display *pDisplay, alt_u32 Color){
 200028c:	defff204 	addi	sp,sp,-56
 2000290:	dfc00d15 	stw	ra,52(sp)
 2000294:	df000c15 	stw	fp,48(sp)
 2000298:	df000c04 	addi	fp,sp,48
 200029c:	e13ffe15 	stw	r4,-8(fp)
 20002a0:	e17fff15 	stw	r5,-4(fp)
    int x, y;
    char szText[32];

    for(y=0;y<pDisplay->height;y++){
 20002a4:	e03ff515 	stw	zero,-44(fp)
 20002a8:	00001106 	br	20002f0 <VPG_ColorPanel+0x64>
        for(x=0;x<pDisplay->width;x++){
 20002ac:	e03ff415 	stw	zero,-48(fp)
 20002b0:	00000806 	br	20002d4 <VPG_ColorPanel+0x48>
        	vid_set_pixel(x,y,Color, pDisplay);
 20002b4:	e13ff417 	ldw	r4,-48(fp)
 20002b8:	e17ff517 	ldw	r5,-44(fp)
 20002bc:	e1bfff17 	ldw	r6,-4(fp)
 20002c0:	e1fffe17 	ldw	r7,-8(fp)
 20002c4:	2006f6c0 	call	2006f6c <vid_set_pixel>
void VPG_ColorPanel(alt_video_display *pDisplay, alt_u32 Color){
    int x, y;
    char szText[32];

    for(y=0;y<pDisplay->height;y++){
        for(x=0;x<pDisplay->width;x++){
 20002c8:	e0bff417 	ldw	r2,-48(fp)
 20002cc:	10800044 	addi	r2,r2,1
 20002d0:	e0bff415 	stw	r2,-48(fp)
 20002d4:	e0bffe17 	ldw	r2,-8(fp)
 20002d8:	10800117 	ldw	r2,4(r2)
 20002dc:	e0fff417 	ldw	r3,-48(fp)
 20002e0:	18bff416 	blt	r3,r2,20002b4 <__reset+0xfdff8ab4>

void VPG_ColorPanel(alt_video_display *pDisplay, alt_u32 Color){
    int x, y;
    char szText[32];

    for(y=0;y<pDisplay->height;y++){
 20002e4:	e0bff517 	ldw	r2,-44(fp)
 20002e8:	10800044 	addi	r2,r2,1
 20002ec:	e0bff515 	stw	r2,-44(fp)
 20002f0:	e0bffe17 	ldw	r2,-8(fp)
 20002f4:	10800217 	ldw	r2,8(r2)
 20002f8:	e0fff517 	ldw	r3,-44(fp)
 20002fc:	18bfeb16 	blt	r3,r2,20002ac <__reset+0xfdff8aac>
        	vid_set_pixel(x,y,Color, pDisplay);
        }
    }

    // show text
    sprintf(szText,"Panel: %08xh", (unsigned int) Color);
 2000300:	e0bff604 	addi	r2,fp,-40
 2000304:	1009883a 	mov	r4,r2
 2000308:	01408074 	movhi	r5,513
 200030c:	29474b04 	addi	r5,r5,7468
 2000310:	e1bfff17 	ldw	r6,-4(fp)
 2000314:	200d25c0 	call	200d25c <sprintf>
    ShowInfo(pDisplay, szText);
 2000318:	e0bff604 	addi	r2,fp,-40
 200031c:	e13ffe17 	ldw	r4,-8(fp)
 2000320:	100b883a 	mov	r5,r2
 2000324:	20002080 	call	2000208 <ShowInfo>



}
 2000328:	e037883a 	mov	sp,fp
 200032c:	dfc00117 	ldw	ra,4(sp)
 2000330:	df000017 	ldw	fp,0(sp)
 2000334:	dec00204 	addi	sp,sp,8
 2000338:	f800283a 	ret

0200033c <VPG_Grid>:

void VPG_Grid(alt_video_display *pDisplay, alt_u8 GridSize){
 200033c:	defff104 	addi	sp,sp,-60
 2000340:	dfc00e15 	stw	ra,56(sp)
 2000344:	df000d15 	stw	fp,52(sp)
 2000348:	df000d04 	addi	fp,sp,52
 200034c:	e13ffe15 	stw	r4,-8(fp)
 2000350:	2805883a 	mov	r2,r5
 2000354:	e0bfff05 	stb	r2,-4(fp)
    int x,y;
    alt_u32 Value32;
    char szText[32];


    for(y=0;y<pDisplay->height;y++){
 2000358:	e03ff415 	stw	zero,-48(fp)
 200035c:	00002206 	br	20003e8 <VPG_Grid+0xac>
        for(x=0;x<pDisplay->width;x++){
 2000360:	e03ff315 	stw	zero,-52(fp)
 2000364:	00001906 	br	20003cc <VPG_Grid+0x90>
            if (x%GridSize == 0 || y%GridSize == 0)
 2000368:	e0bfff03 	ldbu	r2,-4(fp)
 200036c:	e0fff317 	ldw	r3,-52(fp)
 2000370:	1809883a 	mov	r4,r3
 2000374:	100b883a 	mov	r5,r2
 2000378:	200a5240 	call	200a524 <__modsi3>
 200037c:	10000626 	beq	r2,zero,2000398 <VPG_Grid+0x5c>
 2000380:	e0bfff03 	ldbu	r2,-4(fp)
 2000384:	e0fff417 	ldw	r3,-48(fp)
 2000388:	1809883a 	mov	r4,r3
 200038c:	100b883a 	mov	r5,r2
 2000390:	200a5240 	call	200a524 <__modsi3>
 2000394:	1000041e 	bne	r2,zero,20003a8 <VPG_Grid+0x6c>
                Value32 = WHITE_24;
 2000398:	00804034 	movhi	r2,256
 200039c:	10bfffc4 	addi	r2,r2,-1
 20003a0:	e0bff515 	stw	r2,-44(fp)
 20003a4:	00000106 	br	20003ac <VPG_Grid+0x70>
            else
                Value32 = BLACK_24;
 20003a8:	e03ff515 	stw	zero,-44(fp)
            vid_set_pixel(x,y,Value32, pDisplay);
 20003ac:	e13ff317 	ldw	r4,-52(fp)
 20003b0:	e17ff417 	ldw	r5,-48(fp)
 20003b4:	e1bff517 	ldw	r6,-44(fp)
 20003b8:	e1fffe17 	ldw	r7,-8(fp)
 20003bc:	2006f6c0 	call	2006f6c <vid_set_pixel>
    alt_u32 Value32;
    char szText[32];


    for(y=0;y<pDisplay->height;y++){
        for(x=0;x<pDisplay->width;x++){
 20003c0:	e0bff317 	ldw	r2,-52(fp)
 20003c4:	10800044 	addi	r2,r2,1
 20003c8:	e0bff315 	stw	r2,-52(fp)
 20003cc:	e0bffe17 	ldw	r2,-8(fp)
 20003d0:	10800117 	ldw	r2,4(r2)
 20003d4:	e0fff317 	ldw	r3,-52(fp)
 20003d8:	18bfe316 	blt	r3,r2,2000368 <__reset+0xfdff8b68>
    int x,y;
    alt_u32 Value32;
    char szText[32];


    for(y=0;y<pDisplay->height;y++){
 20003dc:	e0bff417 	ldw	r2,-48(fp)
 20003e0:	10800044 	addi	r2,r2,1
 20003e4:	e0bff415 	stw	r2,-48(fp)
 20003e8:	e0bffe17 	ldw	r2,-8(fp)
 20003ec:	10800217 	ldw	r2,8(r2)
 20003f0:	e0fff417 	ldw	r3,-48(fp)
 20003f4:	18bfda16 	blt	r3,r2,2000360 <__reset+0xfdff8b60>
            vid_set_pixel(x,y,Value32, pDisplay);
        }

    }
    // show text
    sprintf(szText,"Grid%d", GridSize);
 20003f8:	e0bfff03 	ldbu	r2,-4(fp)
 20003fc:	e0fff604 	addi	r3,fp,-40
 2000400:	1809883a 	mov	r4,r3
 2000404:	01408074 	movhi	r5,513
 2000408:	29474f04 	addi	r5,r5,7484
 200040c:	100d883a 	mov	r6,r2
 2000410:	200d25c0 	call	200d25c <sprintf>
    ShowInfo(pDisplay, szText);
 2000414:	e0bff604 	addi	r2,fp,-40
 2000418:	e13ffe17 	ldw	r4,-8(fp)
 200041c:	100b883a 	mov	r5,r2
 2000420:	20002080 	call	2000208 <ShowInfo>

}
 2000424:	e037883a 	mov	sp,fp
 2000428:	dfc00117 	ldw	ra,4(sp)
 200042c:	df000017 	ldw	fp,0(sp)
 2000430:	dec00204 	addi	sp,sp,8
 2000434:	f800283a 	ret

02000438 <VPG_VGrid>:

void VPG_VGrid(alt_video_display *pDisplay, alt_u8 GridSize){
 2000438:	defff104 	addi	sp,sp,-60
 200043c:	dfc00e15 	stw	ra,56(sp)
 2000440:	df000d15 	stw	fp,52(sp)
 2000444:	df000d04 	addi	fp,sp,52
 2000448:	e13ffe15 	stw	r4,-8(fp)
 200044c:	2805883a 	mov	r2,r5
 2000450:	e0bfff05 	stb	r2,-4(fp)
    int x,y;
    alt_u32 Value32;
    char szText[32];


    for(y=0;y<pDisplay->height;y++){
 2000454:	e03ff415 	stw	zero,-48(fp)
 2000458:	00001c06 	br	20004cc <VPG_VGrid+0x94>
        for(x=0;x<pDisplay->width;x++){
 200045c:	e03ff315 	stw	zero,-52(fp)
 2000460:	00001306 	br	20004b0 <VPG_VGrid+0x78>
            if (x%GridSize == 0)
 2000464:	e0bfff03 	ldbu	r2,-4(fp)
 2000468:	e0fff317 	ldw	r3,-52(fp)
 200046c:	1809883a 	mov	r4,r3
 2000470:	100b883a 	mov	r5,r2
 2000474:	200a5240 	call	200a524 <__modsi3>
 2000478:	1000041e 	bne	r2,zero,200048c <VPG_VGrid+0x54>
                Value32 = WHITE_24;
 200047c:	00804034 	movhi	r2,256
 2000480:	10bfffc4 	addi	r2,r2,-1
 2000484:	e0bff515 	stw	r2,-44(fp)
 2000488:	00000106 	br	2000490 <VPG_VGrid+0x58>
            else
                Value32 = BLACK_24;
 200048c:	e03ff515 	stw	zero,-44(fp)
            vid_set_pixel(x,y,Value32, pDisplay);
 2000490:	e13ff317 	ldw	r4,-52(fp)
 2000494:	e17ff417 	ldw	r5,-48(fp)
 2000498:	e1bff517 	ldw	r6,-44(fp)
 200049c:	e1fffe17 	ldw	r7,-8(fp)
 20004a0:	2006f6c0 	call	2006f6c <vid_set_pixel>
    alt_u32 Value32;
    char szText[32];


    for(y=0;y<pDisplay->height;y++){
        for(x=0;x<pDisplay->width;x++){
 20004a4:	e0bff317 	ldw	r2,-52(fp)
 20004a8:	10800044 	addi	r2,r2,1
 20004ac:	e0bff315 	stw	r2,-52(fp)
 20004b0:	e0bffe17 	ldw	r2,-8(fp)
 20004b4:	10800117 	ldw	r2,4(r2)
 20004b8:	e0fff317 	ldw	r3,-52(fp)
 20004bc:	18bfe916 	blt	r3,r2,2000464 <__reset+0xfdff8c64>
    int x,y;
    alt_u32 Value32;
    char szText[32];


    for(y=0;y<pDisplay->height;y++){
 20004c0:	e0bff417 	ldw	r2,-48(fp)
 20004c4:	10800044 	addi	r2,r2,1
 20004c8:	e0bff415 	stw	r2,-48(fp)
 20004cc:	e0bffe17 	ldw	r2,-8(fp)
 20004d0:	10800217 	ldw	r2,8(r2)
 20004d4:	e0fff417 	ldw	r3,-48(fp)
 20004d8:	18bfe016 	blt	r3,r2,200045c <__reset+0xfdff8c5c>
            vid_set_pixel(x,y,Value32, pDisplay);
        }

    }
    // show text
    sprintf(szText,"VGrid%d", GridSize);
 20004dc:	e0bfff03 	ldbu	r2,-4(fp)
 20004e0:	e0fff604 	addi	r3,fp,-40
 20004e4:	1809883a 	mov	r4,r3
 20004e8:	01408074 	movhi	r5,513
 20004ec:	29475104 	addi	r5,r5,7492
 20004f0:	100d883a 	mov	r6,r2
 20004f4:	200d25c0 	call	200d25c <sprintf>
    ShowInfo(pDisplay, szText);
 20004f8:	e0bff604 	addi	r2,fp,-40
 20004fc:	e13ffe17 	ldw	r4,-8(fp)
 2000500:	100b883a 	mov	r5,r2
 2000504:	20002080 	call	2000208 <ShowInfo>

}
 2000508:	e037883a 	mov	sp,fp
 200050c:	dfc00117 	ldw	ra,4(sp)
 2000510:	df000017 	ldw	fp,0(sp)
 2000514:	dec00204 	addi	sp,sp,8
 2000518:	f800283a 	ret

0200051c <VPG_HGrid>:

void VPG_HGrid(alt_video_display *pDisplay, alt_u8 GridSize){
 200051c:	defff104 	addi	sp,sp,-60
 2000520:	dfc00e15 	stw	ra,56(sp)
 2000524:	df000d15 	stw	fp,52(sp)
 2000528:	df000d04 	addi	fp,sp,52
 200052c:	e13ffe15 	stw	r4,-8(fp)
 2000530:	2805883a 	mov	r2,r5
 2000534:	e0bfff05 	stb	r2,-4(fp)
    int x,y;
    alt_u32 Value32;
    char szText[32];

    for(y=0;y<pDisplay->height;y++){
 2000538:	e03ff415 	stw	zero,-48(fp)
 200053c:	00001c06 	br	20005b0 <VPG_HGrid+0x94>
        for(x=0;x<pDisplay->width;x++){
 2000540:	e03ff315 	stw	zero,-52(fp)
 2000544:	00001306 	br	2000594 <VPG_HGrid+0x78>
            if (y%GridSize == 0)
 2000548:	e0bfff03 	ldbu	r2,-4(fp)
 200054c:	e0fff417 	ldw	r3,-48(fp)
 2000550:	1809883a 	mov	r4,r3
 2000554:	100b883a 	mov	r5,r2
 2000558:	200a5240 	call	200a524 <__modsi3>
 200055c:	1000041e 	bne	r2,zero,2000570 <VPG_HGrid+0x54>
                Value32 = WHITE_24;
 2000560:	00804034 	movhi	r2,256
 2000564:	10bfffc4 	addi	r2,r2,-1
 2000568:	e0bff515 	stw	r2,-44(fp)
 200056c:	00000106 	br	2000574 <VPG_HGrid+0x58>
            else
                Value32 = BLACK_24;
 2000570:	e03ff515 	stw	zero,-44(fp)
            vid_set_pixel(x,y,Value32, pDisplay);
 2000574:	e13ff317 	ldw	r4,-52(fp)
 2000578:	e17ff417 	ldw	r5,-48(fp)
 200057c:	e1bff517 	ldw	r6,-44(fp)
 2000580:	e1fffe17 	ldw	r7,-8(fp)
 2000584:	2006f6c0 	call	2006f6c <vid_set_pixel>
    int x,y;
    alt_u32 Value32;
    char szText[32];

    for(y=0;y<pDisplay->height;y++){
        for(x=0;x<pDisplay->width;x++){
 2000588:	e0bff317 	ldw	r2,-52(fp)
 200058c:	10800044 	addi	r2,r2,1
 2000590:	e0bff315 	stw	r2,-52(fp)
 2000594:	e0bffe17 	ldw	r2,-8(fp)
 2000598:	10800117 	ldw	r2,4(r2)
 200059c:	e0fff317 	ldw	r3,-52(fp)
 20005a0:	18bfe916 	blt	r3,r2,2000548 <__reset+0xfdff8d48>
void VPG_HGrid(alt_video_display *pDisplay, alt_u8 GridSize){
    int x,y;
    alt_u32 Value32;
    char szText[32];

    for(y=0;y<pDisplay->height;y++){
 20005a4:	e0bff417 	ldw	r2,-48(fp)
 20005a8:	10800044 	addi	r2,r2,1
 20005ac:	e0bff415 	stw	r2,-48(fp)
 20005b0:	e0bffe17 	ldw	r2,-8(fp)
 20005b4:	10800217 	ldw	r2,8(r2)
 20005b8:	e0fff417 	ldw	r3,-48(fp)
 20005bc:	18bfe016 	blt	r3,r2,2000540 <__reset+0xfdff8d40>
            vid_set_pixel(x,y,Value32, pDisplay);
        }

    }
    // show text
    sprintf(szText,"HGrid%d", GridSize);
 20005c0:	e0bfff03 	ldbu	r2,-4(fp)
 20005c4:	e0fff604 	addi	r3,fp,-40
 20005c8:	1809883a 	mov	r4,r3
 20005cc:	01408074 	movhi	r5,513
 20005d0:	29475304 	addi	r5,r5,7500
 20005d4:	100d883a 	mov	r6,r2
 20005d8:	200d25c0 	call	200d25c <sprintf>
    ShowInfo(pDisplay, szText);
 20005dc:	e0bff604 	addi	r2,fp,-40
 20005e0:	e13ffe17 	ldw	r4,-8(fp)
 20005e4:	100b883a 	mov	r5,r2
 20005e8:	20002080 	call	2000208 <ShowInfo>

}
 20005ec:	e037883a 	mov	sp,fp
 20005f0:	dfc00117 	ldw	ra,4(sp)
 20005f4:	df000017 	ldw	fp,0(sp)
 20005f8:	dec00204 	addi	sp,sp,8
 20005fc:	f800283a 	ret

02000600 <VPG_ColorBar>:




void VPG_ColorBar(alt_video_display *pDisplay){
 2000600:	defffa04 	addi	sp,sp,-24
 2000604:	dfc00515 	stw	ra,20(sp)
 2000608:	df000415 	stw	fp,16(sp)
 200060c:	df000404 	addi	fp,sp,16
 2000610:	e13fff15 	stw	r4,-4(fp)
    int x,y;
    alt_u32 Value32;

    for(y=0;y<pDisplay->height;y++){
 2000614:	e03ffd15 	stw	zero,-12(fp)
 2000618:	00005c06 	br	200078c <VPG_ColorBar+0x18c>
        for(x=0;x<pDisplay->width;x++){
 200061c:	e03ffc15 	stw	zero,-16(fp)
 2000620:	00005306 	br	2000770 <VPG_ColorBar+0x170>
            if (x == 0 || y == 0 || x == pDisplay->width-1 || y == pDisplay->height-1){
 2000624:	e0bffc17 	ldw	r2,-16(fp)
 2000628:	10000c26 	beq	r2,zero,200065c <VPG_ColorBar+0x5c>
 200062c:	e0bffd17 	ldw	r2,-12(fp)
 2000630:	10000a26 	beq	r2,zero,200065c <VPG_ColorBar+0x5c>
 2000634:	e0bfff17 	ldw	r2,-4(fp)
 2000638:	10800117 	ldw	r2,4(r2)
 200063c:	10ffffc4 	addi	r3,r2,-1
 2000640:	e0bffc17 	ldw	r2,-16(fp)
 2000644:	18800526 	beq	r3,r2,200065c <VPG_ColorBar+0x5c>
 2000648:	e0bfff17 	ldw	r2,-4(fp)
 200064c:	10800217 	ldw	r2,8(r2)
 2000650:	10ffffc4 	addi	r3,r2,-1
 2000654:	e0bffd17 	ldw	r2,-12(fp)
 2000658:	1880041e 	bne	r3,r2,200066c <VPG_ColorBar+0x6c>
                Value32 = WHITE_24;
 200065c:	00804034 	movhi	r2,256
 2000660:	10bfffc4 	addi	r2,r2,-1
 2000664:	e0bffe15 	stw	r2,-8(fp)
 2000668:	00003906 	br	2000750 <VPG_ColorBar+0x150>
            }else if (y < pDisplay->height/4){
 200066c:	e0bfff17 	ldw	r2,-4(fp)
 2000670:	10800217 	ldw	r2,8(r2)
 2000674:	1000010e 	bge	r2,zero,200067c <VPG_ColorBar+0x7c>
 2000678:	108000c4 	addi	r2,r2,3
 200067c:	1005d0ba 	srai	r2,r2,2
 2000680:	1007883a 	mov	r3,r2
 2000684:	e0bffd17 	ldw	r2,-12(fp)
 2000688:	10c0040e 	bge	r2,r3,200069c <VPG_ColorBar+0x9c>
                // red
                Value32 = x & 0xFF;
 200068c:	e0bffc17 	ldw	r2,-16(fp)
 2000690:	10803fcc 	andi	r2,r2,255
 2000694:	e0bffe15 	stw	r2,-8(fp)
 2000698:	00002d06 	br	2000750 <VPG_ColorBar+0x150>
            }else if (y < pDisplay->height/2){
 200069c:	e0bfff17 	ldw	r2,-4(fp)
 20006a0:	10800217 	ldw	r2,8(r2)
 20006a4:	1006d7fa 	srli	r3,r2,31
 20006a8:	1885883a 	add	r2,r3,r2
 20006ac:	1005d07a 	srai	r2,r2,1
 20006b0:	1007883a 	mov	r3,r2
 20006b4:	e0bffd17 	ldw	r2,-12(fp)
 20006b8:	10c0050e 	bge	r2,r3,20006d0 <VPG_ColorBar+0xd0>
                Value32 = (x & 0xFF) << 8;
 20006bc:	e0bffc17 	ldw	r2,-16(fp)
 20006c0:	1004923a 	slli	r2,r2,8
 20006c4:	10bfffcc 	andi	r2,r2,65535
 20006c8:	e0bffe15 	stw	r2,-8(fp)
 20006cc:	00002006 	br	2000750 <VPG_ColorBar+0x150>
            }else if (y < pDisplay->height*3/4){
 20006d0:	e0bfff17 	ldw	r2,-4(fp)
 20006d4:	10c00217 	ldw	r3,8(r2)
 20006d8:	1805883a 	mov	r2,r3
 20006dc:	1085883a 	add	r2,r2,r2
 20006e0:	10c5883a 	add	r2,r2,r3
 20006e4:	1000010e 	bge	r2,zero,20006ec <VPG_ColorBar+0xec>
 20006e8:	108000c4 	addi	r2,r2,3
 20006ec:	1005d0ba 	srai	r2,r2,2
 20006f0:	1007883a 	mov	r3,r2
 20006f4:	e0bffd17 	ldw	r2,-12(fp)
 20006f8:	10c0050e 	bge	r2,r3,2000710 <VPG_ColorBar+0x110>
                Value32 = (x & 0xFF) << 16;
 20006fc:	e0bffc17 	ldw	r2,-16(fp)
 2000700:	10803fcc 	andi	r2,r2,255
 2000704:	1004943a 	slli	r2,r2,16
 2000708:	e0bffe15 	stw	r2,-8(fp)
 200070c:	00001006 	br	2000750 <VPG_ColorBar+0x150>
            }else{
                Value32 = x & 0xFF;
 2000710:	e0bffc17 	ldw	r2,-16(fp)
 2000714:	10803fcc 	andi	r2,r2,255
 2000718:	e0bffe15 	stw	r2,-8(fp)
                Value32 |= (x & 0xFF) << 8;
 200071c:	e0bffc17 	ldw	r2,-16(fp)
 2000720:	1004923a 	slli	r2,r2,8
 2000724:	10bfffcc 	andi	r2,r2,65535
 2000728:	e0fffe17 	ldw	r3,-8(fp)
 200072c:	1884b03a 	or	r2,r3,r2
 2000730:	e0bffe15 	stw	r2,-8(fp)
                Value32 |= (x & 0xFF) << 16;
 2000734:	e0bffc17 	ldw	r2,-16(fp)
 2000738:	10803fcc 	andi	r2,r2,255
 200073c:	1004943a 	slli	r2,r2,16
 2000740:	1007883a 	mov	r3,r2
 2000744:	e0bffe17 	ldw	r2,-8(fp)
 2000748:	10c4b03a 	or	r2,r2,r3
 200074c:	e0bffe15 	stw	r2,-8(fp)
            }
            vid_set_pixel(x,y,Value32, pDisplay);
 2000750:	e13ffc17 	ldw	r4,-16(fp)
 2000754:	e17ffd17 	ldw	r5,-12(fp)
 2000758:	e1bffe17 	ldw	r6,-8(fp)
 200075c:	e1ffff17 	ldw	r7,-4(fp)
 2000760:	2006f6c0 	call	2006f6c <vid_set_pixel>
void VPG_ColorBar(alt_video_display *pDisplay){
    int x,y;
    alt_u32 Value32;

    for(y=0;y<pDisplay->height;y++){
        for(x=0;x<pDisplay->width;x++){
 2000764:	e0bffc17 	ldw	r2,-16(fp)
 2000768:	10800044 	addi	r2,r2,1
 200076c:	e0bffc15 	stw	r2,-16(fp)
 2000770:	e0bfff17 	ldw	r2,-4(fp)
 2000774:	10800117 	ldw	r2,4(r2)
 2000778:	e0fffc17 	ldw	r3,-16(fp)
 200077c:	18bfa916 	blt	r3,r2,2000624 <__reset+0xfdff8e24>

void VPG_ColorBar(alt_video_display *pDisplay){
    int x,y;
    alt_u32 Value32;

    for(y=0;y<pDisplay->height;y++){
 2000780:	e0bffd17 	ldw	r2,-12(fp)
 2000784:	10800044 	addi	r2,r2,1
 2000788:	e0bffd15 	stw	r2,-12(fp)
 200078c:	e0bfff17 	ldw	r2,-4(fp)
 2000790:	10800217 	ldw	r2,8(r2)
 2000794:	e0fffd17 	ldw	r3,-12(fp)
 2000798:	18bfa016 	blt	r3,r2,200061c <__reset+0xfdff8e1c>

        }

    }

}
 200079c:	e037883a 	mov	sp,fp
 20007a0:	dfc00117 	ldw	ra,4(sp)
 20007a4:	df000017 	ldw	fp,0(sp)
 20007a8:	dec00204 	addi	sp,sp,8
 20007ac:	f800283a 	ret

020007b0 <GUI_ShowPAT>:


void GUI_ShowPAT(alt_video_display *pDisplay, int PatId){
 20007b0:	defffc04 	addi	sp,sp,-16
 20007b4:	dfc00315 	stw	ra,12(sp)
 20007b8:	df000215 	stw	fp,8(sp)
 20007bc:	df000204 	addi	fp,sp,8
 20007c0:	e13ffe15 	stw	r4,-8(fp)
 20007c4:	e17fff15 	stw	r5,-4(fp)

                switch(PatId){
 20007c8:	e0bfff17 	ldw	r2,-4(fp)
 20007cc:	108003e8 	cmpgeui	r2,r2,15
 20007d0:	1000511e 	bne	r2,zero,2000918 <GUI_ShowPAT+0x168>
 20007d4:	e0bfff17 	ldw	r2,-4(fp)
 20007d8:	100690ba 	slli	r3,r2,2
 20007dc:	00808034 	movhi	r2,512
 20007e0:	1081fc04 	addi	r2,r2,2032
 20007e4:	1885883a 	add	r2,r3,r2
 20007e8:	10800017 	ldw	r2,0(r2)
 20007ec:	1000683a 	jmp	r2
 20007f0:	0200082c 	andhi	r8,zero,32
 20007f4:	02000838 	rdprs	r8,zero,32
 20007f8:	0200084c 	andi	r8,zero,33
 20007fc:	0200085c 	xori	r8,zero,33
 2000800:	0200086c 	andhi	r8,zero,33
 2000804:	0200087c 	xorhi	r8,zero,33
 2000808:	02000888 	cmpgei	r8,zero,34
 200080c:	02000898 	cmpnei	r8,zero,34
 2000810:	020008a8 	cmpgeui	r8,zero,34
 2000814:	020008b8 	rdprs	r8,zero,34
 2000818:	020008c8 	cmpgei	r8,zero,35
 200081c:	020008d8 	cmpnei	r8,zero,35
 2000820:	020008e8 	cmpgeui	r8,zero,35
 2000824:	020008f8 	rdprs	r8,zero,35
 2000828:	02000908 	cmpgei	r8,zero,36
                    case 0: VPG_ColorBar(pDisplay); break;
 200082c:	e13ffe17 	ldw	r4,-8(fp)
 2000830:	20006000 	call	2000600 <VPG_ColorBar>
 2000834:	00003806 	br	2000918 <GUI_ShowPAT+0x168>
                    case 1: VPG_ColorPanel(pDisplay, WHITE_24); break;
 2000838:	e13ffe17 	ldw	r4,-8(fp)
 200083c:	01404034 	movhi	r5,256
 2000840:	297fffc4 	addi	r5,r5,-1
 2000844:	200028c0 	call	200028c <VPG_ColorPanel>
 2000848:	00003306 	br	2000918 <GUI_ShowPAT+0x168>
                    case 2: VPG_ColorPanel(pDisplay, RED_24); break;
 200084c:	e13ffe17 	ldw	r4,-8(fp)
 2000850:	01403ff4 	movhi	r5,255
 2000854:	200028c0 	call	200028c <VPG_ColorPanel>
 2000858:	00002f06 	br	2000918 <GUI_ShowPAT+0x168>
                    case 3: VPG_ColorPanel(pDisplay, GREEN_24); break;
 200085c:	e13ffe17 	ldw	r4,-8(fp)
 2000860:	01600014 	movui	r5,32768
 2000864:	200028c0 	call	200028c <VPG_ColorPanel>
 2000868:	00002b06 	br	2000918 <GUI_ShowPAT+0x168>
                    case 4: VPG_ColorPanel(pDisplay, BLUE_24); break;
 200086c:	e13ffe17 	ldw	r4,-8(fp)
 2000870:	01403fc4 	movi	r5,255
 2000874:	200028c0 	call	200028c <VPG_ColorPanel>
 2000878:	00002706 	br	2000918 <GUI_ShowPAT+0x168>
                    case 5: VPG_XLine(pDisplay); break;
 200087c:	e13ffe17 	ldw	r4,-8(fp)
 2000880:	20002680 	call	2000268 <VPG_XLine>
 2000884:	00002406 	br	2000918 <GUI_ShowPAT+0x168>
                    case 6: VPG_VGrid(pDisplay, 2); break;
 2000888:	e13ffe17 	ldw	r4,-8(fp)
 200088c:	01400084 	movi	r5,2
 2000890:	20004380 	call	2000438 <VPG_VGrid>
 2000894:	00002006 	br	2000918 <GUI_ShowPAT+0x168>
                    case 7: VPG_VGrid(pDisplay, 4); break;
 2000898:	e13ffe17 	ldw	r4,-8(fp)
 200089c:	01400104 	movi	r5,4
 20008a0:	20004380 	call	2000438 <VPG_VGrid>
 20008a4:	00001c06 	br	2000918 <GUI_ShowPAT+0x168>
                    case 8: VPG_VGrid(pDisplay, 8); break;
 20008a8:	e13ffe17 	ldw	r4,-8(fp)
 20008ac:	01400204 	movi	r5,8
 20008b0:	20004380 	call	2000438 <VPG_VGrid>
 20008b4:	00001806 	br	2000918 <GUI_ShowPAT+0x168>
                    case 9: VPG_HGrid(pDisplay, 2); break;
 20008b8:	e13ffe17 	ldw	r4,-8(fp)
 20008bc:	01400084 	movi	r5,2
 20008c0:	200051c0 	call	200051c <VPG_HGrid>
 20008c4:	00001406 	br	2000918 <GUI_ShowPAT+0x168>
                    case 10: VPG_HGrid(pDisplay, 4); break;
 20008c8:	e13ffe17 	ldw	r4,-8(fp)
 20008cc:	01400104 	movi	r5,4
 20008d0:	200051c0 	call	200051c <VPG_HGrid>
 20008d4:	00001006 	br	2000918 <GUI_ShowPAT+0x168>
                    case 11: VPG_HGrid(pDisplay, 8); break;
 20008d8:	e13ffe17 	ldw	r4,-8(fp)
 20008dc:	01400204 	movi	r5,8
 20008e0:	200051c0 	call	200051c <VPG_HGrid>
 20008e4:	00000c06 	br	2000918 <GUI_ShowPAT+0x168>
                    case 12: VPG_Grid(pDisplay, 2); break;
 20008e8:	e13ffe17 	ldw	r4,-8(fp)
 20008ec:	01400084 	movi	r5,2
 20008f0:	200033c0 	call	200033c <VPG_Grid>
 20008f4:	00000806 	br	2000918 <GUI_ShowPAT+0x168>
                    case 13: VPG_Grid(pDisplay, 4); break;
 20008f8:	e13ffe17 	ldw	r4,-8(fp)
 20008fc:	01400104 	movi	r5,4
 2000900:	200033c0 	call	200033c <VPG_Grid>
 2000904:	00000406 	br	2000918 <GUI_ShowPAT+0x168>
                    case 14: VPG_Grid(pDisplay, 8); break;
 2000908:	e13ffe17 	ldw	r4,-8(fp)
 200090c:	01400204 	movi	r5,8
 2000910:	200033c0 	call	200033c <VPG_Grid>
 2000914:	0001883a 	nop
                }

}
 2000918:	e037883a 	mov	sp,fp
 200091c:	dfc00117 	ldw	ra,4(sp)
 2000920:	df000017 	ldw	fp,0(sp)
 2000924:	dec00204 	addi	sp,sp,8
 2000928:	f800283a 	ret

0200092c <GUI_VPG>:

void GUI_VPG(alt_video_display *pDisplay, TOUCH_HANDLE *pTouch){
 200092c:	defff904 	addi	sp,sp,-28
 2000930:	dfc00615 	stw	ra,24(sp)
 2000934:	df000515 	stw	fp,20(sp)
 2000938:	df000504 	addi	fp,sp,20
 200093c:	e13ffe15 	stw	r4,-8(fp)
 2000940:	e17fff15 	stw	r5,-4(fp)
	int X, Y;
	int PatId = 0;
 2000944:	e03ffb15 	stw	zero,-20(fp)

    // clean screen
    vid_clean_screen(pDisplay, BLACK_24);
 2000948:	e13ffe17 	ldw	r4,-8(fp)
 200094c:	000b883a 	mov	r5,zero
 2000950:	20064ec0 	call	20064ec <vid_clean_screen>


    VPG_ColorBar(pDisplay);
 2000954:	e13ffe17 	ldw	r4,-8(fp)
 2000958:	20006000 	call	2000600 <VPG_ColorBar>

    GUI_ShowPAT(pDisplay, PatId);
 200095c:	e13ffe17 	ldw	r4,-8(fp)
 2000960:	e17ffb17 	ldw	r5,-20(fp)
 2000964:	20007b00 	call	20007b0 <GUI_ShowPAT>

    while(1){
        if (Touch_GetXY(pTouch, &X, &Y)){
 2000968:	e0fffc04 	addi	r3,fp,-16
 200096c:	e0bffd04 	addi	r2,fp,-12
 2000970:	e13fff17 	ldw	r4,-4(fp)
 2000974:	180b883a 	mov	r5,r3
 2000978:	100d883a 	mov	r6,r2
 200097c:	20098000 	call	2009800 <Touch_GetXY>
 2000980:	10001326 	beq	r2,zero,20009d0 <GUI_VPG+0xa4>
            //printf(".");

            // change pattern
            PatId++;
 2000984:	e0bffb17 	ldw	r2,-20(fp)
 2000988:	10800044 	addi	r2,r2,1
 200098c:	e0bffb15 	stw	r2,-20(fp)
            if (PatId > 14)
 2000990:	e0bffb17 	ldw	r2,-20(fp)
 2000994:	108003d0 	cmplti	r2,r2,15
 2000998:	1000011e 	bne	r2,zero,20009a0 <GUI_VPG+0x74>
                PatId = 0;
 200099c:	e03ffb15 	stw	zero,-20(fp)

            printf("PatId=%d\r\n", PatId);
 20009a0:	01008074 	movhi	r4,513
 20009a4:	21075504 	addi	r4,r4,7508
 20009a8:	e17ffb17 	ldw	r5,-20(fp)
 20009ac:	200d0c80 	call	200d0c8 <printf>
            GUI_ShowPAT(pDisplay, PatId);
 20009b0:	e13ffe17 	ldw	r4,-8(fp)
 20009b4:	e17ffb17 	ldw	r5,-20(fp)
 20009b8:	20007b00 	call	20007b0 <GUI_ShowPAT>
            usleep(300*1000); // debounce
 20009bc:	01000174 	movhi	r4,5
 20009c0:	2124f804 	addi	r4,r4,-27680
 20009c4:	200ec680 	call	200ec68 <usleep>
            Touch_EmptyFifo( pTouch);
 20009c8:	e13fff17 	ldw	r4,-4(fp)
 20009cc:	20097c80 	call	20097c8 <Touch_EmptyFifo>
        }
    }
 20009d0:	003fe506 	br	2000968 <__reset+0xfdff9168>

020009d4 <GUI_ROBINSUN_CheckButton>:
    BUTTON_INFO buttons_competitionchoice2[6];
    BUTTON_INFO buttons_competitionsummary[8];
}DESK_INFO;

// Checks if we touched a button
int GUI_ROBINSUN_CheckButton(DESK_INFO *pDeskInfo, POINT *pt, BUTTON_INFO *button, int num, int none){
 20009d4:	defff804 	addi	sp,sp,-32
 20009d8:	dfc00715 	stw	ra,28(sp)
 20009dc:	df000615 	stw	fp,24(sp)
 20009e0:	df000604 	addi	fp,sp,24
 20009e4:	e13ffc15 	stw	r4,-16(fp)
 20009e8:	e17ffd15 	stw	r5,-12(fp)
 20009ec:	e1bffe15 	stw	r6,-8(fp)
 20009f0:	e1ffff15 	stw	r7,-4(fp)
	int ButtonId = none;
 20009f4:	e0800217 	ldw	r2,8(fp)
 20009f8:	e0bffa15 	stw	r2,-24(fp)
	int i;

	for(i=0;i<num && (ButtonId == none);i++){
 20009fc:	e03ffb15 	stw	zero,-20(fp)
 2000a00:	00000d06 	br	2000a38 <GUI_ROBINSUN_CheckButton+0x64>
		if (IsPtInRect(pt, &button[i].rc))
 2000a04:	e0bffb17 	ldw	r2,-20(fp)
 2000a08:	10800524 	muli	r2,r2,20
 2000a0c:	e0fffe17 	ldw	r3,-8(fp)
 2000a10:	1885883a 	add	r2,r3,r2
 2000a14:	e13ffd17 	ldw	r4,-12(fp)
 2000a18:	100b883a 	mov	r5,r2
 2000a1c:	20060f80 	call	20060f8 <IsPtInRect>
 2000a20:	10000226 	beq	r2,zero,2000a2c <GUI_ROBINSUN_CheckButton+0x58>
			ButtonId = i;
 2000a24:	e0bffb17 	ldw	r2,-20(fp)
 2000a28:	e0bffa15 	stw	r2,-24(fp)
// Checks if we touched a button
int GUI_ROBINSUN_CheckButton(DESK_INFO *pDeskInfo, POINT *pt, BUTTON_INFO *button, int num, int none){
	int ButtonId = none;
	int i;

	for(i=0;i<num && (ButtonId == none);i++){
 2000a2c:	e0bffb17 	ldw	r2,-20(fp)
 2000a30:	10800044 	addi	r2,r2,1
 2000a34:	e0bffb15 	stw	r2,-20(fp)
 2000a38:	e0fffb17 	ldw	r3,-20(fp)
 2000a3c:	e0bfff17 	ldw	r2,-4(fp)
 2000a40:	1880030e 	bge	r3,r2,2000a50 <GUI_ROBINSUN_CheckButton+0x7c>
 2000a44:	e0fffa17 	ldw	r3,-24(fp)
 2000a48:	e0800217 	ldw	r2,8(fp)
 2000a4c:	18bfed26 	beq	r3,r2,2000a04 <__reset+0xfdff9204>
		if (IsPtInRect(pt, &button[i].rc))
			ButtonId = i;
	}
	return ButtonId;
 2000a50:	e0bffa17 	ldw	r2,-24(fp)
}
 2000a54:	e037883a 	mov	sp,fp
 2000a58:	dfc00117 	ldw	ra,4(sp)
 2000a5c:	df000017 	ldw	fp,0(sp)
 2000a60:	dec00204 	addi	sp,sp,8
 2000a64:	f800283a 	ret

02000a68 <GUI_ROBINSUN_ShowWelcome>:
// ------------------------------------------------------------------------------ //
// ----------------------- BEGIN OF THE DISPLAY FUNCTIONS ----------------------- //
// ------------------------------------------------------------------------------ //

// Displays the starting message
void GUI_ROBINSUN_ShowWelcome(alt_video_display *pDisplay){
 2000a68:	defff804 	addi	sp,sp,-32
 2000a6c:	dfc00715 	stw	ra,28(sp)
 2000a70:	df000615 	stw	fp,24(sp)
 2000a74:	df000604 	addi	fp,sp,24
 2000a78:	e13fff15 	stw	r4,-4(fp)
	int x, y;

	// SCREEN_WIDTH = 240
	// SCREEN_HEIGHT = 320
	x = pDisplay->width / 2;	// 60 = 9mm   SCREEN = 36.5mm
 2000a7c:	e0bfff17 	ldw	r2,-4(fp)
 2000a80:	10800117 	ldw	r2,4(r2)
 2000a84:	1006d7fa 	srli	r3,r2,31
 2000a88:	1885883a 	add	r2,r3,r2
 2000a8c:	1005d07a 	srai	r2,r2,1
 2000a90:	e0bffd15 	stw	r2,-12(fp)
	y = pDisplay->height / 2 - 50;	// 20 = 3mm
 2000a94:	e0bfff17 	ldw	r2,-4(fp)
 2000a98:	10800217 	ldw	r2,8(r2)
 2000a9c:	1006d7fa 	srli	r3,r2,31
 2000aa0:	1885883a 	add	r2,r3,r2
 2000aa4:	1005d07a 	srai	r2,r2,1
 2000aa8:	10bff384 	addi	r2,r2,-50
 2000aac:	e0bffe15 	stw	r2,-8(fp)

	vid_print_string_alpha(x - 77, y, WHITE_24, BLACK_24, tahomabold_32, pDisplay, "Welcome"); // Welcome = 23mm
 2000ab0:	e0bffd17 	ldw	r2,-12(fp)
 2000ab4:	10ffecc4 	addi	r3,r2,-77
 2000ab8:	008080f4 	movhi	r2,515
 2000abc:	10b28504 	addi	r2,r2,-13804
 2000ac0:	d8800015 	stw	r2,0(sp)
 2000ac4:	e0bfff17 	ldw	r2,-4(fp)
 2000ac8:	d8800115 	stw	r2,4(sp)
 2000acc:	00808074 	movhi	r2,513
 2000ad0:	10875804 	addi	r2,r2,7520
 2000ad4:	d8800215 	stw	r2,8(sp)
 2000ad8:	1809883a 	mov	r4,r3
 2000adc:	e17ffe17 	ldw	r5,-8(fp)
 2000ae0:	01804034 	movhi	r6,256
 2000ae4:	31bfffc4 	addi	r6,r6,-1
 2000ae8:	000f883a 	mov	r7,zero
 2000aec:	2008b400 	call	2008b40 <vid_print_string_alpha>
	vid_print_string_alpha(x - 57, y+40, BLUE_24, BLACK_24, tahomabold_20, pDisplay, "ROBINSUN"); // ROBINSUN = 17mm
 2000af0:	e0bffd17 	ldw	r2,-12(fp)
 2000af4:	113ff1c4 	addi	r4,r2,-57
 2000af8:	e0bffe17 	ldw	r2,-8(fp)
 2000afc:	10c00a04 	addi	r3,r2,40
 2000b00:	008080f4 	movhi	r2,515
 2000b04:	10af9504 	addi	r2,r2,-16812
 2000b08:	d8800015 	stw	r2,0(sp)
 2000b0c:	e0bfff17 	ldw	r2,-4(fp)
 2000b10:	d8800115 	stw	r2,4(sp)
 2000b14:	00808074 	movhi	r2,513
 2000b18:	10875a04 	addi	r2,r2,7528
 2000b1c:	d8800215 	stw	r2,8(sp)
 2000b20:	180b883a 	mov	r5,r3
 2000b24:	01803fc4 	movi	r6,255
 2000b28:	000f883a 	mov	r7,zero
 2000b2c:	2008b400 	call	2008b40 <vid_print_string_alpha>
	vid_print_string_alpha(x - 83, y+62, BLUE_24, BLACK_24, tahomabold_20, pDisplay, "Team's Member !"); // 25mm
 2000b30:	e0bffd17 	ldw	r2,-12(fp)
 2000b34:	113feb44 	addi	r4,r2,-83
 2000b38:	e0bffe17 	ldw	r2,-8(fp)
 2000b3c:	10c00f84 	addi	r3,r2,62
 2000b40:	008080f4 	movhi	r2,515
 2000b44:	10af9504 	addi	r2,r2,-16812
 2000b48:	d8800015 	stw	r2,0(sp)
 2000b4c:	e0bfff17 	ldw	r2,-4(fp)
 2000b50:	d8800115 	stw	r2,4(sp)
 2000b54:	00808074 	movhi	r2,513
 2000b58:	10875d04 	addi	r2,r2,7540
 2000b5c:	d8800215 	stw	r2,8(sp)
 2000b60:	180b883a 	mov	r5,r3
 2000b64:	01803fc4 	movi	r6,255
 2000b68:	000f883a 	mov	r7,zero
 2000b6c:	2008b400 	call	2008b40 <vid_print_string_alpha>
}
 2000b70:	e037883a 	mov	sp,fp
 2000b74:	dfc00117 	ldw	ra,4(sp)
 2000b78:	df000017 	ldw	fp,0(sp)
 2000b7c:	dec00204 	addi	sp,sp,8
 2000b80:	f800283a 	ret

02000b84 <GUI_ROBINSUN_Init>:

void GUI_ROBINSUN_Init(alt_video_display *pDisplay, DESK_INFO *pDeskInfo, BUTTON_INFO *button, int num){
 2000b84:	defff004 	addi	sp,sp,-64
 2000b88:	dfc00f15 	stw	ra,60(sp)
 2000b8c:	df000e15 	stw	fp,56(sp)
 2000b90:	df000e04 	addi	fp,sp,56
 2000b94:	e13ffc15 	stw	r4,-16(fp)
 2000b98:	e17ffd15 	stw	r5,-12(fp)
 2000b9c:	e1bffe15 	stw	r6,-8(fp)
 2000ba0:	e1ffff15 	stw	r7,-4(fp)
	int i;
	RECT rc;
	const int BoxH = 40;
 2000ba4:	00800a04 	movi	r2,40
 2000ba8:	e0bff415 	stw	r2,-48(fp)
	const int DistBorder = 2;
 2000bac:	00800084 	movi	r2,2
 2000bb0:	e0bff515 	stw	r2,-44(fp)
	const int DistW = 25;
 2000bb4:	00800644 	movi	r2,25
 2000bb8:	e0bff615 	stw	r2,-40(fp)
	int GapH;

	// Space to put between the buttons in order to be equally spaced
	GapH = (pDisplay->height - ((num)*BoxH))/(num+1);
 2000bbc:	e0bffc17 	ldw	r2,-16(fp)
 2000bc0:	10c00217 	ldw	r3,8(r2)
 2000bc4:	e13fff17 	ldw	r4,-4(fp)
 2000bc8:	e0bff417 	ldw	r2,-48(fp)
 2000bcc:	2085383a 	mul	r2,r4,r2
 2000bd0:	1887c83a 	sub	r3,r3,r2
 2000bd4:	e0bfff17 	ldw	r2,-4(fp)
 2000bd8:	10800044 	addi	r2,r2,1
 2000bdc:	1809883a 	mov	r4,r3
 2000be0:	100b883a 	mov	r5,r2
 2000be4:	200a4d00 	call	200a4d0 <__divsi3>
 2000be8:	e0bff715 	stw	r2,-36(fp)

	rc.top = DistBorder + GapH;
 2000bec:	e0fff517 	ldw	r3,-44(fp)
 2000bf0:	e0bff717 	ldw	r2,-36(fp)
 2000bf4:	1885883a 	add	r2,r3,r2
 2000bf8:	e0bffa15 	stw	r2,-24(fp)
	rc.bottom = rc.top + BoxH;
 2000bfc:	e0fffa17 	ldw	r3,-24(fp)
 2000c00:	e0bff417 	ldw	r2,-48(fp)
 2000c04:	1885883a 	add	r2,r3,r2
 2000c08:	e0bffb15 	stw	r2,-20(fp)
	rc.left = DistW;
 2000c0c:	e0bff617 	ldw	r2,-40(fp)
 2000c10:	e0bff815 	stw	r2,-32(fp)
	rc.right = pDisplay->width - DistW;
 2000c14:	e0bffc17 	ldw	r2,-16(fp)
 2000c18:	10c00117 	ldw	r3,4(r2)
 2000c1c:	e0bff617 	ldw	r2,-40(fp)
 2000c20:	1885c83a 	sub	r2,r3,r2
 2000c24:	e0bff915 	stw	r2,-28(fp)

	// Desk border
	RectSet(&pDeskInfo->rcDisp, DistBorder, pDisplay->width-DistBorder, DistBorder, pDisplay->height-DistBorder);
 2000c28:	e13ffd17 	ldw	r4,-12(fp)
 2000c2c:	e0bffc17 	ldw	r2,-16(fp)
 2000c30:	10c00117 	ldw	r3,4(r2)
 2000c34:	e0bff517 	ldw	r2,-44(fp)
 2000c38:	188dc83a 	sub	r6,r3,r2
 2000c3c:	e0bffc17 	ldw	r2,-16(fp)
 2000c40:	10c00217 	ldw	r3,8(r2)
 2000c44:	e0bff517 	ldw	r2,-44(fp)
 2000c48:	1885c83a 	sub	r2,r3,r2
 2000c4c:	d8800015 	stw	r2,0(sp)
 2000c50:	e17ff517 	ldw	r5,-44(fp)
 2000c54:	e1fff517 	ldw	r7,-44(fp)
 2000c58:	20061bc0 	call	20061bc <RectSet>

	// Initialization of the rectangles for the buttons
	for(i=0;i<num;i++){
 2000c5c:	e03ff315 	stw	zero,-52(fp)
 2000c60:	00001406 	br	2000cb4 <GUI_ROBINSUN_Init+0x130>
		RectCopy(&button[i].rc, &rc);
 2000c64:	e0bff317 	ldw	r2,-52(fp)
 2000c68:	10800524 	muli	r2,r2,20
 2000c6c:	e0fffe17 	ldw	r3,-8(fp)
 2000c70:	1885883a 	add	r2,r3,r2
 2000c74:	1007883a 	mov	r3,r2
 2000c78:	e0bff804 	addi	r2,fp,-32
 2000c7c:	1809883a 	mov	r4,r3
 2000c80:	100b883a 	mov	r5,r2
 2000c84:	20063280 	call	2006328 <RectCopy>
		RectOffset(&rc, 0, BoxH+GapH);
 2000c88:	e0fff417 	ldw	r3,-48(fp)
 2000c8c:	e0bff717 	ldw	r2,-36(fp)
 2000c90:	1885883a 	add	r2,r3,r2
 2000c94:	e0fff804 	addi	r3,fp,-32
 2000c98:	1809883a 	mov	r4,r3
 2000c9c:	000b883a 	mov	r5,zero
 2000ca0:	100d883a 	mov	r6,r2
 2000ca4:	20062a00 	call	20062a0 <RectOffset>

	// Desk border
	RectSet(&pDeskInfo->rcDisp, DistBorder, pDisplay->width-DistBorder, DistBorder, pDisplay->height-DistBorder);

	// Initialization of the rectangles for the buttons
	for(i=0;i<num;i++){
 2000ca8:	e0bff317 	ldw	r2,-52(fp)
 2000cac:	10800044 	addi	r2,r2,1
 2000cb0:	e0bff315 	stw	r2,-52(fp)
 2000cb4:	e0fff317 	ldw	r3,-52(fp)
 2000cb8:	e0bfff17 	ldw	r2,-4(fp)
 2000cbc:	18bfe916 	blt	r3,r2,2000c64 <__reset+0xfdff9464>
		RectCopy(&button[i].rc, &rc);
		RectOffset(&rc, 0, BoxH+GapH);
	}
}
 2000cc0:	e037883a 	mov	sp,fp
 2000cc4:	dfc00117 	ldw	ra,4(sp)
 2000cc8:	df000017 	ldw	fp,0(sp)
 2000ccc:	dec00204 	addi	sp,sp,8
 2000cd0:	f800283a 	ret

02000cd4 <GUI_ROBINSUN_Draw>:

void GUI_ROBINSUN_Draw(alt_video_display *pDisplay, DESK_INFO *pDeskInfo, BUTTON_INFO *button, int num, char *text1, char *text2, char *text3, char *text4, char *text5, char *text6){
 2000cd4:	defff004 	addi	sp,sp,-64
 2000cd8:	dfc00f15 	stw	ra,60(sp)
 2000cdc:	df000e15 	stw	fp,56(sp)
 2000ce0:	dc400d15 	stw	r17,52(sp)
 2000ce4:	dc000c15 	stw	r16,48(sp)
 2000ce8:	df000e04 	addi	fp,sp,56
 2000cec:	e13ffa15 	stw	r4,-24(fp)
 2000cf0:	e17ffb15 	stw	r5,-20(fp)
 2000cf4:	e1bffc15 	stw	r6,-16(fp)
 2000cf8:	e1fffd15 	stw	r7,-12(fp)
    int i;
    RECT rc;

    // draw border
    RectCopy(&rc, &pDeskInfo->rcDisp);
 2000cfc:	e0bffb17 	ldw	r2,-20(fp)
 2000d00:	e0fff604 	addi	r3,fp,-40
 2000d04:	1809883a 	mov	r4,r3
 2000d08:	100b883a 	mov	r5,r2
 2000d0c:	20063280 	call	2006328 <RectCopy>
    vid_draw_box (rc.left, rc.top, rc.right, rc.bottom, WHITE_24, DO_NOT_FILL, pDisplay);
 2000d10:	e13ff617 	ldw	r4,-40(fp)
 2000d14:	e17ff817 	ldw	r5,-32(fp)
 2000d18:	e1bff717 	ldw	r6,-36(fp)
 2000d1c:	e0fff917 	ldw	r3,-28(fp)
 2000d20:	00804034 	movhi	r2,256
 2000d24:	10bfffc4 	addi	r2,r2,-1
 2000d28:	d8800015 	stw	r2,0(sp)
 2000d2c:	d8000115 	stw	zero,4(sp)
 2000d30:	e0bffa17 	ldw	r2,-24(fp)
 2000d34:	d8800215 	stw	r2,8(sp)
 2000d38:	180f883a 	mov	r7,r3
 2000d3c:	2006d340 	call	2006d34 <vid_draw_box>

    // draw buttons
    for(i=0;i<num;i++){
 2000d40:	e03ff515 	stw	zero,-44(fp)
 2000d44:	00013c06 	br	2001238 <GUI_ROBINSUN_Draw+0x564>
        RectCopy(&rc, &button[i].rc);
 2000d48:	e0bff517 	ldw	r2,-44(fp)
 2000d4c:	10800524 	muli	r2,r2,20
 2000d50:	e0fffc17 	ldw	r3,-16(fp)
 2000d54:	1885883a 	add	r2,r3,r2
 2000d58:	1007883a 	mov	r3,r2
 2000d5c:	e0bff604 	addi	r2,fp,-40
 2000d60:	1009883a 	mov	r4,r2
 2000d64:	180b883a 	mov	r5,r3
 2000d68:	20063280 	call	2006328 <RectCopy>
        if (i == 0){
 2000d6c:	e0bff517 	ldw	r2,-44(fp)
 2000d70:	1000301e 	bne	r2,zero,2000e34 <GUI_ROBINSUN_Draw+0x160>
        	vid_draw_box (rc.left, rc.top, rc.right, rc.bottom, BLACK_24, DO_FILL, pDisplay);
 2000d74:	e13ff617 	ldw	r4,-40(fp)
 2000d78:	e17ff817 	ldw	r5,-32(fp)
 2000d7c:	e1bff717 	ldw	r6,-36(fp)
 2000d80:	e0fff917 	ldw	r3,-28(fp)
 2000d84:	d8000015 	stw	zero,0(sp)
 2000d88:	00800044 	movi	r2,1
 2000d8c:	d8800115 	stw	r2,4(sp)
 2000d90:	e0bffa17 	ldw	r2,-24(fp)
 2000d94:	d8800215 	stw	r2,8(sp)
 2000d98:	180f883a 	mov	r7,r3
 2000d9c:	2006d340 	call	2006d34 <vid_draw_box>
            vid_draw_box (rc.left, rc.top, rc.right, rc.bottom, WHITE_24, DO_NOT_FILL, pDisplay);
 2000da0:	e13ff617 	ldw	r4,-40(fp)
 2000da4:	e17ff817 	ldw	r5,-32(fp)
 2000da8:	e1bff717 	ldw	r6,-36(fp)
 2000dac:	e0fff917 	ldw	r3,-28(fp)
 2000db0:	00804034 	movhi	r2,256
 2000db4:	10bfffc4 	addi	r2,r2,-1
 2000db8:	d8800015 	stw	r2,0(sp)
 2000dbc:	d8000115 	stw	zero,4(sp)
 2000dc0:	e0bffa17 	ldw	r2,-24(fp)
 2000dc4:	d8800215 	stw	r2,8(sp)
 2000dc8:	180f883a 	mov	r7,r3
 2000dcc:	2006d340 	call	2006d34 <vid_draw_box>
            vid_print_string_alpha(rc.left+8, rc.top+(RectHeight(&rc)-22)/2, WHITE_24, BLACK_24, tahomabold_20, pDisplay, text1);
 2000dd0:	e0bff617 	ldw	r2,-40(fp)
 2000dd4:	14400204 	addi	r17,r2,8
 2000dd8:	e43ff817 	ldw	r16,-32(fp)
 2000ddc:	e0bff604 	addi	r2,fp,-40
 2000de0:	1009883a 	mov	r4,r2
 2000de4:	20063c00 	call	20063c0 <RectHeight>
 2000de8:	10bffa84 	addi	r2,r2,-22
 2000dec:	1006d7fa 	srli	r3,r2,31
 2000df0:	1885883a 	add	r2,r3,r2
 2000df4:	1005d07a 	srai	r2,r2,1
 2000df8:	8087883a 	add	r3,r16,r2
 2000dfc:	008080f4 	movhi	r2,515
 2000e00:	10af9504 	addi	r2,r2,-16812
 2000e04:	d8800015 	stw	r2,0(sp)
 2000e08:	e0bffa17 	ldw	r2,-24(fp)
 2000e0c:	d8800115 	stw	r2,4(sp)
 2000e10:	e0800217 	ldw	r2,8(fp)
 2000e14:	d8800215 	stw	r2,8(sp)
 2000e18:	8809883a 	mov	r4,r17
 2000e1c:	180b883a 	mov	r5,r3
 2000e20:	01804034 	movhi	r6,256
 2000e24:	31bfffc4 	addi	r6,r6,-1
 2000e28:	000f883a 	mov	r7,zero
 2000e2c:	2008b400 	call	2008b40 <vid_print_string_alpha>
 2000e30:	0000fe06 	br	200122c <GUI_ROBINSUN_Draw+0x558>
        }
        else if (i == 1){
 2000e34:	e0bff517 	ldw	r2,-44(fp)
 2000e38:	10800058 	cmpnei	r2,r2,1
 2000e3c:	1000301e 	bne	r2,zero,2000f00 <GUI_ROBINSUN_Draw+0x22c>
        	vid_draw_box (rc.left, rc.top, rc.right, rc.bottom, BLACK_24, DO_FILL, pDisplay);
 2000e40:	e13ff617 	ldw	r4,-40(fp)
 2000e44:	e17ff817 	ldw	r5,-32(fp)
 2000e48:	e1bff717 	ldw	r6,-36(fp)
 2000e4c:	e0fff917 	ldw	r3,-28(fp)
 2000e50:	d8000015 	stw	zero,0(sp)
 2000e54:	00800044 	movi	r2,1
 2000e58:	d8800115 	stw	r2,4(sp)
 2000e5c:	e0bffa17 	ldw	r2,-24(fp)
 2000e60:	d8800215 	stw	r2,8(sp)
 2000e64:	180f883a 	mov	r7,r3
 2000e68:	2006d340 	call	2006d34 <vid_draw_box>
        	vid_draw_box (rc.left, rc.top, rc.right, rc.bottom, WHITE_24, DO_NOT_FILL, pDisplay);
 2000e6c:	e13ff617 	ldw	r4,-40(fp)
 2000e70:	e17ff817 	ldw	r5,-32(fp)
 2000e74:	e1bff717 	ldw	r6,-36(fp)
 2000e78:	e0fff917 	ldw	r3,-28(fp)
 2000e7c:	00804034 	movhi	r2,256
 2000e80:	10bfffc4 	addi	r2,r2,-1
 2000e84:	d8800015 	stw	r2,0(sp)
 2000e88:	d8000115 	stw	zero,4(sp)
 2000e8c:	e0bffa17 	ldw	r2,-24(fp)
 2000e90:	d8800215 	stw	r2,8(sp)
 2000e94:	180f883a 	mov	r7,r3
 2000e98:	2006d340 	call	2006d34 <vid_draw_box>
        	vid_print_string_alpha(rc.left+8, rc.top+(RectHeight(&rc)-22)/2, WHITE_24, BLACK_24, tahomabold_20, pDisplay, text2);
 2000e9c:	e0bff617 	ldw	r2,-40(fp)
 2000ea0:	14400204 	addi	r17,r2,8
 2000ea4:	e43ff817 	ldw	r16,-32(fp)
 2000ea8:	e0bff604 	addi	r2,fp,-40
 2000eac:	1009883a 	mov	r4,r2
 2000eb0:	20063c00 	call	20063c0 <RectHeight>
 2000eb4:	10bffa84 	addi	r2,r2,-22
 2000eb8:	1006d7fa 	srli	r3,r2,31
 2000ebc:	1885883a 	add	r2,r3,r2
 2000ec0:	1005d07a 	srai	r2,r2,1
 2000ec4:	8087883a 	add	r3,r16,r2
 2000ec8:	008080f4 	movhi	r2,515
 2000ecc:	10af9504 	addi	r2,r2,-16812
 2000ed0:	d8800015 	stw	r2,0(sp)
 2000ed4:	e0bffa17 	ldw	r2,-24(fp)
 2000ed8:	d8800115 	stw	r2,4(sp)
 2000edc:	e0800317 	ldw	r2,12(fp)
 2000ee0:	d8800215 	stw	r2,8(sp)
 2000ee4:	8809883a 	mov	r4,r17
 2000ee8:	180b883a 	mov	r5,r3
 2000eec:	01804034 	movhi	r6,256
 2000ef0:	31bfffc4 	addi	r6,r6,-1
 2000ef4:	000f883a 	mov	r7,zero
 2000ef8:	2008b400 	call	2008b40 <vid_print_string_alpha>
 2000efc:	0000cb06 	br	200122c <GUI_ROBINSUN_Draw+0x558>
        }
        else if (i == 2){
 2000f00:	e0bff517 	ldw	r2,-44(fp)
 2000f04:	10800098 	cmpnei	r2,r2,2
 2000f08:	1000301e 	bne	r2,zero,2000fcc <GUI_ROBINSUN_Draw+0x2f8>
        	vid_draw_box (rc.left, rc.top, rc.right, rc.bottom, BLACK_24, DO_FILL, pDisplay);
 2000f0c:	e13ff617 	ldw	r4,-40(fp)
 2000f10:	e17ff817 	ldw	r5,-32(fp)
 2000f14:	e1bff717 	ldw	r6,-36(fp)
 2000f18:	e0fff917 	ldw	r3,-28(fp)
 2000f1c:	d8000015 	stw	zero,0(sp)
 2000f20:	00800044 	movi	r2,1
 2000f24:	d8800115 	stw	r2,4(sp)
 2000f28:	e0bffa17 	ldw	r2,-24(fp)
 2000f2c:	d8800215 	stw	r2,8(sp)
 2000f30:	180f883a 	mov	r7,r3
 2000f34:	2006d340 	call	2006d34 <vid_draw_box>
        	vid_draw_box (rc.left, rc.top, rc.right, rc.bottom, WHITE_24, DO_NOT_FILL, pDisplay);
 2000f38:	e13ff617 	ldw	r4,-40(fp)
 2000f3c:	e17ff817 	ldw	r5,-32(fp)
 2000f40:	e1bff717 	ldw	r6,-36(fp)
 2000f44:	e0fff917 	ldw	r3,-28(fp)
 2000f48:	00804034 	movhi	r2,256
 2000f4c:	10bfffc4 	addi	r2,r2,-1
 2000f50:	d8800015 	stw	r2,0(sp)
 2000f54:	d8000115 	stw	zero,4(sp)
 2000f58:	e0bffa17 	ldw	r2,-24(fp)
 2000f5c:	d8800215 	stw	r2,8(sp)
 2000f60:	180f883a 	mov	r7,r3
 2000f64:	2006d340 	call	2006d34 <vid_draw_box>
        	vid_print_string_alpha(rc.left+8, rc.top+(RectHeight(&rc)-22)/2, WHITE_24, BLACK_24, tahomabold_20, pDisplay, text3);
 2000f68:	e0bff617 	ldw	r2,-40(fp)
 2000f6c:	14400204 	addi	r17,r2,8
 2000f70:	e43ff817 	ldw	r16,-32(fp)
 2000f74:	e0bff604 	addi	r2,fp,-40
 2000f78:	1009883a 	mov	r4,r2
 2000f7c:	20063c00 	call	20063c0 <RectHeight>
 2000f80:	10bffa84 	addi	r2,r2,-22
 2000f84:	1006d7fa 	srli	r3,r2,31
 2000f88:	1885883a 	add	r2,r3,r2
 2000f8c:	1005d07a 	srai	r2,r2,1
 2000f90:	8087883a 	add	r3,r16,r2
 2000f94:	008080f4 	movhi	r2,515
 2000f98:	10af9504 	addi	r2,r2,-16812
 2000f9c:	d8800015 	stw	r2,0(sp)
 2000fa0:	e0bffa17 	ldw	r2,-24(fp)
 2000fa4:	d8800115 	stw	r2,4(sp)
 2000fa8:	e0800417 	ldw	r2,16(fp)
 2000fac:	d8800215 	stw	r2,8(sp)
 2000fb0:	8809883a 	mov	r4,r17
 2000fb4:	180b883a 	mov	r5,r3
 2000fb8:	01804034 	movhi	r6,256
 2000fbc:	31bfffc4 	addi	r6,r6,-1
 2000fc0:	000f883a 	mov	r7,zero
 2000fc4:	2008b400 	call	2008b40 <vid_print_string_alpha>
 2000fc8:	00009806 	br	200122c <GUI_ROBINSUN_Draw+0x558>
        }
        else if (i == 3){
 2000fcc:	e0bff517 	ldw	r2,-44(fp)
 2000fd0:	108000d8 	cmpnei	r2,r2,3
 2000fd4:	1000301e 	bne	r2,zero,2001098 <GUI_ROBINSUN_Draw+0x3c4>
        	vid_draw_box (rc.left, rc.top, rc.right, rc.bottom, BLACK_24, DO_FILL, pDisplay);
 2000fd8:	e13ff617 	ldw	r4,-40(fp)
 2000fdc:	e17ff817 	ldw	r5,-32(fp)
 2000fe0:	e1bff717 	ldw	r6,-36(fp)
 2000fe4:	e0fff917 	ldw	r3,-28(fp)
 2000fe8:	d8000015 	stw	zero,0(sp)
 2000fec:	00800044 	movi	r2,1
 2000ff0:	d8800115 	stw	r2,4(sp)
 2000ff4:	e0bffa17 	ldw	r2,-24(fp)
 2000ff8:	d8800215 	stw	r2,8(sp)
 2000ffc:	180f883a 	mov	r7,r3
 2001000:	2006d340 	call	2006d34 <vid_draw_box>
        	vid_draw_box (rc.left, rc.top, rc.right, rc.bottom, WHITE_24, DO_NOT_FILL, pDisplay);
 2001004:	e13ff617 	ldw	r4,-40(fp)
 2001008:	e17ff817 	ldw	r5,-32(fp)
 200100c:	e1bff717 	ldw	r6,-36(fp)
 2001010:	e0fff917 	ldw	r3,-28(fp)
 2001014:	00804034 	movhi	r2,256
 2001018:	10bfffc4 	addi	r2,r2,-1
 200101c:	d8800015 	stw	r2,0(sp)
 2001020:	d8000115 	stw	zero,4(sp)
 2001024:	e0bffa17 	ldw	r2,-24(fp)
 2001028:	d8800215 	stw	r2,8(sp)
 200102c:	180f883a 	mov	r7,r3
 2001030:	2006d340 	call	2006d34 <vid_draw_box>
        	vid_print_string_alpha(rc.left+8, rc.top+(RectHeight(&rc)-22)/2, WHITE_24, BLACK_24, tahomabold_20, pDisplay, text4);
 2001034:	e0bff617 	ldw	r2,-40(fp)
 2001038:	14400204 	addi	r17,r2,8
 200103c:	e43ff817 	ldw	r16,-32(fp)
 2001040:	e0bff604 	addi	r2,fp,-40
 2001044:	1009883a 	mov	r4,r2
 2001048:	20063c00 	call	20063c0 <RectHeight>
 200104c:	10bffa84 	addi	r2,r2,-22
 2001050:	1006d7fa 	srli	r3,r2,31
 2001054:	1885883a 	add	r2,r3,r2
 2001058:	1005d07a 	srai	r2,r2,1
 200105c:	8087883a 	add	r3,r16,r2
 2001060:	008080f4 	movhi	r2,515
 2001064:	10af9504 	addi	r2,r2,-16812
 2001068:	d8800015 	stw	r2,0(sp)
 200106c:	e0bffa17 	ldw	r2,-24(fp)
 2001070:	d8800115 	stw	r2,4(sp)
 2001074:	e0800517 	ldw	r2,20(fp)
 2001078:	d8800215 	stw	r2,8(sp)
 200107c:	8809883a 	mov	r4,r17
 2001080:	180b883a 	mov	r5,r3
 2001084:	01804034 	movhi	r6,256
 2001088:	31bfffc4 	addi	r6,r6,-1
 200108c:	000f883a 	mov	r7,zero
 2001090:	2008b400 	call	2008b40 <vid_print_string_alpha>
 2001094:	00006506 	br	200122c <GUI_ROBINSUN_Draw+0x558>
        }
        else if (i == 4){
 2001098:	e0bff517 	ldw	r2,-44(fp)
 200109c:	10800118 	cmpnei	r2,r2,4
 20010a0:	1000301e 	bne	r2,zero,2001164 <GUI_ROBINSUN_Draw+0x490>
        	vid_draw_box (rc.left, rc.top, rc.right, rc.bottom, BLACK_24, DO_FILL, pDisplay);
 20010a4:	e13ff617 	ldw	r4,-40(fp)
 20010a8:	e17ff817 	ldw	r5,-32(fp)
 20010ac:	e1bff717 	ldw	r6,-36(fp)
 20010b0:	e0fff917 	ldw	r3,-28(fp)
 20010b4:	d8000015 	stw	zero,0(sp)
 20010b8:	00800044 	movi	r2,1
 20010bc:	d8800115 	stw	r2,4(sp)
 20010c0:	e0bffa17 	ldw	r2,-24(fp)
 20010c4:	d8800215 	stw	r2,8(sp)
 20010c8:	180f883a 	mov	r7,r3
 20010cc:	2006d340 	call	2006d34 <vid_draw_box>
        	vid_draw_box (rc.left, rc.top, rc.right, rc.bottom, WHITE_24, DO_NOT_FILL, pDisplay);
 20010d0:	e13ff617 	ldw	r4,-40(fp)
 20010d4:	e17ff817 	ldw	r5,-32(fp)
 20010d8:	e1bff717 	ldw	r6,-36(fp)
 20010dc:	e0fff917 	ldw	r3,-28(fp)
 20010e0:	00804034 	movhi	r2,256
 20010e4:	10bfffc4 	addi	r2,r2,-1
 20010e8:	d8800015 	stw	r2,0(sp)
 20010ec:	d8000115 	stw	zero,4(sp)
 20010f0:	e0bffa17 	ldw	r2,-24(fp)
 20010f4:	d8800215 	stw	r2,8(sp)
 20010f8:	180f883a 	mov	r7,r3
 20010fc:	2006d340 	call	2006d34 <vid_draw_box>
        	vid_print_string_alpha(rc.left+8, rc.top+(RectHeight(&rc)-22)/2, WHITE_24, BLACK_24, tahomabold_20, pDisplay, text5);
 2001100:	e0bff617 	ldw	r2,-40(fp)
 2001104:	14400204 	addi	r17,r2,8
 2001108:	e43ff817 	ldw	r16,-32(fp)
 200110c:	e0bff604 	addi	r2,fp,-40
 2001110:	1009883a 	mov	r4,r2
 2001114:	20063c00 	call	20063c0 <RectHeight>
 2001118:	10bffa84 	addi	r2,r2,-22
 200111c:	1006d7fa 	srli	r3,r2,31
 2001120:	1885883a 	add	r2,r3,r2
 2001124:	1005d07a 	srai	r2,r2,1
 2001128:	8087883a 	add	r3,r16,r2
 200112c:	008080f4 	movhi	r2,515
 2001130:	10af9504 	addi	r2,r2,-16812
 2001134:	d8800015 	stw	r2,0(sp)
 2001138:	e0bffa17 	ldw	r2,-24(fp)
 200113c:	d8800115 	stw	r2,4(sp)
 2001140:	e0800617 	ldw	r2,24(fp)
 2001144:	d8800215 	stw	r2,8(sp)
 2001148:	8809883a 	mov	r4,r17
 200114c:	180b883a 	mov	r5,r3
 2001150:	01804034 	movhi	r6,256
 2001154:	31bfffc4 	addi	r6,r6,-1
 2001158:	000f883a 	mov	r7,zero
 200115c:	2008b400 	call	2008b40 <vid_print_string_alpha>
 2001160:	00003206 	br	200122c <GUI_ROBINSUN_Draw+0x558>
        }
        else if (i == 5){
 2001164:	e0bff517 	ldw	r2,-44(fp)
 2001168:	10800158 	cmpnei	r2,r2,5
 200116c:	10002f1e 	bne	r2,zero,200122c <GUI_ROBINSUN_Draw+0x558>
        	vid_draw_box (rc.left, rc.top, rc.right, rc.bottom, BLACK_24, DO_FILL, pDisplay);
 2001170:	e13ff617 	ldw	r4,-40(fp)
 2001174:	e17ff817 	ldw	r5,-32(fp)
 2001178:	e1bff717 	ldw	r6,-36(fp)
 200117c:	e0fff917 	ldw	r3,-28(fp)
 2001180:	d8000015 	stw	zero,0(sp)
 2001184:	00800044 	movi	r2,1
 2001188:	d8800115 	stw	r2,4(sp)
 200118c:	e0bffa17 	ldw	r2,-24(fp)
 2001190:	d8800215 	stw	r2,8(sp)
 2001194:	180f883a 	mov	r7,r3
 2001198:	2006d340 	call	2006d34 <vid_draw_box>
        	vid_draw_box (rc.left, rc.top, rc.right, rc.bottom, WHITE_24, DO_NOT_FILL, pDisplay);
 200119c:	e13ff617 	ldw	r4,-40(fp)
 20011a0:	e17ff817 	ldw	r5,-32(fp)
 20011a4:	e1bff717 	ldw	r6,-36(fp)
 20011a8:	e0fff917 	ldw	r3,-28(fp)
 20011ac:	00804034 	movhi	r2,256
 20011b0:	10bfffc4 	addi	r2,r2,-1
 20011b4:	d8800015 	stw	r2,0(sp)
 20011b8:	d8000115 	stw	zero,4(sp)
 20011bc:	e0bffa17 	ldw	r2,-24(fp)
 20011c0:	d8800215 	stw	r2,8(sp)
 20011c4:	180f883a 	mov	r7,r3
 20011c8:	2006d340 	call	2006d34 <vid_draw_box>
        	vid_print_string_alpha(rc.left+8, rc.top+(RectHeight(&rc)-22)/2, WHITE_24, BLACK_24, tahomabold_20, pDisplay, text6);
 20011cc:	e0bff617 	ldw	r2,-40(fp)
 20011d0:	14400204 	addi	r17,r2,8
 20011d4:	e43ff817 	ldw	r16,-32(fp)
 20011d8:	e0bff604 	addi	r2,fp,-40
 20011dc:	1009883a 	mov	r4,r2
 20011e0:	20063c00 	call	20063c0 <RectHeight>
 20011e4:	10bffa84 	addi	r2,r2,-22
 20011e8:	1006d7fa 	srli	r3,r2,31
 20011ec:	1885883a 	add	r2,r3,r2
 20011f0:	1005d07a 	srai	r2,r2,1
 20011f4:	8087883a 	add	r3,r16,r2
 20011f8:	008080f4 	movhi	r2,515
 20011fc:	10af9504 	addi	r2,r2,-16812
 2001200:	d8800015 	stw	r2,0(sp)
 2001204:	e0bffa17 	ldw	r2,-24(fp)
 2001208:	d8800115 	stw	r2,4(sp)
 200120c:	e0800717 	ldw	r2,28(fp)
 2001210:	d8800215 	stw	r2,8(sp)
 2001214:	8809883a 	mov	r4,r17
 2001218:	180b883a 	mov	r5,r3
 200121c:	01804034 	movhi	r6,256
 2001220:	31bfffc4 	addi	r6,r6,-1
 2001224:	000f883a 	mov	r7,zero
 2001228:	2008b400 	call	2008b40 <vid_print_string_alpha>
    // draw border
    RectCopy(&rc, &pDeskInfo->rcDisp);
    vid_draw_box (rc.left, rc.top, rc.right, rc.bottom, WHITE_24, DO_NOT_FILL, pDisplay);

    // draw buttons
    for(i=0;i<num;i++){
 200122c:	e0bff517 	ldw	r2,-44(fp)
 2001230:	10800044 	addi	r2,r2,1
 2001234:	e0bff515 	stw	r2,-44(fp)
 2001238:	e0fff517 	ldw	r3,-44(fp)
 200123c:	e0bffd17 	ldw	r2,-12(fp)
 2001240:	18bec116 	blt	r3,r2,2000d48 <__reset+0xfdff9548>
        else
        {

        }
    }
}
 2001244:	e6fffe04 	addi	sp,fp,-8
 2001248:	dfc00317 	ldw	ra,12(sp)
 200124c:	df000217 	ldw	fp,8(sp)
 2001250:	dc400117 	ldw	r17,4(sp)
 2001254:	dc000017 	ldw	r16,0(sp)
 2001258:	dec00404 	addi	sp,sp,16
 200125c:	f800283a 	ret

02001260 <GUI_ROBINSUN_CompetitionChoice1_Init>:

void GUI_ROBINSUN_CompetitionChoice1_Init(alt_video_display *pDisplay, DESK_INFO *pDeskInfo){
 2001260:	defff104 	addi	sp,sp,-60
 2001264:	dfc00e15 	stw	ra,56(sp)
 2001268:	df000d15 	stw	fp,52(sp)
 200126c:	df000d04 	addi	fp,sp,52
 2001270:	e13ffe15 	stw	r4,-8(fp)
 2001274:	e17fff15 	stw	r5,-4(fp)
	int i;
	RECT rc;
	const int BoxH = 40;
 2001278:	00800a04 	movi	r2,40
 200127c:	e0bff515 	stw	r2,-44(fp)
	const int DistBorder = 2;
 2001280:	00800084 	movi	r2,2
 2001284:	e0bff615 	stw	r2,-40(fp)
	const int DistW = 10;
 2001288:	00800284 	movi	r2,10
 200128c:	e0bff715 	stw	r2,-36(fp)
	int GapH, BoxW;

	// Space to put between the buttons in order to be equally spaced
	GapH = (pDisplay->height - (6*BoxH) - 12 - 4)/(3+1);
 2001290:	e0bffe17 	ldw	r2,-8(fp)
 2001294:	10c00217 	ldw	r3,8(r2)
 2001298:	e0bff517 	ldw	r2,-44(fp)
 200129c:	10bffea4 	muli	r2,r2,-6
 20012a0:	1885883a 	add	r2,r3,r2
 20012a4:	10bffc04 	addi	r2,r2,-16
 20012a8:	1000010e 	bge	r2,zero,20012b0 <GUI_ROBINSUN_CompetitionChoice1_Init+0x50>
 20012ac:	108000c4 	addi	r2,r2,3
 20012b0:	1005d0ba 	srai	r2,r2,2
 20012b4:	e0bff815 	stw	r2,-32(fp)
	BoxW = (pDisplay->width - 2*DistW - 5)/2;
 20012b8:	e0bffe17 	ldw	r2,-8(fp)
 20012bc:	10c00117 	ldw	r3,4(r2)
 20012c0:	e13ff717 	ldw	r4,-36(fp)
 20012c4:	0005883a 	mov	r2,zero
 20012c8:	1105c83a 	sub	r2,r2,r4
 20012cc:	1085883a 	add	r2,r2,r2
 20012d0:	1885883a 	add	r2,r3,r2
 20012d4:	10bffec4 	addi	r2,r2,-5
 20012d8:	1006d7fa 	srli	r3,r2,31
 20012dc:	1885883a 	add	r2,r3,r2
 20012e0:	1005d07a 	srai	r2,r2,1
 20012e4:	e0bff915 	stw	r2,-28(fp)

	// Desk border
	RectSet(&pDeskInfo->rcDisp, DistBorder, pDisplay->width-DistBorder, DistBorder, pDisplay->height-DistBorder);
 20012e8:	e13fff17 	ldw	r4,-4(fp)
 20012ec:	e0bffe17 	ldw	r2,-8(fp)
 20012f0:	10c00117 	ldw	r3,4(r2)
 20012f4:	e0bff617 	ldw	r2,-40(fp)
 20012f8:	188dc83a 	sub	r6,r3,r2
 20012fc:	e0bffe17 	ldw	r2,-8(fp)
 2001300:	10c00217 	ldw	r3,8(r2)
 2001304:	e0bff617 	ldw	r2,-40(fp)
 2001308:	1885c83a 	sub	r2,r3,r2
 200130c:	d8800015 	stw	r2,0(sp)
 2001310:	e17ff617 	ldw	r5,-40(fp)
 2001314:	e1fff617 	ldw	r7,-40(fp)
 2001318:	20061bc0 	call	20061bc <RectSet>

	rc.top = DistBorder + GapH;
 200131c:	e0fff617 	ldw	r3,-40(fp)
 2001320:	e0bff817 	ldw	r2,-32(fp)
 2001324:	1885883a 	add	r2,r3,r2
 2001328:	e0bffc15 	stw	r2,-16(fp)
	rc.bottom = rc.top + BoxH;
 200132c:	e0fffc17 	ldw	r3,-16(fp)
 2001330:	e0bff517 	ldw	r2,-44(fp)
 2001334:	1885883a 	add	r2,r3,r2
 2001338:	e0bffd15 	stw	r2,-12(fp)
	rc.left = DistW;
 200133c:	e0bff717 	ldw	r2,-36(fp)
 2001340:	e0bffa15 	stw	r2,-24(fp)
	rc.right = rc.left + BoxW;
 2001344:	e0fffa17 	ldw	r3,-24(fp)
 2001348:	e0bff917 	ldw	r2,-28(fp)
 200134c:	1885883a 	add	r2,r3,r2
 2001350:	e0bffb15 	stw	r2,-20(fp)

	// Initialization of the rectangles for the buttons
	for(i=0;i<10;i++){
 2001354:	e03ff415 	stw	zero,-48(fp)
 2001358:	00005f06 	br	20014d8 <GUI_ROBINSUN_CompetitionChoice1_Init+0x278>
		if (i==0 || i==3){
 200135c:	e0bff417 	ldw	r2,-48(fp)
 2001360:	10000326 	beq	r2,zero,2001370 <GUI_ROBINSUN_CompetitionChoice1_Init+0x110>
 2001364:	e0bff417 	ldw	r2,-48(fp)
 2001368:	108000d8 	cmpnei	r2,r2,3
 200136c:	1000111e 	bne	r2,zero,20013b4 <GUI_ROBINSUN_CompetitionChoice1_Init+0x154>
			RectCopy(&pDeskInfo->buttons_competitionchoice1[i].rc, &rc);
 2001370:	e0bff417 	ldw	r2,-48(fp)
 2001374:	10800524 	muli	r2,r2,20
 2001378:	10809004 	addi	r2,r2,576
 200137c:	e0ffff17 	ldw	r3,-4(fp)
 2001380:	1887883a 	add	r3,r3,r2
 2001384:	e0bffa04 	addi	r2,fp,-24
 2001388:	1809883a 	mov	r4,r3
 200138c:	100b883a 	mov	r5,r2
 2001390:	20063280 	call	2006328 <RectCopy>
			RectOffset(&rc, 0, BoxH+5);
 2001394:	e0bff517 	ldw	r2,-44(fp)
 2001398:	10800144 	addi	r2,r2,5
 200139c:	e0fffa04 	addi	r3,fp,-24
 20013a0:	1809883a 	mov	r4,r3
 20013a4:	000b883a 	mov	r5,zero
 20013a8:	100d883a 	mov	r6,r2
 20013ac:	20062a00 	call	20062a0 <RectOffset>
 20013b0:	00004606 	br	20014cc <GUI_ROBINSUN_CompetitionChoice1_Init+0x26c>
		}
		else if(i==1 || i==4 || i==6 || i==8){
 20013b4:	e0bff417 	ldw	r2,-48(fp)
 20013b8:	10800060 	cmpeqi	r2,r2,1
 20013bc:	1000091e 	bne	r2,zero,20013e4 <GUI_ROBINSUN_CompetitionChoice1_Init+0x184>
 20013c0:	e0bff417 	ldw	r2,-48(fp)
 20013c4:	10800120 	cmpeqi	r2,r2,4
 20013c8:	1000061e 	bne	r2,zero,20013e4 <GUI_ROBINSUN_CompetitionChoice1_Init+0x184>
 20013cc:	e0bff417 	ldw	r2,-48(fp)
 20013d0:	108001a0 	cmpeqi	r2,r2,6
 20013d4:	1000031e 	bne	r2,zero,20013e4 <GUI_ROBINSUN_CompetitionChoice1_Init+0x184>
 20013d8:	e0bff417 	ldw	r2,-48(fp)
 20013dc:	10800218 	cmpnei	r2,r2,8
 20013e0:	1000111e 	bne	r2,zero,2001428 <GUI_ROBINSUN_CompetitionChoice1_Init+0x1c8>
			RectCopy(&pDeskInfo->buttons_competitionchoice1[i].rc, &rc);
 20013e4:	e0bff417 	ldw	r2,-48(fp)
 20013e8:	10800524 	muli	r2,r2,20
 20013ec:	10809004 	addi	r2,r2,576
 20013f0:	e0ffff17 	ldw	r3,-4(fp)
 20013f4:	1887883a 	add	r3,r3,r2
 20013f8:	e0bffa04 	addi	r2,fp,-24
 20013fc:	1809883a 	mov	r4,r3
 2001400:	100b883a 	mov	r5,r2
 2001404:	20063280 	call	2006328 <RectCopy>
			RectOffset(&rc, BoxW+5, 0);
 2001408:	e0bff917 	ldw	r2,-28(fp)
 200140c:	10800144 	addi	r2,r2,5
 2001410:	e0fffa04 	addi	r3,fp,-24
 2001414:	1809883a 	mov	r4,r3
 2001418:	100b883a 	mov	r5,r2
 200141c:	000d883a 	mov	r6,zero
 2001420:	20062a00 	call	20062a0 <RectOffset>
 2001424:	00002906 	br	20014cc <GUI_ROBINSUN_CompetitionChoice1_Init+0x26c>
		}
		else if(i==5){
 2001428:	e0bff417 	ldw	r2,-48(fp)
 200142c:	10800158 	cmpnei	r2,r2,5
 2001430:	1000131e 	bne	r2,zero,2001480 <GUI_ROBINSUN_CompetitionChoice1_Init+0x220>
			RectCopy(&pDeskInfo->buttons_competitionchoice1[i].rc, &rc);
 2001434:	e0bff417 	ldw	r2,-48(fp)
 2001438:	10800524 	muli	r2,r2,20
 200143c:	10809004 	addi	r2,r2,576
 2001440:	e0ffff17 	ldw	r3,-4(fp)
 2001444:	1887883a 	add	r3,r3,r2
 2001448:	e0bffa04 	addi	r2,fp,-24
 200144c:	1809883a 	mov	r4,r3
 2001450:	100b883a 	mov	r5,r2
 2001454:	20063280 	call	2006328 <RectCopy>
			RectOffset(&rc, -BoxW-5, BoxH+2);
 2001458:	00fffec4 	movi	r3,-5
 200145c:	e0bff917 	ldw	r2,-28(fp)
 2001460:	1887c83a 	sub	r3,r3,r2
 2001464:	e0bff517 	ldw	r2,-44(fp)
 2001468:	10800084 	addi	r2,r2,2
 200146c:	e13ffa04 	addi	r4,fp,-24
 2001470:	180b883a 	mov	r5,r3
 2001474:	100d883a 	mov	r6,r2
 2001478:	20062a00 	call	20062a0 <RectOffset>
 200147c:	00001306 	br	20014cc <GUI_ROBINSUN_CompetitionChoice1_Init+0x26c>
		}
		else{
			RectCopy(&pDeskInfo->buttons_competitionchoice1[i].rc, &rc);
 2001480:	e0bff417 	ldw	r2,-48(fp)
 2001484:	10800524 	muli	r2,r2,20
 2001488:	10809004 	addi	r2,r2,576
 200148c:	e0ffff17 	ldw	r3,-4(fp)
 2001490:	1887883a 	add	r3,r3,r2
 2001494:	e0bffa04 	addi	r2,fp,-24
 2001498:	1809883a 	mov	r4,r3
 200149c:	100b883a 	mov	r5,r2
 20014a0:	20063280 	call	2006328 <RectCopy>
			RectOffset(&rc, -BoxW-5, BoxH+GapH);
 20014a4:	00fffec4 	movi	r3,-5
 20014a8:	e0bff917 	ldw	r2,-28(fp)
 20014ac:	188bc83a 	sub	r5,r3,r2
 20014b0:	e0fff517 	ldw	r3,-44(fp)
 20014b4:	e0bff817 	ldw	r2,-32(fp)
 20014b8:	1885883a 	add	r2,r3,r2
 20014bc:	e0fffa04 	addi	r3,fp,-24
 20014c0:	1809883a 	mov	r4,r3
 20014c4:	100d883a 	mov	r6,r2
 20014c8:	20062a00 	call	20062a0 <RectOffset>
	rc.bottom = rc.top + BoxH;
	rc.left = DistW;
	rc.right = rc.left + BoxW;

	// Initialization of the rectangles for the buttons
	for(i=0;i<10;i++){
 20014cc:	e0bff417 	ldw	r2,-48(fp)
 20014d0:	10800044 	addi	r2,r2,1
 20014d4:	e0bff415 	stw	r2,-48(fp)
 20014d8:	e0bff417 	ldw	r2,-48(fp)
 20014dc:	10800290 	cmplti	r2,r2,10
 20014e0:	103f9e1e 	bne	r2,zero,200135c <__reset+0xfdff9b5c>
		else{
			RectCopy(&pDeskInfo->buttons_competitionchoice1[i].rc, &rc);
			RectOffset(&rc, -BoxW-5, BoxH+GapH);
		}
	}
}
 20014e4:	e037883a 	mov	sp,fp
 20014e8:	dfc00117 	ldw	ra,4(sp)
 20014ec:	df000017 	ldw	fp,0(sp)
 20014f0:	dec00204 	addi	sp,sp,8
 20014f4:	f800283a 	ret

020014f8 <GUI_ROBINSUN_CompetitionChoice1_Draw>:

void GUI_ROBINSUN_CompetitionChoice1_Draw(alt_video_display *pDisplay, DESK_INFO *pDeskInfo){
 20014f8:	defff204 	addi	sp,sp,-56
 20014fc:	dfc00d15 	stw	ra,52(sp)
 2001500:	df000c15 	stw	fp,48(sp)
 2001504:	dc400b15 	stw	r17,44(sp)
 2001508:	dc000a15 	stw	r16,40(sp)
 200150c:	df000c04 	addi	fp,sp,48
 2001510:	e13ffc15 	stw	r4,-16(fp)
 2001514:	e17ffd15 	stw	r5,-12(fp)
	int i;
	RECT rc;

	// draw border
	RectCopy(&rc, &pDeskInfo->rcDisp);
 2001518:	e0bffd17 	ldw	r2,-12(fp)
 200151c:	e0fff804 	addi	r3,fp,-32
 2001520:	1809883a 	mov	r4,r3
 2001524:	100b883a 	mov	r5,r2
 2001528:	20063280 	call	2006328 <RectCopy>
	vid_draw_box (rc.left, rc.top, rc.right, rc.bottom, WHITE_24, DO_NOT_FILL, pDisplay);
 200152c:	e13ff817 	ldw	r4,-32(fp)
 2001530:	e17ffa17 	ldw	r5,-24(fp)
 2001534:	e1bff917 	ldw	r6,-28(fp)
 2001538:	e0fffb17 	ldw	r3,-20(fp)
 200153c:	00804034 	movhi	r2,256
 2001540:	10bfffc4 	addi	r2,r2,-1
 2001544:	d8800015 	stw	r2,0(sp)
 2001548:	d8000115 	stw	zero,4(sp)
 200154c:	e0bffc17 	ldw	r2,-16(fp)
 2001550:	d8800215 	stw	r2,8(sp)
 2001554:	180f883a 	mov	r7,r3
 2001558:	2006d340 	call	2006d34 <vid_draw_box>

	// draw buttons
	for(i=0;i<10;i++){
 200155c:	e03ff715 	stw	zero,-36(fp)
 2001560:	0001cb06 	br	2001c90 <GUI_ROBINSUN_CompetitionChoice1_Draw+0x798>
		RectCopy(&rc, &pDeskInfo->buttons_competitionchoice1[i].rc);
 2001564:	e0bff717 	ldw	r2,-36(fp)
 2001568:	10800524 	muli	r2,r2,20
 200156c:	10809004 	addi	r2,r2,576
 2001570:	e0fffd17 	ldw	r3,-12(fp)
 2001574:	1885883a 	add	r2,r3,r2
 2001578:	e0fff804 	addi	r3,fp,-32
 200157c:	1809883a 	mov	r4,r3
 2001580:	100b883a 	mov	r5,r2
 2001584:	20063280 	call	2006328 <RectCopy>
		if (i == 0){
 2001588:	e0bff717 	ldw	r2,-36(fp)
 200158c:	1000311e 	bne	r2,zero,2001654 <GUI_ROBINSUN_CompetitionChoice1_Draw+0x15c>
			vid_draw_box (rc.left, rc.top, rc.right, rc.bottom, BLACK_24, DO_FILL, pDisplay);
 2001590:	e13ff817 	ldw	r4,-32(fp)
 2001594:	e17ffa17 	ldw	r5,-24(fp)
 2001598:	e1bff917 	ldw	r6,-28(fp)
 200159c:	e0fffb17 	ldw	r3,-20(fp)
 20015a0:	d8000015 	stw	zero,0(sp)
 20015a4:	00800044 	movi	r2,1
 20015a8:	d8800115 	stw	r2,4(sp)
 20015ac:	e0bffc17 	ldw	r2,-16(fp)
 20015b0:	d8800215 	stw	r2,8(sp)
 20015b4:	180f883a 	mov	r7,r3
 20015b8:	2006d340 	call	2006d34 <vid_draw_box>
			vid_draw_box (rc.left, rc.top, rc.right, rc.bottom, WHITE_24, DO_NOT_FILL, pDisplay);
 20015bc:	e13ff817 	ldw	r4,-32(fp)
 20015c0:	e17ffa17 	ldw	r5,-24(fp)
 20015c4:	e1bff917 	ldw	r6,-28(fp)
 20015c8:	e0fffb17 	ldw	r3,-20(fp)
 20015cc:	00804034 	movhi	r2,256
 20015d0:	10bfffc4 	addi	r2,r2,-1
 20015d4:	d8800015 	stw	r2,0(sp)
 20015d8:	d8000115 	stw	zero,4(sp)
 20015dc:	e0bffc17 	ldw	r2,-16(fp)
 20015e0:	d8800215 	stw	r2,8(sp)
 20015e4:	180f883a 	mov	r7,r3
 20015e8:	2006d340 	call	2006d34 <vid_draw_box>
			vid_print_string_alpha(rc.left+8, rc.top+(RectHeight(&rc)-22)/2, WHITE_24, BLACK_24, tahomabold_20, pDisplay, "Team");
 20015ec:	e0bff817 	ldw	r2,-32(fp)
 20015f0:	14400204 	addi	r17,r2,8
 20015f4:	e43ffa17 	ldw	r16,-24(fp)
 20015f8:	e0bff804 	addi	r2,fp,-32
 20015fc:	1009883a 	mov	r4,r2
 2001600:	20063c00 	call	20063c0 <RectHeight>
 2001604:	10bffa84 	addi	r2,r2,-22
 2001608:	1006d7fa 	srli	r3,r2,31
 200160c:	1885883a 	add	r2,r3,r2
 2001610:	1005d07a 	srai	r2,r2,1
 2001614:	8087883a 	add	r3,r16,r2
 2001618:	008080f4 	movhi	r2,515
 200161c:	10af9504 	addi	r2,r2,-16812
 2001620:	d8800015 	stw	r2,0(sp)
 2001624:	e0bffc17 	ldw	r2,-16(fp)
 2001628:	d8800115 	stw	r2,4(sp)
 200162c:	00808074 	movhi	r2,513
 2001630:	10876104 	addi	r2,r2,7556
 2001634:	d8800215 	stw	r2,8(sp)
 2001638:	8809883a 	mov	r4,r17
 200163c:	180b883a 	mov	r5,r3
 2001640:	01804034 	movhi	r6,256
 2001644:	31bfffc4 	addi	r6,r6,-1
 2001648:	000f883a 	mov	r7,zero
 200164c:	2008b400 	call	2008b40 <vid_print_string_alpha>
 2001650:	00018c06 	br	2001c84 <GUI_ROBINSUN_CompetitionChoice1_Draw+0x78c>
		}
		else if (i == 1){
 2001654:	e0bff717 	ldw	r2,-36(fp)
 2001658:	10800058 	cmpnei	r2,r2,1
 200165c:	10000d1e 	bne	r2,zero,2001694 <GUI_ROBINSUN_CompetitionChoice1_Draw+0x19c>
			vid_draw_box (rc.left, rc.top, rc.right, rc.bottom, GREEN_24, DO_FILL, pDisplay);
 2001660:	e13ff817 	ldw	r4,-32(fp)
 2001664:	e17ffa17 	ldw	r5,-24(fp)
 2001668:	e1bff917 	ldw	r6,-28(fp)
 200166c:	e0fffb17 	ldw	r3,-20(fp)
 2001670:	00a00014 	movui	r2,32768
 2001674:	d8800015 	stw	r2,0(sp)
 2001678:	00800044 	movi	r2,1
 200167c:	d8800115 	stw	r2,4(sp)
 2001680:	e0bffc17 	ldw	r2,-16(fp)
 2001684:	d8800215 	stw	r2,8(sp)
 2001688:	180f883a 	mov	r7,r3
 200168c:	2006d340 	call	2006d34 <vid_draw_box>
 2001690:	00017c06 	br	2001c84 <GUI_ROBINSUN_CompetitionChoice1_Draw+0x78c>
		}
		else if (i == 2){
 2001694:	e0bff717 	ldw	r2,-36(fp)
 2001698:	10800098 	cmpnei	r2,r2,2
 200169c:	10000e1e 	bne	r2,zero,20016d8 <GUI_ROBINSUN_CompetitionChoice1_Draw+0x1e0>
			vid_draw_box (rc.left, rc.top, rc.right, rc.bottom, PURPLE_24, DO_FILL, pDisplay);
 20016a0:	e13ff817 	ldw	r4,-32(fp)
 20016a4:	e17ffa17 	ldw	r5,-24(fp)
 20016a8:	e1bff917 	ldw	r6,-28(fp)
 20016ac:	e0fffb17 	ldw	r3,-20(fp)
 20016b0:	00802034 	movhi	r2,128
 20016b4:	10802004 	addi	r2,r2,128
 20016b8:	d8800015 	stw	r2,0(sp)
 20016bc:	00800044 	movi	r2,1
 20016c0:	d8800115 	stw	r2,4(sp)
 20016c4:	e0bffc17 	ldw	r2,-16(fp)
 20016c8:	d8800215 	stw	r2,8(sp)
 20016cc:	180f883a 	mov	r7,r3
 20016d0:	2006d340 	call	2006d34 <vid_draw_box>
 20016d4:	00016b06 	br	2001c84 <GUI_ROBINSUN_CompetitionChoice1_Draw+0x78c>
		}
		else if (i == 3){
 20016d8:	e0bff717 	ldw	r2,-36(fp)
 20016dc:	108000d8 	cmpnei	r2,r2,3
 20016e0:	1000311e 	bne	r2,zero,20017a8 <GUI_ROBINSUN_CompetitionChoice1_Draw+0x2b0>
			vid_draw_box (rc.left, rc.top, rc.right, rc.bottom, BLACK_24, DO_FILL, pDisplay);
 20016e4:	e13ff817 	ldw	r4,-32(fp)
 20016e8:	e17ffa17 	ldw	r5,-24(fp)
 20016ec:	e1bff917 	ldw	r6,-28(fp)
 20016f0:	e0fffb17 	ldw	r3,-20(fp)
 20016f4:	d8000015 	stw	zero,0(sp)
 20016f8:	00800044 	movi	r2,1
 20016fc:	d8800115 	stw	r2,4(sp)
 2001700:	e0bffc17 	ldw	r2,-16(fp)
 2001704:	d8800215 	stw	r2,8(sp)
 2001708:	180f883a 	mov	r7,r3
 200170c:	2006d340 	call	2006d34 <vid_draw_box>
			vid_draw_box (rc.left, rc.top, rc.right, rc.bottom, WHITE_24, DO_NOT_FILL, pDisplay);
 2001710:	e13ff817 	ldw	r4,-32(fp)
 2001714:	e17ffa17 	ldw	r5,-24(fp)
 2001718:	e1bff917 	ldw	r6,-28(fp)
 200171c:	e0fffb17 	ldw	r3,-20(fp)
 2001720:	00804034 	movhi	r2,256
 2001724:	10bfffc4 	addi	r2,r2,-1
 2001728:	d8800015 	stw	r2,0(sp)
 200172c:	d8000115 	stw	zero,4(sp)
 2001730:	e0bffc17 	ldw	r2,-16(fp)
 2001734:	d8800215 	stw	r2,8(sp)
 2001738:	180f883a 	mov	r7,r3
 200173c:	2006d340 	call	2006d34 <vid_draw_box>
			vid_print_string_alpha(rc.left+8, rc.top+(RectHeight(&rc)-22)/2, WHITE_24, BLACK_24, tahomabold_20, pDisplay, "Strategy");
 2001740:	e0bff817 	ldw	r2,-32(fp)
 2001744:	14400204 	addi	r17,r2,8
 2001748:	e43ffa17 	ldw	r16,-24(fp)
 200174c:	e0bff804 	addi	r2,fp,-32
 2001750:	1009883a 	mov	r4,r2
 2001754:	20063c00 	call	20063c0 <RectHeight>
 2001758:	10bffa84 	addi	r2,r2,-22
 200175c:	1006d7fa 	srli	r3,r2,31
 2001760:	1885883a 	add	r2,r3,r2
 2001764:	1005d07a 	srai	r2,r2,1
 2001768:	8087883a 	add	r3,r16,r2
 200176c:	008080f4 	movhi	r2,515
 2001770:	10af9504 	addi	r2,r2,-16812
 2001774:	d8800015 	stw	r2,0(sp)
 2001778:	e0bffc17 	ldw	r2,-16(fp)
 200177c:	d8800115 	stw	r2,4(sp)
 2001780:	00808074 	movhi	r2,513
 2001784:	10876304 	addi	r2,r2,7564
 2001788:	d8800215 	stw	r2,8(sp)
 200178c:	8809883a 	mov	r4,r17
 2001790:	180b883a 	mov	r5,r3
 2001794:	01804034 	movhi	r6,256
 2001798:	31bfffc4 	addi	r6,r6,-1
 200179c:	000f883a 	mov	r7,zero
 20017a0:	2008b400 	call	2008b40 <vid_print_string_alpha>
 20017a4:	00013706 	br	2001c84 <GUI_ROBINSUN_CompetitionChoice1_Draw+0x78c>
		}
		else if (i == 4){
 20017a8:	e0bff717 	ldw	r2,-36(fp)
 20017ac:	10800118 	cmpnei	r2,r2,4
 20017b0:	1000311e 	bne	r2,zero,2001878 <GUI_ROBINSUN_CompetitionChoice1_Draw+0x380>
			vid_draw_box (rc.left, rc.top, rc.right, rc.bottom, BLACK_24, DO_FILL, pDisplay);
 20017b4:	e13ff817 	ldw	r4,-32(fp)
 20017b8:	e17ffa17 	ldw	r5,-24(fp)
 20017bc:	e1bff917 	ldw	r6,-28(fp)
 20017c0:	e0fffb17 	ldw	r3,-20(fp)
 20017c4:	d8000015 	stw	zero,0(sp)
 20017c8:	00800044 	movi	r2,1
 20017cc:	d8800115 	stw	r2,4(sp)
 20017d0:	e0bffc17 	ldw	r2,-16(fp)
 20017d4:	d8800215 	stw	r2,8(sp)
 20017d8:	180f883a 	mov	r7,r3
 20017dc:	2006d340 	call	2006d34 <vid_draw_box>
			vid_draw_box (rc.left, rc.top, rc.right, rc.bottom, WHITE_24, DO_NOT_FILL, pDisplay);
 20017e0:	e13ff817 	ldw	r4,-32(fp)
 20017e4:	e17ffa17 	ldw	r5,-24(fp)
 20017e8:	e1bff917 	ldw	r6,-28(fp)
 20017ec:	e0fffb17 	ldw	r3,-20(fp)
 20017f0:	00804034 	movhi	r2,256
 20017f4:	10bfffc4 	addi	r2,r2,-1
 20017f8:	d8800015 	stw	r2,0(sp)
 20017fc:	d8000115 	stw	zero,4(sp)
 2001800:	e0bffc17 	ldw	r2,-16(fp)
 2001804:	d8800215 	stw	r2,8(sp)
 2001808:	180f883a 	mov	r7,r3
 200180c:	2006d340 	call	2006d34 <vid_draw_box>
			vid_print_string_alpha(rc.left+8, rc.top+(RectHeight(&rc)-22)/2, WHITE_24, BLACK_24, tahomabold_20, pDisplay, "1");
 2001810:	e0bff817 	ldw	r2,-32(fp)
 2001814:	14400204 	addi	r17,r2,8
 2001818:	e43ffa17 	ldw	r16,-24(fp)
 200181c:	e0bff804 	addi	r2,fp,-32
 2001820:	1009883a 	mov	r4,r2
 2001824:	20063c00 	call	20063c0 <RectHeight>
 2001828:	10bffa84 	addi	r2,r2,-22
 200182c:	1006d7fa 	srli	r3,r2,31
 2001830:	1885883a 	add	r2,r3,r2
 2001834:	1005d07a 	srai	r2,r2,1
 2001838:	8087883a 	add	r3,r16,r2
 200183c:	008080f4 	movhi	r2,515
 2001840:	10af9504 	addi	r2,r2,-16812
 2001844:	d8800015 	stw	r2,0(sp)
 2001848:	e0bffc17 	ldw	r2,-16(fp)
 200184c:	d8800115 	stw	r2,4(sp)
 2001850:	00808074 	movhi	r2,513
 2001854:	10876604 	addi	r2,r2,7576
 2001858:	d8800215 	stw	r2,8(sp)
 200185c:	8809883a 	mov	r4,r17
 2001860:	180b883a 	mov	r5,r3
 2001864:	01804034 	movhi	r6,256
 2001868:	31bfffc4 	addi	r6,r6,-1
 200186c:	000f883a 	mov	r7,zero
 2001870:	2008b400 	call	2008b40 <vid_print_string_alpha>
 2001874:	00010306 	br	2001c84 <GUI_ROBINSUN_CompetitionChoice1_Draw+0x78c>
		}
		else if (i == 5){
 2001878:	e0bff717 	ldw	r2,-36(fp)
 200187c:	10800158 	cmpnei	r2,r2,5
 2001880:	1000311e 	bne	r2,zero,2001948 <GUI_ROBINSUN_CompetitionChoice1_Draw+0x450>
			vid_draw_box (rc.left, rc.top, rc.right, rc.bottom, BLACK_24, DO_FILL, pDisplay);
 2001884:	e13ff817 	ldw	r4,-32(fp)
 2001888:	e17ffa17 	ldw	r5,-24(fp)
 200188c:	e1bff917 	ldw	r6,-28(fp)
 2001890:	e0fffb17 	ldw	r3,-20(fp)
 2001894:	d8000015 	stw	zero,0(sp)
 2001898:	00800044 	movi	r2,1
 200189c:	d8800115 	stw	r2,4(sp)
 20018a0:	e0bffc17 	ldw	r2,-16(fp)
 20018a4:	d8800215 	stw	r2,8(sp)
 20018a8:	180f883a 	mov	r7,r3
 20018ac:	2006d340 	call	2006d34 <vid_draw_box>
			vid_draw_box (rc.left, rc.top, rc.right, rc.bottom, WHITE_24, DO_NOT_FILL, pDisplay);
 20018b0:	e13ff817 	ldw	r4,-32(fp)
 20018b4:	e17ffa17 	ldw	r5,-24(fp)
 20018b8:	e1bff917 	ldw	r6,-28(fp)
 20018bc:	e0fffb17 	ldw	r3,-20(fp)
 20018c0:	00804034 	movhi	r2,256
 20018c4:	10bfffc4 	addi	r2,r2,-1
 20018c8:	d8800015 	stw	r2,0(sp)
 20018cc:	d8000115 	stw	zero,4(sp)
 20018d0:	e0bffc17 	ldw	r2,-16(fp)
 20018d4:	d8800215 	stw	r2,8(sp)
 20018d8:	180f883a 	mov	r7,r3
 20018dc:	2006d340 	call	2006d34 <vid_draw_box>
			vid_print_string_alpha(rc.left+8, rc.top+(RectHeight(&rc)-22)/2, WHITE_24, BLACK_24, tahomabold_20, pDisplay, "2");
 20018e0:	e0bff817 	ldw	r2,-32(fp)
 20018e4:	14400204 	addi	r17,r2,8
 20018e8:	e43ffa17 	ldw	r16,-24(fp)
 20018ec:	e0bff804 	addi	r2,fp,-32
 20018f0:	1009883a 	mov	r4,r2
 20018f4:	20063c00 	call	20063c0 <RectHeight>
 20018f8:	10bffa84 	addi	r2,r2,-22
 20018fc:	1006d7fa 	srli	r3,r2,31
 2001900:	1885883a 	add	r2,r3,r2
 2001904:	1005d07a 	srai	r2,r2,1
 2001908:	8087883a 	add	r3,r16,r2
 200190c:	008080f4 	movhi	r2,515
 2001910:	10af9504 	addi	r2,r2,-16812
 2001914:	d8800015 	stw	r2,0(sp)
 2001918:	e0bffc17 	ldw	r2,-16(fp)
 200191c:	d8800115 	stw	r2,4(sp)
 2001920:	00808074 	movhi	r2,513
 2001924:	10876704 	addi	r2,r2,7580
 2001928:	d8800215 	stw	r2,8(sp)
 200192c:	8809883a 	mov	r4,r17
 2001930:	180b883a 	mov	r5,r3
 2001934:	01804034 	movhi	r6,256
 2001938:	31bfffc4 	addi	r6,r6,-1
 200193c:	000f883a 	mov	r7,zero
 2001940:	2008b400 	call	2008b40 <vid_print_string_alpha>
 2001944:	0000cf06 	br	2001c84 <GUI_ROBINSUN_CompetitionChoice1_Draw+0x78c>
		}
		else if (i == 6){
 2001948:	e0bff717 	ldw	r2,-36(fp)
 200194c:	10800198 	cmpnei	r2,r2,6
 2001950:	1000311e 	bne	r2,zero,2001a18 <GUI_ROBINSUN_CompetitionChoice1_Draw+0x520>
			vid_draw_box (rc.left, rc.top, rc.right, rc.bottom, BLACK_24, DO_FILL, pDisplay);
 2001954:	e13ff817 	ldw	r4,-32(fp)
 2001958:	e17ffa17 	ldw	r5,-24(fp)
 200195c:	e1bff917 	ldw	r6,-28(fp)
 2001960:	e0fffb17 	ldw	r3,-20(fp)
 2001964:	d8000015 	stw	zero,0(sp)
 2001968:	00800044 	movi	r2,1
 200196c:	d8800115 	stw	r2,4(sp)
 2001970:	e0bffc17 	ldw	r2,-16(fp)
 2001974:	d8800215 	stw	r2,8(sp)
 2001978:	180f883a 	mov	r7,r3
 200197c:	2006d340 	call	2006d34 <vid_draw_box>
			vid_draw_box (rc.left, rc.top, rc.right, rc.bottom, WHITE_24, DO_NOT_FILL, pDisplay);
 2001980:	e13ff817 	ldw	r4,-32(fp)
 2001984:	e17ffa17 	ldw	r5,-24(fp)
 2001988:	e1bff917 	ldw	r6,-28(fp)
 200198c:	e0fffb17 	ldw	r3,-20(fp)
 2001990:	00804034 	movhi	r2,256
 2001994:	10bfffc4 	addi	r2,r2,-1
 2001998:	d8800015 	stw	r2,0(sp)
 200199c:	d8000115 	stw	zero,4(sp)
 20019a0:	e0bffc17 	ldw	r2,-16(fp)
 20019a4:	d8800215 	stw	r2,8(sp)
 20019a8:	180f883a 	mov	r7,r3
 20019ac:	2006d340 	call	2006d34 <vid_draw_box>
			vid_print_string_alpha(rc.left+8, rc.top+(RectHeight(&rc)-22)/2, WHITE_24, BLACK_24, tahomabold_20, pDisplay, "3");
 20019b0:	e0bff817 	ldw	r2,-32(fp)
 20019b4:	14400204 	addi	r17,r2,8
 20019b8:	e43ffa17 	ldw	r16,-24(fp)
 20019bc:	e0bff804 	addi	r2,fp,-32
 20019c0:	1009883a 	mov	r4,r2
 20019c4:	20063c00 	call	20063c0 <RectHeight>
 20019c8:	10bffa84 	addi	r2,r2,-22
 20019cc:	1006d7fa 	srli	r3,r2,31
 20019d0:	1885883a 	add	r2,r3,r2
 20019d4:	1005d07a 	srai	r2,r2,1
 20019d8:	8087883a 	add	r3,r16,r2
 20019dc:	008080f4 	movhi	r2,515
 20019e0:	10af9504 	addi	r2,r2,-16812
 20019e4:	d8800015 	stw	r2,0(sp)
 20019e8:	e0bffc17 	ldw	r2,-16(fp)
 20019ec:	d8800115 	stw	r2,4(sp)
 20019f0:	00808074 	movhi	r2,513
 20019f4:	10876804 	addi	r2,r2,7584
 20019f8:	d8800215 	stw	r2,8(sp)
 20019fc:	8809883a 	mov	r4,r17
 2001a00:	180b883a 	mov	r5,r3
 2001a04:	01804034 	movhi	r6,256
 2001a08:	31bfffc4 	addi	r6,r6,-1
 2001a0c:	000f883a 	mov	r7,zero
 2001a10:	2008b400 	call	2008b40 <vid_print_string_alpha>
 2001a14:	00009b06 	br	2001c84 <GUI_ROBINSUN_CompetitionChoice1_Draw+0x78c>
		}
		else if (i == 7){
 2001a18:	e0bff717 	ldw	r2,-36(fp)
 2001a1c:	108001d8 	cmpnei	r2,r2,7
 2001a20:	1000311e 	bne	r2,zero,2001ae8 <GUI_ROBINSUN_CompetitionChoice1_Draw+0x5f0>
			vid_draw_box (rc.left, rc.top, rc.right, rc.bottom, BLACK_24, DO_FILL, pDisplay);
 2001a24:	e13ff817 	ldw	r4,-32(fp)
 2001a28:	e17ffa17 	ldw	r5,-24(fp)
 2001a2c:	e1bff917 	ldw	r6,-28(fp)
 2001a30:	e0fffb17 	ldw	r3,-20(fp)
 2001a34:	d8000015 	stw	zero,0(sp)
 2001a38:	00800044 	movi	r2,1
 2001a3c:	d8800115 	stw	r2,4(sp)
 2001a40:	e0bffc17 	ldw	r2,-16(fp)
 2001a44:	d8800215 	stw	r2,8(sp)
 2001a48:	180f883a 	mov	r7,r3
 2001a4c:	2006d340 	call	2006d34 <vid_draw_box>
			vid_draw_box (rc.left, rc.top, rc.right, rc.bottom, WHITE_24, DO_NOT_FILL, pDisplay);
 2001a50:	e13ff817 	ldw	r4,-32(fp)
 2001a54:	e17ffa17 	ldw	r5,-24(fp)
 2001a58:	e1bff917 	ldw	r6,-28(fp)
 2001a5c:	e0fffb17 	ldw	r3,-20(fp)
 2001a60:	00804034 	movhi	r2,256
 2001a64:	10bfffc4 	addi	r2,r2,-1
 2001a68:	d8800015 	stw	r2,0(sp)
 2001a6c:	d8000115 	stw	zero,4(sp)
 2001a70:	e0bffc17 	ldw	r2,-16(fp)
 2001a74:	d8800215 	stw	r2,8(sp)
 2001a78:	180f883a 	mov	r7,r3
 2001a7c:	2006d340 	call	2006d34 <vid_draw_box>
			vid_print_string_alpha(rc.left+8, rc.top+(RectHeight(&rc)-22)/2, WHITE_24, BLACK_24, tahomabold_20, pDisplay, "4");
 2001a80:	e0bff817 	ldw	r2,-32(fp)
 2001a84:	14400204 	addi	r17,r2,8
 2001a88:	e43ffa17 	ldw	r16,-24(fp)
 2001a8c:	e0bff804 	addi	r2,fp,-32
 2001a90:	1009883a 	mov	r4,r2
 2001a94:	20063c00 	call	20063c0 <RectHeight>
 2001a98:	10bffa84 	addi	r2,r2,-22
 2001a9c:	1006d7fa 	srli	r3,r2,31
 2001aa0:	1885883a 	add	r2,r3,r2
 2001aa4:	1005d07a 	srai	r2,r2,1
 2001aa8:	8087883a 	add	r3,r16,r2
 2001aac:	008080f4 	movhi	r2,515
 2001ab0:	10af9504 	addi	r2,r2,-16812
 2001ab4:	d8800015 	stw	r2,0(sp)
 2001ab8:	e0bffc17 	ldw	r2,-16(fp)
 2001abc:	d8800115 	stw	r2,4(sp)
 2001ac0:	00808074 	movhi	r2,513
 2001ac4:	10876904 	addi	r2,r2,7588
 2001ac8:	d8800215 	stw	r2,8(sp)
 2001acc:	8809883a 	mov	r4,r17
 2001ad0:	180b883a 	mov	r5,r3
 2001ad4:	01804034 	movhi	r6,256
 2001ad8:	31bfffc4 	addi	r6,r6,-1
 2001adc:	000f883a 	mov	r7,zero
 2001ae0:	2008b400 	call	2008b40 <vid_print_string_alpha>
 2001ae4:	00006706 	br	2001c84 <GUI_ROBINSUN_CompetitionChoice1_Draw+0x78c>
		}
		else if (i == 8){
 2001ae8:	e0bff717 	ldw	r2,-36(fp)
 2001aec:	10800218 	cmpnei	r2,r2,8
 2001af0:	1000311e 	bne	r2,zero,2001bb8 <GUI_ROBINSUN_CompetitionChoice1_Draw+0x6c0>
			vid_draw_box (rc.left, rc.top, rc.right, rc.bottom, BLACK_24, DO_FILL, pDisplay);
 2001af4:	e13ff817 	ldw	r4,-32(fp)
 2001af8:	e17ffa17 	ldw	r5,-24(fp)
 2001afc:	e1bff917 	ldw	r6,-28(fp)
 2001b00:	e0fffb17 	ldw	r3,-20(fp)
 2001b04:	d8000015 	stw	zero,0(sp)
 2001b08:	00800044 	movi	r2,1
 2001b0c:	d8800115 	stw	r2,4(sp)
 2001b10:	e0bffc17 	ldw	r2,-16(fp)
 2001b14:	d8800215 	stw	r2,8(sp)
 2001b18:	180f883a 	mov	r7,r3
 2001b1c:	2006d340 	call	2006d34 <vid_draw_box>
			vid_draw_box (rc.left, rc.top, rc.right, rc.bottom, WHITE_24, DO_NOT_FILL, pDisplay);
 2001b20:	e13ff817 	ldw	r4,-32(fp)
 2001b24:	e17ffa17 	ldw	r5,-24(fp)
 2001b28:	e1bff917 	ldw	r6,-28(fp)
 2001b2c:	e0fffb17 	ldw	r3,-20(fp)
 2001b30:	00804034 	movhi	r2,256
 2001b34:	10bfffc4 	addi	r2,r2,-1
 2001b38:	d8800015 	stw	r2,0(sp)
 2001b3c:	d8000115 	stw	zero,4(sp)
 2001b40:	e0bffc17 	ldw	r2,-16(fp)
 2001b44:	d8800215 	stw	r2,8(sp)
 2001b48:	180f883a 	mov	r7,r3
 2001b4c:	2006d340 	call	2006d34 <vid_draw_box>
			vid_print_string_alpha(rc.left+8, rc.top+(RectHeight(&rc)-22)/2, WHITE_24, BLACK_24, tahomabold_20, pDisplay, "Back");
 2001b50:	e0bff817 	ldw	r2,-32(fp)
 2001b54:	14400204 	addi	r17,r2,8
 2001b58:	e43ffa17 	ldw	r16,-24(fp)
 2001b5c:	e0bff804 	addi	r2,fp,-32
 2001b60:	1009883a 	mov	r4,r2
 2001b64:	20063c00 	call	20063c0 <RectHeight>
 2001b68:	10bffa84 	addi	r2,r2,-22
 2001b6c:	1006d7fa 	srli	r3,r2,31
 2001b70:	1885883a 	add	r2,r3,r2
 2001b74:	1005d07a 	srai	r2,r2,1
 2001b78:	8087883a 	add	r3,r16,r2
 2001b7c:	008080f4 	movhi	r2,515
 2001b80:	10af9504 	addi	r2,r2,-16812
 2001b84:	d8800015 	stw	r2,0(sp)
 2001b88:	e0bffc17 	ldw	r2,-16(fp)
 2001b8c:	d8800115 	stw	r2,4(sp)
 2001b90:	00808074 	movhi	r2,513
 2001b94:	10876a04 	addi	r2,r2,7592
 2001b98:	d8800215 	stw	r2,8(sp)
 2001b9c:	8809883a 	mov	r4,r17
 2001ba0:	180b883a 	mov	r5,r3
 2001ba4:	01804034 	movhi	r6,256
 2001ba8:	31bfffc4 	addi	r6,r6,-1
 2001bac:	000f883a 	mov	r7,zero
 2001bb0:	2008b400 	call	2008b40 <vid_print_string_alpha>
 2001bb4:	00003306 	br	2001c84 <GUI_ROBINSUN_CompetitionChoice1_Draw+0x78c>
		}
		else if (i == 9){
 2001bb8:	e0bff717 	ldw	r2,-36(fp)
 2001bbc:	10800258 	cmpnei	r2,r2,9
 2001bc0:	1000301e 	bne	r2,zero,2001c84 <GUI_ROBINSUN_CompetitionChoice1_Draw+0x78c>
			vid_draw_box (rc.left, rc.top, rc.right, rc.bottom, BLACK_24, DO_FILL, pDisplay);
 2001bc4:	e13ff817 	ldw	r4,-32(fp)
 2001bc8:	e17ffa17 	ldw	r5,-24(fp)
 2001bcc:	e1bff917 	ldw	r6,-28(fp)
 2001bd0:	e0fffb17 	ldw	r3,-20(fp)
 2001bd4:	d8000015 	stw	zero,0(sp)
 2001bd8:	00800044 	movi	r2,1
 2001bdc:	d8800115 	stw	r2,4(sp)
 2001be0:	e0bffc17 	ldw	r2,-16(fp)
 2001be4:	d8800215 	stw	r2,8(sp)
 2001be8:	180f883a 	mov	r7,r3
 2001bec:	2006d340 	call	2006d34 <vid_draw_box>
			vid_draw_box (rc.left, rc.top, rc.right, rc.bottom, WHITE_24, DO_NOT_FILL, pDisplay);
 2001bf0:	e13ff817 	ldw	r4,-32(fp)
 2001bf4:	e17ffa17 	ldw	r5,-24(fp)
 2001bf8:	e1bff917 	ldw	r6,-28(fp)
 2001bfc:	e0fffb17 	ldw	r3,-20(fp)
 2001c00:	00804034 	movhi	r2,256
 2001c04:	10bfffc4 	addi	r2,r2,-1
 2001c08:	d8800015 	stw	r2,0(sp)
 2001c0c:	d8000115 	stw	zero,4(sp)
 2001c10:	e0bffc17 	ldw	r2,-16(fp)
 2001c14:	d8800215 	stw	r2,8(sp)
 2001c18:	180f883a 	mov	r7,r3
 2001c1c:	2006d340 	call	2006d34 <vid_draw_box>
			vid_print_string_alpha(rc.left+8, rc.top+(RectHeight(&rc)-22)/2, WHITE_24, BLACK_24, tahomabold_20, pDisplay, "Continue");
 2001c20:	e0bff817 	ldw	r2,-32(fp)
 2001c24:	14400204 	addi	r17,r2,8
 2001c28:	e43ffa17 	ldw	r16,-24(fp)
 2001c2c:	e0bff804 	addi	r2,fp,-32
 2001c30:	1009883a 	mov	r4,r2
 2001c34:	20063c00 	call	20063c0 <RectHeight>
 2001c38:	10bffa84 	addi	r2,r2,-22
 2001c3c:	1006d7fa 	srli	r3,r2,31
 2001c40:	1885883a 	add	r2,r3,r2
 2001c44:	1005d07a 	srai	r2,r2,1
 2001c48:	8087883a 	add	r3,r16,r2
 2001c4c:	008080f4 	movhi	r2,515
 2001c50:	10af9504 	addi	r2,r2,-16812
 2001c54:	d8800015 	stw	r2,0(sp)
 2001c58:	e0bffc17 	ldw	r2,-16(fp)
 2001c5c:	d8800115 	stw	r2,4(sp)
 2001c60:	00808074 	movhi	r2,513
 2001c64:	10876c04 	addi	r2,r2,7600
 2001c68:	d8800215 	stw	r2,8(sp)
 2001c6c:	8809883a 	mov	r4,r17
 2001c70:	180b883a 	mov	r5,r3
 2001c74:	01804034 	movhi	r6,256
 2001c78:	31bfffc4 	addi	r6,r6,-1
 2001c7c:	000f883a 	mov	r7,zero
 2001c80:	2008b400 	call	2008b40 <vid_print_string_alpha>
	// draw border
	RectCopy(&rc, &pDeskInfo->rcDisp);
	vid_draw_box (rc.left, rc.top, rc.right, rc.bottom, WHITE_24, DO_NOT_FILL, pDisplay);

	// draw buttons
	for(i=0;i<10;i++){
 2001c84:	e0bff717 	ldw	r2,-36(fp)
 2001c88:	10800044 	addi	r2,r2,1
 2001c8c:	e0bff715 	stw	r2,-36(fp)
 2001c90:	e0bff717 	ldw	r2,-36(fp)
 2001c94:	10800290 	cmplti	r2,r2,10
 2001c98:	103e321e 	bne	r2,zero,2001564 <__reset+0xfdff9d64>
		else
		{

		}
	}
}
 2001c9c:	e6fffe04 	addi	sp,fp,-8
 2001ca0:	dfc00317 	ldw	ra,12(sp)
 2001ca4:	df000217 	ldw	fp,8(sp)
 2001ca8:	dc400117 	ldw	r17,4(sp)
 2001cac:	dc000017 	ldw	r16,0(sp)
 2001cb0:	dec00404 	addi	sp,sp,16
 2001cb4:	f800283a 	ret

02001cb8 <GUI_ROBINSUN_CompetitionChoice2_Init>:

void GUI_ROBINSUN_CompetitionChoice2_Init(alt_video_display *pDisplay, DESK_INFO *pDeskInfo){
 2001cb8:	defff104 	addi	sp,sp,-60
 2001cbc:	dfc00e15 	stw	ra,56(sp)
 2001cc0:	df000d15 	stw	fp,52(sp)
 2001cc4:	df000d04 	addi	fp,sp,52
 2001cc8:	e13ffe15 	stw	r4,-8(fp)
 2001ccc:	e17fff15 	stw	r5,-4(fp)
	int i;
	RECT rc;
	const int BoxH = 40;
 2001cd0:	00800a04 	movi	r2,40
 2001cd4:	e0bff515 	stw	r2,-44(fp)
	const int DistBorder = 2;
 2001cd8:	00800084 	movi	r2,2
 2001cdc:	e0bff615 	stw	r2,-40(fp)
	const int DistW = 10;
 2001ce0:	00800284 	movi	r2,10
 2001ce4:	e0bff715 	stw	r2,-36(fp)
	int GapH, BoxW;

	// Space to put between the buttons in order to be equally spaced
	GapH = (pDisplay->height - (6*BoxH) - 12 - 4)/(3+1);
 2001ce8:	e0bffe17 	ldw	r2,-8(fp)
 2001cec:	10c00217 	ldw	r3,8(r2)
 2001cf0:	e0bff517 	ldw	r2,-44(fp)
 2001cf4:	10bffea4 	muli	r2,r2,-6
 2001cf8:	1885883a 	add	r2,r3,r2
 2001cfc:	10bffc04 	addi	r2,r2,-16
 2001d00:	1000010e 	bge	r2,zero,2001d08 <GUI_ROBINSUN_CompetitionChoice2_Init+0x50>
 2001d04:	108000c4 	addi	r2,r2,3
 2001d08:	1005d0ba 	srai	r2,r2,2
 2001d0c:	e0bff815 	stw	r2,-32(fp)
	BoxW = (pDisplay->width - 2*DistW - 5)/2;
 2001d10:	e0bffe17 	ldw	r2,-8(fp)
 2001d14:	10c00117 	ldw	r3,4(r2)
 2001d18:	e13ff717 	ldw	r4,-36(fp)
 2001d1c:	0005883a 	mov	r2,zero
 2001d20:	1105c83a 	sub	r2,r2,r4
 2001d24:	1085883a 	add	r2,r2,r2
 2001d28:	1885883a 	add	r2,r3,r2
 2001d2c:	10bffec4 	addi	r2,r2,-5
 2001d30:	1006d7fa 	srli	r3,r2,31
 2001d34:	1885883a 	add	r2,r3,r2
 2001d38:	1005d07a 	srai	r2,r2,1
 2001d3c:	e0bff915 	stw	r2,-28(fp)

	// Desk border
	RectSet(&pDeskInfo->rcDisp, DistBorder, pDisplay->width-DistBorder, DistBorder, pDisplay->height-DistBorder);
 2001d40:	e13fff17 	ldw	r4,-4(fp)
 2001d44:	e0bffe17 	ldw	r2,-8(fp)
 2001d48:	10c00117 	ldw	r3,4(r2)
 2001d4c:	e0bff617 	ldw	r2,-40(fp)
 2001d50:	188dc83a 	sub	r6,r3,r2
 2001d54:	e0bffe17 	ldw	r2,-8(fp)
 2001d58:	10c00217 	ldw	r3,8(r2)
 2001d5c:	e0bff617 	ldw	r2,-40(fp)
 2001d60:	1885c83a 	sub	r2,r3,r2
 2001d64:	d8800015 	stw	r2,0(sp)
 2001d68:	e17ff617 	ldw	r5,-40(fp)
 2001d6c:	e1fff617 	ldw	r7,-40(fp)
 2001d70:	20061bc0 	call	20061bc <RectSet>

	rc.top = DistBorder + GapH;
 2001d74:	e0fff617 	ldw	r3,-40(fp)
 2001d78:	e0bff817 	ldw	r2,-32(fp)
 2001d7c:	1885883a 	add	r2,r3,r2
 2001d80:	e0bffc15 	stw	r2,-16(fp)
	rc.bottom = rc.top + BoxH;
 2001d84:	e0fffc17 	ldw	r3,-16(fp)
 2001d88:	e0bff517 	ldw	r2,-44(fp)
 2001d8c:	1885883a 	add	r2,r3,r2
 2001d90:	e0bffd15 	stw	r2,-12(fp)
	rc.left = DistW;
 2001d94:	e0bff717 	ldw	r2,-36(fp)
 2001d98:	e0bffa15 	stw	r2,-24(fp)
	rc.right = rc.left + 2*BoxW + 5;
 2001d9c:	e0fffa17 	ldw	r3,-24(fp)
 2001da0:	e0bff917 	ldw	r2,-28(fp)
 2001da4:	1085883a 	add	r2,r2,r2
 2001da8:	1885883a 	add	r2,r3,r2
 2001dac:	10800144 	addi	r2,r2,5
 2001db0:	e0bffb15 	stw	r2,-20(fp)

	// Initialization of the rectangles for the buttons
	for(i=0;i<6;i++){
 2001db4:	e03ff415 	stw	zero,-48(fp)
 2001db8:	00005d06 	br	2001f30 <GUI_ROBINSUN_CompetitionChoice2_Init+0x278>
		if (i==0){
 2001dbc:	e0bff417 	ldw	r2,-48(fp)
 2001dc0:	1000151e 	bne	r2,zero,2001e18 <GUI_ROBINSUN_CompetitionChoice2_Init+0x160>
			RectCopy(&pDeskInfo->buttons_competitionchoice2[i].rc, &rc);
 2001dc4:	e0bff417 	ldw	r2,-48(fp)
 2001dc8:	10800524 	muli	r2,r2,20
 2001dcc:	1080c204 	addi	r2,r2,776
 2001dd0:	e0ffff17 	ldw	r3,-4(fp)
 2001dd4:	1887883a 	add	r3,r3,r2
 2001dd8:	e0bffa04 	addi	r2,fp,-24
 2001ddc:	1809883a 	mov	r4,r3
 2001de0:	100b883a 	mov	r5,r2
 2001de4:	20063280 	call	2006328 <RectCopy>
			rc.right = rc.left + BoxW;
 2001de8:	e0fffa17 	ldw	r3,-24(fp)
 2001dec:	e0bff917 	ldw	r2,-28(fp)
 2001df0:	1885883a 	add	r2,r3,r2
 2001df4:	e0bffb15 	stw	r2,-20(fp)
			RectOffset(&rc, 0, BoxH+5);
 2001df8:	e0bff517 	ldw	r2,-44(fp)
 2001dfc:	10800144 	addi	r2,r2,5
 2001e00:	e0fffa04 	addi	r3,fp,-24
 2001e04:	1809883a 	mov	r4,r3
 2001e08:	000b883a 	mov	r5,zero
 2001e0c:	100d883a 	mov	r6,r2
 2001e10:	20062a00 	call	20062a0 <RectOffset>
 2001e14:	00004306 	br	2001f24 <GUI_ROBINSUN_CompetitionChoice2_Init+0x26c>
		}
		else if(i==1 || i==4){
 2001e18:	e0bff417 	ldw	r2,-48(fp)
 2001e1c:	10800060 	cmpeqi	r2,r2,1
 2001e20:	1000031e 	bne	r2,zero,2001e30 <GUI_ROBINSUN_CompetitionChoice2_Init+0x178>
 2001e24:	e0bff417 	ldw	r2,-48(fp)
 2001e28:	10800118 	cmpnei	r2,r2,4
 2001e2c:	1000111e 	bne	r2,zero,2001e74 <GUI_ROBINSUN_CompetitionChoice2_Init+0x1bc>
			RectCopy(&pDeskInfo->buttons_competitionchoice2[i].rc, &rc);
 2001e30:	e0bff417 	ldw	r2,-48(fp)
 2001e34:	10800524 	muli	r2,r2,20
 2001e38:	1080c204 	addi	r2,r2,776
 2001e3c:	e0ffff17 	ldw	r3,-4(fp)
 2001e40:	1887883a 	add	r3,r3,r2
 2001e44:	e0bffa04 	addi	r2,fp,-24
 2001e48:	1809883a 	mov	r4,r3
 2001e4c:	100b883a 	mov	r5,r2
 2001e50:	20063280 	call	2006328 <RectCopy>
			RectOffset(&rc, BoxW+5, 0);
 2001e54:	e0bff917 	ldw	r2,-28(fp)
 2001e58:	10800144 	addi	r2,r2,5
 2001e5c:	e0fffa04 	addi	r3,fp,-24
 2001e60:	1809883a 	mov	r4,r3
 2001e64:	100b883a 	mov	r5,r2
 2001e68:	000d883a 	mov	r6,zero
 2001e6c:	20062a00 	call	20062a0 <RectOffset>
 2001e70:	00002c06 	br	2001f24 <GUI_ROBINSUN_CompetitionChoice2_Init+0x26c>
		}
		else if(i==2){
 2001e74:	e0bff417 	ldw	r2,-48(fp)
 2001e78:	10800098 	cmpnei	r2,r2,2
 2001e7c:	1000141e 	bne	r2,zero,2001ed0 <GUI_ROBINSUN_CompetitionChoice2_Init+0x218>
			RectCopy(&pDeskInfo->buttons_competitionchoice2[i].rc, &rc);
 2001e80:	e0bff417 	ldw	r2,-48(fp)
 2001e84:	10800524 	muli	r2,r2,20
 2001e88:	1080c204 	addi	r2,r2,776
 2001e8c:	e0ffff17 	ldw	r3,-4(fp)
 2001e90:	1887883a 	add	r3,r3,r2
 2001e94:	e0bffa04 	addi	r2,fp,-24
 2001e98:	1809883a 	mov	r4,r3
 2001e9c:	100b883a 	mov	r5,r2
 2001ea0:	20063280 	call	2006328 <RectCopy>
			RectOffset(&rc, -BoxW-5, BoxH+GapH);
 2001ea4:	00fffec4 	movi	r3,-5
 2001ea8:	e0bff917 	ldw	r2,-28(fp)
 2001eac:	188bc83a 	sub	r5,r3,r2
 2001eb0:	e0fff517 	ldw	r3,-44(fp)
 2001eb4:	e0bff817 	ldw	r2,-32(fp)
 2001eb8:	1885883a 	add	r2,r3,r2
 2001ebc:	e0fffa04 	addi	r3,fp,-24
 2001ec0:	1809883a 	mov	r4,r3
 2001ec4:	100d883a 	mov	r6,r2
 2001ec8:	20062a00 	call	20062a0 <RectOffset>
 2001ecc:	00001506 	br	2001f24 <GUI_ROBINSUN_CompetitionChoice2_Init+0x26c>
		}
		else{
			RectCopy(&pDeskInfo->buttons_competitionchoice2[i].rc, &rc);
 2001ed0:	e0bff417 	ldw	r2,-48(fp)
 2001ed4:	10800524 	muli	r2,r2,20
 2001ed8:	1080c204 	addi	r2,r2,776
 2001edc:	e0ffff17 	ldw	r3,-4(fp)
 2001ee0:	1887883a 	add	r3,r3,r2
 2001ee4:	e0bffa04 	addi	r2,fp,-24
 2001ee8:	1809883a 	mov	r4,r3
 2001eec:	100b883a 	mov	r5,r2
 2001ef0:	20063280 	call	2006328 <RectCopy>
			RectOffset(&rc, 0, 3*BoxH + 7 + GapH);
 2001ef4:	e0fff517 	ldw	r3,-44(fp)
 2001ef8:	1805883a 	mov	r2,r3
 2001efc:	1085883a 	add	r2,r2,r2
 2001f00:	10c5883a 	add	r2,r2,r3
 2001f04:	10c001c4 	addi	r3,r2,7
 2001f08:	e0bff817 	ldw	r2,-32(fp)
 2001f0c:	1885883a 	add	r2,r3,r2
 2001f10:	e0fffa04 	addi	r3,fp,-24
 2001f14:	1809883a 	mov	r4,r3
 2001f18:	000b883a 	mov	r5,zero
 2001f1c:	100d883a 	mov	r6,r2
 2001f20:	20062a00 	call	20062a0 <RectOffset>
	rc.bottom = rc.top + BoxH;
	rc.left = DistW;
	rc.right = rc.left + 2*BoxW + 5;

	// Initialization of the rectangles for the buttons
	for(i=0;i<6;i++){
 2001f24:	e0bff417 	ldw	r2,-48(fp)
 2001f28:	10800044 	addi	r2,r2,1
 2001f2c:	e0bff415 	stw	r2,-48(fp)
 2001f30:	e0bff417 	ldw	r2,-48(fp)
 2001f34:	10800190 	cmplti	r2,r2,6
 2001f38:	103fa01e 	bne	r2,zero,2001dbc <__reset+0xfdffa5bc>
		else{
			RectCopy(&pDeskInfo->buttons_competitionchoice2[i].rc, &rc);
			RectOffset(&rc, 0, 3*BoxH + 7 + GapH);
		}
	}
}
 2001f3c:	e037883a 	mov	sp,fp
 2001f40:	dfc00117 	ldw	ra,4(sp)
 2001f44:	df000017 	ldw	fp,0(sp)
 2001f48:	dec00204 	addi	sp,sp,8
 2001f4c:	f800283a 	ret

02001f50 <GUI_ROBINSUN_CompetitionChoice2_Draw>:

void GUI_ROBINSUN_CompetitionChoice2_Draw(alt_video_display *pDisplay, DESK_INFO *pDeskInfo){
 2001f50:	defff204 	addi	sp,sp,-56
 2001f54:	dfc00d15 	stw	ra,52(sp)
 2001f58:	df000c15 	stw	fp,48(sp)
 2001f5c:	dc400b15 	stw	r17,44(sp)
 2001f60:	dc000a15 	stw	r16,40(sp)
 2001f64:	df000c04 	addi	fp,sp,48
 2001f68:	e13ffc15 	stw	r4,-16(fp)
 2001f6c:	e17ffd15 	stw	r5,-12(fp)
	int i;
	RECT rc;

	// draw border
	RectCopy(&rc, &pDeskInfo->rcDisp);
 2001f70:	e0bffd17 	ldw	r2,-12(fp)
 2001f74:	e0fff804 	addi	r3,fp,-32
 2001f78:	1809883a 	mov	r4,r3
 2001f7c:	100b883a 	mov	r5,r2
 2001f80:	20063280 	call	2006328 <RectCopy>
	vid_draw_box (rc.left, rc.top, rc.right, rc.bottom, WHITE_24, DO_NOT_FILL, pDisplay);
 2001f84:	e13ff817 	ldw	r4,-32(fp)
 2001f88:	e17ffa17 	ldw	r5,-24(fp)
 2001f8c:	e1bff917 	ldw	r6,-28(fp)
 2001f90:	e0fffb17 	ldw	r3,-20(fp)
 2001f94:	00804034 	movhi	r2,256
 2001f98:	10bfffc4 	addi	r2,r2,-1
 2001f9c:	d8800015 	stw	r2,0(sp)
 2001fa0:	d8000115 	stw	zero,4(sp)
 2001fa4:	e0bffc17 	ldw	r2,-16(fp)
 2001fa8:	d8800215 	stw	r2,8(sp)
 2001fac:	180f883a 	mov	r7,r3
 2001fb0:	2006d340 	call	2006d34 <vid_draw_box>

	// draw buttons
	for(i=0;i<6;i++){
 2001fb4:	e03ff715 	stw	zero,-36(fp)
 2001fb8:	00010e06 	br	20023f4 <GUI_ROBINSUN_CompetitionChoice2_Draw+0x4a4>
		RectCopy(&rc, &pDeskInfo->buttons_competitionchoice2[i].rc);
 2001fbc:	e0bff717 	ldw	r2,-36(fp)
 2001fc0:	10800524 	muli	r2,r2,20
 2001fc4:	1080c204 	addi	r2,r2,776
 2001fc8:	e0fffd17 	ldw	r3,-12(fp)
 2001fcc:	1885883a 	add	r2,r3,r2
 2001fd0:	e0fff804 	addi	r3,fp,-32
 2001fd4:	1809883a 	mov	r4,r3
 2001fd8:	100b883a 	mov	r5,r2
 2001fdc:	20063280 	call	2006328 <RectCopy>
		if (i == 0){
 2001fe0:	e0bff717 	ldw	r2,-36(fp)
 2001fe4:	1000311e 	bne	r2,zero,20020ac <GUI_ROBINSUN_CompetitionChoice2_Draw+0x15c>
			vid_draw_box (rc.left, rc.top, rc.right, rc.bottom, BLACK_24, DO_FILL, pDisplay);
 2001fe8:	e13ff817 	ldw	r4,-32(fp)
 2001fec:	e17ffa17 	ldw	r5,-24(fp)
 2001ff0:	e1bff917 	ldw	r6,-28(fp)
 2001ff4:	e0fffb17 	ldw	r3,-20(fp)
 2001ff8:	d8000015 	stw	zero,0(sp)
 2001ffc:	00800044 	movi	r2,1
 2002000:	d8800115 	stw	r2,4(sp)
 2002004:	e0bffc17 	ldw	r2,-16(fp)
 2002008:	d8800215 	stw	r2,8(sp)
 200200c:	180f883a 	mov	r7,r3
 2002010:	2006d340 	call	2006d34 <vid_draw_box>
			vid_draw_box (rc.left, rc.top, rc.right, rc.bottom, WHITE_24, DO_NOT_FILL, pDisplay);
 2002014:	e13ff817 	ldw	r4,-32(fp)
 2002018:	e17ffa17 	ldw	r5,-24(fp)
 200201c:	e1bff917 	ldw	r6,-28(fp)
 2002020:	e0fffb17 	ldw	r3,-20(fp)
 2002024:	00804034 	movhi	r2,256
 2002028:	10bfffc4 	addi	r2,r2,-1
 200202c:	d8800015 	stw	r2,0(sp)
 2002030:	d8000115 	stw	zero,4(sp)
 2002034:	e0bffc17 	ldw	r2,-16(fp)
 2002038:	d8800215 	stw	r2,8(sp)
 200203c:	180f883a 	mov	r7,r3
 2002040:	2006d340 	call	2006d34 <vid_draw_box>
			vid_print_string_alpha(rc.left+8, rc.top+(RectHeight(&rc)-22)/2, WHITE_24, BLACK_24, tahomabold_20, pDisplay, "Nb of opponents");
 2002044:	e0bff817 	ldw	r2,-32(fp)
 2002048:	14400204 	addi	r17,r2,8
 200204c:	e43ffa17 	ldw	r16,-24(fp)
 2002050:	e0bff804 	addi	r2,fp,-32
 2002054:	1009883a 	mov	r4,r2
 2002058:	20063c00 	call	20063c0 <RectHeight>
 200205c:	10bffa84 	addi	r2,r2,-22
 2002060:	1006d7fa 	srli	r3,r2,31
 2002064:	1885883a 	add	r2,r3,r2
 2002068:	1005d07a 	srai	r2,r2,1
 200206c:	8087883a 	add	r3,r16,r2
 2002070:	008080f4 	movhi	r2,515
 2002074:	10af9504 	addi	r2,r2,-16812
 2002078:	d8800015 	stw	r2,0(sp)
 200207c:	e0bffc17 	ldw	r2,-16(fp)
 2002080:	d8800115 	stw	r2,4(sp)
 2002084:	00808074 	movhi	r2,513
 2002088:	10876f04 	addi	r2,r2,7612
 200208c:	d8800215 	stw	r2,8(sp)
 2002090:	8809883a 	mov	r4,r17
 2002094:	180b883a 	mov	r5,r3
 2002098:	01804034 	movhi	r6,256
 200209c:	31bfffc4 	addi	r6,r6,-1
 20020a0:	000f883a 	mov	r7,zero
 20020a4:	2008b400 	call	2008b40 <vid_print_string_alpha>
 20020a8:	0000cf06 	br	20023e8 <GUI_ROBINSUN_CompetitionChoice2_Draw+0x498>
		}
		else if (i == 1){
 20020ac:	e0bff717 	ldw	r2,-36(fp)
 20020b0:	10800058 	cmpnei	r2,r2,1
 20020b4:	1000311e 	bne	r2,zero,200217c <GUI_ROBINSUN_CompetitionChoice2_Draw+0x22c>
			vid_draw_box (rc.left, rc.top, rc.right, rc.bottom, BLACK_24, DO_FILL, pDisplay);
 20020b8:	e13ff817 	ldw	r4,-32(fp)
 20020bc:	e17ffa17 	ldw	r5,-24(fp)
 20020c0:	e1bff917 	ldw	r6,-28(fp)
 20020c4:	e0fffb17 	ldw	r3,-20(fp)
 20020c8:	d8000015 	stw	zero,0(sp)
 20020cc:	00800044 	movi	r2,1
 20020d0:	d8800115 	stw	r2,4(sp)
 20020d4:	e0bffc17 	ldw	r2,-16(fp)
 20020d8:	d8800215 	stw	r2,8(sp)
 20020dc:	180f883a 	mov	r7,r3
 20020e0:	2006d340 	call	2006d34 <vid_draw_box>
			vid_draw_box (rc.left, rc.top, rc.right, rc.bottom, WHITE_24, DO_NOT_FILL, pDisplay);
 20020e4:	e13ff817 	ldw	r4,-32(fp)
 20020e8:	e17ffa17 	ldw	r5,-24(fp)
 20020ec:	e1bff917 	ldw	r6,-28(fp)
 20020f0:	e0fffb17 	ldw	r3,-20(fp)
 20020f4:	00804034 	movhi	r2,256
 20020f8:	10bfffc4 	addi	r2,r2,-1
 20020fc:	d8800015 	stw	r2,0(sp)
 2002100:	d8000115 	stw	zero,4(sp)
 2002104:	e0bffc17 	ldw	r2,-16(fp)
 2002108:	d8800215 	stw	r2,8(sp)
 200210c:	180f883a 	mov	r7,r3
 2002110:	2006d340 	call	2006d34 <vid_draw_box>
			vid_print_string_alpha(rc.left+8, rc.top+(RectHeight(&rc)-22)/2, WHITE_24, BLACK_24, tahomabold_20, pDisplay, "1");
 2002114:	e0bff817 	ldw	r2,-32(fp)
 2002118:	14400204 	addi	r17,r2,8
 200211c:	e43ffa17 	ldw	r16,-24(fp)
 2002120:	e0bff804 	addi	r2,fp,-32
 2002124:	1009883a 	mov	r4,r2
 2002128:	20063c00 	call	20063c0 <RectHeight>
 200212c:	10bffa84 	addi	r2,r2,-22
 2002130:	1006d7fa 	srli	r3,r2,31
 2002134:	1885883a 	add	r2,r3,r2
 2002138:	1005d07a 	srai	r2,r2,1
 200213c:	8087883a 	add	r3,r16,r2
 2002140:	008080f4 	movhi	r2,515
 2002144:	10af9504 	addi	r2,r2,-16812
 2002148:	d8800015 	stw	r2,0(sp)
 200214c:	e0bffc17 	ldw	r2,-16(fp)
 2002150:	d8800115 	stw	r2,4(sp)
 2002154:	00808074 	movhi	r2,513
 2002158:	10876604 	addi	r2,r2,7576
 200215c:	d8800215 	stw	r2,8(sp)
 2002160:	8809883a 	mov	r4,r17
 2002164:	180b883a 	mov	r5,r3
 2002168:	01804034 	movhi	r6,256
 200216c:	31bfffc4 	addi	r6,r6,-1
 2002170:	000f883a 	mov	r7,zero
 2002174:	2008b400 	call	2008b40 <vid_print_string_alpha>
 2002178:	00009b06 	br	20023e8 <GUI_ROBINSUN_CompetitionChoice2_Draw+0x498>
		}
		else if (i == 2){
 200217c:	e0bff717 	ldw	r2,-36(fp)
 2002180:	10800098 	cmpnei	r2,r2,2
 2002184:	1000311e 	bne	r2,zero,200224c <GUI_ROBINSUN_CompetitionChoice2_Draw+0x2fc>
			vid_draw_box (rc.left, rc.top, rc.right, rc.bottom, BLACK_24, DO_FILL, pDisplay);
 2002188:	e13ff817 	ldw	r4,-32(fp)
 200218c:	e17ffa17 	ldw	r5,-24(fp)
 2002190:	e1bff917 	ldw	r6,-28(fp)
 2002194:	e0fffb17 	ldw	r3,-20(fp)
 2002198:	d8000015 	stw	zero,0(sp)
 200219c:	00800044 	movi	r2,1
 20021a0:	d8800115 	stw	r2,4(sp)
 20021a4:	e0bffc17 	ldw	r2,-16(fp)
 20021a8:	d8800215 	stw	r2,8(sp)
 20021ac:	180f883a 	mov	r7,r3
 20021b0:	2006d340 	call	2006d34 <vid_draw_box>
			vid_draw_box (rc.left, rc.top, rc.right, rc.bottom, WHITE_24, DO_NOT_FILL, pDisplay);
 20021b4:	e13ff817 	ldw	r4,-32(fp)
 20021b8:	e17ffa17 	ldw	r5,-24(fp)
 20021bc:	e1bff917 	ldw	r6,-28(fp)
 20021c0:	e0fffb17 	ldw	r3,-20(fp)
 20021c4:	00804034 	movhi	r2,256
 20021c8:	10bfffc4 	addi	r2,r2,-1
 20021cc:	d8800015 	stw	r2,0(sp)
 20021d0:	d8000115 	stw	zero,4(sp)
 20021d4:	e0bffc17 	ldw	r2,-16(fp)
 20021d8:	d8800215 	stw	r2,8(sp)
 20021dc:	180f883a 	mov	r7,r3
 20021e0:	2006d340 	call	2006d34 <vid_draw_box>
			vid_print_string_alpha(rc.left+8, rc.top+(RectHeight(&rc)-22)/2, WHITE_24, BLACK_24, tahomabold_20, pDisplay, "2");
 20021e4:	e0bff817 	ldw	r2,-32(fp)
 20021e8:	14400204 	addi	r17,r2,8
 20021ec:	e43ffa17 	ldw	r16,-24(fp)
 20021f0:	e0bff804 	addi	r2,fp,-32
 20021f4:	1009883a 	mov	r4,r2
 20021f8:	20063c00 	call	20063c0 <RectHeight>
 20021fc:	10bffa84 	addi	r2,r2,-22
 2002200:	1006d7fa 	srli	r3,r2,31
 2002204:	1885883a 	add	r2,r3,r2
 2002208:	1005d07a 	srai	r2,r2,1
 200220c:	8087883a 	add	r3,r16,r2
 2002210:	008080f4 	movhi	r2,515
 2002214:	10af9504 	addi	r2,r2,-16812
 2002218:	d8800015 	stw	r2,0(sp)
 200221c:	e0bffc17 	ldw	r2,-16(fp)
 2002220:	d8800115 	stw	r2,4(sp)
 2002224:	00808074 	movhi	r2,513
 2002228:	10876704 	addi	r2,r2,7580
 200222c:	d8800215 	stw	r2,8(sp)
 2002230:	8809883a 	mov	r4,r17
 2002234:	180b883a 	mov	r5,r3
 2002238:	01804034 	movhi	r6,256
 200223c:	31bfffc4 	addi	r6,r6,-1
 2002240:	000f883a 	mov	r7,zero
 2002244:	2008b400 	call	2008b40 <vid_print_string_alpha>
 2002248:	00006706 	br	20023e8 <GUI_ROBINSUN_CompetitionChoice2_Draw+0x498>
		}
		else if (i == 4){
 200224c:	e0bff717 	ldw	r2,-36(fp)
 2002250:	10800118 	cmpnei	r2,r2,4
 2002254:	1000311e 	bne	r2,zero,200231c <GUI_ROBINSUN_CompetitionChoice2_Draw+0x3cc>
			vid_draw_box (rc.left, rc.top, rc.right, rc.bottom, BLACK_24, DO_FILL, pDisplay);
 2002258:	e13ff817 	ldw	r4,-32(fp)
 200225c:	e17ffa17 	ldw	r5,-24(fp)
 2002260:	e1bff917 	ldw	r6,-28(fp)
 2002264:	e0fffb17 	ldw	r3,-20(fp)
 2002268:	d8000015 	stw	zero,0(sp)
 200226c:	00800044 	movi	r2,1
 2002270:	d8800115 	stw	r2,4(sp)
 2002274:	e0bffc17 	ldw	r2,-16(fp)
 2002278:	d8800215 	stw	r2,8(sp)
 200227c:	180f883a 	mov	r7,r3
 2002280:	2006d340 	call	2006d34 <vid_draw_box>
			vid_draw_box (rc.left, rc.top, rc.right, rc.bottom, WHITE_24, DO_NOT_FILL, pDisplay);
 2002284:	e13ff817 	ldw	r4,-32(fp)
 2002288:	e17ffa17 	ldw	r5,-24(fp)
 200228c:	e1bff917 	ldw	r6,-28(fp)
 2002290:	e0fffb17 	ldw	r3,-20(fp)
 2002294:	00804034 	movhi	r2,256
 2002298:	10bfffc4 	addi	r2,r2,-1
 200229c:	d8800015 	stw	r2,0(sp)
 20022a0:	d8000115 	stw	zero,4(sp)
 20022a4:	e0bffc17 	ldw	r2,-16(fp)
 20022a8:	d8800215 	stw	r2,8(sp)
 20022ac:	180f883a 	mov	r7,r3
 20022b0:	2006d340 	call	2006d34 <vid_draw_box>
			vid_print_string_alpha(rc.left+8, rc.top+(RectHeight(&rc)-22)/2, WHITE_24, BLACK_24, tahomabold_20, pDisplay, "Back");
 20022b4:	e0bff817 	ldw	r2,-32(fp)
 20022b8:	14400204 	addi	r17,r2,8
 20022bc:	e43ffa17 	ldw	r16,-24(fp)
 20022c0:	e0bff804 	addi	r2,fp,-32
 20022c4:	1009883a 	mov	r4,r2
 20022c8:	20063c00 	call	20063c0 <RectHeight>
 20022cc:	10bffa84 	addi	r2,r2,-22
 20022d0:	1006d7fa 	srli	r3,r2,31
 20022d4:	1885883a 	add	r2,r3,r2
 20022d8:	1005d07a 	srai	r2,r2,1
 20022dc:	8087883a 	add	r3,r16,r2
 20022e0:	008080f4 	movhi	r2,515
 20022e4:	10af9504 	addi	r2,r2,-16812
 20022e8:	d8800015 	stw	r2,0(sp)
 20022ec:	e0bffc17 	ldw	r2,-16(fp)
 20022f0:	d8800115 	stw	r2,4(sp)
 20022f4:	00808074 	movhi	r2,513
 20022f8:	10876a04 	addi	r2,r2,7592
 20022fc:	d8800215 	stw	r2,8(sp)
 2002300:	8809883a 	mov	r4,r17
 2002304:	180b883a 	mov	r5,r3
 2002308:	01804034 	movhi	r6,256
 200230c:	31bfffc4 	addi	r6,r6,-1
 2002310:	000f883a 	mov	r7,zero
 2002314:	2008b400 	call	2008b40 <vid_print_string_alpha>
 2002318:	00003306 	br	20023e8 <GUI_ROBINSUN_CompetitionChoice2_Draw+0x498>
		}
		else if (i == 5){
 200231c:	e0bff717 	ldw	r2,-36(fp)
 2002320:	10800158 	cmpnei	r2,r2,5
 2002324:	1000301e 	bne	r2,zero,20023e8 <GUI_ROBINSUN_CompetitionChoice2_Draw+0x498>
			vid_draw_box (rc.left, rc.top, rc.right, rc.bottom, BLACK_24, DO_FILL, pDisplay);
 2002328:	e13ff817 	ldw	r4,-32(fp)
 200232c:	e17ffa17 	ldw	r5,-24(fp)
 2002330:	e1bff917 	ldw	r6,-28(fp)
 2002334:	e0fffb17 	ldw	r3,-20(fp)
 2002338:	d8000015 	stw	zero,0(sp)
 200233c:	00800044 	movi	r2,1
 2002340:	d8800115 	stw	r2,4(sp)
 2002344:	e0bffc17 	ldw	r2,-16(fp)
 2002348:	d8800215 	stw	r2,8(sp)
 200234c:	180f883a 	mov	r7,r3
 2002350:	2006d340 	call	2006d34 <vid_draw_box>
			vid_draw_box (rc.left, rc.top, rc.right, rc.bottom, WHITE_24, DO_NOT_FILL, pDisplay);
 2002354:	e13ff817 	ldw	r4,-32(fp)
 2002358:	e17ffa17 	ldw	r5,-24(fp)
 200235c:	e1bff917 	ldw	r6,-28(fp)
 2002360:	e0fffb17 	ldw	r3,-20(fp)
 2002364:	00804034 	movhi	r2,256
 2002368:	10bfffc4 	addi	r2,r2,-1
 200236c:	d8800015 	stw	r2,0(sp)
 2002370:	d8000115 	stw	zero,4(sp)
 2002374:	e0bffc17 	ldw	r2,-16(fp)
 2002378:	d8800215 	stw	r2,8(sp)
 200237c:	180f883a 	mov	r7,r3
 2002380:	2006d340 	call	2006d34 <vid_draw_box>
			vid_print_string_alpha(rc.left+8, rc.top+(RectHeight(&rc)-22)/2, WHITE_24, BLACK_24, tahomabold_20, pDisplay, "Continue");
 2002384:	e0bff817 	ldw	r2,-32(fp)
 2002388:	14400204 	addi	r17,r2,8
 200238c:	e43ffa17 	ldw	r16,-24(fp)
 2002390:	e0bff804 	addi	r2,fp,-32
 2002394:	1009883a 	mov	r4,r2
 2002398:	20063c00 	call	20063c0 <RectHeight>
 200239c:	10bffa84 	addi	r2,r2,-22
 20023a0:	1006d7fa 	srli	r3,r2,31
 20023a4:	1885883a 	add	r2,r3,r2
 20023a8:	1005d07a 	srai	r2,r2,1
 20023ac:	8087883a 	add	r3,r16,r2
 20023b0:	008080f4 	movhi	r2,515
 20023b4:	10af9504 	addi	r2,r2,-16812
 20023b8:	d8800015 	stw	r2,0(sp)
 20023bc:	e0bffc17 	ldw	r2,-16(fp)
 20023c0:	d8800115 	stw	r2,4(sp)
 20023c4:	00808074 	movhi	r2,513
 20023c8:	10876c04 	addi	r2,r2,7600
 20023cc:	d8800215 	stw	r2,8(sp)
 20023d0:	8809883a 	mov	r4,r17
 20023d4:	180b883a 	mov	r5,r3
 20023d8:	01804034 	movhi	r6,256
 20023dc:	31bfffc4 	addi	r6,r6,-1
 20023e0:	000f883a 	mov	r7,zero
 20023e4:	2008b400 	call	2008b40 <vid_print_string_alpha>
	// draw border
	RectCopy(&rc, &pDeskInfo->rcDisp);
	vid_draw_box (rc.left, rc.top, rc.right, rc.bottom, WHITE_24, DO_NOT_FILL, pDisplay);

	// draw buttons
	for(i=0;i<6;i++){
 20023e8:	e0bff717 	ldw	r2,-36(fp)
 20023ec:	10800044 	addi	r2,r2,1
 20023f0:	e0bff715 	stw	r2,-36(fp)
 20023f4:	e0bff717 	ldw	r2,-36(fp)
 20023f8:	10800190 	cmplti	r2,r2,6
 20023fc:	103eef1e 	bne	r2,zero,2001fbc <__reset+0xfdffa7bc>
		else
		{

		}
	}
}
 2002400:	e6fffe04 	addi	sp,fp,-8
 2002404:	dfc00317 	ldw	ra,12(sp)
 2002408:	df000217 	ldw	fp,8(sp)
 200240c:	dc400117 	ldw	r17,4(sp)
 2002410:	dc000017 	ldw	r16,0(sp)
 2002414:	dec00404 	addi	sp,sp,16
 2002418:	f800283a 	ret

0200241c <GUI_ROBINSUN_CompetitionSummary_Init>:

void GUI_ROBINSUN_CompetitionSummary_Init(alt_video_display *pDisplay, DESK_INFO *pDeskInfo){
 200241c:	defff104 	addi	sp,sp,-60
 2002420:	dfc00e15 	stw	ra,56(sp)
 2002424:	df000d15 	stw	fp,52(sp)
 2002428:	df000d04 	addi	fp,sp,52
 200242c:	e13ffe15 	stw	r4,-8(fp)
 2002430:	e17fff15 	stw	r5,-4(fp)
	int i;
	RECT rc;
	const int BoxH = 30;
 2002434:	00800784 	movi	r2,30
 2002438:	e0bff515 	stw	r2,-44(fp)
	const int DistBorder = 2;
 200243c:	00800084 	movi	r2,2
 2002440:	e0bff615 	stw	r2,-40(fp)
	const int DistW = 10;
 2002444:	00800284 	movi	r2,10
 2002448:	e0bff715 	stw	r2,-36(fp)
	int GapH, BoxW;

	// Space to put between the buttons in order to be equally spaced
	GapH = (pDisplay->height - (8*BoxH) - 6 - 4)/(5+1);
 200244c:	e0bffe17 	ldw	r2,-8(fp)
 2002450:	10c00217 	ldw	r3,8(r2)
 2002454:	e0bff517 	ldw	r2,-44(fp)
 2002458:	10bffe24 	muli	r2,r2,-8
 200245c:	1885883a 	add	r2,r3,r2
 2002460:	10bffd84 	addi	r2,r2,-10
 2002464:	1009883a 	mov	r4,r2
 2002468:	01400184 	movi	r5,6
 200246c:	200a4d00 	call	200a4d0 <__divsi3>
 2002470:	e0bff815 	stw	r2,-32(fp)
	BoxW = (pDisplay->width - 2*DistW - 5)/2;
 2002474:	e0bffe17 	ldw	r2,-8(fp)
 2002478:	10c00117 	ldw	r3,4(r2)
 200247c:	e13ff717 	ldw	r4,-36(fp)
 2002480:	0005883a 	mov	r2,zero
 2002484:	1105c83a 	sub	r2,r2,r4
 2002488:	1085883a 	add	r2,r2,r2
 200248c:	1885883a 	add	r2,r3,r2
 2002490:	10bffec4 	addi	r2,r2,-5
 2002494:	1006d7fa 	srli	r3,r2,31
 2002498:	1885883a 	add	r2,r3,r2
 200249c:	1005d07a 	srai	r2,r2,1
 20024a0:	e0bff915 	stw	r2,-28(fp)

	// Desk border
	RectSet(&pDeskInfo->rcDisp, DistBorder, pDisplay->width-DistBorder, DistBorder, pDisplay->height-DistBorder);
 20024a4:	e13fff17 	ldw	r4,-4(fp)
 20024a8:	e0bffe17 	ldw	r2,-8(fp)
 20024ac:	10c00117 	ldw	r3,4(r2)
 20024b0:	e0bff617 	ldw	r2,-40(fp)
 20024b4:	188dc83a 	sub	r6,r3,r2
 20024b8:	e0bffe17 	ldw	r2,-8(fp)
 20024bc:	10c00217 	ldw	r3,8(r2)
 20024c0:	e0bff617 	ldw	r2,-40(fp)
 20024c4:	1885c83a 	sub	r2,r3,r2
 20024c8:	d8800015 	stw	r2,0(sp)
 20024cc:	e17ff617 	ldw	r5,-40(fp)
 20024d0:	e1fff617 	ldw	r7,-40(fp)
 20024d4:	20061bc0 	call	20061bc <RectSet>

	rc.top = DistBorder + GapH;
 20024d8:	e0fff617 	ldw	r3,-40(fp)
 20024dc:	e0bff817 	ldw	r2,-32(fp)
 20024e0:	1885883a 	add	r2,r3,r2
 20024e4:	e0bffc15 	stw	r2,-16(fp)
	rc.bottom = rc.top + BoxH;
 20024e8:	e0fffc17 	ldw	r3,-16(fp)
 20024ec:	e0bff517 	ldw	r2,-44(fp)
 20024f0:	1885883a 	add	r2,r3,r2
 20024f4:	e0bffd15 	stw	r2,-12(fp)
	rc.left = DistW + BoxW + 5;
 20024f8:	e0fff717 	ldw	r3,-36(fp)
 20024fc:	e0bff917 	ldw	r2,-28(fp)
 2002500:	1885883a 	add	r2,r3,r2
 2002504:	10800144 	addi	r2,r2,5
 2002508:	e0bffa15 	stw	r2,-24(fp)
	rc.right = rc.left + BoxW;
 200250c:	e0fffa17 	ldw	r3,-24(fp)
 2002510:	e0bff917 	ldw	r2,-28(fp)
 2002514:	1885883a 	add	r2,r3,r2
 2002518:	e0bffb15 	stw	r2,-20(fp)

	// Initialization of the rectangles for the buttons
	for(i=0;i<8;i++){
 200251c:	e03ff415 	stw	zero,-48(fp)
 2002520:	00007706 	br	2002700 <GUI_ROBINSUN_CompetitionSummary_Init+0x2e4>
		if (i==0){
 2002524:	e0bff417 	ldw	r2,-48(fp)
 2002528:	1000141e 	bne	r2,zero,200257c <GUI_ROBINSUN_CompetitionSummary_Init+0x160>
			RectCopy(&pDeskInfo->buttons_competitionsummary[i].rc, &rc);
 200252c:	e0bff417 	ldw	r2,-48(fp)
 2002530:	10800524 	muli	r2,r2,20
 2002534:	1080e004 	addi	r2,r2,896
 2002538:	e0ffff17 	ldw	r3,-4(fp)
 200253c:	1887883a 	add	r3,r3,r2
 2002540:	e0bffa04 	addi	r2,fp,-24
 2002544:	1809883a 	mov	r4,r3
 2002548:	100b883a 	mov	r5,r2
 200254c:	20063280 	call	2006328 <RectCopy>
			RectOffset(&rc, -BoxW-5, BoxH+GapH);
 2002550:	00fffec4 	movi	r3,-5
 2002554:	e0bff917 	ldw	r2,-28(fp)
 2002558:	188bc83a 	sub	r5,r3,r2
 200255c:	e0fff517 	ldw	r3,-44(fp)
 2002560:	e0bff817 	ldw	r2,-32(fp)
 2002564:	1885883a 	add	r2,r3,r2
 2002568:	e0fffa04 	addi	r3,fp,-24
 200256c:	1809883a 	mov	r4,r3
 2002570:	100d883a 	mov	r6,r2
 2002574:	20062a00 	call	20062a0 <RectOffset>
 2002578:	00005e06 	br	20026f4 <GUI_ROBINSUN_CompetitionSummary_Init+0x2d8>
		}
		else if(i==1 || i==3){
 200257c:	e0bff417 	ldw	r2,-48(fp)
 2002580:	10800060 	cmpeqi	r2,r2,1
 2002584:	1000031e 	bne	r2,zero,2002594 <GUI_ROBINSUN_CompetitionSummary_Init+0x178>
 2002588:	e0bff417 	ldw	r2,-48(fp)
 200258c:	108000d8 	cmpnei	r2,r2,3
 2002590:	1000111e 	bne	r2,zero,20025d8 <GUI_ROBINSUN_CompetitionSummary_Init+0x1bc>
			RectCopy(&pDeskInfo->buttons_competitionsummary[i].rc, &rc);
 2002594:	e0bff417 	ldw	r2,-48(fp)
 2002598:	10800524 	muli	r2,r2,20
 200259c:	1080e004 	addi	r2,r2,896
 20025a0:	e0ffff17 	ldw	r3,-4(fp)
 20025a4:	1887883a 	add	r3,r3,r2
 20025a8:	e0bffa04 	addi	r2,fp,-24
 20025ac:	1809883a 	mov	r4,r3
 20025b0:	100b883a 	mov	r5,r2
 20025b4:	20063280 	call	2006328 <RectCopy>
			RectOffset(&rc, 0, BoxH+2);
 20025b8:	e0bff517 	ldw	r2,-44(fp)
 20025bc:	10800084 	addi	r2,r2,2
 20025c0:	e0fffa04 	addi	r3,fp,-24
 20025c4:	1809883a 	mov	r4,r3
 20025c8:	000b883a 	mov	r5,zero
 20025cc:	100d883a 	mov	r6,r2
 20025d0:	20062a00 	call	20062a0 <RectOffset>
 20025d4:	00004706 	br	20026f4 <GUI_ROBINSUN_CompetitionSummary_Init+0x2d8>
		}
		else if(i==2){
 20025d8:	e0bff417 	ldw	r2,-48(fp)
 20025dc:	10800098 	cmpnei	r2,r2,2
 20025e0:	1000121e 	bne	r2,zero,200262c <GUI_ROBINSUN_CompetitionSummary_Init+0x210>
			RectCopy(&pDeskInfo->buttons_competitionsummary[i].rc, &rc);
 20025e4:	e0bff417 	ldw	r2,-48(fp)
 20025e8:	10800524 	muli	r2,r2,20
 20025ec:	1080e004 	addi	r2,r2,896
 20025f0:	e0ffff17 	ldw	r3,-4(fp)
 20025f4:	1887883a 	add	r3,r3,r2
 20025f8:	e0bffa04 	addi	r2,fp,-24
 20025fc:	1809883a 	mov	r4,r3
 2002600:	100b883a 	mov	r5,r2
 2002604:	20063280 	call	2006328 <RectCopy>
			RectOffset(&rc, 0, BoxH+GapH);
 2002608:	e0fff517 	ldw	r3,-44(fp)
 200260c:	e0bff817 	ldw	r2,-32(fp)
 2002610:	1885883a 	add	r2,r3,r2
 2002614:	e0fffa04 	addi	r3,fp,-24
 2002618:	1809883a 	mov	r4,r3
 200261c:	000b883a 	mov	r5,zero
 2002620:	100d883a 	mov	r6,r2
 2002624:	20062a00 	call	20062a0 <RectOffset>
 2002628:	00003206 	br	20026f4 <GUI_ROBINSUN_CompetitionSummary_Init+0x2d8>
		}
		else if(i==4 || i==6){
 200262c:	e0bff417 	ldw	r2,-48(fp)
 2002630:	10800120 	cmpeqi	r2,r2,4
 2002634:	1000031e 	bne	r2,zero,2002644 <GUI_ROBINSUN_CompetitionSummary_Init+0x228>
 2002638:	e0bff417 	ldw	r2,-48(fp)
 200263c:	10800198 	cmpnei	r2,r2,6
 2002640:	1000171e 	bne	r2,zero,20026a0 <GUI_ROBINSUN_CompetitionSummary_Init+0x284>
			RectCopy(&pDeskInfo->buttons_competitionsummary[i].rc, &rc);
 2002644:	e0bff417 	ldw	r2,-48(fp)
 2002648:	10800524 	muli	r2,r2,20
 200264c:	1080e004 	addi	r2,r2,896
 2002650:	e0ffff17 	ldw	r3,-4(fp)
 2002654:	1887883a 	add	r3,r3,r2
 2002658:	e0bffa04 	addi	r2,fp,-24
 200265c:	1809883a 	mov	r4,r3
 2002660:	100b883a 	mov	r5,r2
 2002664:	20063280 	call	2006328 <RectCopy>
			rc.right = rc.right + 5 + BoxW;
 2002668:	e0bffb17 	ldw	r2,-20(fp)
 200266c:	10c00144 	addi	r3,r2,5
 2002670:	e0bff917 	ldw	r2,-28(fp)
 2002674:	1885883a 	add	r2,r3,r2
 2002678:	e0bffb15 	stw	r2,-20(fp)
			RectOffset(&rc, 0, BoxH+GapH);
 200267c:	e0fff517 	ldw	r3,-44(fp)
 2002680:	e0bff817 	ldw	r2,-32(fp)
 2002684:	1885883a 	add	r2,r3,r2
 2002688:	e0fffa04 	addi	r3,fp,-24
 200268c:	1809883a 	mov	r4,r3
 2002690:	000b883a 	mov	r5,zero
 2002694:	100d883a 	mov	r6,r2
 2002698:	20062a00 	call	20062a0 <RectOffset>
 200269c:	00001506 	br	20026f4 <GUI_ROBINSUN_CompetitionSummary_Init+0x2d8>
		}
		else{
			RectCopy(&pDeskInfo->buttons_competitionsummary[i].rc, &rc);
 20026a0:	e0bff417 	ldw	r2,-48(fp)
 20026a4:	10800524 	muli	r2,r2,20
 20026a8:	1080e004 	addi	r2,r2,896
 20026ac:	e0ffff17 	ldw	r3,-4(fp)
 20026b0:	1887883a 	add	r3,r3,r2
 20026b4:	e0bffa04 	addi	r2,fp,-24
 20026b8:	1809883a 	mov	r4,r3
 20026bc:	100b883a 	mov	r5,r2
 20026c0:	20063280 	call	2006328 <RectCopy>
			rc.right = rc.right - 5 - BoxW;
 20026c4:	e0bffb17 	ldw	r2,-20(fp)
 20026c8:	10fffec4 	addi	r3,r2,-5
 20026cc:	e0bff917 	ldw	r2,-28(fp)
 20026d0:	1885c83a 	sub	r2,r3,r2
 20026d4:	e0bffb15 	stw	r2,-20(fp)
			RectOffset(&rc, 0, BoxH+2);
 20026d8:	e0bff517 	ldw	r2,-44(fp)
 20026dc:	10800084 	addi	r2,r2,2
 20026e0:	e0fffa04 	addi	r3,fp,-24
 20026e4:	1809883a 	mov	r4,r3
 20026e8:	000b883a 	mov	r5,zero
 20026ec:	100d883a 	mov	r6,r2
 20026f0:	20062a00 	call	20062a0 <RectOffset>
	rc.bottom = rc.top + BoxH;
	rc.left = DistW + BoxW + 5;
	rc.right = rc.left + BoxW;

	// Initialization of the rectangles for the buttons
	for(i=0;i<8;i++){
 20026f4:	e0bff417 	ldw	r2,-48(fp)
 20026f8:	10800044 	addi	r2,r2,1
 20026fc:	e0bff415 	stw	r2,-48(fp)
 2002700:	e0bff417 	ldw	r2,-48(fp)
 2002704:	10800210 	cmplti	r2,r2,8
 2002708:	103f861e 	bne	r2,zero,2002524 <__reset+0xfdffad24>
			RectCopy(&pDeskInfo->buttons_competitionsummary[i].rc, &rc);
			rc.right = rc.right - 5 - BoxW;
			RectOffset(&rc, 0, BoxH+2);
		}
	}
}
 200270c:	e037883a 	mov	sp,fp
 2002710:	dfc00117 	ldw	ra,4(sp)
 2002714:	df000017 	ldw	fp,0(sp)
 2002718:	dec00204 	addi	sp,sp,8
 200271c:	f800283a 	ret

02002720 <GUI_ROBINSUN_CompetitionSummary_Draw>:

void GUI_ROBINSUN_CompetitionSummary_Draw(alt_video_display *pDisplay, DESK_INFO *pDeskInfo, int color, int strategy, int opponent){
 2002720:	defff004 	addi	sp,sp,-64
 2002724:	dfc00f15 	stw	ra,60(sp)
 2002728:	df000e15 	stw	fp,56(sp)
 200272c:	dc400d15 	stw	r17,52(sp)
 2002730:	dc000c15 	stw	r16,48(sp)
 2002734:	df000e04 	addi	fp,sp,56
 2002738:	e13ffa15 	stw	r4,-24(fp)
 200273c:	e17ffb15 	stw	r5,-20(fp)
 2002740:	e1bffc15 	stw	r6,-16(fp)
 2002744:	e1fffd15 	stw	r7,-12(fp)
	int i;
	RECT rc;

	// draw border
	RectCopy(&rc, &pDeskInfo->rcDisp);
 2002748:	e0bffb17 	ldw	r2,-20(fp)
 200274c:	e0fff604 	addi	r3,fp,-40
 2002750:	1809883a 	mov	r4,r3
 2002754:	100b883a 	mov	r5,r2
 2002758:	20063280 	call	2006328 <RectCopy>
	vid_draw_box (rc.left, rc.top, rc.right, rc.bottom, WHITE_24, DO_NOT_FILL, pDisplay);
 200275c:	e13ff617 	ldw	r4,-40(fp)
 2002760:	e17ff817 	ldw	r5,-32(fp)
 2002764:	e1bff717 	ldw	r6,-36(fp)
 2002768:	e0fff917 	ldw	r3,-28(fp)
 200276c:	00804034 	movhi	r2,256
 2002770:	10bfffc4 	addi	r2,r2,-1
 2002774:	d8800015 	stw	r2,0(sp)
 2002778:	d8000115 	stw	zero,4(sp)
 200277c:	e0bffa17 	ldw	r2,-24(fp)
 2002780:	d8800215 	stw	r2,8(sp)
 2002784:	180f883a 	mov	r7,r3
 2002788:	2006d340 	call	2006d34 <vid_draw_box>

	// draw buttons
	for(i=0;i<8;i++){
 200278c:	e03ff515 	stw	zero,-44(fp)
 2002790:	00020806 	br	2002fb4 <GUI_ROBINSUN_CompetitionSummary_Draw+0x894>
		RectCopy(&rc, &pDeskInfo->buttons_competitionsummary[i].rc);
 2002794:	e0bff517 	ldw	r2,-44(fp)
 2002798:	10800524 	muli	r2,r2,20
 200279c:	1080e004 	addi	r2,r2,896
 20027a0:	e0fffb17 	ldw	r3,-20(fp)
 20027a4:	1885883a 	add	r2,r3,r2
 20027a8:	e0fff604 	addi	r3,fp,-40
 20027ac:	1809883a 	mov	r4,r3
 20027b0:	100b883a 	mov	r5,r2
 20027b4:	20063280 	call	2006328 <RectCopy>
		if (i == 0){
 20027b8:	e0bff517 	ldw	r2,-44(fp)
 20027bc:	1000311e 	bne	r2,zero,2002884 <GUI_ROBINSUN_CompetitionSummary_Draw+0x164>
			vid_draw_box (rc.left, rc.top, rc.right, rc.bottom, BLACK_24, DO_FILL, pDisplay);
 20027c0:	e13ff617 	ldw	r4,-40(fp)
 20027c4:	e17ff817 	ldw	r5,-32(fp)
 20027c8:	e1bff717 	ldw	r6,-36(fp)
 20027cc:	e0fff917 	ldw	r3,-28(fp)
 20027d0:	d8000015 	stw	zero,0(sp)
 20027d4:	00800044 	movi	r2,1
 20027d8:	d8800115 	stw	r2,4(sp)
 20027dc:	e0bffa17 	ldw	r2,-24(fp)
 20027e0:	d8800215 	stw	r2,8(sp)
 20027e4:	180f883a 	mov	r7,r3
 20027e8:	2006d340 	call	2006d34 <vid_draw_box>
			vid_draw_box (rc.left, rc.top, rc.right, rc.bottom, WHITE_24, DO_NOT_FILL, pDisplay);
 20027ec:	e13ff617 	ldw	r4,-40(fp)
 20027f0:	e17ff817 	ldw	r5,-32(fp)
 20027f4:	e1bff717 	ldw	r6,-36(fp)
 20027f8:	e0fff917 	ldw	r3,-28(fp)
 20027fc:	00804034 	movhi	r2,256
 2002800:	10bfffc4 	addi	r2,r2,-1
 2002804:	d8800015 	stw	r2,0(sp)
 2002808:	d8000115 	stw	zero,4(sp)
 200280c:	e0bffa17 	ldw	r2,-24(fp)
 2002810:	d8800215 	stw	r2,8(sp)
 2002814:	180f883a 	mov	r7,r3
 2002818:	2006d340 	call	2006d34 <vid_draw_box>
			vid_print_string_alpha(rc.left+8, rc.top+(RectHeight(&rc)-26)/2, WHITE_24, BLACK_24, tahomabold_20, pDisplay, "Back");
 200281c:	e0bff617 	ldw	r2,-40(fp)
 2002820:	14400204 	addi	r17,r2,8
 2002824:	e43ff817 	ldw	r16,-32(fp)
 2002828:	e0bff604 	addi	r2,fp,-40
 200282c:	1009883a 	mov	r4,r2
 2002830:	20063c00 	call	20063c0 <RectHeight>
 2002834:	10bff984 	addi	r2,r2,-26
 2002838:	1006d7fa 	srli	r3,r2,31
 200283c:	1885883a 	add	r2,r3,r2
 2002840:	1005d07a 	srai	r2,r2,1
 2002844:	8087883a 	add	r3,r16,r2
 2002848:	008080f4 	movhi	r2,515
 200284c:	10af9504 	addi	r2,r2,-16812
 2002850:	d8800015 	stw	r2,0(sp)
 2002854:	e0bffa17 	ldw	r2,-24(fp)
 2002858:	d8800115 	stw	r2,4(sp)
 200285c:	00808074 	movhi	r2,513
 2002860:	10876a04 	addi	r2,r2,7592
 2002864:	d8800215 	stw	r2,8(sp)
 2002868:	8809883a 	mov	r4,r17
 200286c:	180b883a 	mov	r5,r3
 2002870:	01804034 	movhi	r6,256
 2002874:	31bfffc4 	addi	r6,r6,-1
 2002878:	000f883a 	mov	r7,zero
 200287c:	2008b400 	call	2008b40 <vid_print_string_alpha>
 2002880:	0001c906 	br	2002fa8 <GUI_ROBINSUN_CompetitionSummary_Draw+0x888>
		}
		else if (i == 1){
 2002884:	e0bff517 	ldw	r2,-44(fp)
 2002888:	10800058 	cmpnei	r2,r2,1
 200288c:	1000311e 	bne	r2,zero,2002954 <GUI_ROBINSUN_CompetitionSummary_Draw+0x234>
			vid_draw_box (rc.left, rc.top, rc.right, rc.bottom, BLACK_24, DO_FILL, pDisplay);
 2002890:	e13ff617 	ldw	r4,-40(fp)
 2002894:	e17ff817 	ldw	r5,-32(fp)
 2002898:	e1bff717 	ldw	r6,-36(fp)
 200289c:	e0fff917 	ldw	r3,-28(fp)
 20028a0:	d8000015 	stw	zero,0(sp)
 20028a4:	00800044 	movi	r2,1
 20028a8:	d8800115 	stw	r2,4(sp)
 20028ac:	e0bffa17 	ldw	r2,-24(fp)
 20028b0:	d8800215 	stw	r2,8(sp)
 20028b4:	180f883a 	mov	r7,r3
 20028b8:	2006d340 	call	2006d34 <vid_draw_box>
			vid_draw_box (rc.left, rc.top, rc.right, rc.bottom, WHITE_24, DO_NOT_FILL, pDisplay);
 20028bc:	e13ff617 	ldw	r4,-40(fp)
 20028c0:	e17ff817 	ldw	r5,-32(fp)
 20028c4:	e1bff717 	ldw	r6,-36(fp)
 20028c8:	e0fff917 	ldw	r3,-28(fp)
 20028cc:	00804034 	movhi	r2,256
 20028d0:	10bfffc4 	addi	r2,r2,-1
 20028d4:	d8800015 	stw	r2,0(sp)
 20028d8:	d8000115 	stw	zero,4(sp)
 20028dc:	e0bffa17 	ldw	r2,-24(fp)
 20028e0:	d8800215 	stw	r2,8(sp)
 20028e4:	180f883a 	mov	r7,r3
 20028e8:	2006d340 	call	2006d34 <vid_draw_box>
			vid_print_string_alpha(rc.left+8, rc.top+(RectHeight(&rc)-26)/2, WHITE_24, BLACK_24, tahomabold_20, pDisplay, "Team");
 20028ec:	e0bff617 	ldw	r2,-40(fp)
 20028f0:	14400204 	addi	r17,r2,8
 20028f4:	e43ff817 	ldw	r16,-32(fp)
 20028f8:	e0bff604 	addi	r2,fp,-40
 20028fc:	1009883a 	mov	r4,r2
 2002900:	20063c00 	call	20063c0 <RectHeight>
 2002904:	10bff984 	addi	r2,r2,-26
 2002908:	1006d7fa 	srli	r3,r2,31
 200290c:	1885883a 	add	r2,r3,r2
 2002910:	1005d07a 	srai	r2,r2,1
 2002914:	8087883a 	add	r3,r16,r2
 2002918:	008080f4 	movhi	r2,515
 200291c:	10af9504 	addi	r2,r2,-16812
 2002920:	d8800015 	stw	r2,0(sp)
 2002924:	e0bffa17 	ldw	r2,-24(fp)
 2002928:	d8800115 	stw	r2,4(sp)
 200292c:	00808074 	movhi	r2,513
 2002930:	10876104 	addi	r2,r2,7556
 2002934:	d8800215 	stw	r2,8(sp)
 2002938:	8809883a 	mov	r4,r17
 200293c:	180b883a 	mov	r5,r3
 2002940:	01804034 	movhi	r6,256
 2002944:	31bfffc4 	addi	r6,r6,-1
 2002948:	000f883a 	mov	r7,zero
 200294c:	2008b400 	call	2008b40 <vid_print_string_alpha>
 2002950:	00019506 	br	2002fa8 <GUI_ROBINSUN_CompetitionSummary_Draw+0x888>
		}
		else if (i == 2){
 2002954:	e0bff517 	ldw	r2,-44(fp)
 2002958:	10800098 	cmpnei	r2,r2,2
 200295c:	10001e1e 	bne	r2,zero,20029d8 <GUI_ROBINSUN_CompetitionSummary_Draw+0x2b8>
			if(color==1)
 2002960:	e0bffc17 	ldw	r2,-16(fp)
 2002964:	10800058 	cmpnei	r2,r2,1
 2002968:	10000d1e 	bne	r2,zero,20029a0 <GUI_ROBINSUN_CompetitionSummary_Draw+0x280>
				vid_draw_box (rc.left, rc.top, rc.right, rc.bottom, GREEN_24, DO_FILL, pDisplay);
 200296c:	e13ff617 	ldw	r4,-40(fp)
 2002970:	e17ff817 	ldw	r5,-32(fp)
 2002974:	e1bff717 	ldw	r6,-36(fp)
 2002978:	e0fff917 	ldw	r3,-28(fp)
 200297c:	00a00014 	movui	r2,32768
 2002980:	d8800015 	stw	r2,0(sp)
 2002984:	00800044 	movi	r2,1
 2002988:	d8800115 	stw	r2,4(sp)
 200298c:	e0bffa17 	ldw	r2,-24(fp)
 2002990:	d8800215 	stw	r2,8(sp)
 2002994:	180f883a 	mov	r7,r3
 2002998:	2006d340 	call	2006d34 <vid_draw_box>
 200299c:	00018206 	br	2002fa8 <GUI_ROBINSUN_CompetitionSummary_Draw+0x888>
			else
				vid_draw_box (rc.left, rc.top, rc.right, rc.bottom, PURPLE_24, DO_FILL, pDisplay);
 20029a0:	e13ff617 	ldw	r4,-40(fp)
 20029a4:	e17ff817 	ldw	r5,-32(fp)
 20029a8:	e1bff717 	ldw	r6,-36(fp)
 20029ac:	e0fff917 	ldw	r3,-28(fp)
 20029b0:	00802034 	movhi	r2,128
 20029b4:	10802004 	addi	r2,r2,128
 20029b8:	d8800015 	stw	r2,0(sp)
 20029bc:	00800044 	movi	r2,1
 20029c0:	d8800115 	stw	r2,4(sp)
 20029c4:	e0bffa17 	ldw	r2,-24(fp)
 20029c8:	d8800215 	stw	r2,8(sp)
 20029cc:	180f883a 	mov	r7,r3
 20029d0:	2006d340 	call	2006d34 <vid_draw_box>
 20029d4:	00017406 	br	2002fa8 <GUI_ROBINSUN_CompetitionSummary_Draw+0x888>
		}
		else if (i == 3){
 20029d8:	e0bff517 	ldw	r2,-44(fp)
 20029dc:	108000d8 	cmpnei	r2,r2,3
 20029e0:	1000311e 	bne	r2,zero,2002aa8 <GUI_ROBINSUN_CompetitionSummary_Draw+0x388>
			vid_draw_box (rc.left, rc.top, rc.right, rc.bottom, BLACK_24, DO_FILL, pDisplay);
 20029e4:	e13ff617 	ldw	r4,-40(fp)
 20029e8:	e17ff817 	ldw	r5,-32(fp)
 20029ec:	e1bff717 	ldw	r6,-36(fp)
 20029f0:	e0fff917 	ldw	r3,-28(fp)
 20029f4:	d8000015 	stw	zero,0(sp)
 20029f8:	00800044 	movi	r2,1
 20029fc:	d8800115 	stw	r2,4(sp)
 2002a00:	e0bffa17 	ldw	r2,-24(fp)
 2002a04:	d8800215 	stw	r2,8(sp)
 2002a08:	180f883a 	mov	r7,r3
 2002a0c:	2006d340 	call	2006d34 <vid_draw_box>
			vid_draw_box (rc.left, rc.top, rc.right, rc.bottom, WHITE_24, DO_NOT_FILL, pDisplay);
 2002a10:	e13ff617 	ldw	r4,-40(fp)
 2002a14:	e17ff817 	ldw	r5,-32(fp)
 2002a18:	e1bff717 	ldw	r6,-36(fp)
 2002a1c:	e0fff917 	ldw	r3,-28(fp)
 2002a20:	00804034 	movhi	r2,256
 2002a24:	10bfffc4 	addi	r2,r2,-1
 2002a28:	d8800015 	stw	r2,0(sp)
 2002a2c:	d8000115 	stw	zero,4(sp)
 2002a30:	e0bffa17 	ldw	r2,-24(fp)
 2002a34:	d8800215 	stw	r2,8(sp)
 2002a38:	180f883a 	mov	r7,r3
 2002a3c:	2006d340 	call	2006d34 <vid_draw_box>
			vid_print_string_alpha(rc.left+8, rc.top+(RectHeight(&rc)-26)/2, WHITE_24, BLACK_24, tahomabold_20, pDisplay, "Strategy");
 2002a40:	e0bff617 	ldw	r2,-40(fp)
 2002a44:	14400204 	addi	r17,r2,8
 2002a48:	e43ff817 	ldw	r16,-32(fp)
 2002a4c:	e0bff604 	addi	r2,fp,-40
 2002a50:	1009883a 	mov	r4,r2
 2002a54:	20063c00 	call	20063c0 <RectHeight>
 2002a58:	10bff984 	addi	r2,r2,-26
 2002a5c:	1006d7fa 	srli	r3,r2,31
 2002a60:	1885883a 	add	r2,r3,r2
 2002a64:	1005d07a 	srai	r2,r2,1
 2002a68:	8087883a 	add	r3,r16,r2
 2002a6c:	008080f4 	movhi	r2,515
 2002a70:	10af9504 	addi	r2,r2,-16812
 2002a74:	d8800015 	stw	r2,0(sp)
 2002a78:	e0bffa17 	ldw	r2,-24(fp)
 2002a7c:	d8800115 	stw	r2,4(sp)
 2002a80:	00808074 	movhi	r2,513
 2002a84:	10876304 	addi	r2,r2,7564
 2002a88:	d8800215 	stw	r2,8(sp)
 2002a8c:	8809883a 	mov	r4,r17
 2002a90:	180b883a 	mov	r5,r3
 2002a94:	01804034 	movhi	r6,256
 2002a98:	31bfffc4 	addi	r6,r6,-1
 2002a9c:	000f883a 	mov	r7,zero
 2002aa0:	2008b400 	call	2008b40 <vid_print_string_alpha>
 2002aa4:	00014006 	br	2002fa8 <GUI_ROBINSUN_CompetitionSummary_Draw+0x888>
		}
		else if (i == 4){
 2002aa8:	e0bff517 	ldw	r2,-44(fp)
 2002aac:	10800118 	cmpnei	r2,r2,4
 2002ab0:	1000881e 	bne	r2,zero,2002cd4 <GUI_ROBINSUN_CompetitionSummary_Draw+0x5b4>
			vid_draw_box (rc.left, rc.top, rc.right, rc.bottom, BLACK_24, DO_FILL, pDisplay);
 2002ab4:	e13ff617 	ldw	r4,-40(fp)
 2002ab8:	e17ff817 	ldw	r5,-32(fp)
 2002abc:	e1bff717 	ldw	r6,-36(fp)
 2002ac0:	e0fff917 	ldw	r3,-28(fp)
 2002ac4:	d8000015 	stw	zero,0(sp)
 2002ac8:	00800044 	movi	r2,1
 2002acc:	d8800115 	stw	r2,4(sp)
 2002ad0:	e0bffa17 	ldw	r2,-24(fp)
 2002ad4:	d8800215 	stw	r2,8(sp)
 2002ad8:	180f883a 	mov	r7,r3
 2002adc:	2006d340 	call	2006d34 <vid_draw_box>
			vid_draw_box (rc.left, rc.top, rc.right, rc.bottom, WHITE_24, DO_NOT_FILL, pDisplay);
 2002ae0:	e13ff617 	ldw	r4,-40(fp)
 2002ae4:	e17ff817 	ldw	r5,-32(fp)
 2002ae8:	e1bff717 	ldw	r6,-36(fp)
 2002aec:	e0fff917 	ldw	r3,-28(fp)
 2002af0:	00804034 	movhi	r2,256
 2002af4:	10bfffc4 	addi	r2,r2,-1
 2002af8:	d8800015 	stw	r2,0(sp)
 2002afc:	d8000115 	stw	zero,4(sp)
 2002b00:	e0bffa17 	ldw	r2,-24(fp)
 2002b04:	d8800215 	stw	r2,8(sp)
 2002b08:	180f883a 	mov	r7,r3
 2002b0c:	2006d340 	call	2006d34 <vid_draw_box>
			if(strategy==1)
 2002b10:	e0bffd17 	ldw	r2,-12(fp)
 2002b14:	10800058 	cmpnei	r2,r2,1
 2002b18:	10001a1e 	bne	r2,zero,2002b84 <GUI_ROBINSUN_CompetitionSummary_Draw+0x464>
				vid_print_string_alpha(rc.left+8, rc.top+(RectHeight(&rc)-26)/2, WHITE_24, BLACK_24, tahomabold_20, pDisplay, "1");
 2002b1c:	e0bff617 	ldw	r2,-40(fp)
 2002b20:	14400204 	addi	r17,r2,8
 2002b24:	e43ff817 	ldw	r16,-32(fp)
 2002b28:	e0bff604 	addi	r2,fp,-40
 2002b2c:	1009883a 	mov	r4,r2
 2002b30:	20063c00 	call	20063c0 <RectHeight>
 2002b34:	10bff984 	addi	r2,r2,-26
 2002b38:	1006d7fa 	srli	r3,r2,31
 2002b3c:	1885883a 	add	r2,r3,r2
 2002b40:	1005d07a 	srai	r2,r2,1
 2002b44:	8087883a 	add	r3,r16,r2
 2002b48:	008080f4 	movhi	r2,515
 2002b4c:	10af9504 	addi	r2,r2,-16812
 2002b50:	d8800015 	stw	r2,0(sp)
 2002b54:	e0bffa17 	ldw	r2,-24(fp)
 2002b58:	d8800115 	stw	r2,4(sp)
 2002b5c:	00808074 	movhi	r2,513
 2002b60:	10876604 	addi	r2,r2,7576
 2002b64:	d8800215 	stw	r2,8(sp)
 2002b68:	8809883a 	mov	r4,r17
 2002b6c:	180b883a 	mov	r5,r3
 2002b70:	01804034 	movhi	r6,256
 2002b74:	31bfffc4 	addi	r6,r6,-1
 2002b78:	000f883a 	mov	r7,zero
 2002b7c:	2008b400 	call	2008b40 <vid_print_string_alpha>
 2002b80:	00010906 	br	2002fa8 <GUI_ROBINSUN_CompetitionSummary_Draw+0x888>
			else if(strategy==2)
 2002b84:	e0bffd17 	ldw	r2,-12(fp)
 2002b88:	10800098 	cmpnei	r2,r2,2
 2002b8c:	10001a1e 	bne	r2,zero,2002bf8 <GUI_ROBINSUN_CompetitionSummary_Draw+0x4d8>
				vid_print_string_alpha(rc.left+8, rc.top+(RectHeight(&rc)-26)/2, WHITE_24, BLACK_24, tahomabold_20, pDisplay, "2");
 2002b90:	e0bff617 	ldw	r2,-40(fp)
 2002b94:	14400204 	addi	r17,r2,8
 2002b98:	e43ff817 	ldw	r16,-32(fp)
 2002b9c:	e0bff604 	addi	r2,fp,-40
 2002ba0:	1009883a 	mov	r4,r2
 2002ba4:	20063c00 	call	20063c0 <RectHeight>
 2002ba8:	10bff984 	addi	r2,r2,-26
 2002bac:	1006d7fa 	srli	r3,r2,31
 2002bb0:	1885883a 	add	r2,r3,r2
 2002bb4:	1005d07a 	srai	r2,r2,1
 2002bb8:	8087883a 	add	r3,r16,r2
 2002bbc:	008080f4 	movhi	r2,515
 2002bc0:	10af9504 	addi	r2,r2,-16812
 2002bc4:	d8800015 	stw	r2,0(sp)
 2002bc8:	e0bffa17 	ldw	r2,-24(fp)
 2002bcc:	d8800115 	stw	r2,4(sp)
 2002bd0:	00808074 	movhi	r2,513
 2002bd4:	10876704 	addi	r2,r2,7580
 2002bd8:	d8800215 	stw	r2,8(sp)
 2002bdc:	8809883a 	mov	r4,r17
 2002be0:	180b883a 	mov	r5,r3
 2002be4:	01804034 	movhi	r6,256
 2002be8:	31bfffc4 	addi	r6,r6,-1
 2002bec:	000f883a 	mov	r7,zero
 2002bf0:	2008b400 	call	2008b40 <vid_print_string_alpha>
 2002bf4:	0000ec06 	br	2002fa8 <GUI_ROBINSUN_CompetitionSummary_Draw+0x888>
			else if(strategy==3)
 2002bf8:	e0bffd17 	ldw	r2,-12(fp)
 2002bfc:	108000d8 	cmpnei	r2,r2,3
 2002c00:	10001a1e 	bne	r2,zero,2002c6c <GUI_ROBINSUN_CompetitionSummary_Draw+0x54c>
				vid_print_string_alpha(rc.left+8, rc.top+(RectHeight(&rc)-26)/2, WHITE_24, BLACK_24, tahomabold_20, pDisplay, "3");
 2002c04:	e0bff617 	ldw	r2,-40(fp)
 2002c08:	14400204 	addi	r17,r2,8
 2002c0c:	e43ff817 	ldw	r16,-32(fp)
 2002c10:	e0bff604 	addi	r2,fp,-40
 2002c14:	1009883a 	mov	r4,r2
 2002c18:	20063c00 	call	20063c0 <RectHeight>
 2002c1c:	10bff984 	addi	r2,r2,-26
 2002c20:	1006d7fa 	srli	r3,r2,31
 2002c24:	1885883a 	add	r2,r3,r2
 2002c28:	1005d07a 	srai	r2,r2,1
 2002c2c:	8087883a 	add	r3,r16,r2
 2002c30:	008080f4 	movhi	r2,515
 2002c34:	10af9504 	addi	r2,r2,-16812
 2002c38:	d8800015 	stw	r2,0(sp)
 2002c3c:	e0bffa17 	ldw	r2,-24(fp)
 2002c40:	d8800115 	stw	r2,4(sp)
 2002c44:	00808074 	movhi	r2,513
 2002c48:	10876804 	addi	r2,r2,7584
 2002c4c:	d8800215 	stw	r2,8(sp)
 2002c50:	8809883a 	mov	r4,r17
 2002c54:	180b883a 	mov	r5,r3
 2002c58:	01804034 	movhi	r6,256
 2002c5c:	31bfffc4 	addi	r6,r6,-1
 2002c60:	000f883a 	mov	r7,zero
 2002c64:	2008b400 	call	2008b40 <vid_print_string_alpha>
 2002c68:	0000cf06 	br	2002fa8 <GUI_ROBINSUN_CompetitionSummary_Draw+0x888>
			else
				vid_print_string_alpha(rc.left+8, rc.top+(RectHeight(&rc)-26)/2, WHITE_24, BLACK_24, tahomabold_20, pDisplay, "4");
 2002c6c:	e0bff617 	ldw	r2,-40(fp)
 2002c70:	14400204 	addi	r17,r2,8
 2002c74:	e43ff817 	ldw	r16,-32(fp)
 2002c78:	e0bff604 	addi	r2,fp,-40
 2002c7c:	1009883a 	mov	r4,r2
 2002c80:	20063c00 	call	20063c0 <RectHeight>
 2002c84:	10bff984 	addi	r2,r2,-26
 2002c88:	1006d7fa 	srli	r3,r2,31
 2002c8c:	1885883a 	add	r2,r3,r2
 2002c90:	1005d07a 	srai	r2,r2,1
 2002c94:	8087883a 	add	r3,r16,r2
 2002c98:	008080f4 	movhi	r2,515
 2002c9c:	10af9504 	addi	r2,r2,-16812
 2002ca0:	d8800015 	stw	r2,0(sp)
 2002ca4:	e0bffa17 	ldw	r2,-24(fp)
 2002ca8:	d8800115 	stw	r2,4(sp)
 2002cac:	00808074 	movhi	r2,513
 2002cb0:	10876904 	addi	r2,r2,7588
 2002cb4:	d8800215 	stw	r2,8(sp)
 2002cb8:	8809883a 	mov	r4,r17
 2002cbc:	180b883a 	mov	r5,r3
 2002cc0:	01804034 	movhi	r6,256
 2002cc4:	31bfffc4 	addi	r6,r6,-1
 2002cc8:	000f883a 	mov	r7,zero
 2002ccc:	2008b400 	call	2008b40 <vid_print_string_alpha>
 2002cd0:	0000b506 	br	2002fa8 <GUI_ROBINSUN_CompetitionSummary_Draw+0x888>

		}
		else if (i == 5){
 2002cd4:	e0bff517 	ldw	r2,-44(fp)
 2002cd8:	10800158 	cmpnei	r2,r2,5
 2002cdc:	1000311e 	bne	r2,zero,2002da4 <GUI_ROBINSUN_CompetitionSummary_Draw+0x684>
			vid_draw_box (rc.left, rc.top, rc.right, rc.bottom, BLACK_24, DO_FILL, pDisplay);
 2002ce0:	e13ff617 	ldw	r4,-40(fp)
 2002ce4:	e17ff817 	ldw	r5,-32(fp)
 2002ce8:	e1bff717 	ldw	r6,-36(fp)
 2002cec:	e0fff917 	ldw	r3,-28(fp)
 2002cf0:	d8000015 	stw	zero,0(sp)
 2002cf4:	00800044 	movi	r2,1
 2002cf8:	d8800115 	stw	r2,4(sp)
 2002cfc:	e0bffa17 	ldw	r2,-24(fp)
 2002d00:	d8800215 	stw	r2,8(sp)
 2002d04:	180f883a 	mov	r7,r3
 2002d08:	2006d340 	call	2006d34 <vid_draw_box>
			vid_draw_box (rc.left, rc.top, rc.right, rc.bottom, WHITE_24, DO_NOT_FILL, pDisplay);
 2002d0c:	e13ff617 	ldw	r4,-40(fp)
 2002d10:	e17ff817 	ldw	r5,-32(fp)
 2002d14:	e1bff717 	ldw	r6,-36(fp)
 2002d18:	e0fff917 	ldw	r3,-28(fp)
 2002d1c:	00804034 	movhi	r2,256
 2002d20:	10bfffc4 	addi	r2,r2,-1
 2002d24:	d8800015 	stw	r2,0(sp)
 2002d28:	d8000115 	stw	zero,4(sp)
 2002d2c:	e0bffa17 	ldw	r2,-24(fp)
 2002d30:	d8800215 	stw	r2,8(sp)
 2002d34:	180f883a 	mov	r7,r3
 2002d38:	2006d340 	call	2006d34 <vid_draw_box>
			vid_print_string_alpha(rc.left+8, rc.top+(RectHeight(&rc)-26)/2, WHITE_24, BLACK_24, tahomabold_20, pDisplay, "Nb of opponents");
 2002d3c:	e0bff617 	ldw	r2,-40(fp)
 2002d40:	14400204 	addi	r17,r2,8
 2002d44:	e43ff817 	ldw	r16,-32(fp)
 2002d48:	e0bff604 	addi	r2,fp,-40
 2002d4c:	1009883a 	mov	r4,r2
 2002d50:	20063c00 	call	20063c0 <RectHeight>
 2002d54:	10bff984 	addi	r2,r2,-26
 2002d58:	1006d7fa 	srli	r3,r2,31
 2002d5c:	1885883a 	add	r2,r3,r2
 2002d60:	1005d07a 	srai	r2,r2,1
 2002d64:	8087883a 	add	r3,r16,r2
 2002d68:	008080f4 	movhi	r2,515
 2002d6c:	10af9504 	addi	r2,r2,-16812
 2002d70:	d8800015 	stw	r2,0(sp)
 2002d74:	e0bffa17 	ldw	r2,-24(fp)
 2002d78:	d8800115 	stw	r2,4(sp)
 2002d7c:	00808074 	movhi	r2,513
 2002d80:	10876f04 	addi	r2,r2,7612
 2002d84:	d8800215 	stw	r2,8(sp)
 2002d88:	8809883a 	mov	r4,r17
 2002d8c:	180b883a 	mov	r5,r3
 2002d90:	01804034 	movhi	r6,256
 2002d94:	31bfffc4 	addi	r6,r6,-1
 2002d98:	000f883a 	mov	r7,zero
 2002d9c:	2008b400 	call	2008b40 <vid_print_string_alpha>
 2002da0:	00008106 	br	2002fa8 <GUI_ROBINSUN_CompetitionSummary_Draw+0x888>
		}
		else if (i == 6){
 2002da4:	e0bff517 	ldw	r2,-44(fp)
 2002da8:	10800198 	cmpnei	r2,r2,6
 2002dac:	10004e1e 	bne	r2,zero,2002ee8 <GUI_ROBINSUN_CompetitionSummary_Draw+0x7c8>
			vid_draw_box (rc.left, rc.top, rc.right, rc.bottom, BLACK_24, DO_FILL, pDisplay);
 2002db0:	e13ff617 	ldw	r4,-40(fp)
 2002db4:	e17ff817 	ldw	r5,-32(fp)
 2002db8:	e1bff717 	ldw	r6,-36(fp)
 2002dbc:	e0fff917 	ldw	r3,-28(fp)
 2002dc0:	d8000015 	stw	zero,0(sp)
 2002dc4:	00800044 	movi	r2,1
 2002dc8:	d8800115 	stw	r2,4(sp)
 2002dcc:	e0bffa17 	ldw	r2,-24(fp)
 2002dd0:	d8800215 	stw	r2,8(sp)
 2002dd4:	180f883a 	mov	r7,r3
 2002dd8:	2006d340 	call	2006d34 <vid_draw_box>
			vid_draw_box (rc.left, rc.top, rc.right, rc.bottom, WHITE_24, DO_NOT_FILL, pDisplay);
 2002ddc:	e13ff617 	ldw	r4,-40(fp)
 2002de0:	e17ff817 	ldw	r5,-32(fp)
 2002de4:	e1bff717 	ldw	r6,-36(fp)
 2002de8:	e0fff917 	ldw	r3,-28(fp)
 2002dec:	00804034 	movhi	r2,256
 2002df0:	10bfffc4 	addi	r2,r2,-1
 2002df4:	d8800015 	stw	r2,0(sp)
 2002df8:	d8000115 	stw	zero,4(sp)
 2002dfc:	e0bffa17 	ldw	r2,-24(fp)
 2002e00:	d8800215 	stw	r2,8(sp)
 2002e04:	180f883a 	mov	r7,r3
 2002e08:	2006d340 	call	2006d34 <vid_draw_box>
			if(opponent==1)
 2002e0c:	e0800217 	ldw	r2,8(fp)
 2002e10:	10800058 	cmpnei	r2,r2,1
 2002e14:	10001a1e 	bne	r2,zero,2002e80 <GUI_ROBINSUN_CompetitionSummary_Draw+0x760>
				vid_print_string_alpha(rc.left+8, rc.top+(RectHeight(&rc)-26)/2, WHITE_24, BLACK_24, tahomabold_20, pDisplay, "1");
 2002e18:	e0bff617 	ldw	r2,-40(fp)
 2002e1c:	14400204 	addi	r17,r2,8
 2002e20:	e43ff817 	ldw	r16,-32(fp)
 2002e24:	e0bff604 	addi	r2,fp,-40
 2002e28:	1009883a 	mov	r4,r2
 2002e2c:	20063c00 	call	20063c0 <RectHeight>
 2002e30:	10bff984 	addi	r2,r2,-26
 2002e34:	1006d7fa 	srli	r3,r2,31
 2002e38:	1885883a 	add	r2,r3,r2
 2002e3c:	1005d07a 	srai	r2,r2,1
 2002e40:	8087883a 	add	r3,r16,r2
 2002e44:	008080f4 	movhi	r2,515
 2002e48:	10af9504 	addi	r2,r2,-16812
 2002e4c:	d8800015 	stw	r2,0(sp)
 2002e50:	e0bffa17 	ldw	r2,-24(fp)
 2002e54:	d8800115 	stw	r2,4(sp)
 2002e58:	00808074 	movhi	r2,513
 2002e5c:	10876604 	addi	r2,r2,7576
 2002e60:	d8800215 	stw	r2,8(sp)
 2002e64:	8809883a 	mov	r4,r17
 2002e68:	180b883a 	mov	r5,r3
 2002e6c:	01804034 	movhi	r6,256
 2002e70:	31bfffc4 	addi	r6,r6,-1
 2002e74:	000f883a 	mov	r7,zero
 2002e78:	2008b400 	call	2008b40 <vid_print_string_alpha>
 2002e7c:	00004a06 	br	2002fa8 <GUI_ROBINSUN_CompetitionSummary_Draw+0x888>
			else
				vid_print_string_alpha(rc.left+8, rc.top+(RectHeight(&rc)-26)/2, WHITE_24, BLACK_24, tahomabold_20, pDisplay, "2");
 2002e80:	e0bff617 	ldw	r2,-40(fp)
 2002e84:	14400204 	addi	r17,r2,8
 2002e88:	e43ff817 	ldw	r16,-32(fp)
 2002e8c:	e0bff604 	addi	r2,fp,-40
 2002e90:	1009883a 	mov	r4,r2
 2002e94:	20063c00 	call	20063c0 <RectHeight>
 2002e98:	10bff984 	addi	r2,r2,-26
 2002e9c:	1006d7fa 	srli	r3,r2,31
 2002ea0:	1885883a 	add	r2,r3,r2
 2002ea4:	1005d07a 	srai	r2,r2,1
 2002ea8:	8087883a 	add	r3,r16,r2
 2002eac:	008080f4 	movhi	r2,515
 2002eb0:	10af9504 	addi	r2,r2,-16812
 2002eb4:	d8800015 	stw	r2,0(sp)
 2002eb8:	e0bffa17 	ldw	r2,-24(fp)
 2002ebc:	d8800115 	stw	r2,4(sp)
 2002ec0:	00808074 	movhi	r2,513
 2002ec4:	10876704 	addi	r2,r2,7580
 2002ec8:	d8800215 	stw	r2,8(sp)
 2002ecc:	8809883a 	mov	r4,r17
 2002ed0:	180b883a 	mov	r5,r3
 2002ed4:	01804034 	movhi	r6,256
 2002ed8:	31bfffc4 	addi	r6,r6,-1
 2002edc:	000f883a 	mov	r7,zero
 2002ee0:	2008b400 	call	2008b40 <vid_print_string_alpha>
 2002ee4:	00003006 	br	2002fa8 <GUI_ROBINSUN_CompetitionSummary_Draw+0x888>
		}
		else{
			vid_draw_box (rc.left, rc.top, rc.right, rc.bottom, BLACK_24, DO_FILL, pDisplay);
 2002ee8:	e13ff617 	ldw	r4,-40(fp)
 2002eec:	e17ff817 	ldw	r5,-32(fp)
 2002ef0:	e1bff717 	ldw	r6,-36(fp)
 2002ef4:	e0fff917 	ldw	r3,-28(fp)
 2002ef8:	d8000015 	stw	zero,0(sp)
 2002efc:	00800044 	movi	r2,1
 2002f00:	d8800115 	stw	r2,4(sp)
 2002f04:	e0bffa17 	ldw	r2,-24(fp)
 2002f08:	d8800215 	stw	r2,8(sp)
 2002f0c:	180f883a 	mov	r7,r3
 2002f10:	2006d340 	call	2006d34 <vid_draw_box>
			vid_draw_box (rc.left, rc.top, rc.right, rc.bottom, WHITE_24, DO_NOT_FILL, pDisplay);
 2002f14:	e13ff617 	ldw	r4,-40(fp)
 2002f18:	e17ff817 	ldw	r5,-32(fp)
 2002f1c:	e1bff717 	ldw	r6,-36(fp)
 2002f20:	e0fff917 	ldw	r3,-28(fp)
 2002f24:	00804034 	movhi	r2,256
 2002f28:	10bfffc4 	addi	r2,r2,-1
 2002f2c:	d8800015 	stw	r2,0(sp)
 2002f30:	d8000115 	stw	zero,4(sp)
 2002f34:	e0bffa17 	ldw	r2,-24(fp)
 2002f38:	d8800215 	stw	r2,8(sp)
 2002f3c:	180f883a 	mov	r7,r3
 2002f40:	2006d340 	call	2006d34 <vid_draw_box>
			vid_print_string_alpha(rc.left+8, rc.top+(RectHeight(&rc)-26)/2, WHITE_24, BLACK_24, tahomabold_20, pDisplay, "Send to ROBINSUN");
 2002f44:	e0bff617 	ldw	r2,-40(fp)
 2002f48:	14400204 	addi	r17,r2,8
 2002f4c:	e43ff817 	ldw	r16,-32(fp)
 2002f50:	e0bff604 	addi	r2,fp,-40
 2002f54:	1009883a 	mov	r4,r2
 2002f58:	20063c00 	call	20063c0 <RectHeight>
 2002f5c:	10bff984 	addi	r2,r2,-26
 2002f60:	1006d7fa 	srli	r3,r2,31
 2002f64:	1885883a 	add	r2,r3,r2
 2002f68:	1005d07a 	srai	r2,r2,1
 2002f6c:	8087883a 	add	r3,r16,r2
 2002f70:	008080f4 	movhi	r2,515
 2002f74:	10af9504 	addi	r2,r2,-16812
 2002f78:	d8800015 	stw	r2,0(sp)
 2002f7c:	e0bffa17 	ldw	r2,-24(fp)
 2002f80:	d8800115 	stw	r2,4(sp)
 2002f84:	00808074 	movhi	r2,513
 2002f88:	10877304 	addi	r2,r2,7628
 2002f8c:	d8800215 	stw	r2,8(sp)
 2002f90:	8809883a 	mov	r4,r17
 2002f94:	180b883a 	mov	r5,r3
 2002f98:	01804034 	movhi	r6,256
 2002f9c:	31bfffc4 	addi	r6,r6,-1
 2002fa0:	000f883a 	mov	r7,zero
 2002fa4:	2008b400 	call	2008b40 <vid_print_string_alpha>
	// draw border
	RectCopy(&rc, &pDeskInfo->rcDisp);
	vid_draw_box (rc.left, rc.top, rc.right, rc.bottom, WHITE_24, DO_NOT_FILL, pDisplay);

	// draw buttons
	for(i=0;i<8;i++){
 2002fa8:	e0bff517 	ldw	r2,-44(fp)
 2002fac:	10800044 	addi	r2,r2,1
 2002fb0:	e0bff515 	stw	r2,-44(fp)
 2002fb4:	e0bff517 	ldw	r2,-44(fp)
 2002fb8:	10800210 	cmplti	r2,r2,8
 2002fbc:	103df51e 	bne	r2,zero,2002794 <__reset+0xfdffaf94>
			vid_draw_box (rc.left, rc.top, rc.right, rc.bottom, BLACK_24, DO_FILL, pDisplay);
			vid_draw_box (rc.left, rc.top, rc.right, rc.bottom, WHITE_24, DO_NOT_FILL, pDisplay);
			vid_print_string_alpha(rc.left+8, rc.top+(RectHeight(&rc)-26)/2, WHITE_24, BLACK_24, tahomabold_20, pDisplay, "Send to ROBINSUN");
		}
	}
}
 2002fc0:	e6fffe04 	addi	sp,fp,-8
 2002fc4:	dfc00317 	ldw	ra,12(sp)
 2002fc8:	df000217 	ldw	fp,8(sp)
 2002fcc:	dc400117 	ldw	r17,4(sp)
 2002fd0:	dc000017 	ldw	r16,0(sp)
 2002fd4:	dec00404 	addi	sp,sp,16
 2002fd8:	f800283a 	ret

02002fdc <GUI_ROBINSUN>:

// ------------------------------------------------------------------------------ //
// ------------------------------- MAIN FUNCTION -------------------------------- //
// ------------------------------------------------------------------------------ //

void GUI_ROBINSUN(alt_video_display *pDisplay, TOUCH_HANDLE *pTouch){
 2002fdc:	defe6504 	addi	sp,sp,-1644
 2002fe0:	dfc19a15 	stw	ra,1640(sp)
 2002fe4:	df019915 	stw	fp,1636(sp)
 2002fe8:	dc419815 	stw	r17,1632(sp)
 2002fec:	dc019715 	stw	r16,1628(sp)
 2002ff0:	df019904 	addi	fp,sp,1636
 2002ff4:	e13ffc15 	stw	r4,-16(fp)
 2002ff8:	e17ffd15 	stw	r5,-12(fp)
	DESK_INFO DeskInfo;
	int X, Y;
	int desk=1;
 2002ffc:	00800044 	movi	r2,1
 2003000:	e0be6d15 	stw	r2,-1612(fp)
	int tests_or_compet=1, tests_or_compet_loop=1;
 2003004:	00800044 	movi	r2,1
 2003008:	e0be6e15 	stw	r2,-1608(fp)
 200300c:	00800044 	movi	r2,1
 2003010:	e0be6f15 	stw	r2,-1604(fp)
	int compet2, compet2_loop, compet3, compet3_loop;
	int test=1;
 2003014:	00800044 	movi	r2,1
 2003018:	e0be7415 	stw	r2,-1584(fp)
	int color=0, strategy=0, opponent=0, start=0;
 200301c:	e03e7515 	stw	zero,-1580(fp)
 2003020:	e03e7615 	stw	zero,-1576(fp)
 2003024:	e03e7715 	stw	zero,-1572(fp)
 2003028:	e03e7815 	stw	zero,-1568(fp)

	int check_button_menu=0;
 200302c:	e03e7915 	stw	zero,-1564(fp)
	int check_button_tests=0, check_button_compet=0, check_button_compet2=0, check_button_compet3=0;
 2003030:	e03e7a15 	stw	zero,-1560(fp)
 2003034:	e03e7b15 	stw	zero,-1556(fp)
 2003038:	e03e7c15 	stw	zero,-1552(fp)
 200303c:	e03e7d15 	stw	zero,-1548(fp)
	int check_button_move=0, check_button_blocks=0, check_button_fish=0, check_button_cabins=0, check_button_parasol=0;
 2003040:	e03e7e15 	stw	zero,-1544(fp)
 2003044:	e03e7f15 	stw	zero,-1540(fp)
 2003048:	e03e8015 	stw	zero,-1536(fp)
 200304c:	e03e8115 	stw	zero,-1532(fp)
 2003050:	e03e8215 	stw	zero,-1528(fp)

	int * signal = (int*) SIGNAL_OUT_BASE;
 2003054:	00810074 	movhi	r2,1025
 2003058:	10a11004 	addi	r2,r2,-31680
 200305c:	e0be8315 	stw	r2,-1524(fp)
	*signal = 0;
 2003060:	e0be8317 	ldw	r2,-1524(fp)
 2003064:	10000015 	stw	zero,0(r2)
	RECT rcTouchCabinsGo, rcTouchCabinsStop;
	RECT rcTouchParasolTrigger, rcTouchParasolStop;
	RECT rcTouchCompet;

    // clean screen
    vid_clean_screen(pDisplay, BLACK_24);
 2003068:	e13ffc17 	ldw	r4,-16(fp)
 200306c:	000b883a 	mov	r5,zero
 2003070:	20064ec0 	call	20064ec <vid_clean_screen>

    // Welcome message for Robinsun Team's Member
    GUI_ROBINSUN_ShowWelcome(pDisplay);
 2003074:	e13ffc17 	ldw	r4,-16(fp)
 2003078:	2000a680 	call	2000a68 <GUI_ROBINSUN_ShowWelcome>
    usleep(2*1000*1000);
 200307c:	010007f4 	movhi	r4,31
 2003080:	21212004 	addi	r4,r4,-31616
 2003084:	200ec680 	call	200ec68 <usleep>
    vid_clean_screen(pDisplay, BLACK_24);
 2003088:	e13ffc17 	ldw	r4,-16(fp)
 200308c:	000b883a 	mov	r5,zero
 2003090:	20064ec0 	call	20064ec <vid_clean_screen>

    while(1){
    	vid_clean_screen(pDisplay, BLACK_24);
 2003094:	e13ffc17 	ldw	r4,-16(fp)
 2003098:	000b883a 	mov	r5,zero
 200309c:	20064ec0 	call	20064ec <vid_clean_screen>
    	GUI_ROBINSUN_Init(pDisplay, &DeskInfo, DeskInfo.buttons, BTN_NUM);
 20030a0:	e0fe8404 	addi	r3,fp,-1520
 20030a4:	e0be8404 	addi	r2,fp,-1520
 20030a8:	10800404 	addi	r2,r2,16
 20030ac:	e13ffc17 	ldw	r4,-16(fp)
 20030b0:	180b883a 	mov	r5,r3
 20030b4:	100d883a 	mov	r6,r2
 20030b8:	01c00084 	movi	r7,2
 20030bc:	2000b840 	call	2000b84 <GUI_ROBINSUN_Init>
    	GUI_ROBINSUN_Draw(pDisplay, &DeskInfo, DeskInfo.buttons, BTN_NUM, "Tests", "Competition", "", "", "", "");
 20030c0:	e17e8404 	addi	r5,fp,-1520
 20030c4:	e0be8404 	addi	r2,fp,-1520
 20030c8:	10c00404 	addi	r3,r2,16
 20030cc:	00808074 	movhi	r2,513
 20030d0:	10877804 	addi	r2,r2,7648
 20030d4:	d8800015 	stw	r2,0(sp)
 20030d8:	00808074 	movhi	r2,513
 20030dc:	10877a04 	addi	r2,r2,7656
 20030e0:	d8800115 	stw	r2,4(sp)
 20030e4:	00808074 	movhi	r2,513
 20030e8:	10877d04 	addi	r2,r2,7668
 20030ec:	d8800215 	stw	r2,8(sp)
 20030f0:	00808074 	movhi	r2,513
 20030f4:	10877d04 	addi	r2,r2,7668
 20030f8:	d8800315 	stw	r2,12(sp)
 20030fc:	00808074 	movhi	r2,513
 2003100:	10877d04 	addi	r2,r2,7668
 2003104:	d8800415 	stw	r2,16(sp)
 2003108:	00808074 	movhi	r2,513
 200310c:	10877d04 	addi	r2,r2,7668
 2003110:	d8800515 	stw	r2,20(sp)
 2003114:	e13ffc17 	ldw	r4,-16(fp)
 2003118:	180d883a 	mov	r6,r3
 200311c:	01c00084 	movi	r7,2
 2003120:	2000cd40 	call	2000cd4 <GUI_ROBINSUN_Draw>

    	RectCopy(&rcTouchTest, &DeskInfo.buttons[BTN_TEST].rc);
 2003124:	e0ff9404 	addi	r3,fp,-432
 2003128:	e0be8404 	addi	r2,fp,-1520
 200312c:	10800404 	addi	r2,r2,16
 2003130:	1809883a 	mov	r4,r3
 2003134:	100b883a 	mov	r5,r2
 2003138:	20063280 	call	2006328 <RectCopy>
    	RectCopy(&rcTouchCompet, &DeskInfo.buttons[BTN_COMPET].rc);
 200313c:	e0fff804 	addi	r3,fp,-32
 2003140:	e0be8404 	addi	r2,fp,-1520
 2003144:	10800904 	addi	r2,r2,36
 2003148:	1809883a 	mov	r4,r3
 200314c:	100b883a 	mov	r5,r2
 2003150:	20063280 	call	2006328 <RectCopy>

    	desk=1;
 2003154:	00800044 	movi	r2,1
 2003158:	e0be6d15 	stw	r2,-1612(fp)
    	Touch_EmptyFifo(pTouch);
 200315c:	e13ffd17 	ldw	r4,-12(fp)
 2003160:	20097c80 	call	20097c8 <Touch_EmptyFifo>

    	while(desk){
 2003164:	00092706 	br	2005604 <GUI_ROBINSUN+0x2628>
    		// touch
    		if (Touch_GetXY(pTouch, &X, &Y)){
 2003168:	e0ff8c04 	addi	r3,fp,-464
 200316c:	e0bf8d04 	addi	r2,fp,-460
 2003170:	e13ffd17 	ldw	r4,-12(fp)
 2003174:	180b883a 	mov	r5,r3
 2003178:	100d883a 	mov	r6,r2
 200317c:	20098000 	call	2009800 <Touch_GetXY>
 2003180:	10092026 	beq	r2,zero,2005604 <GUI_ROBINSUN+0x2628>
    			//printf("x=%d, y=%d\r\n", X,Y);
    			PtSet(&Pt, X, Y);
 2003184:	e0ff8c17 	ldw	r3,-464(fp)
 2003188:	e0bf8d17 	ldw	r2,-460(fp)
 200318c:	e13f8e04 	addi	r4,fp,-456
 2003190:	180b883a 	mov	r5,r3
 2003194:	100d883a 	mov	r6,r2
 2003198:	200617c0 	call	200617c <PtSet>

    			check_button_menu = GUI_ROBINSUN_CheckButton(&DeskInfo, &Pt,DeskInfo.buttons,BTN_NUM,BTN_NONE);
 200319c:	e13e8404 	addi	r4,fp,-1520
 20031a0:	e17f8e04 	addi	r5,fp,-456
 20031a4:	e0be8404 	addi	r2,fp,-1520
 20031a8:	10c00404 	addi	r3,r2,16
 20031ac:	008000c4 	movi	r2,3
 20031b0:	d8800015 	stw	r2,0(sp)
 20031b4:	180d883a 	mov	r6,r3
 20031b8:	01c00084 	movi	r7,2
 20031bc:	20009d40 	call	20009d4 <GUI_ROBINSUN_CheckButton>
 20031c0:	e0be7915 	stw	r2,-1564(fp)
    			if (check_button_menu == BTN_TEST){
 20031c4:	e0be7917 	ldw	r2,-1564(fp)
 20031c8:	10061b1e 	bne	r2,zero,2004a38 <GUI_ROBINSUN+0x1a5c>

    				tests_or_compet=1;
 20031cc:	00800044 	movi	r2,1
 20031d0:	e0be6e15 	stw	r2,-1608(fp)
    				while(tests_or_compet){
 20031d4:	00061506 	br	2004a2c <GUI_ROBINSUN+0x1a50>
    					vid_clean_screen(pDisplay, BLACK_24);
 20031d8:	e13ffc17 	ldw	r4,-16(fp)
 20031dc:	000b883a 	mov	r5,zero
 20031e0:	20064ec0 	call	20064ec <vid_clean_screen>
    					usleep(1000*1000);
 20031e4:	010003f4 	movhi	r4,15
 20031e8:	21109004 	addi	r4,r4,16960
 20031ec:	200ec680 	call	200ec68 <usleep>
    					Touch_EmptyFifo(pTouch);
 20031f0:	e13ffd17 	ldw	r4,-12(fp)
 20031f4:	20097c80 	call	20097c8 <Touch_EmptyFifo>

    					GUI_ROBINSUN_Init(pDisplay, &DeskInfo, DeskInfo.buttons_tests, BTN_NUM_TESTS);
 20031f8:	e0fe8404 	addi	r3,fp,-1520
 20031fc:	e0be8404 	addi	r2,fp,-1520
 2003200:	10800e04 	addi	r2,r2,56
 2003204:	e13ffc17 	ldw	r4,-16(fp)
 2003208:	180b883a 	mov	r5,r3
 200320c:	100d883a 	mov	r6,r2
 2003210:	01c00184 	movi	r7,6
 2003214:	2000b840 	call	2000b84 <GUI_ROBINSUN_Init>
    					GUI_ROBINSUN_Draw(pDisplay, &DeskInfo, DeskInfo.buttons_tests, BTN_NUM_TESTS, "Move", "Blocks", "Fish", "Cabins", "Parasol", "Back");
 2003218:	e17e8404 	addi	r5,fp,-1520
 200321c:	e0be8404 	addi	r2,fp,-1520
 2003220:	10c00e04 	addi	r3,r2,56
 2003224:	00808074 	movhi	r2,513
 2003228:	10877e04 	addi	r2,r2,7672
 200322c:	d8800015 	stw	r2,0(sp)
 2003230:	00808074 	movhi	r2,513
 2003234:	10878004 	addi	r2,r2,7680
 2003238:	d8800115 	stw	r2,4(sp)
 200323c:	00808074 	movhi	r2,513
 2003240:	10878204 	addi	r2,r2,7688
 2003244:	d8800215 	stw	r2,8(sp)
 2003248:	00808074 	movhi	r2,513
 200324c:	10878404 	addi	r2,r2,7696
 2003250:	d8800315 	stw	r2,12(sp)
 2003254:	00808074 	movhi	r2,513
 2003258:	10878604 	addi	r2,r2,7704
 200325c:	d8800415 	stw	r2,16(sp)
 2003260:	00808074 	movhi	r2,513
 2003264:	10876a04 	addi	r2,r2,7592
 2003268:	d8800515 	stw	r2,20(sp)
 200326c:	e13ffc17 	ldw	r4,-16(fp)
 2003270:	180d883a 	mov	r6,r3
 2003274:	01c00184 	movi	r7,6
 2003278:	2000cd40 	call	2000cd4 <GUI_ROBINSUN_Draw>

    					tests_or_compet_loop=1;
 200327c:	00800044 	movi	r2,1
 2003280:	e0be6f15 	stw	r2,-1604(fp)
    					while(tests_or_compet_loop){
 2003284:	0005e706 	br	2004a24 <GUI_ROBINSUN+0x1a48>

    						RectCopy(&rcTouchMove, &DeskInfo.buttons_tests[BTN_MOVE].rc);
 2003288:	e0ff9804 	addi	r3,fp,-416
 200328c:	e0be8404 	addi	r2,fp,-1520
 2003290:	10800e04 	addi	r2,r2,56
 2003294:	1809883a 	mov	r4,r3
 2003298:	100b883a 	mov	r5,r2
 200329c:	20063280 	call	2006328 <RectCopy>
    						RectCopy(&rcTouchBlocks, &DeskInfo.buttons_tests[BTN_BLOCKS].rc);
 20032a0:	e0ff9c04 	addi	r3,fp,-400
 20032a4:	e0be8404 	addi	r2,fp,-1520
 20032a8:	10801304 	addi	r2,r2,76
 20032ac:	1809883a 	mov	r4,r3
 20032b0:	100b883a 	mov	r5,r2
 20032b4:	20063280 	call	2006328 <RectCopy>
    						RectCopy(&rcTouchFish, &DeskInfo.buttons_tests[BTN_FISH].rc);
 20032b8:	e0ffa004 	addi	r3,fp,-384
 20032bc:	e0be8404 	addi	r2,fp,-1520
 20032c0:	10801804 	addi	r2,r2,96
 20032c4:	1809883a 	mov	r4,r3
 20032c8:	100b883a 	mov	r5,r2
 20032cc:	20063280 	call	2006328 <RectCopy>
    						RectCopy(&rcTouchCabins, &DeskInfo.buttons_tests[BTN_CABINS].rc);
 20032d0:	e0ffa404 	addi	r3,fp,-368
 20032d4:	e0be8404 	addi	r2,fp,-1520
 20032d8:	10801d04 	addi	r2,r2,116
 20032dc:	1809883a 	mov	r4,r3
 20032e0:	100b883a 	mov	r5,r2
 20032e4:	20063280 	call	2006328 <RectCopy>
    						RectCopy(&rcTouchParasol, &DeskInfo.buttons_tests[BTN_PARASOL].rc);
 20032e8:	e0ffa804 	addi	r3,fp,-352
 20032ec:	e0be8404 	addi	r2,fp,-1520
 20032f0:	10802204 	addi	r2,r2,136
 20032f4:	1809883a 	mov	r4,r3
 20032f8:	100b883a 	mov	r5,r2
 20032fc:	20063280 	call	2006328 <RectCopy>
    						RectCopy(&rcTouchTestBack, &DeskInfo.buttons_tests[BTN_BACK_TESTS].rc);
 2003300:	e0ffac04 	addi	r3,fp,-336
 2003304:	e0be8404 	addi	r2,fp,-1520
 2003308:	10802704 	addi	r2,r2,156
 200330c:	1809883a 	mov	r4,r3
 2003310:	100b883a 	mov	r5,r2
 2003314:	20063280 	call	2006328 <RectCopy>

    						//touch
    						if (Touch_GetXY(pTouch, &X, &Y)){
 2003318:	e0ff8c04 	addi	r3,fp,-464
 200331c:	e0bf8d04 	addi	r2,fp,-460
 2003320:	e13ffd17 	ldw	r4,-12(fp)
 2003324:	180b883a 	mov	r5,r3
 2003328:	100d883a 	mov	r6,r2
 200332c:	20098000 	call	2009800 <Touch_GetXY>
 2003330:	1005bc26 	beq	r2,zero,2004a24 <GUI_ROBINSUN+0x1a48>
    							PtSet(&Pt, X, Y);
 2003334:	e0ff8c17 	ldw	r3,-464(fp)
 2003338:	e0bf8d17 	ldw	r2,-460(fp)
 200333c:	e13f8e04 	addi	r4,fp,-456
 2003340:	180b883a 	mov	r5,r3
 2003344:	100d883a 	mov	r6,r2
 2003348:	200617c0 	call	200617c <PtSet>
    							check_button_tests = GUI_ROBINSUN_CheckButton(&DeskInfo, &Pt,DeskInfo.buttons_tests,BTN_NUM_TESTS,BTN_NONE_TESTS);
 200334c:	e13e8404 	addi	r4,fp,-1520
 2003350:	e17f8e04 	addi	r5,fp,-456
 2003354:	e0be8404 	addi	r2,fp,-1520
 2003358:	10c00e04 	addi	r3,r2,56
 200335c:	008001c4 	movi	r2,7
 2003360:	d8800015 	stw	r2,0(sp)
 2003364:	180d883a 	mov	r6,r3
 2003368:	01c00184 	movi	r7,6
 200336c:	20009d40 	call	20009d4 <GUI_ROBINSUN_CheckButton>
 2003370:	e0be7a15 	stw	r2,-1560(fp)

    							if(check_button_tests == BTN_MOVE){
 2003374:	e0be7a17 	ldw	r2,-1560(fp)
 2003378:	1001ad1e 	bne	r2,zero,2003a30 <GUI_ROBINSUN+0xa54>
    								test=1;
 200337c:	00800044 	movi	r2,1
 2003380:	e0be7415 	stw	r2,-1584(fp)

    								vid_clean_screen(pDisplay, BLACK_24);
 2003384:	e13ffc17 	ldw	r4,-16(fp)
 2003388:	000b883a 	mov	r5,zero
 200338c:	20064ec0 	call	20064ec <vid_clean_screen>
    								usleep(1000*1000);
 2003390:	010003f4 	movhi	r4,15
 2003394:	21109004 	addi	r4,r4,16960
 2003398:	200ec680 	call	200ec68 <usleep>

    								GUI_ROBINSUN_Init(pDisplay, &DeskInfo, DeskInfo.buttons_move, BTN_NUM_MOVE);
 200339c:	e0fe8404 	addi	r3,fp,-1520
 20033a0:	e0be8404 	addi	r2,fp,-1520
 20033a4:	10802c04 	addi	r2,r2,176
 20033a8:	e13ffc17 	ldw	r4,-16(fp)
 20033ac:	180b883a 	mov	r5,r3
 20033b0:	100d883a 	mov	r6,r2
 20033b4:	01c00184 	movi	r7,6
 20033b8:	2000b840 	call	2000b84 <GUI_ROBINSUN_Init>
    								GUI_ROBINSUN_Draw(pDisplay, &DeskInfo, DeskInfo.buttons_move, BTN_NUM_MOVE, "Go forward", "Go backward", "Turn to the left", "Turn to the right", "STOP", "Back");
 20033bc:	e17e8404 	addi	r5,fp,-1520
 20033c0:	e0be8404 	addi	r2,fp,-1520
 20033c4:	10c02c04 	addi	r3,r2,176
 20033c8:	00808074 	movhi	r2,513
 20033cc:	10878804 	addi	r2,r2,7712
 20033d0:	d8800015 	stw	r2,0(sp)
 20033d4:	00808074 	movhi	r2,513
 20033d8:	10878b04 	addi	r2,r2,7724
 20033dc:	d8800115 	stw	r2,4(sp)
 20033e0:	00808074 	movhi	r2,513
 20033e4:	10878e04 	addi	r2,r2,7736
 20033e8:	d8800215 	stw	r2,8(sp)
 20033ec:	00808074 	movhi	r2,513
 20033f0:	10879304 	addi	r2,r2,7756
 20033f4:	d8800315 	stw	r2,12(sp)
 20033f8:	00808074 	movhi	r2,513
 20033fc:	10879804 	addi	r2,r2,7776
 2003400:	d8800415 	stw	r2,16(sp)
 2003404:	00808074 	movhi	r2,513
 2003408:	10876a04 	addi	r2,r2,7592
 200340c:	d8800515 	stw	r2,20(sp)
 2003410:	e13ffc17 	ldw	r4,-16(fp)
 2003414:	180d883a 	mov	r6,r3
 2003418:	01c00184 	movi	r7,6
 200341c:	2000cd40 	call	2000cd4 <GUI_ROBINSUN_Draw>

    								RectCopy(&rcTouchMoveForward, &DeskInfo.buttons_move[BTN_MOVE_FORWARD].rc);
 2003420:	e0ffb004 	addi	r3,fp,-320
 2003424:	e0be8404 	addi	r2,fp,-1520
 2003428:	10802c04 	addi	r2,r2,176
 200342c:	1809883a 	mov	r4,r3
 2003430:	100b883a 	mov	r5,r2
 2003434:	20063280 	call	2006328 <RectCopy>
    								RectCopy(&rcTouchMoveBackward, &DeskInfo.buttons_move[BTN_MOVE_BACKWARD].rc);
 2003438:	e0ffb404 	addi	r3,fp,-304
 200343c:	e0be8404 	addi	r2,fp,-1520
 2003440:	10803104 	addi	r2,r2,196
 2003444:	1809883a 	mov	r4,r3
 2003448:	100b883a 	mov	r5,r2
 200344c:	20063280 	call	2006328 <RectCopy>
    								RectCopy(&rcTouchMoveLeft, &DeskInfo.buttons_move[BTN_MOVE_LEFT].rc);
 2003450:	e0ffb804 	addi	r3,fp,-288
 2003454:	e0be8404 	addi	r2,fp,-1520
 2003458:	10803604 	addi	r2,r2,216
 200345c:	1809883a 	mov	r4,r3
 2003460:	100b883a 	mov	r5,r2
 2003464:	20063280 	call	2006328 <RectCopy>
    								RectCopy(&rcTouchMoveRight, &DeskInfo.buttons_move[BTN_MOVE_RIGHT].rc);
 2003468:	e0ffbc04 	addi	r3,fp,-272
 200346c:	e0be8404 	addi	r2,fp,-1520
 2003470:	10803b04 	addi	r2,r2,236
 2003474:	1809883a 	mov	r4,r3
 2003478:	100b883a 	mov	r5,r2
 200347c:	20063280 	call	2006328 <RectCopy>
    								RectCopy(&rcTouchMoveStop, &DeskInfo.buttons_move[BTN_MOVE_STOP].rc);
 2003480:	e0ffc004 	addi	r3,fp,-256
 2003484:	e0be8404 	addi	r2,fp,-1520
 2003488:	10804004 	addi	r2,r2,256
 200348c:	1809883a 	mov	r4,r3
 2003490:	100b883a 	mov	r5,r2
 2003494:	20063280 	call	2006328 <RectCopy>
    								RectCopy(&rcTouchMoveBack, &DeskInfo.buttons_move[BTN_MOVE_BACK].rc);
 2003498:	e0ffc404 	addi	r3,fp,-240
 200349c:	e0be8404 	addi	r2,fp,-1520
 20034a0:	10804504 	addi	r2,r2,276
 20034a4:	1809883a 	mov	r4,r3
 20034a8:	100b883a 	mov	r5,r2
 20034ac:	20063280 	call	2006328 <RectCopy>

    								Touch_EmptyFifo(pTouch);
 20034b0:	e13ffd17 	ldw	r4,-12(fp)
 20034b4:	20097c80 	call	20097c8 <Touch_EmptyFifo>

    								while(test){
 20034b8:	00015a06 	br	2003a24 <GUI_ROBINSUN+0xa48>
    									// touch
    									if (Touch_GetXY(pTouch, &X, &Y)){
 20034bc:	e0ff8c04 	addi	r3,fp,-464
 20034c0:	e0bf8d04 	addi	r2,fp,-460
 20034c4:	e13ffd17 	ldw	r4,-12(fp)
 20034c8:	180b883a 	mov	r5,r3
 20034cc:	100d883a 	mov	r6,r2
 20034d0:	20098000 	call	2009800 <Touch_GetXY>
 20034d4:	10015326 	beq	r2,zero,2003a24 <GUI_ROBINSUN+0xa48>
    										PtSet(&Pt, X, Y);
 20034d8:	e0ff8c17 	ldw	r3,-464(fp)
 20034dc:	e0bf8d17 	ldw	r2,-460(fp)
 20034e0:	e13f8e04 	addi	r4,fp,-456
 20034e4:	180b883a 	mov	r5,r3
 20034e8:	100d883a 	mov	r6,r2
 20034ec:	200617c0 	call	200617c <PtSet>
    										check_button_move = GUI_ROBINSUN_CheckButton(&DeskInfo, &Pt,DeskInfo.buttons_move,BTN_NUM_MOVE,BTN_NONE_MOVE);
 20034f0:	e13e8404 	addi	r4,fp,-1520
 20034f4:	e17f8e04 	addi	r5,fp,-456
 20034f8:	e0be8404 	addi	r2,fp,-1520
 20034fc:	10c02c04 	addi	r3,r2,176
 2003500:	008001c4 	movi	r2,7
 2003504:	d8800015 	stw	r2,0(sp)
 2003508:	180d883a 	mov	r6,r3
 200350c:	01c00184 	movi	r7,6
 2003510:	20009d40 	call	20009d4 <GUI_ROBINSUN_CheckButton>
 2003514:	e0be7e15 	stw	r2,-1544(fp)
    										//printf("signal vaut: %d\n",*signal);
    										if (check_button_move == BTN_MOVE_FORWARD){
 2003518:	e0be7e17 	ldw	r2,-1544(fp)
 200351c:	10003d1e 	bne	r2,zero,2003614 <GUI_ROBINSUN+0x638>

    											vid_draw_box (rcTouchMoveForward.left, rcTouchMoveForward.top, rcTouchMoveForward.right, rcTouchMoveForward.bottom, BLACK_24, DO_FILL, pDisplay);
 2003520:	e13fb017 	ldw	r4,-320(fp)
 2003524:	e17fb217 	ldw	r5,-312(fp)
 2003528:	e1bfb117 	ldw	r6,-316(fp)
 200352c:	e0ffb317 	ldw	r3,-308(fp)
 2003530:	d8000015 	stw	zero,0(sp)
 2003534:	00800044 	movi	r2,1
 2003538:	d8800115 	stw	r2,4(sp)
 200353c:	e0bffc17 	ldw	r2,-16(fp)
 2003540:	d8800215 	stw	r2,8(sp)
 2003544:	180f883a 	mov	r7,r3
 2003548:	2006d340 	call	2006d34 <vid_draw_box>
    											vid_draw_box (rcTouchMoveForward.left, rcTouchMoveForward.top, rcTouchMoveForward.right, rcTouchMoveForward.bottom, WHITE_24, DO_NOT_FILL, pDisplay);
 200354c:	e13fb017 	ldw	r4,-320(fp)
 2003550:	e17fb217 	ldw	r5,-312(fp)
 2003554:	e1bfb117 	ldw	r6,-316(fp)
 2003558:	e0ffb317 	ldw	r3,-308(fp)
 200355c:	00804034 	movhi	r2,256
 2003560:	10bfffc4 	addi	r2,r2,-1
 2003564:	d8800015 	stw	r2,0(sp)
 2003568:	d8000115 	stw	zero,4(sp)
 200356c:	e0bffc17 	ldw	r2,-16(fp)
 2003570:	d8800215 	stw	r2,8(sp)
 2003574:	180f883a 	mov	r7,r3
 2003578:	2006d340 	call	2006d34 <vid_draw_box>
    											vid_print_string_alpha(rcTouchMoveForward.left+8, rcTouchMoveForward.top+(RectHeight(&rcTouchMoveForward)-22)/2, WHITE_24, BLACK_24, tahomabold_20, pDisplay, "Go forward");
 200357c:	e0bfb017 	ldw	r2,-320(fp)
 2003580:	14400204 	addi	r17,r2,8
 2003584:	e43fb217 	ldw	r16,-312(fp)
 2003588:	e0bfb004 	addi	r2,fp,-320
 200358c:	1009883a 	mov	r4,r2
 2003590:	20063c00 	call	20063c0 <RectHeight>
 2003594:	10bffa84 	addi	r2,r2,-22
 2003598:	1006d7fa 	srli	r3,r2,31
 200359c:	1885883a 	add	r2,r3,r2
 20035a0:	1005d07a 	srai	r2,r2,1
 20035a4:	8087883a 	add	r3,r16,r2
 20035a8:	008080f4 	movhi	r2,515
 20035ac:	10af9504 	addi	r2,r2,-16812
 20035b0:	d8800015 	stw	r2,0(sp)
 20035b4:	e0bffc17 	ldw	r2,-16(fp)
 20035b8:	d8800115 	stw	r2,4(sp)
 20035bc:	00808074 	movhi	r2,513
 20035c0:	10878804 	addi	r2,r2,7712
 20035c4:	d8800215 	stw	r2,8(sp)
 20035c8:	8809883a 	mov	r4,r17
 20035cc:	180b883a 	mov	r5,r3
 20035d0:	01804034 	movhi	r6,256
 20035d4:	31bfffc4 	addi	r6,r6,-1
 20035d8:	000f883a 	mov	r7,zero
 20035dc:	2008b400 	call	2008b40 <vid_print_string_alpha>

    											if(*signal == 1){
 20035e0:	e0be8317 	ldw	r2,-1524(fp)
 20035e4:	10800017 	ldw	r2,0(r2)
 20035e8:	10800058 	cmpnei	r2,r2,1
 20035ec:	1000031e 	bne	r2,zero,20035fc <GUI_ROBINSUN+0x620>
    												*signal = 0;
 20035f0:	e0be8317 	ldw	r2,-1524(fp)
 20035f4:	10000015 	stw	zero,0(r2)
 20035f8:	00000306 	br	2003608 <GUI_ROBINSUN+0x62c>
    											}
    											else{
    												*signal = 1;
 20035fc:	e0be8317 	ldw	r2,-1524(fp)
 2003600:	00c00044 	movi	r3,1
 2003604:	10c00015 	stw	r3,0(r2)
    											}

    											Touch_EmptyFifo(pTouch);
 2003608:	e13ffd17 	ldw	r4,-12(fp)
 200360c:	20097c80 	call	20097c8 <Touch_EmptyFifo>
 2003610:	00010406 	br	2003a24 <GUI_ROBINSUN+0xa48>
    										}
    										else if (check_button_move == BTN_MOVE_BACKWARD){
 2003614:	e0be7e17 	ldw	r2,-1544(fp)
 2003618:	10800058 	cmpnei	r2,r2,1
 200361c:	10003d1e 	bne	r2,zero,2003714 <GUI_ROBINSUN+0x738>

    											vid_draw_box (rcTouchMoveBackward.left, rcTouchMoveBackward.top, rcTouchMoveBackward.right, rcTouchMoveBackward.bottom, BLACK_24, DO_FILL, pDisplay);
 2003620:	e13fb417 	ldw	r4,-304(fp)
 2003624:	e17fb617 	ldw	r5,-296(fp)
 2003628:	e1bfb517 	ldw	r6,-300(fp)
 200362c:	e0ffb717 	ldw	r3,-292(fp)
 2003630:	d8000015 	stw	zero,0(sp)
 2003634:	00800044 	movi	r2,1
 2003638:	d8800115 	stw	r2,4(sp)
 200363c:	e0bffc17 	ldw	r2,-16(fp)
 2003640:	d8800215 	stw	r2,8(sp)
 2003644:	180f883a 	mov	r7,r3
 2003648:	2006d340 	call	2006d34 <vid_draw_box>
    											vid_draw_box (rcTouchMoveBackward.left, rcTouchMoveBackward.top, rcTouchMoveBackward.right, rcTouchMoveBackward.bottom, WHITE_24, DO_NOT_FILL, pDisplay);
 200364c:	e13fb417 	ldw	r4,-304(fp)
 2003650:	e17fb617 	ldw	r5,-296(fp)
 2003654:	e1bfb517 	ldw	r6,-300(fp)
 2003658:	e0ffb717 	ldw	r3,-292(fp)
 200365c:	00804034 	movhi	r2,256
 2003660:	10bfffc4 	addi	r2,r2,-1
 2003664:	d8800015 	stw	r2,0(sp)
 2003668:	d8000115 	stw	zero,4(sp)
 200366c:	e0bffc17 	ldw	r2,-16(fp)
 2003670:	d8800215 	stw	r2,8(sp)
 2003674:	180f883a 	mov	r7,r3
 2003678:	2006d340 	call	2006d34 <vid_draw_box>
    											vid_print_string_alpha(rcTouchMoveBackward.left+8, rcTouchMoveBackward.top+(RectHeight(&rcTouchMoveBackward)-22)/2, WHITE_24, BLACK_24, tahomabold_20, pDisplay, "Go backward");
 200367c:	e0bfb417 	ldw	r2,-304(fp)
 2003680:	14400204 	addi	r17,r2,8
 2003684:	e43fb617 	ldw	r16,-296(fp)
 2003688:	e0bfb404 	addi	r2,fp,-304
 200368c:	1009883a 	mov	r4,r2
 2003690:	20063c00 	call	20063c0 <RectHeight>
 2003694:	10bffa84 	addi	r2,r2,-22
 2003698:	1006d7fa 	srli	r3,r2,31
 200369c:	1885883a 	add	r2,r3,r2
 20036a0:	1005d07a 	srai	r2,r2,1
 20036a4:	8087883a 	add	r3,r16,r2
 20036a8:	008080f4 	movhi	r2,515
 20036ac:	10af9504 	addi	r2,r2,-16812
 20036b0:	d8800015 	stw	r2,0(sp)
 20036b4:	e0bffc17 	ldw	r2,-16(fp)
 20036b8:	d8800115 	stw	r2,4(sp)
 20036bc:	00808074 	movhi	r2,513
 20036c0:	10878b04 	addi	r2,r2,7724
 20036c4:	d8800215 	stw	r2,8(sp)
 20036c8:	8809883a 	mov	r4,r17
 20036cc:	180b883a 	mov	r5,r3
 20036d0:	01804034 	movhi	r6,256
 20036d4:	31bfffc4 	addi	r6,r6,-1
 20036d8:	000f883a 	mov	r7,zero
 20036dc:	2008b400 	call	2008b40 <vid_print_string_alpha>

    											if(*signal == 2){
 20036e0:	e0be8317 	ldw	r2,-1524(fp)
 20036e4:	10800017 	ldw	r2,0(r2)
 20036e8:	10800098 	cmpnei	r2,r2,2
 20036ec:	1000031e 	bne	r2,zero,20036fc <GUI_ROBINSUN+0x720>
    												*signal = 0;
 20036f0:	e0be8317 	ldw	r2,-1524(fp)
 20036f4:	10000015 	stw	zero,0(r2)
 20036f8:	00000306 	br	2003708 <GUI_ROBINSUN+0x72c>
    											}
    											else{
    												*signal = 2;
 20036fc:	e0be8317 	ldw	r2,-1524(fp)
 2003700:	00c00084 	movi	r3,2
 2003704:	10c00015 	stw	r3,0(r2)
    											}

    											Touch_EmptyFifo(pTouch);
 2003708:	e13ffd17 	ldw	r4,-12(fp)
 200370c:	20097c80 	call	20097c8 <Touch_EmptyFifo>
 2003710:	0000c406 	br	2003a24 <GUI_ROBINSUN+0xa48>
    										}
    										else if (check_button_move == BTN_MOVE_LEFT){
 2003714:	e0be7e17 	ldw	r2,-1544(fp)
 2003718:	10800098 	cmpnei	r2,r2,2
 200371c:	10003d1e 	bne	r2,zero,2003814 <GUI_ROBINSUN+0x838>

    											vid_draw_box (rcTouchMoveLeft.left, rcTouchMoveLeft.top, rcTouchMoveLeft.right, rcTouchMoveLeft.bottom, BLACK_24, DO_FILL, pDisplay);
 2003720:	e13fb817 	ldw	r4,-288(fp)
 2003724:	e17fba17 	ldw	r5,-280(fp)
 2003728:	e1bfb917 	ldw	r6,-284(fp)
 200372c:	e0ffbb17 	ldw	r3,-276(fp)
 2003730:	d8000015 	stw	zero,0(sp)
 2003734:	00800044 	movi	r2,1
 2003738:	d8800115 	stw	r2,4(sp)
 200373c:	e0bffc17 	ldw	r2,-16(fp)
 2003740:	d8800215 	stw	r2,8(sp)
 2003744:	180f883a 	mov	r7,r3
 2003748:	2006d340 	call	2006d34 <vid_draw_box>
    											vid_draw_box (rcTouchMoveLeft.left, rcTouchMoveLeft.top, rcTouchMoveLeft.right, rcTouchMoveLeft.bottom, WHITE_24, DO_NOT_FILL, pDisplay);
 200374c:	e13fb817 	ldw	r4,-288(fp)
 2003750:	e17fba17 	ldw	r5,-280(fp)
 2003754:	e1bfb917 	ldw	r6,-284(fp)
 2003758:	e0ffbb17 	ldw	r3,-276(fp)
 200375c:	00804034 	movhi	r2,256
 2003760:	10bfffc4 	addi	r2,r2,-1
 2003764:	d8800015 	stw	r2,0(sp)
 2003768:	d8000115 	stw	zero,4(sp)
 200376c:	e0bffc17 	ldw	r2,-16(fp)
 2003770:	d8800215 	stw	r2,8(sp)
 2003774:	180f883a 	mov	r7,r3
 2003778:	2006d340 	call	2006d34 <vid_draw_box>
    											vid_print_string_alpha(rcTouchMoveLeft.left+8, rcTouchMoveLeft.top+(RectHeight(&rcTouchMoveLeft)-22)/2, WHITE_24, BLACK_24, tahomabold_20, pDisplay, "Turn to the left");
 200377c:	e0bfb817 	ldw	r2,-288(fp)
 2003780:	14400204 	addi	r17,r2,8
 2003784:	e43fba17 	ldw	r16,-280(fp)
 2003788:	e0bfb804 	addi	r2,fp,-288
 200378c:	1009883a 	mov	r4,r2
 2003790:	20063c00 	call	20063c0 <RectHeight>
 2003794:	10bffa84 	addi	r2,r2,-22
 2003798:	1006d7fa 	srli	r3,r2,31
 200379c:	1885883a 	add	r2,r3,r2
 20037a0:	1005d07a 	srai	r2,r2,1
 20037a4:	8087883a 	add	r3,r16,r2
 20037a8:	008080f4 	movhi	r2,515
 20037ac:	10af9504 	addi	r2,r2,-16812
 20037b0:	d8800015 	stw	r2,0(sp)
 20037b4:	e0bffc17 	ldw	r2,-16(fp)
 20037b8:	d8800115 	stw	r2,4(sp)
 20037bc:	00808074 	movhi	r2,513
 20037c0:	10878e04 	addi	r2,r2,7736
 20037c4:	d8800215 	stw	r2,8(sp)
 20037c8:	8809883a 	mov	r4,r17
 20037cc:	180b883a 	mov	r5,r3
 20037d0:	01804034 	movhi	r6,256
 20037d4:	31bfffc4 	addi	r6,r6,-1
 20037d8:	000f883a 	mov	r7,zero
 20037dc:	2008b400 	call	2008b40 <vid_print_string_alpha>

    											if(*signal == 3){
 20037e0:	e0be8317 	ldw	r2,-1524(fp)
 20037e4:	10800017 	ldw	r2,0(r2)
 20037e8:	108000d8 	cmpnei	r2,r2,3
 20037ec:	1000031e 	bne	r2,zero,20037fc <GUI_ROBINSUN+0x820>
    												*signal = 0;
 20037f0:	e0be8317 	ldw	r2,-1524(fp)
 20037f4:	10000015 	stw	zero,0(r2)
 20037f8:	00000306 	br	2003808 <GUI_ROBINSUN+0x82c>
    											}
    											else{
    												*signal = 3;
 20037fc:	e0be8317 	ldw	r2,-1524(fp)
 2003800:	00c000c4 	movi	r3,3
 2003804:	10c00015 	stw	r3,0(r2)
    											}

    											Touch_EmptyFifo(pTouch);
 2003808:	e13ffd17 	ldw	r4,-12(fp)
 200380c:	20097c80 	call	20097c8 <Touch_EmptyFifo>
 2003810:	00008406 	br	2003a24 <GUI_ROBINSUN+0xa48>
    										}
    										else if (check_button_move == BTN_MOVE_RIGHT){
 2003814:	e0be7e17 	ldw	r2,-1544(fp)
 2003818:	108000d8 	cmpnei	r2,r2,3
 200381c:	10003d1e 	bne	r2,zero,2003914 <GUI_ROBINSUN+0x938>

    											vid_draw_box (rcTouchMoveRight.left, rcTouchMoveRight.top, rcTouchMoveRight.right, rcTouchMoveRight.bottom, BLACK_24, DO_FILL, pDisplay);
 2003820:	e13fbc17 	ldw	r4,-272(fp)
 2003824:	e17fbe17 	ldw	r5,-264(fp)
 2003828:	e1bfbd17 	ldw	r6,-268(fp)
 200382c:	e0ffbf17 	ldw	r3,-260(fp)
 2003830:	d8000015 	stw	zero,0(sp)
 2003834:	00800044 	movi	r2,1
 2003838:	d8800115 	stw	r2,4(sp)
 200383c:	e0bffc17 	ldw	r2,-16(fp)
 2003840:	d8800215 	stw	r2,8(sp)
 2003844:	180f883a 	mov	r7,r3
 2003848:	2006d340 	call	2006d34 <vid_draw_box>
    											vid_draw_box (rcTouchMoveRight.left, rcTouchMoveRight.top, rcTouchMoveRight.right, rcTouchMoveRight.bottom, WHITE_24, DO_NOT_FILL, pDisplay);
 200384c:	e13fbc17 	ldw	r4,-272(fp)
 2003850:	e17fbe17 	ldw	r5,-264(fp)
 2003854:	e1bfbd17 	ldw	r6,-268(fp)
 2003858:	e0ffbf17 	ldw	r3,-260(fp)
 200385c:	00804034 	movhi	r2,256
 2003860:	10bfffc4 	addi	r2,r2,-1
 2003864:	d8800015 	stw	r2,0(sp)
 2003868:	d8000115 	stw	zero,4(sp)
 200386c:	e0bffc17 	ldw	r2,-16(fp)
 2003870:	d8800215 	stw	r2,8(sp)
 2003874:	180f883a 	mov	r7,r3
 2003878:	2006d340 	call	2006d34 <vid_draw_box>
    											vid_print_string_alpha(rcTouchMoveRight.left+8, rcTouchMoveRight.top+(RectHeight(&rcTouchMoveRight)-22)/2, WHITE_24, BLACK_24, tahomabold_20, pDisplay, "Turn to the right");
 200387c:	e0bfbc17 	ldw	r2,-272(fp)
 2003880:	14400204 	addi	r17,r2,8
 2003884:	e43fbe17 	ldw	r16,-264(fp)
 2003888:	e0bfbc04 	addi	r2,fp,-272
 200388c:	1009883a 	mov	r4,r2
 2003890:	20063c00 	call	20063c0 <RectHeight>
 2003894:	10bffa84 	addi	r2,r2,-22
 2003898:	1006d7fa 	srli	r3,r2,31
 200389c:	1885883a 	add	r2,r3,r2
 20038a0:	1005d07a 	srai	r2,r2,1
 20038a4:	8087883a 	add	r3,r16,r2
 20038a8:	008080f4 	movhi	r2,515
 20038ac:	10af9504 	addi	r2,r2,-16812
 20038b0:	d8800015 	stw	r2,0(sp)
 20038b4:	e0bffc17 	ldw	r2,-16(fp)
 20038b8:	d8800115 	stw	r2,4(sp)
 20038bc:	00808074 	movhi	r2,513
 20038c0:	10879304 	addi	r2,r2,7756
 20038c4:	d8800215 	stw	r2,8(sp)
 20038c8:	8809883a 	mov	r4,r17
 20038cc:	180b883a 	mov	r5,r3
 20038d0:	01804034 	movhi	r6,256
 20038d4:	31bfffc4 	addi	r6,r6,-1
 20038d8:	000f883a 	mov	r7,zero
 20038dc:	2008b400 	call	2008b40 <vid_print_string_alpha>

    											if(*signal == 4){
 20038e0:	e0be8317 	ldw	r2,-1524(fp)
 20038e4:	10800017 	ldw	r2,0(r2)
 20038e8:	10800118 	cmpnei	r2,r2,4
 20038ec:	1000031e 	bne	r2,zero,20038fc <GUI_ROBINSUN+0x920>
    												*signal = 0;
 20038f0:	e0be8317 	ldw	r2,-1524(fp)
 20038f4:	10000015 	stw	zero,0(r2)
 20038f8:	00000306 	br	2003908 <GUI_ROBINSUN+0x92c>
    											}
    											else{
    												*signal = 4;
 20038fc:	e0be8317 	ldw	r2,-1524(fp)
 2003900:	00c00104 	movi	r3,4
 2003904:	10c00015 	stw	r3,0(r2)
    											}

    											Touch_EmptyFifo(pTouch);
 2003908:	e13ffd17 	ldw	r4,-12(fp)
 200390c:	20097c80 	call	20097c8 <Touch_EmptyFifo>
 2003910:	00004406 	br	2003a24 <GUI_ROBINSUN+0xa48>
    										}
    										else if (check_button_move == BTN_MOVE_STOP){
 2003914:	e0be7e17 	ldw	r2,-1544(fp)
 2003918:	10800118 	cmpnei	r2,r2,4
 200391c:	1000351e 	bne	r2,zero,20039f4 <GUI_ROBINSUN+0xa18>

    											vid_draw_box (rcTouchMoveStop.left, rcTouchMoveStop.top, rcTouchMoveStop.right, rcTouchMoveStop.bottom, BLACK_24, DO_FILL, pDisplay);
 2003920:	e13fc017 	ldw	r4,-256(fp)
 2003924:	e17fc217 	ldw	r5,-248(fp)
 2003928:	e1bfc117 	ldw	r6,-252(fp)
 200392c:	e0ffc317 	ldw	r3,-244(fp)
 2003930:	d8000015 	stw	zero,0(sp)
 2003934:	00800044 	movi	r2,1
 2003938:	d8800115 	stw	r2,4(sp)
 200393c:	e0bffc17 	ldw	r2,-16(fp)
 2003940:	d8800215 	stw	r2,8(sp)
 2003944:	180f883a 	mov	r7,r3
 2003948:	2006d340 	call	2006d34 <vid_draw_box>
    											vid_draw_box (rcTouchMoveStop.left, rcTouchMoveStop.top, rcTouchMoveStop.right, rcTouchMoveStop.bottom, WHITE_24, DO_NOT_FILL, pDisplay);
 200394c:	e13fc017 	ldw	r4,-256(fp)
 2003950:	e17fc217 	ldw	r5,-248(fp)
 2003954:	e1bfc117 	ldw	r6,-252(fp)
 2003958:	e0ffc317 	ldw	r3,-244(fp)
 200395c:	00804034 	movhi	r2,256
 2003960:	10bfffc4 	addi	r2,r2,-1
 2003964:	d8800015 	stw	r2,0(sp)
 2003968:	d8000115 	stw	zero,4(sp)
 200396c:	e0bffc17 	ldw	r2,-16(fp)
 2003970:	d8800215 	stw	r2,8(sp)
 2003974:	180f883a 	mov	r7,r3
 2003978:	2006d340 	call	2006d34 <vid_draw_box>
    											vid_print_string_alpha(rcTouchMoveStop.left+8, rcTouchMoveStop.top+(RectHeight(&rcTouchMoveStop)-22)/2, WHITE_24, BLACK_24, tahomabold_20, pDisplay, "STOP");
 200397c:	e0bfc017 	ldw	r2,-256(fp)
 2003980:	14400204 	addi	r17,r2,8
 2003984:	e43fc217 	ldw	r16,-248(fp)
 2003988:	e0bfc004 	addi	r2,fp,-256
 200398c:	1009883a 	mov	r4,r2
 2003990:	20063c00 	call	20063c0 <RectHeight>
 2003994:	10bffa84 	addi	r2,r2,-22
 2003998:	1006d7fa 	srli	r3,r2,31
 200399c:	1885883a 	add	r2,r3,r2
 20039a0:	1005d07a 	srai	r2,r2,1
 20039a4:	8087883a 	add	r3,r16,r2
 20039a8:	008080f4 	movhi	r2,515
 20039ac:	10af9504 	addi	r2,r2,-16812
 20039b0:	d8800015 	stw	r2,0(sp)
 20039b4:	e0bffc17 	ldw	r2,-16(fp)
 20039b8:	d8800115 	stw	r2,4(sp)
 20039bc:	00808074 	movhi	r2,513
 20039c0:	10879804 	addi	r2,r2,7776
 20039c4:	d8800215 	stw	r2,8(sp)
 20039c8:	8809883a 	mov	r4,r17
 20039cc:	180b883a 	mov	r5,r3
 20039d0:	01804034 	movhi	r6,256
 20039d4:	31bfffc4 	addi	r6,r6,-1
 20039d8:	000f883a 	mov	r7,zero
 20039dc:	2008b400 	call	2008b40 <vid_print_string_alpha>

    											*signal = 0;
 20039e0:	e0be8317 	ldw	r2,-1524(fp)
 20039e4:	10000015 	stw	zero,0(r2)

    											Touch_EmptyFifo(pTouch);
 20039e8:	e13ffd17 	ldw	r4,-12(fp)
 20039ec:	20097c80 	call	20097c8 <Touch_EmptyFifo>
 20039f0:	00000c06 	br	2003a24 <GUI_ROBINSUN+0xa48>
    										}
    										else if (check_button_move == BTN_MOVE_BACK){
 20039f4:	e0be7e17 	ldw	r2,-1544(fp)
 20039f8:	10800158 	cmpnei	r2,r2,5
 20039fc:	1000071e 	bne	r2,zero,2003a1c <GUI_ROBINSUN+0xa40>

    											*signal=0;
 2003a00:	e0be8317 	ldw	r2,-1524(fp)
 2003a04:	10000015 	stw	zero,0(r2)
    											tests_or_compet_loop=0;
 2003a08:	e03e6f15 	stw	zero,-1604(fp)
    											test=0;
 2003a0c:	e03e7415 	stw	zero,-1584(fp)

    											Touch_EmptyFifo(pTouch);
 2003a10:	e13ffd17 	ldw	r4,-12(fp)
 2003a14:	20097c80 	call	20097c8 <Touch_EmptyFifo>
 2003a18:	00000206 	br	2003a24 <GUI_ROBINSUN+0xa48>
    										}
    										else{
    											Touch_EmptyFifo(pTouch);
 2003a1c:	e13ffd17 	ldw	r4,-12(fp)
 2003a20:	20097c80 	call	20097c8 <Touch_EmptyFifo>
    								RectCopy(&rcTouchMoveStop, &DeskInfo.buttons_move[BTN_MOVE_STOP].rc);
    								RectCopy(&rcTouchMoveBack, &DeskInfo.buttons_move[BTN_MOVE_BACK].rc);

    								Touch_EmptyFifo(pTouch);

    								while(test){
 2003a24:	e0be7417 	ldw	r2,-1584(fp)
 2003a28:	103ea41e 	bne	r2,zero,20034bc <__reset+0xfdffbcbc>
 2003a2c:	0003fd06 	br	2004a24 <GUI_ROBINSUN+0x1a48>
    										}
    										//printf("signal vaut: %d\n",*signal);
    									}
    								}
    							}//end if(check_button_tests == BTN_MOVE)
    							else if(check_button_tests == BTN_BLOCKS){
 2003a30:	e0be7a17 	ldw	r2,-1560(fp)
 2003a34:	10800058 	cmpnei	r2,r2,1
 2003a38:	1001211e 	bne	r2,zero,2003ec0 <GUI_ROBINSUN+0xee4>
    								test=1;
 2003a3c:	00800044 	movi	r2,1
 2003a40:	e0be7415 	stw	r2,-1584(fp)

    								vid_clean_screen(pDisplay, BLACK_24);
 2003a44:	e13ffc17 	ldw	r4,-16(fp)
 2003a48:	000b883a 	mov	r5,zero
 2003a4c:	20064ec0 	call	20064ec <vid_clean_screen>
    								usleep(1000*1000);
 2003a50:	010003f4 	movhi	r4,15
 2003a54:	21109004 	addi	r4,r4,16960
 2003a58:	200ec680 	call	200ec68 <usleep>

    								GUI_ROBINSUN_Init(pDisplay, &DeskInfo, DeskInfo.buttons_blocks, BTN_NUM_BLOCKS);
 2003a5c:	e0fe8404 	addi	r3,fp,-1520
 2003a60:	e0be8404 	addi	r2,fp,-1520
 2003a64:	10804a04 	addi	r2,r2,296
 2003a68:	e13ffc17 	ldw	r4,-16(fp)
 2003a6c:	180b883a 	mov	r5,r3
 2003a70:	100d883a 	mov	r6,r2
 2003a74:	01c00104 	movi	r7,4
 2003a78:	2000b840 	call	2000b84 <GUI_ROBINSUN_Init>
    								GUI_ROBINSUN_Draw(pDisplay, &DeskInfo, DeskInfo.buttons_blocks, BTN_NUM_BLOCKS, "Open", "Close", "STOP", "Back", "", "");
 2003a7c:	e17e8404 	addi	r5,fp,-1520
 2003a80:	e0be8404 	addi	r2,fp,-1520
 2003a84:	10c04a04 	addi	r3,r2,296
 2003a88:	00808074 	movhi	r2,513
 2003a8c:	10879a04 	addi	r2,r2,7784
 2003a90:	d8800015 	stw	r2,0(sp)
 2003a94:	00808074 	movhi	r2,513
 2003a98:	10879c04 	addi	r2,r2,7792
 2003a9c:	d8800115 	stw	r2,4(sp)
 2003aa0:	00808074 	movhi	r2,513
 2003aa4:	10879804 	addi	r2,r2,7776
 2003aa8:	d8800215 	stw	r2,8(sp)
 2003aac:	00808074 	movhi	r2,513
 2003ab0:	10876a04 	addi	r2,r2,7592
 2003ab4:	d8800315 	stw	r2,12(sp)
 2003ab8:	00808074 	movhi	r2,513
 2003abc:	10877d04 	addi	r2,r2,7668
 2003ac0:	d8800415 	stw	r2,16(sp)
 2003ac4:	00808074 	movhi	r2,513
 2003ac8:	10877d04 	addi	r2,r2,7668
 2003acc:	d8800515 	stw	r2,20(sp)
 2003ad0:	e13ffc17 	ldw	r4,-16(fp)
 2003ad4:	180d883a 	mov	r6,r3
 2003ad8:	01c00104 	movi	r7,4
 2003adc:	2000cd40 	call	2000cd4 <GUI_ROBINSUN_Draw>

    								RectCopy(&rcTouchBlocksOpen, &DeskInfo.buttons_blocks[BTN_BLOCKS_OPEN].rc);
 2003ae0:	e0ffc804 	addi	r3,fp,-224
 2003ae4:	e0be8404 	addi	r2,fp,-1520
 2003ae8:	10804a04 	addi	r2,r2,296
 2003aec:	1809883a 	mov	r4,r3
 2003af0:	100b883a 	mov	r5,r2
 2003af4:	20063280 	call	2006328 <RectCopy>
    								RectCopy(&rcTouchBlocksClose, &DeskInfo.buttons_blocks[BTN_BLOCKS_CLOSE].rc);
 2003af8:	e0ffcc04 	addi	r3,fp,-208
 2003afc:	e0be8404 	addi	r2,fp,-1520
 2003b00:	10804f04 	addi	r2,r2,316
 2003b04:	1809883a 	mov	r4,r3
 2003b08:	100b883a 	mov	r5,r2
 2003b0c:	20063280 	call	2006328 <RectCopy>
    								RectCopy(&rcTouchBlocksStop, &DeskInfo.buttons_blocks[BTN_BLOCKS_STOP].rc);
 2003b10:	e0ffd004 	addi	r3,fp,-192
 2003b14:	e0be8404 	addi	r2,fp,-1520
 2003b18:	10805404 	addi	r2,r2,336
 2003b1c:	1809883a 	mov	r4,r3
 2003b20:	100b883a 	mov	r5,r2
 2003b24:	20063280 	call	2006328 <RectCopy>
    								RectCopy(&rcTouchBlocksBack, &DeskInfo.buttons_blocks[BTN_BLOCKS_BACK].rc);
 2003b28:	e0ffd404 	addi	r3,fp,-176
 2003b2c:	e0be8404 	addi	r2,fp,-1520
 2003b30:	10805904 	addi	r2,r2,356
 2003b34:	1809883a 	mov	r4,r3
 2003b38:	100b883a 	mov	r5,r2
 2003b3c:	20063280 	call	2006328 <RectCopy>

    								Touch_EmptyFifo(pTouch);
 2003b40:	e13ffd17 	ldw	r4,-12(fp)
 2003b44:	20097c80 	call	20097c8 <Touch_EmptyFifo>

    								while(test){
 2003b48:	0000da06 	br	2003eb4 <GUI_ROBINSUN+0xed8>
    									// touch
    									if (Touch_GetXY(pTouch, &X, &Y)){
 2003b4c:	e0ff8c04 	addi	r3,fp,-464
 2003b50:	e0bf8d04 	addi	r2,fp,-460
 2003b54:	e13ffd17 	ldw	r4,-12(fp)
 2003b58:	180b883a 	mov	r5,r3
 2003b5c:	100d883a 	mov	r6,r2
 2003b60:	20098000 	call	2009800 <Touch_GetXY>
 2003b64:	1000d326 	beq	r2,zero,2003eb4 <GUI_ROBINSUN+0xed8>
    										PtSet(&Pt, X, Y);
 2003b68:	e0ff8c17 	ldw	r3,-464(fp)
 2003b6c:	e0bf8d17 	ldw	r2,-460(fp)
 2003b70:	e13f8e04 	addi	r4,fp,-456
 2003b74:	180b883a 	mov	r5,r3
 2003b78:	100d883a 	mov	r6,r2
 2003b7c:	200617c0 	call	200617c <PtSet>
    										check_button_blocks = GUI_ROBINSUN_CheckButton(&DeskInfo, &Pt,DeskInfo.buttons_blocks,BTN_NUM_BLOCKS,BTN_NONE_BLOCKS);
 2003b80:	e13e8404 	addi	r4,fp,-1520
 2003b84:	e17f8e04 	addi	r5,fp,-456
 2003b88:	e0be8404 	addi	r2,fp,-1520
 2003b8c:	10c04a04 	addi	r3,r2,296
 2003b90:	00800144 	movi	r2,5
 2003b94:	d8800015 	stw	r2,0(sp)
 2003b98:	180d883a 	mov	r6,r3
 2003b9c:	01c00104 	movi	r7,4
 2003ba0:	20009d40 	call	20009d4 <GUI_ROBINSUN_CheckButton>
 2003ba4:	e0be7f15 	stw	r2,-1540(fp)
    										//printf("signal vaut: %d\n",*signal);
    										if (check_button_blocks == BTN_BLOCKS_OPEN){
 2003ba8:	e0be7f17 	ldw	r2,-1540(fp)
 2003bac:	10003d1e 	bne	r2,zero,2003ca4 <GUI_ROBINSUN+0xcc8>

    											vid_draw_box (rcTouchBlocksOpen.left, rcTouchBlocksOpen.top, rcTouchBlocksOpen.right, rcTouchBlocksOpen.bottom, BLACK_24, DO_FILL, pDisplay);
 2003bb0:	e13fc817 	ldw	r4,-224(fp)
 2003bb4:	e17fca17 	ldw	r5,-216(fp)
 2003bb8:	e1bfc917 	ldw	r6,-220(fp)
 2003bbc:	e0ffcb17 	ldw	r3,-212(fp)
 2003bc0:	d8000015 	stw	zero,0(sp)
 2003bc4:	00800044 	movi	r2,1
 2003bc8:	d8800115 	stw	r2,4(sp)
 2003bcc:	e0bffc17 	ldw	r2,-16(fp)
 2003bd0:	d8800215 	stw	r2,8(sp)
 2003bd4:	180f883a 	mov	r7,r3
 2003bd8:	2006d340 	call	2006d34 <vid_draw_box>
    											vid_draw_box (rcTouchBlocksOpen.left, rcTouchBlocksOpen.top, rcTouchBlocksOpen.right, rcTouchBlocksOpen.bottom, WHITE_24, DO_NOT_FILL, pDisplay);
 2003bdc:	e13fc817 	ldw	r4,-224(fp)
 2003be0:	e17fca17 	ldw	r5,-216(fp)
 2003be4:	e1bfc917 	ldw	r6,-220(fp)
 2003be8:	e0ffcb17 	ldw	r3,-212(fp)
 2003bec:	00804034 	movhi	r2,256
 2003bf0:	10bfffc4 	addi	r2,r2,-1
 2003bf4:	d8800015 	stw	r2,0(sp)
 2003bf8:	d8000115 	stw	zero,4(sp)
 2003bfc:	e0bffc17 	ldw	r2,-16(fp)
 2003c00:	d8800215 	stw	r2,8(sp)
 2003c04:	180f883a 	mov	r7,r3
 2003c08:	2006d340 	call	2006d34 <vid_draw_box>
    											vid_print_string_alpha(rcTouchBlocksOpen.left+8, rcTouchBlocksOpen.top+(RectHeight(&rcTouchBlocksOpen)-22)/2, WHITE_24, BLACK_24, tahomabold_20, pDisplay, "Open");
 2003c0c:	e0bfc817 	ldw	r2,-224(fp)
 2003c10:	14400204 	addi	r17,r2,8
 2003c14:	e43fca17 	ldw	r16,-216(fp)
 2003c18:	e0bfc804 	addi	r2,fp,-224
 2003c1c:	1009883a 	mov	r4,r2
 2003c20:	20063c00 	call	20063c0 <RectHeight>
 2003c24:	10bffa84 	addi	r2,r2,-22
 2003c28:	1006d7fa 	srli	r3,r2,31
 2003c2c:	1885883a 	add	r2,r3,r2
 2003c30:	1005d07a 	srai	r2,r2,1
 2003c34:	8087883a 	add	r3,r16,r2
 2003c38:	008080f4 	movhi	r2,515
 2003c3c:	10af9504 	addi	r2,r2,-16812
 2003c40:	d8800015 	stw	r2,0(sp)
 2003c44:	e0bffc17 	ldw	r2,-16(fp)
 2003c48:	d8800115 	stw	r2,4(sp)
 2003c4c:	00808074 	movhi	r2,513
 2003c50:	10879a04 	addi	r2,r2,7784
 2003c54:	d8800215 	stw	r2,8(sp)
 2003c58:	8809883a 	mov	r4,r17
 2003c5c:	180b883a 	mov	r5,r3
 2003c60:	01804034 	movhi	r6,256
 2003c64:	31bfffc4 	addi	r6,r6,-1
 2003c68:	000f883a 	mov	r7,zero
 2003c6c:	2008b400 	call	2008b40 <vid_print_string_alpha>

    											if(*signal == 11){
 2003c70:	e0be8317 	ldw	r2,-1524(fp)
 2003c74:	10800017 	ldw	r2,0(r2)
 2003c78:	108002d8 	cmpnei	r2,r2,11
 2003c7c:	1000031e 	bne	r2,zero,2003c8c <GUI_ROBINSUN+0xcb0>
    												*signal = 0;
 2003c80:	e0be8317 	ldw	r2,-1524(fp)
 2003c84:	10000015 	stw	zero,0(r2)
 2003c88:	00000306 	br	2003c98 <GUI_ROBINSUN+0xcbc>
    											}
    											else{
    												*signal = 11;
 2003c8c:	e0be8317 	ldw	r2,-1524(fp)
 2003c90:	00c002c4 	movi	r3,11
 2003c94:	10c00015 	stw	r3,0(r2)
    											}

    											Touch_EmptyFifo(pTouch);
 2003c98:	e13ffd17 	ldw	r4,-12(fp)
 2003c9c:	20097c80 	call	20097c8 <Touch_EmptyFifo>
 2003ca0:	00008406 	br	2003eb4 <GUI_ROBINSUN+0xed8>
    										}
    										else if (check_button_blocks == BTN_BLOCKS_CLOSE){
 2003ca4:	e0be7f17 	ldw	r2,-1540(fp)
 2003ca8:	10800058 	cmpnei	r2,r2,1
 2003cac:	10003d1e 	bne	r2,zero,2003da4 <GUI_ROBINSUN+0xdc8>

    											vid_draw_box (rcTouchBlocksClose.left, rcTouchBlocksClose.top, rcTouchBlocksClose.right, rcTouchBlocksClose.bottom, BLACK_24, DO_FILL, pDisplay);
 2003cb0:	e13fcc17 	ldw	r4,-208(fp)
 2003cb4:	e17fce17 	ldw	r5,-200(fp)
 2003cb8:	e1bfcd17 	ldw	r6,-204(fp)
 2003cbc:	e0ffcf17 	ldw	r3,-196(fp)
 2003cc0:	d8000015 	stw	zero,0(sp)
 2003cc4:	00800044 	movi	r2,1
 2003cc8:	d8800115 	stw	r2,4(sp)
 2003ccc:	e0bffc17 	ldw	r2,-16(fp)
 2003cd0:	d8800215 	stw	r2,8(sp)
 2003cd4:	180f883a 	mov	r7,r3
 2003cd8:	2006d340 	call	2006d34 <vid_draw_box>
    											vid_draw_box (rcTouchBlocksClose.left, rcTouchBlocksClose.top, rcTouchBlocksClose.right, rcTouchBlocksClose.bottom, WHITE_24, DO_NOT_FILL, pDisplay);
 2003cdc:	e13fcc17 	ldw	r4,-208(fp)
 2003ce0:	e17fce17 	ldw	r5,-200(fp)
 2003ce4:	e1bfcd17 	ldw	r6,-204(fp)
 2003ce8:	e0ffcf17 	ldw	r3,-196(fp)
 2003cec:	00804034 	movhi	r2,256
 2003cf0:	10bfffc4 	addi	r2,r2,-1
 2003cf4:	d8800015 	stw	r2,0(sp)
 2003cf8:	d8000115 	stw	zero,4(sp)
 2003cfc:	e0bffc17 	ldw	r2,-16(fp)
 2003d00:	d8800215 	stw	r2,8(sp)
 2003d04:	180f883a 	mov	r7,r3
 2003d08:	2006d340 	call	2006d34 <vid_draw_box>
    											vid_print_string_alpha(rcTouchBlocksClose.left+8, rcTouchBlocksClose.top+(RectHeight(&rcTouchBlocksClose)-22)/2, WHITE_24, BLACK_24, tahomabold_20, pDisplay, "Close");
 2003d0c:	e0bfcc17 	ldw	r2,-208(fp)
 2003d10:	14400204 	addi	r17,r2,8
 2003d14:	e43fce17 	ldw	r16,-200(fp)
 2003d18:	e0bfcc04 	addi	r2,fp,-208
 2003d1c:	1009883a 	mov	r4,r2
 2003d20:	20063c00 	call	20063c0 <RectHeight>
 2003d24:	10bffa84 	addi	r2,r2,-22
 2003d28:	1006d7fa 	srli	r3,r2,31
 2003d2c:	1885883a 	add	r2,r3,r2
 2003d30:	1005d07a 	srai	r2,r2,1
 2003d34:	8087883a 	add	r3,r16,r2
 2003d38:	008080f4 	movhi	r2,515
 2003d3c:	10af9504 	addi	r2,r2,-16812
 2003d40:	d8800015 	stw	r2,0(sp)
 2003d44:	e0bffc17 	ldw	r2,-16(fp)
 2003d48:	d8800115 	stw	r2,4(sp)
 2003d4c:	00808074 	movhi	r2,513
 2003d50:	10879c04 	addi	r2,r2,7792
 2003d54:	d8800215 	stw	r2,8(sp)
 2003d58:	8809883a 	mov	r4,r17
 2003d5c:	180b883a 	mov	r5,r3
 2003d60:	01804034 	movhi	r6,256
 2003d64:	31bfffc4 	addi	r6,r6,-1
 2003d68:	000f883a 	mov	r7,zero
 2003d6c:	2008b400 	call	2008b40 <vid_print_string_alpha>

    											if(*signal == 12){
 2003d70:	e0be8317 	ldw	r2,-1524(fp)
 2003d74:	10800017 	ldw	r2,0(r2)
 2003d78:	10800318 	cmpnei	r2,r2,12
 2003d7c:	1000031e 	bne	r2,zero,2003d8c <GUI_ROBINSUN+0xdb0>
    												*signal = 0;
 2003d80:	e0be8317 	ldw	r2,-1524(fp)
 2003d84:	10000015 	stw	zero,0(r2)
 2003d88:	00000306 	br	2003d98 <GUI_ROBINSUN+0xdbc>
    											}
    											else{
    												*signal = 12;
 2003d8c:	e0be8317 	ldw	r2,-1524(fp)
 2003d90:	00c00304 	movi	r3,12
 2003d94:	10c00015 	stw	r3,0(r2)
    											}

    											Touch_EmptyFifo(pTouch);
 2003d98:	e13ffd17 	ldw	r4,-12(fp)
 2003d9c:	20097c80 	call	20097c8 <Touch_EmptyFifo>
 2003da0:	00004406 	br	2003eb4 <GUI_ROBINSUN+0xed8>
    										}
    										else if (check_button_blocks == BTN_BLOCKS_STOP){
 2003da4:	e0be7f17 	ldw	r2,-1540(fp)
 2003da8:	10800098 	cmpnei	r2,r2,2
 2003dac:	1000351e 	bne	r2,zero,2003e84 <GUI_ROBINSUN+0xea8>

    											vid_draw_box (rcTouchBlocksStop.left, rcTouchBlocksStop.top, rcTouchBlocksStop.right, rcTouchBlocksStop.bottom, BLACK_24, DO_FILL, pDisplay);
 2003db0:	e13fd017 	ldw	r4,-192(fp)
 2003db4:	e17fd217 	ldw	r5,-184(fp)
 2003db8:	e1bfd117 	ldw	r6,-188(fp)
 2003dbc:	e0ffd317 	ldw	r3,-180(fp)
 2003dc0:	d8000015 	stw	zero,0(sp)
 2003dc4:	00800044 	movi	r2,1
 2003dc8:	d8800115 	stw	r2,4(sp)
 2003dcc:	e0bffc17 	ldw	r2,-16(fp)
 2003dd0:	d8800215 	stw	r2,8(sp)
 2003dd4:	180f883a 	mov	r7,r3
 2003dd8:	2006d340 	call	2006d34 <vid_draw_box>
    											vid_draw_box (rcTouchBlocksStop.left, rcTouchBlocksStop.top, rcTouchBlocksStop.right, rcTouchBlocksStop.bottom, WHITE_24, DO_NOT_FILL, pDisplay);
 2003ddc:	e13fd017 	ldw	r4,-192(fp)
 2003de0:	e17fd217 	ldw	r5,-184(fp)
 2003de4:	e1bfd117 	ldw	r6,-188(fp)
 2003de8:	e0ffd317 	ldw	r3,-180(fp)
 2003dec:	00804034 	movhi	r2,256
 2003df0:	10bfffc4 	addi	r2,r2,-1
 2003df4:	d8800015 	stw	r2,0(sp)
 2003df8:	d8000115 	stw	zero,4(sp)
 2003dfc:	e0bffc17 	ldw	r2,-16(fp)
 2003e00:	d8800215 	stw	r2,8(sp)
 2003e04:	180f883a 	mov	r7,r3
 2003e08:	2006d340 	call	2006d34 <vid_draw_box>
    											vid_print_string_alpha(rcTouchBlocksStop.left+8, rcTouchBlocksStop.top+(RectHeight(&rcTouchBlocksStop)-22)/2, WHITE_24, BLACK_24, tahomabold_20, pDisplay, "STOP");
 2003e0c:	e0bfd017 	ldw	r2,-192(fp)
 2003e10:	14400204 	addi	r17,r2,8
 2003e14:	e43fd217 	ldw	r16,-184(fp)
 2003e18:	e0bfd004 	addi	r2,fp,-192
 2003e1c:	1009883a 	mov	r4,r2
 2003e20:	20063c00 	call	20063c0 <RectHeight>
 2003e24:	10bffa84 	addi	r2,r2,-22
 2003e28:	1006d7fa 	srli	r3,r2,31
 2003e2c:	1885883a 	add	r2,r3,r2
 2003e30:	1005d07a 	srai	r2,r2,1
 2003e34:	8087883a 	add	r3,r16,r2
 2003e38:	008080f4 	movhi	r2,515
 2003e3c:	10af9504 	addi	r2,r2,-16812
 2003e40:	d8800015 	stw	r2,0(sp)
 2003e44:	e0bffc17 	ldw	r2,-16(fp)
 2003e48:	d8800115 	stw	r2,4(sp)
 2003e4c:	00808074 	movhi	r2,513
 2003e50:	10879804 	addi	r2,r2,7776
 2003e54:	d8800215 	stw	r2,8(sp)
 2003e58:	8809883a 	mov	r4,r17
 2003e5c:	180b883a 	mov	r5,r3
 2003e60:	01804034 	movhi	r6,256
 2003e64:	31bfffc4 	addi	r6,r6,-1
 2003e68:	000f883a 	mov	r7,zero
 2003e6c:	2008b400 	call	2008b40 <vid_print_string_alpha>

    											*signal = 0;
 2003e70:	e0be8317 	ldw	r2,-1524(fp)
 2003e74:	10000015 	stw	zero,0(r2)

    											Touch_EmptyFifo(pTouch);
 2003e78:	e13ffd17 	ldw	r4,-12(fp)
 2003e7c:	20097c80 	call	20097c8 <Touch_EmptyFifo>
 2003e80:	00000c06 	br	2003eb4 <GUI_ROBINSUN+0xed8>
    										}
    										else if (check_button_blocks == BTN_BLOCKS_BACK){
 2003e84:	e0be7f17 	ldw	r2,-1540(fp)
 2003e88:	108000d8 	cmpnei	r2,r2,3
 2003e8c:	1000071e 	bne	r2,zero,2003eac <GUI_ROBINSUN+0xed0>

    											*signal=0;
 2003e90:	e0be8317 	ldw	r2,-1524(fp)
 2003e94:	10000015 	stw	zero,0(r2)
    											tests_or_compet_loop=0;
 2003e98:	e03e6f15 	stw	zero,-1604(fp)
    											test=0;
 2003e9c:	e03e7415 	stw	zero,-1584(fp)

    											Touch_EmptyFifo(pTouch);
 2003ea0:	e13ffd17 	ldw	r4,-12(fp)
 2003ea4:	20097c80 	call	20097c8 <Touch_EmptyFifo>
 2003ea8:	00000206 	br	2003eb4 <GUI_ROBINSUN+0xed8>
    										}
    										else{
    											Touch_EmptyFifo(pTouch);
 2003eac:	e13ffd17 	ldw	r4,-12(fp)
 2003eb0:	20097c80 	call	20097c8 <Touch_EmptyFifo>
    								RectCopy(&rcTouchBlocksStop, &DeskInfo.buttons_blocks[BTN_BLOCKS_STOP].rc);
    								RectCopy(&rcTouchBlocksBack, &DeskInfo.buttons_blocks[BTN_BLOCKS_BACK].rc);

    								Touch_EmptyFifo(pTouch);

    								while(test){
 2003eb4:	e0be7417 	ldw	r2,-1584(fp)
 2003eb8:	103f241e 	bne	r2,zero,2003b4c <__reset+0xfdffc34c>
 2003ebc:	0002d906 	br	2004a24 <GUI_ROBINSUN+0x1a48>
    										}
    										//printf("signal vaut: %d\n",*signal);
    									}
    								}
    							}//end if(check_button_tests == BTN_BLOCKS)
    							else if(check_button_tests == BTN_FISH){
 2003ec0:	e0be7a17 	ldw	r2,-1560(fp)
 2003ec4:	10800098 	cmpnei	r2,r2,2
 2003ec8:	1001211e 	bne	r2,zero,2004350 <GUI_ROBINSUN+0x1374>
    								test=1;
 2003ecc:	00800044 	movi	r2,1
 2003ed0:	e0be7415 	stw	r2,-1584(fp)

    								vid_clean_screen(pDisplay, BLACK_24);
 2003ed4:	e13ffc17 	ldw	r4,-16(fp)
 2003ed8:	000b883a 	mov	r5,zero
 2003edc:	20064ec0 	call	20064ec <vid_clean_screen>
    								usleep(1000*1000);
 2003ee0:	010003f4 	movhi	r4,15
 2003ee4:	21109004 	addi	r4,r4,16960
 2003ee8:	200ec680 	call	200ec68 <usleep>

    								GUI_ROBINSUN_Init(pDisplay, &DeskInfo, DeskInfo.buttons_fish, BTN_NUM_FISH);
 2003eec:	e0fe8404 	addi	r3,fp,-1520
 2003ef0:	e0be8404 	addi	r2,fp,-1520
 2003ef4:	10805e04 	addi	r2,r2,376
 2003ef8:	e13ffc17 	ldw	r4,-16(fp)
 2003efc:	180b883a 	mov	r5,r3
 2003f00:	100d883a 	mov	r6,r2
 2003f04:	01c00104 	movi	r7,4
 2003f08:	2000b840 	call	2000b84 <GUI_ROBINSUN_Init>
    								GUI_ROBINSUN_Draw(pDisplay, &DeskInfo, DeskInfo.buttons_fish, BTN_NUM_FISH, "Lift", "Drop", "STOP", "Back", "", "");
 2003f0c:	e17e8404 	addi	r5,fp,-1520
 2003f10:	e0be8404 	addi	r2,fp,-1520
 2003f14:	10c05e04 	addi	r3,r2,376
 2003f18:	00808074 	movhi	r2,513
 2003f1c:	10879e04 	addi	r2,r2,7800
 2003f20:	d8800015 	stw	r2,0(sp)
 2003f24:	00808074 	movhi	r2,513
 2003f28:	1087a004 	addi	r2,r2,7808
 2003f2c:	d8800115 	stw	r2,4(sp)
 2003f30:	00808074 	movhi	r2,513
 2003f34:	10879804 	addi	r2,r2,7776
 2003f38:	d8800215 	stw	r2,8(sp)
 2003f3c:	00808074 	movhi	r2,513
 2003f40:	10876a04 	addi	r2,r2,7592
 2003f44:	d8800315 	stw	r2,12(sp)
 2003f48:	00808074 	movhi	r2,513
 2003f4c:	10877d04 	addi	r2,r2,7668
 2003f50:	d8800415 	stw	r2,16(sp)
 2003f54:	00808074 	movhi	r2,513
 2003f58:	10877d04 	addi	r2,r2,7668
 2003f5c:	d8800515 	stw	r2,20(sp)
 2003f60:	e13ffc17 	ldw	r4,-16(fp)
 2003f64:	180d883a 	mov	r6,r3
 2003f68:	01c00104 	movi	r7,4
 2003f6c:	2000cd40 	call	2000cd4 <GUI_ROBINSUN_Draw>

    								RectCopy(&rcTouchFishLift, &DeskInfo.buttons_fish[BTN_FISH_LIFT].rc);
 2003f70:	e0ffd804 	addi	r3,fp,-160
 2003f74:	e0be8404 	addi	r2,fp,-1520
 2003f78:	10805e04 	addi	r2,r2,376
 2003f7c:	1809883a 	mov	r4,r3
 2003f80:	100b883a 	mov	r5,r2
 2003f84:	20063280 	call	2006328 <RectCopy>
    								RectCopy(&rcTouchFishDrop, &DeskInfo.buttons_fish[BTN_FISH_DROP].rc);
 2003f88:	e0ffdc04 	addi	r3,fp,-144
 2003f8c:	e0be8404 	addi	r2,fp,-1520
 2003f90:	10806304 	addi	r2,r2,396
 2003f94:	1809883a 	mov	r4,r3
 2003f98:	100b883a 	mov	r5,r2
 2003f9c:	20063280 	call	2006328 <RectCopy>
    								RectCopy(&rcTouchFishStop, &DeskInfo.buttons_fish[BTN_FISH_STOP].rc);
 2003fa0:	e0ffe004 	addi	r3,fp,-128
 2003fa4:	e0be8404 	addi	r2,fp,-1520
 2003fa8:	10806804 	addi	r2,r2,416
 2003fac:	1809883a 	mov	r4,r3
 2003fb0:	100b883a 	mov	r5,r2
 2003fb4:	20063280 	call	2006328 <RectCopy>
    								RectCopy(&rcTouchFishBack, &DeskInfo.buttons_fish[BTN_FISH_BACK].rc);
 2003fb8:	e0ffe404 	addi	r3,fp,-112
 2003fbc:	e0be8404 	addi	r2,fp,-1520
 2003fc0:	10806d04 	addi	r2,r2,436
 2003fc4:	1809883a 	mov	r4,r3
 2003fc8:	100b883a 	mov	r5,r2
 2003fcc:	20063280 	call	2006328 <RectCopy>

    								Touch_EmptyFifo(pTouch);
 2003fd0:	e13ffd17 	ldw	r4,-12(fp)
 2003fd4:	20097c80 	call	20097c8 <Touch_EmptyFifo>

    								while(test){
 2003fd8:	0000da06 	br	2004344 <GUI_ROBINSUN+0x1368>
    									// touch
    									if (Touch_GetXY(pTouch, &X, &Y)){
 2003fdc:	e0ff8c04 	addi	r3,fp,-464
 2003fe0:	e0bf8d04 	addi	r2,fp,-460
 2003fe4:	e13ffd17 	ldw	r4,-12(fp)
 2003fe8:	180b883a 	mov	r5,r3
 2003fec:	100d883a 	mov	r6,r2
 2003ff0:	20098000 	call	2009800 <Touch_GetXY>
 2003ff4:	1000d326 	beq	r2,zero,2004344 <GUI_ROBINSUN+0x1368>
    										PtSet(&Pt, X, Y);
 2003ff8:	e0ff8c17 	ldw	r3,-464(fp)
 2003ffc:	e0bf8d17 	ldw	r2,-460(fp)
 2004000:	e13f8e04 	addi	r4,fp,-456
 2004004:	180b883a 	mov	r5,r3
 2004008:	100d883a 	mov	r6,r2
 200400c:	200617c0 	call	200617c <PtSet>
    										check_button_fish = GUI_ROBINSUN_CheckButton(&DeskInfo, &Pt,DeskInfo.buttons_fish,BTN_NUM_FISH,BTN_NONE_FISH);
 2004010:	e13e8404 	addi	r4,fp,-1520
 2004014:	e17f8e04 	addi	r5,fp,-456
 2004018:	e0be8404 	addi	r2,fp,-1520
 200401c:	10c05e04 	addi	r3,r2,376
 2004020:	00800144 	movi	r2,5
 2004024:	d8800015 	stw	r2,0(sp)
 2004028:	180d883a 	mov	r6,r3
 200402c:	01c00104 	movi	r7,4
 2004030:	20009d40 	call	20009d4 <GUI_ROBINSUN_CheckButton>
 2004034:	e0be8015 	stw	r2,-1536(fp)
    										//printf("signal vaut: %d\n",*signal);
    										if (check_button_fish == BTN_FISH_LIFT){
 2004038:	e0be8017 	ldw	r2,-1536(fp)
 200403c:	10003d1e 	bne	r2,zero,2004134 <GUI_ROBINSUN+0x1158>

    											vid_draw_box (rcTouchFishLift.left, rcTouchFishLift.top, rcTouchFishLift.right, rcTouchFishLift.bottom, BLACK_24, DO_FILL, pDisplay);
 2004040:	e13fd817 	ldw	r4,-160(fp)
 2004044:	e17fda17 	ldw	r5,-152(fp)
 2004048:	e1bfd917 	ldw	r6,-156(fp)
 200404c:	e0ffdb17 	ldw	r3,-148(fp)
 2004050:	d8000015 	stw	zero,0(sp)
 2004054:	00800044 	movi	r2,1
 2004058:	d8800115 	stw	r2,4(sp)
 200405c:	e0bffc17 	ldw	r2,-16(fp)
 2004060:	d8800215 	stw	r2,8(sp)
 2004064:	180f883a 	mov	r7,r3
 2004068:	2006d340 	call	2006d34 <vid_draw_box>
    											vid_draw_box (rcTouchFishLift.left, rcTouchFishLift.top, rcTouchFishLift.right, rcTouchFishLift.bottom, WHITE_24, DO_NOT_FILL, pDisplay);
 200406c:	e13fd817 	ldw	r4,-160(fp)
 2004070:	e17fda17 	ldw	r5,-152(fp)
 2004074:	e1bfd917 	ldw	r6,-156(fp)
 2004078:	e0ffdb17 	ldw	r3,-148(fp)
 200407c:	00804034 	movhi	r2,256
 2004080:	10bfffc4 	addi	r2,r2,-1
 2004084:	d8800015 	stw	r2,0(sp)
 2004088:	d8000115 	stw	zero,4(sp)
 200408c:	e0bffc17 	ldw	r2,-16(fp)
 2004090:	d8800215 	stw	r2,8(sp)
 2004094:	180f883a 	mov	r7,r3
 2004098:	2006d340 	call	2006d34 <vid_draw_box>
    											vid_print_string_alpha(rcTouchFishLift.left+8, rcTouchFishLift.top+(RectHeight(&rcTouchFishLift)-22)/2, WHITE_24, BLACK_24, tahomabold_20, pDisplay, "Lift");
 200409c:	e0bfd817 	ldw	r2,-160(fp)
 20040a0:	14400204 	addi	r17,r2,8
 20040a4:	e43fda17 	ldw	r16,-152(fp)
 20040a8:	e0bfd804 	addi	r2,fp,-160
 20040ac:	1009883a 	mov	r4,r2
 20040b0:	20063c00 	call	20063c0 <RectHeight>
 20040b4:	10bffa84 	addi	r2,r2,-22
 20040b8:	1006d7fa 	srli	r3,r2,31
 20040bc:	1885883a 	add	r2,r3,r2
 20040c0:	1005d07a 	srai	r2,r2,1
 20040c4:	8087883a 	add	r3,r16,r2
 20040c8:	008080f4 	movhi	r2,515
 20040cc:	10af9504 	addi	r2,r2,-16812
 20040d0:	d8800015 	stw	r2,0(sp)
 20040d4:	e0bffc17 	ldw	r2,-16(fp)
 20040d8:	d8800115 	stw	r2,4(sp)
 20040dc:	00808074 	movhi	r2,513
 20040e0:	10879e04 	addi	r2,r2,7800
 20040e4:	d8800215 	stw	r2,8(sp)
 20040e8:	8809883a 	mov	r4,r17
 20040ec:	180b883a 	mov	r5,r3
 20040f0:	01804034 	movhi	r6,256
 20040f4:	31bfffc4 	addi	r6,r6,-1
 20040f8:	000f883a 	mov	r7,zero
 20040fc:	2008b400 	call	2008b40 <vid_print_string_alpha>

    											if(*signal == 21){
 2004100:	e0be8317 	ldw	r2,-1524(fp)
 2004104:	10800017 	ldw	r2,0(r2)
 2004108:	10800558 	cmpnei	r2,r2,21
 200410c:	1000031e 	bne	r2,zero,200411c <GUI_ROBINSUN+0x1140>
    												*signal = 0;
 2004110:	e0be8317 	ldw	r2,-1524(fp)
 2004114:	10000015 	stw	zero,0(r2)
 2004118:	00000306 	br	2004128 <GUI_ROBINSUN+0x114c>
    											}
    											else{
    												*signal = 21;
 200411c:	e0be8317 	ldw	r2,-1524(fp)
 2004120:	00c00544 	movi	r3,21
 2004124:	10c00015 	stw	r3,0(r2)
    											}

    											Touch_EmptyFifo(pTouch);
 2004128:	e13ffd17 	ldw	r4,-12(fp)
 200412c:	20097c80 	call	20097c8 <Touch_EmptyFifo>
 2004130:	00008406 	br	2004344 <GUI_ROBINSUN+0x1368>
    										}
    										else if (check_button_fish == BTN_FISH_DROP){
 2004134:	e0be8017 	ldw	r2,-1536(fp)
 2004138:	10800058 	cmpnei	r2,r2,1
 200413c:	10003d1e 	bne	r2,zero,2004234 <GUI_ROBINSUN+0x1258>

    											vid_draw_box (rcTouchFishDrop.left, rcTouchFishDrop.top, rcTouchFishDrop.right, rcTouchFishDrop.bottom, BLACK_24, DO_FILL, pDisplay);
 2004140:	e13fdc17 	ldw	r4,-144(fp)
 2004144:	e17fde17 	ldw	r5,-136(fp)
 2004148:	e1bfdd17 	ldw	r6,-140(fp)
 200414c:	e0ffdf17 	ldw	r3,-132(fp)
 2004150:	d8000015 	stw	zero,0(sp)
 2004154:	00800044 	movi	r2,1
 2004158:	d8800115 	stw	r2,4(sp)
 200415c:	e0bffc17 	ldw	r2,-16(fp)
 2004160:	d8800215 	stw	r2,8(sp)
 2004164:	180f883a 	mov	r7,r3
 2004168:	2006d340 	call	2006d34 <vid_draw_box>
    											vid_draw_box (rcTouchFishDrop.left, rcTouchFishDrop.top, rcTouchFishDrop.right, rcTouchFishDrop.bottom, WHITE_24, DO_NOT_FILL, pDisplay);
 200416c:	e13fdc17 	ldw	r4,-144(fp)
 2004170:	e17fde17 	ldw	r5,-136(fp)
 2004174:	e1bfdd17 	ldw	r6,-140(fp)
 2004178:	e0ffdf17 	ldw	r3,-132(fp)
 200417c:	00804034 	movhi	r2,256
 2004180:	10bfffc4 	addi	r2,r2,-1
 2004184:	d8800015 	stw	r2,0(sp)
 2004188:	d8000115 	stw	zero,4(sp)
 200418c:	e0bffc17 	ldw	r2,-16(fp)
 2004190:	d8800215 	stw	r2,8(sp)
 2004194:	180f883a 	mov	r7,r3
 2004198:	2006d340 	call	2006d34 <vid_draw_box>
    											vid_print_string_alpha(rcTouchFishDrop.left+8, rcTouchFishDrop.top+(RectHeight(&rcTouchFishDrop)-22)/2, WHITE_24, BLACK_24, tahomabold_20, pDisplay, "Drop");
 200419c:	e0bfdc17 	ldw	r2,-144(fp)
 20041a0:	14400204 	addi	r17,r2,8
 20041a4:	e43fde17 	ldw	r16,-136(fp)
 20041a8:	e0bfdc04 	addi	r2,fp,-144
 20041ac:	1009883a 	mov	r4,r2
 20041b0:	20063c00 	call	20063c0 <RectHeight>
 20041b4:	10bffa84 	addi	r2,r2,-22
 20041b8:	1006d7fa 	srli	r3,r2,31
 20041bc:	1885883a 	add	r2,r3,r2
 20041c0:	1005d07a 	srai	r2,r2,1
 20041c4:	8087883a 	add	r3,r16,r2
 20041c8:	008080f4 	movhi	r2,515
 20041cc:	10af9504 	addi	r2,r2,-16812
 20041d0:	d8800015 	stw	r2,0(sp)
 20041d4:	e0bffc17 	ldw	r2,-16(fp)
 20041d8:	d8800115 	stw	r2,4(sp)
 20041dc:	00808074 	movhi	r2,513
 20041e0:	1087a004 	addi	r2,r2,7808
 20041e4:	d8800215 	stw	r2,8(sp)
 20041e8:	8809883a 	mov	r4,r17
 20041ec:	180b883a 	mov	r5,r3
 20041f0:	01804034 	movhi	r6,256
 20041f4:	31bfffc4 	addi	r6,r6,-1
 20041f8:	000f883a 	mov	r7,zero
 20041fc:	2008b400 	call	2008b40 <vid_print_string_alpha>

    											if(*signal == 22){
 2004200:	e0be8317 	ldw	r2,-1524(fp)
 2004204:	10800017 	ldw	r2,0(r2)
 2004208:	10800598 	cmpnei	r2,r2,22
 200420c:	1000031e 	bne	r2,zero,200421c <GUI_ROBINSUN+0x1240>
    												*signal = 0;
 2004210:	e0be8317 	ldw	r2,-1524(fp)
 2004214:	10000015 	stw	zero,0(r2)
 2004218:	00000306 	br	2004228 <GUI_ROBINSUN+0x124c>
    											}
    											else{
    												*signal = 22;
 200421c:	e0be8317 	ldw	r2,-1524(fp)
 2004220:	00c00584 	movi	r3,22
 2004224:	10c00015 	stw	r3,0(r2)
    											}

												Touch_EmptyFifo(pTouch);
 2004228:	e13ffd17 	ldw	r4,-12(fp)
 200422c:	20097c80 	call	20097c8 <Touch_EmptyFifo>
 2004230:	00004406 	br	2004344 <GUI_ROBINSUN+0x1368>
    										}
    										else if (check_button_fish == BTN_FISH_STOP){
 2004234:	e0be8017 	ldw	r2,-1536(fp)
 2004238:	10800098 	cmpnei	r2,r2,2
 200423c:	1000351e 	bne	r2,zero,2004314 <GUI_ROBINSUN+0x1338>

    											vid_draw_box (rcTouchFishStop.left, rcTouchFishStop.top, rcTouchFishStop.right, rcTouchFishStop.bottom, BLACK_24, DO_FILL, pDisplay);
 2004240:	e13fe017 	ldw	r4,-128(fp)
 2004244:	e17fe217 	ldw	r5,-120(fp)
 2004248:	e1bfe117 	ldw	r6,-124(fp)
 200424c:	e0ffe317 	ldw	r3,-116(fp)
 2004250:	d8000015 	stw	zero,0(sp)
 2004254:	00800044 	movi	r2,1
 2004258:	d8800115 	stw	r2,4(sp)
 200425c:	e0bffc17 	ldw	r2,-16(fp)
 2004260:	d8800215 	stw	r2,8(sp)
 2004264:	180f883a 	mov	r7,r3
 2004268:	2006d340 	call	2006d34 <vid_draw_box>
    											vid_draw_box (rcTouchFishStop.left, rcTouchFishStop.top, rcTouchFishStop.right, rcTouchFishStop.bottom, WHITE_24, DO_NOT_FILL, pDisplay);
 200426c:	e13fe017 	ldw	r4,-128(fp)
 2004270:	e17fe217 	ldw	r5,-120(fp)
 2004274:	e1bfe117 	ldw	r6,-124(fp)
 2004278:	e0ffe317 	ldw	r3,-116(fp)
 200427c:	00804034 	movhi	r2,256
 2004280:	10bfffc4 	addi	r2,r2,-1
 2004284:	d8800015 	stw	r2,0(sp)
 2004288:	d8000115 	stw	zero,4(sp)
 200428c:	e0bffc17 	ldw	r2,-16(fp)
 2004290:	d8800215 	stw	r2,8(sp)
 2004294:	180f883a 	mov	r7,r3
 2004298:	2006d340 	call	2006d34 <vid_draw_box>
    											vid_print_string_alpha(rcTouchFishStop.left+8, rcTouchFishStop.top+(RectHeight(&rcTouchFishStop)-22)/2, WHITE_24, BLACK_24, tahomabold_20, pDisplay, "STOP");
 200429c:	e0bfe017 	ldw	r2,-128(fp)
 20042a0:	14400204 	addi	r17,r2,8
 20042a4:	e43fe217 	ldw	r16,-120(fp)
 20042a8:	e0bfe004 	addi	r2,fp,-128
 20042ac:	1009883a 	mov	r4,r2
 20042b0:	20063c00 	call	20063c0 <RectHeight>
 20042b4:	10bffa84 	addi	r2,r2,-22
 20042b8:	1006d7fa 	srli	r3,r2,31
 20042bc:	1885883a 	add	r2,r3,r2
 20042c0:	1005d07a 	srai	r2,r2,1
 20042c4:	8087883a 	add	r3,r16,r2
 20042c8:	008080f4 	movhi	r2,515
 20042cc:	10af9504 	addi	r2,r2,-16812
 20042d0:	d8800015 	stw	r2,0(sp)
 20042d4:	e0bffc17 	ldw	r2,-16(fp)
 20042d8:	d8800115 	stw	r2,4(sp)
 20042dc:	00808074 	movhi	r2,513
 20042e0:	10879804 	addi	r2,r2,7776
 20042e4:	d8800215 	stw	r2,8(sp)
 20042e8:	8809883a 	mov	r4,r17
 20042ec:	180b883a 	mov	r5,r3
 20042f0:	01804034 	movhi	r6,256
 20042f4:	31bfffc4 	addi	r6,r6,-1
 20042f8:	000f883a 	mov	r7,zero
 20042fc:	2008b400 	call	2008b40 <vid_print_string_alpha>

    											*signal = 0;
 2004300:	e0be8317 	ldw	r2,-1524(fp)
 2004304:	10000015 	stw	zero,0(r2)

    											Touch_EmptyFifo(pTouch);
 2004308:	e13ffd17 	ldw	r4,-12(fp)
 200430c:	20097c80 	call	20097c8 <Touch_EmptyFifo>
 2004310:	00000c06 	br	2004344 <GUI_ROBINSUN+0x1368>

    										}
    										else if (check_button_fish == BTN_FISH_BACK){
 2004314:	e0be8017 	ldw	r2,-1536(fp)
 2004318:	108000d8 	cmpnei	r2,r2,3
 200431c:	1000071e 	bne	r2,zero,200433c <GUI_ROBINSUN+0x1360>

    											*signal=0;
 2004320:	e0be8317 	ldw	r2,-1524(fp)
 2004324:	10000015 	stw	zero,0(r2)
    											tests_or_compet_loop=0;
 2004328:	e03e6f15 	stw	zero,-1604(fp)
    											test=0;
 200432c:	e03e7415 	stw	zero,-1584(fp)

    											Touch_EmptyFifo(pTouch);
 2004330:	e13ffd17 	ldw	r4,-12(fp)
 2004334:	20097c80 	call	20097c8 <Touch_EmptyFifo>
 2004338:	00000206 	br	2004344 <GUI_ROBINSUN+0x1368>
    										}
    										else{
    											Touch_EmptyFifo(pTouch);
 200433c:	e13ffd17 	ldw	r4,-12(fp)
 2004340:	20097c80 	call	20097c8 <Touch_EmptyFifo>
    								RectCopy(&rcTouchFishStop, &DeskInfo.buttons_fish[BTN_FISH_STOP].rc);
    								RectCopy(&rcTouchFishBack, &DeskInfo.buttons_fish[BTN_FISH_BACK].rc);

    								Touch_EmptyFifo(pTouch);

    								while(test){
 2004344:	e0be7417 	ldw	r2,-1584(fp)
 2004348:	103f241e 	bne	r2,zero,2003fdc <__reset+0xfdffc7dc>
 200434c:	0001b506 	br	2004a24 <GUI_ROBINSUN+0x1a48>
    										}
    										//printf("signal vaut: %d\n",*signal);
    									}
    								}
    							}//end if(check_button_tests == BTN_FISH)
    							else if(check_button_tests == BTN_CABINS){
 2004350:	e0be7a17 	ldw	r2,-1560(fp)
 2004354:	108000d8 	cmpnei	r2,r2,3
 2004358:	1000d51e 	bne	r2,zero,20046b0 <GUI_ROBINSUN+0x16d4>
    								test=1;
 200435c:	00800044 	movi	r2,1
 2004360:	e0be7415 	stw	r2,-1584(fp)

    								vid_clean_screen(pDisplay, BLACK_24);
 2004364:	e13ffc17 	ldw	r4,-16(fp)
 2004368:	000b883a 	mov	r5,zero
 200436c:	20064ec0 	call	20064ec <vid_clean_screen>
    								usleep(1000*1000);
 2004370:	010003f4 	movhi	r4,15
 2004374:	21109004 	addi	r4,r4,16960
 2004378:	200ec680 	call	200ec68 <usleep>

    								GUI_ROBINSUN_Init(pDisplay, &DeskInfo, DeskInfo.buttons_cabins, BTN_NUM_CABINS);
 200437c:	e0fe8404 	addi	r3,fp,-1520
 2004380:	e0be8404 	addi	r2,fp,-1520
 2004384:	10807204 	addi	r2,r2,456
 2004388:	e13ffc17 	ldw	r4,-16(fp)
 200438c:	180b883a 	mov	r5,r3
 2004390:	100d883a 	mov	r6,r2
 2004394:	01c000c4 	movi	r7,3
 2004398:	2000b840 	call	2000b84 <GUI_ROBINSUN_Init>
    								GUI_ROBINSUN_Draw(pDisplay, &DeskInfo, DeskInfo.buttons_cabins, BTN_NUM_CABINS, "Go to the cabins", "STOP", "Back", "", "", "");
 200439c:	e17e8404 	addi	r5,fp,-1520
 20043a0:	e0be8404 	addi	r2,fp,-1520
 20043a4:	10c07204 	addi	r3,r2,456
 20043a8:	00808074 	movhi	r2,513
 20043ac:	1087a204 	addi	r2,r2,7816
 20043b0:	d8800015 	stw	r2,0(sp)
 20043b4:	00808074 	movhi	r2,513
 20043b8:	10879804 	addi	r2,r2,7776
 20043bc:	d8800115 	stw	r2,4(sp)
 20043c0:	00808074 	movhi	r2,513
 20043c4:	10876a04 	addi	r2,r2,7592
 20043c8:	d8800215 	stw	r2,8(sp)
 20043cc:	00808074 	movhi	r2,513
 20043d0:	10877d04 	addi	r2,r2,7668
 20043d4:	d8800315 	stw	r2,12(sp)
 20043d8:	00808074 	movhi	r2,513
 20043dc:	10877d04 	addi	r2,r2,7668
 20043e0:	d8800415 	stw	r2,16(sp)
 20043e4:	00808074 	movhi	r2,513
 20043e8:	10877d04 	addi	r2,r2,7668
 20043ec:	d8800515 	stw	r2,20(sp)
 20043f0:	e13ffc17 	ldw	r4,-16(fp)
 20043f4:	180d883a 	mov	r6,r3
 20043f8:	01c000c4 	movi	r7,3
 20043fc:	2000cd40 	call	2000cd4 <GUI_ROBINSUN_Draw>

    								RectCopy(&rcTouchCabinsGo, &DeskInfo.buttons_cabins[BTN_CABINS_GO].rc);
 2004400:	e0ffe804 	addi	r3,fp,-96
 2004404:	e0be8404 	addi	r2,fp,-1520
 2004408:	10807204 	addi	r2,r2,456
 200440c:	1809883a 	mov	r4,r3
 2004410:	100b883a 	mov	r5,r2
 2004414:	20063280 	call	2006328 <RectCopy>
    								RectCopy(&rcTouchCabinsStop, &DeskInfo.buttons_cabins[BTN_CABINS_STOP].rc);
 2004418:	e0ffec04 	addi	r3,fp,-80
 200441c:	e0be8404 	addi	r2,fp,-1520
 2004420:	10807704 	addi	r2,r2,476
 2004424:	1809883a 	mov	r4,r3
 2004428:	100b883a 	mov	r5,r2
 200442c:	20063280 	call	2006328 <RectCopy>

    								Touch_EmptyFifo(pTouch);
 2004430:	e13ffd17 	ldw	r4,-12(fp)
 2004434:	20097c80 	call	20097c8 <Touch_EmptyFifo>

    								while(test){
 2004438:	00009a06 	br	20046a4 <GUI_ROBINSUN+0x16c8>
    									// touch
    									if (Touch_GetXY(pTouch, &X, &Y)){
 200443c:	e0ff8c04 	addi	r3,fp,-464
 2004440:	e0bf8d04 	addi	r2,fp,-460
 2004444:	e13ffd17 	ldw	r4,-12(fp)
 2004448:	180b883a 	mov	r5,r3
 200444c:	100d883a 	mov	r6,r2
 2004450:	20098000 	call	2009800 <Touch_GetXY>
 2004454:	10009326 	beq	r2,zero,20046a4 <GUI_ROBINSUN+0x16c8>
    										PtSet(&Pt, X, Y);
 2004458:	e0ff8c17 	ldw	r3,-464(fp)
 200445c:	e0bf8d17 	ldw	r2,-460(fp)
 2004460:	e13f8e04 	addi	r4,fp,-456
 2004464:	180b883a 	mov	r5,r3
 2004468:	100d883a 	mov	r6,r2
 200446c:	200617c0 	call	200617c <PtSet>
    										check_button_cabins = GUI_ROBINSUN_CheckButton(&DeskInfo, &Pt,DeskInfo.buttons_cabins,BTN_NUM_CABINS,BTN_NONE_CABINS);
 2004470:	e13e8404 	addi	r4,fp,-1520
 2004474:	e17f8e04 	addi	r5,fp,-456
 2004478:	e0be8404 	addi	r2,fp,-1520
 200447c:	10c07204 	addi	r3,r2,456
 2004480:	00800104 	movi	r2,4
 2004484:	d8800015 	stw	r2,0(sp)
 2004488:	180d883a 	mov	r6,r3
 200448c:	01c000c4 	movi	r7,3
 2004490:	20009d40 	call	20009d4 <GUI_ROBINSUN_CheckButton>
 2004494:	e0be8115 	stw	r2,-1532(fp)
    										//printf("signal vaut: %d\n",*signal);
    										if (check_button_cabins == BTN_CABINS_GO){
 2004498:	e0be8117 	ldw	r2,-1532(fp)
 200449c:	10003d1e 	bne	r2,zero,2004594 <GUI_ROBINSUN+0x15b8>

    											vid_draw_box (rcTouchCabinsGo.left, rcTouchCabinsGo.top, rcTouchCabinsGo.right, rcTouchCabinsGo.bottom, BLACK_24, DO_FILL, pDisplay);
 20044a0:	e13fe817 	ldw	r4,-96(fp)
 20044a4:	e17fea17 	ldw	r5,-88(fp)
 20044a8:	e1bfe917 	ldw	r6,-92(fp)
 20044ac:	e0ffeb17 	ldw	r3,-84(fp)
 20044b0:	d8000015 	stw	zero,0(sp)
 20044b4:	00800044 	movi	r2,1
 20044b8:	d8800115 	stw	r2,4(sp)
 20044bc:	e0bffc17 	ldw	r2,-16(fp)
 20044c0:	d8800215 	stw	r2,8(sp)
 20044c4:	180f883a 	mov	r7,r3
 20044c8:	2006d340 	call	2006d34 <vid_draw_box>
    											vid_draw_box (rcTouchCabinsGo.left, rcTouchCabinsGo.top, rcTouchCabinsGo.right, rcTouchCabinsGo.bottom, WHITE_24, DO_NOT_FILL, pDisplay);
 20044cc:	e13fe817 	ldw	r4,-96(fp)
 20044d0:	e17fea17 	ldw	r5,-88(fp)
 20044d4:	e1bfe917 	ldw	r6,-92(fp)
 20044d8:	e0ffeb17 	ldw	r3,-84(fp)
 20044dc:	00804034 	movhi	r2,256
 20044e0:	10bfffc4 	addi	r2,r2,-1
 20044e4:	d8800015 	stw	r2,0(sp)
 20044e8:	d8000115 	stw	zero,4(sp)
 20044ec:	e0bffc17 	ldw	r2,-16(fp)
 20044f0:	d8800215 	stw	r2,8(sp)
 20044f4:	180f883a 	mov	r7,r3
 20044f8:	2006d340 	call	2006d34 <vid_draw_box>
    											vid_print_string_alpha(rcTouchCabinsGo.left+8, rcTouchCabinsGo.top+(RectHeight(&rcTouchCabinsGo)-22)/2, WHITE_24, BLACK_24, tahomabold_20, pDisplay, "Go to the cabins");
 20044fc:	e0bfe817 	ldw	r2,-96(fp)
 2004500:	14400204 	addi	r17,r2,8
 2004504:	e43fea17 	ldw	r16,-88(fp)
 2004508:	e0bfe804 	addi	r2,fp,-96
 200450c:	1009883a 	mov	r4,r2
 2004510:	20063c00 	call	20063c0 <RectHeight>
 2004514:	10bffa84 	addi	r2,r2,-22
 2004518:	1006d7fa 	srli	r3,r2,31
 200451c:	1885883a 	add	r2,r3,r2
 2004520:	1005d07a 	srai	r2,r2,1
 2004524:	8087883a 	add	r3,r16,r2
 2004528:	008080f4 	movhi	r2,515
 200452c:	10af9504 	addi	r2,r2,-16812
 2004530:	d8800015 	stw	r2,0(sp)
 2004534:	e0bffc17 	ldw	r2,-16(fp)
 2004538:	d8800115 	stw	r2,4(sp)
 200453c:	00808074 	movhi	r2,513
 2004540:	1087a204 	addi	r2,r2,7816
 2004544:	d8800215 	stw	r2,8(sp)
 2004548:	8809883a 	mov	r4,r17
 200454c:	180b883a 	mov	r5,r3
 2004550:	01804034 	movhi	r6,256
 2004554:	31bfffc4 	addi	r6,r6,-1
 2004558:	000f883a 	mov	r7,zero
 200455c:	2008b400 	call	2008b40 <vid_print_string_alpha>

    											if(*signal == 31){
 2004560:	e0be8317 	ldw	r2,-1524(fp)
 2004564:	10800017 	ldw	r2,0(r2)
 2004568:	108007d8 	cmpnei	r2,r2,31
 200456c:	1000031e 	bne	r2,zero,200457c <GUI_ROBINSUN+0x15a0>
    												*signal = 0;
 2004570:	e0be8317 	ldw	r2,-1524(fp)
 2004574:	10000015 	stw	zero,0(r2)
 2004578:	00000306 	br	2004588 <GUI_ROBINSUN+0x15ac>
    											}
    											else{
    												*signal = 31;
 200457c:	e0be8317 	ldw	r2,-1524(fp)
 2004580:	00c007c4 	movi	r3,31
 2004584:	10c00015 	stw	r3,0(r2)
    											}

    											Touch_EmptyFifo(pTouch);
 2004588:	e13ffd17 	ldw	r4,-12(fp)
 200458c:	20097c80 	call	20097c8 <Touch_EmptyFifo>
 2004590:	00004406 	br	20046a4 <GUI_ROBINSUN+0x16c8>
    										}
    										else if (check_button_cabins == BTN_CABINS_STOP){
 2004594:	e0be8117 	ldw	r2,-1532(fp)
 2004598:	10800058 	cmpnei	r2,r2,1
 200459c:	1000351e 	bne	r2,zero,2004674 <GUI_ROBINSUN+0x1698>

    											vid_draw_box (rcTouchCabinsStop.left, rcTouchCabinsStop.top, rcTouchCabinsStop.right, rcTouchCabinsStop.bottom, BLACK_24, DO_FILL, pDisplay);
 20045a0:	e13fec17 	ldw	r4,-80(fp)
 20045a4:	e17fee17 	ldw	r5,-72(fp)
 20045a8:	e1bfed17 	ldw	r6,-76(fp)
 20045ac:	e0ffef17 	ldw	r3,-68(fp)
 20045b0:	d8000015 	stw	zero,0(sp)
 20045b4:	00800044 	movi	r2,1
 20045b8:	d8800115 	stw	r2,4(sp)
 20045bc:	e0bffc17 	ldw	r2,-16(fp)
 20045c0:	d8800215 	stw	r2,8(sp)
 20045c4:	180f883a 	mov	r7,r3
 20045c8:	2006d340 	call	2006d34 <vid_draw_box>
    											vid_draw_box (rcTouchCabinsStop.left, rcTouchCabinsStop.top, rcTouchCabinsStop.right, rcTouchCabinsStop.bottom, WHITE_24, DO_NOT_FILL, pDisplay);
 20045cc:	e13fec17 	ldw	r4,-80(fp)
 20045d0:	e17fee17 	ldw	r5,-72(fp)
 20045d4:	e1bfed17 	ldw	r6,-76(fp)
 20045d8:	e0ffef17 	ldw	r3,-68(fp)
 20045dc:	00804034 	movhi	r2,256
 20045e0:	10bfffc4 	addi	r2,r2,-1
 20045e4:	d8800015 	stw	r2,0(sp)
 20045e8:	d8000115 	stw	zero,4(sp)
 20045ec:	e0bffc17 	ldw	r2,-16(fp)
 20045f0:	d8800215 	stw	r2,8(sp)
 20045f4:	180f883a 	mov	r7,r3
 20045f8:	2006d340 	call	2006d34 <vid_draw_box>
    											vid_print_string_alpha(rcTouchCabinsStop.left+8, rcTouchCabinsStop.top+(RectHeight(&rcTouchCabinsStop)-22)/2, WHITE_24, BLACK_24, tahomabold_20, pDisplay, "STOP");
 20045fc:	e0bfec17 	ldw	r2,-80(fp)
 2004600:	14400204 	addi	r17,r2,8
 2004604:	e43fee17 	ldw	r16,-72(fp)
 2004608:	e0bfec04 	addi	r2,fp,-80
 200460c:	1009883a 	mov	r4,r2
 2004610:	20063c00 	call	20063c0 <RectHeight>
 2004614:	10bffa84 	addi	r2,r2,-22
 2004618:	1006d7fa 	srli	r3,r2,31
 200461c:	1885883a 	add	r2,r3,r2
 2004620:	1005d07a 	srai	r2,r2,1
