
software_LT24.elf:     file format elf32-littlenios2
software_LT24.elf
architecture: nios2:r1, flags 0x00000112:
EXEC_P, HAS_SYMS, D_PAGED
start address 0x020001bc

Program Header:
    LOAD off    0x00001020 vaddr 0x02000020 paddr 0x02000020 align 2**12
         filesz 0x0002be28 memsz 0x0002be28 flags r-x
    LOAD off    0x0002ce48 vaddr 0x0202be48 paddr 0x0202f1f0 align 2**12
         filesz 0x000033a8 memsz 0x000033a8 flags rw-
    LOAD off    0x00030598 vaddr 0x02032598 paddr 0x02032598 align 2**12
         filesz 0x00000000 memsz 0x00000150 flags rw-
    LOAD off    0x00030800 vaddr 0x04007800 paddr 0x04007800 align 2**12
         filesz 0x00000020 memsz 0x00000020 flags r-x

Sections:
Idx Name          Size      VMA       LMA       File off  Algn
  0 .entry        00000020  04007800  04007800  00030800  2**5
                  CONTENTS, ALLOC, LOAD, READONLY, CODE
  1 .exceptions   0000019c  02000020  02000020  00001020  2**2
                  CONTENTS, ALLOC, LOAD, READONLY, CODE
  2 .text         00011b70  020001bc  020001bc  000011bc  2**2
                  CONTENTS, ALLOC, LOAD, READONLY, CODE
  3 .rodata       0001a11c  02011d2c  02011d2c  00012d2c  2**2
                  CONTENTS, ALLOC, LOAD, READONLY, DATA
  4 .rwdata       000033a8  0202be48  0202f1f0  0002ce48  2**2
                  CONTENTS, ALLOC, LOAD, DATA, SMALL_DATA
  5 .bss          00000150  02032598  02032598  00030598  2**2
                  ALLOC, SMALL_DATA
  6 .SDRAM        00000000  020326e8  020326e8  00030820  2**0
                  CONTENTS
  7 .background_mem 00000000  04000000  04000000  00030820  2**0
                  CONTENTS
  8 .pic_mem      00000000  04004000  04004000  00030820  2**0
                  CONTENTS
  9 .epcs_flash_controller_0 00000000  04007820  04007820  00030820  2**0
                  CONTENTS
 10 .comment      00000023  00000000  00000000  00030820  2**0
                  CONTENTS, READONLY
 11 .debug_aranges 00000bb0  00000000  00000000  00030848  2**3
                  CONTENTS, READONLY, DEBUGGING
 12 .debug_info   000161c1  00000000  00000000  000313f8  2**0
                  CONTENTS, READONLY, DEBUGGING
 13 .debug_abbrev 000065ba  00000000  00000000  000475b9  2**0
                  CONTENTS, READONLY, DEBUGGING
 14 .debug_line   0000835f  00000000  00000000  0004db73  2**0
                  CONTENTS, READONLY, DEBUGGING
 15 .debug_frame  00002558  00000000  00000000  00055ed4  2**2
                  CONTENTS, READONLY, DEBUGGING
 16 .debug_str    00004ec1  00000000  00000000  0005842c  2**0
                  CONTENTS, READONLY, DEBUGGING
 17 .debug_loc    000093d8  00000000  00000000  0005d2ed  2**0
                  CONTENTS, READONLY, DEBUGGING
 18 .debug_alt_sim_info 00000060  00000000  00000000  000666c8  2**2
                  CONTENTS, READONLY, DEBUGGING
 19 .debug_ranges 00000b00  00000000  00000000  00066728  2**3
                  CONTENTS, READONLY, DEBUGGING
 20 .thread_model 00000003  00000000  00000000  0006c223  2**0
                  CONTENTS, READONLY
 21 .cpu          00000003  00000000  00000000  0006c226  2**0
                  CONTENTS, READONLY
 22 .qsys         00000001  00000000  00000000  0006c229  2**0
                  CONTENTS, READONLY
 23 .simulation_enabled 00000001  00000000  00000000  0006c22a  2**0
                  CONTENTS, READONLY
 24 .stderr_dev   00000009  00000000  00000000  0006c22b  2**0
                  CONTENTS, READONLY
 25 .stdin_dev    00000009  00000000  00000000  0006c234  2**0
                  CONTENTS, READONLY
 26 .stdout_dev   00000009  00000000  00000000  0006c23d  2**0
                  CONTENTS, READONLY
 27 .sopc_system_name 0000000d  00000000  00000000  0006c246  2**0
                  CONTENTS, READONLY
 28 .quartus_project_dir 00000018  00000000  00000000  0006c253  2**0
                  CONTENTS, READONLY
 29 .jdi          00003f0a  00000000  00000000  0006c26b  2**0
                  CONTENTS, READONLY
 30 .sopcinfo     00098847  00000000  00000000  00070175  2**0
                  CONTENTS, READONLY
SYMBOL TABLE:
04007800 l    d  .entry	00000000 .entry
02000020 l    d  .exceptions	00000000 .exceptions
020001bc l    d  .text	00000000 .text
02011d2c l    d  .rodata	00000000 .rodata
0202be48 l    d  .rwdata	00000000 .rwdata
02032598 l    d  .bss	00000000 .bss
020326e8 l    d  .SDRAM	00000000 .SDRAM
04000000 l    d  .background_mem	00000000 .background_mem
04004000 l    d  .pic_mem	00000000 .pic_mem
04007820 l    d  .epcs_flash_controller_0	00000000 .epcs_flash_controller_0
00000000 l    d  .comment	00000000 .comment
00000000 l    d  .debug_aranges	00000000 .debug_aranges
00000000 l    d  .debug_info	00000000 .debug_info
00000000 l    d  .debug_abbrev	00000000 .debug_abbrev
00000000 l    d  .debug_line	00000000 .debug_line
00000000 l    d  .debug_frame	00000000 .debug_frame
00000000 l    d  .debug_str	00000000 .debug_str
00000000 l    d  .debug_loc	00000000 .debug_loc
00000000 l    d  .debug_alt_sim_info	00000000 .debug_alt_sim_info
00000000 l    d  .debug_ranges	00000000 .debug_ranges
00000000 l    df *ABS*	00000000 ../software_LT24_bsp//obj/HAL/src/crt0.o
02000204 l       .text	00000000 alt_after_alt_main
00000000 l    df *ABS*	00000000 alt_exception_entry.o
02000094 l       .exceptions	00000000 alt_exception_unknown
00000000 l    df *ABS*	00000000 alt_irq_handler.c
00000000 l    df *ABS*	00000000 gui.c
00000000 l    df *ABS*	00000000 gui_vpg.c
00000000 l    df *ABS*	00000000 robinsun.c
00000000 l    df *ABS*	00000000 tahomabold_20.c
02011f1c l     O .rodata	000000b6 tahomabold_20_33
02011fd2 l     O .rodata	00000104 tahomabold_20_34
020120d6 l     O .rodata	000001a0 tahomabold_20_35
02012276 l     O .rodata	00000152 tahomabold_20_36
020123c8 l     O .rodata	00000270 tahomabold_20_37
02012638 l     O .rodata	000001ba tahomabold_20_38
020127f2 l     O .rodata	0000009c tahomabold_20_39
0201288e l     O .rodata	000000ea tahomabold_20_40
02012978 l     O .rodata	000000ea tahomabold_20_41
02012a62 l     O .rodata	00000152 tahomabold_20_42
02012bb4 l     O .rodata	000001a0 tahomabold_20_43
02012d54 l     O .rodata	0000009c tahomabold_20_44
02012df0 l     O .rodata	000000ea tahomabold_20_45
02012eda l     O .rodata	0000009c tahomabold_20_46
02012f76 l     O .rodata	00000138 tahomabold_20_47
020130ae l     O .rodata	00000152 tahomabold_20_48
02013200 l     O .rodata	00000152 tahomabold_20_49
02013352 l     O .rodata	00000152 tahomabold_20_50
020134a4 l     O .rodata	00000152 tahomabold_20_51
020135f6 l     O .rodata	00000152 tahomabold_20_52
02013748 l     O .rodata	00000152 tahomabold_20_53
0201389a l     O .rodata	00000152 tahomabold_20_54
020139ec l     O .rodata	00000152 tahomabold_20_55
02013b3e l     O .rodata	00000152 tahomabold_20_56
02013c90 l     O .rodata	00000152 tahomabold_20_57
02013de2 l     O .rodata	000000b6 tahomabold_20_58
02013e98 l     O .rodata	000000b6 tahomabold_20_59
02013f4e l     O .rodata	000001a0 tahomabold_20_60
020140ee l     O .rodata	000001a0 tahomabold_20_61
0201428e l     O .rodata	000001a0 tahomabold_20_62
0201442e l     O .rodata	0000011e tahomabold_20_63
0201454c l     O .rodata	000001d4 tahomabold_20_64
02014720 l     O .rodata	0000016c tahomabold_20_65
0201488c l     O .rodata	0000016c tahomabold_20_66
020149f8 l     O .rodata	00000152 tahomabold_20_67
02014b4a l     O .rodata	00000186 tahomabold_20_68
02014cd0 l     O .rodata	00000138 tahomabold_20_69
02014e08 l     O .rodata	00000138 tahomabold_20_70
02014f40 l     O .rodata	00000186 tahomabold_20_71
020150c6 l     O .rodata	00000186 tahomabold_20_72
0201524c l     O .rodata	00000104 tahomabold_20_73
02015350 l     O .rodata	00000104 tahomabold_20_74
02015454 l     O .rodata	0000016c tahomabold_20_75
020155c0 l     O .rodata	0000011e tahomabold_20_76
020156de l     O .rodata	000001d4 tahomabold_20_77
020158b2 l     O .rodata	00000186 tahomabold_20_78
02015a38 l     O .rodata	00000186 tahomabold_20_79
02015bbe l     O .rodata	00000152 tahomabold_20_80
02015d10 l     O .rodata	00000186 tahomabold_20_81
02015e96 l     O .rodata	00000186 tahomabold_20_82
0201601c l     O .rodata	00000152 tahomabold_20_83
0201616e l     O .rodata	00000138 tahomabold_20_84
020162a6 l     O .rodata	00000186 tahomabold_20_85
0201642c l     O .rodata	0000016c tahomabold_20_86
02016598 l     O .rodata	00000222 tahomabold_20_87
020167ba l     O .rodata	0000016c tahomabold_20_88
02016926 l     O .rodata	0000016c tahomabold_20_89
02016a92 l     O .rodata	00000138 tahomabold_20_90
02016bca l     O .rodata	000000ea tahomabold_20_91
02016cb4 l     O .rodata	00000138 tahomabold_20_92
02016dec l     O .rodata	000000ea tahomabold_20_93
02016ed6 l     O .rodata	000001a0 tahomabold_20_94
02017076 l     O .rodata	00000152 tahomabold_20_95
020171c8 l     O .rodata	0000011e tahomabold_20_96
020172e6 l     O .rodata	00000138 tahomabold_20_97
0201741e l     O .rodata	00000152 tahomabold_20_98
02017570 l     O .rodata	0000011e tahomabold_20_99
0201768e l     O .rodata	00000152 tahomabold_20_100
020177e0 l     O .rodata	00000138 tahomabold_20_101
02017918 l     O .rodata	000000d0 tahomabold_20_102
020179e8 l     O .rodata	00000152 tahomabold_20_103
02017b3a l     O .rodata	00000152 tahomabold_20_104
02017c8c l     O .rodata	0000009c tahomabold_20_105
02017d28 l     O .rodata	000000ea tahomabold_20_106
02017e12 l     O .rodata	00000138 tahomabold_20_107
02017f4a l     O .rodata	0000009c tahomabold_20_108
02017fe6 l     O .rodata	000001ee tahomabold_20_109
020181d4 l     O .rodata	00000152 tahomabold_20_110
02018326 l     O .rodata	00000138 tahomabold_20_111
0201845e l     O .rodata	00000152 tahomabold_20_112
020185b0 l     O .rodata	00000152 tahomabold_20_113
02018702 l     O .rodata	000000ea tahomabold_20_114
020187ec l     O .rodata	00000104 tahomabold_20_115
020188f0 l     O .rodata	000000d0 tahomabold_20_116
020189c0 l     O .rodata	00000152 tahomabold_20_117
02018b12 l     O .rodata	00000138 tahomabold_20_118
02018c4a l     O .rodata	000001d4 tahomabold_20_119
02018e1e l     O .rodata	00000138 tahomabold_20_120
02018f56 l     O .rodata	00000138 tahomabold_20_121
0201908e l     O .rodata	0000011e tahomabold_20_122
020191ac l     O .rodata	00000138 tahomabold_20_123
020192e4 l     O .rodata	00000152 tahomabold_20_124
02019436 l     O .rodata	00000138 tahomabold_20_125
0201956e l     O .rodata	000001a0 tahomabold_20_126
00000000 l    df *ABS*	00000000 tahomabold_32.c
0201970e l     O .rodata	000001b8 tahomabold_32_33
020198c6 l     O .rodata	00000280 tahomabold_32_34
02019b46 l     O .rodata	00000410 tahomabold_32_35
02019f56 l     O .rodata	00000320 tahomabold_32_36
0201a276 l     O .rodata	000005f0 tahomabold_32_37
0201a866 l     O .rodata	00000410 tahomabold_32_38
0201ac76 l     O .rodata	00000168 tahomabold_32_39
0201adde l     O .rodata	00000258 tahomabold_32_40
0201b036 l     O .rodata	00000258 tahomabold_32_41
0201b28e l     O .rodata	00000320 tahomabold_32_42
0201b5ae l     O .rodata	00000410 tahomabold_32_43
0201b9be l     O .rodata	00000190 tahomabold_32_44
0201bb4e l     O .rodata	00000230 tahomabold_32_45
0201bd7e l     O .rodata	00000190 tahomabold_32_46
0201bf0e l     O .rodata	000002d0 tahomabold_32_47
0201c1de l     O .rodata	00000320 tahomabold_32_48
0201c4fe l     O .rodata	00000320 tahomabold_32_49
0201c81e l     O .rodata	00000320 tahomabold_32_50
0201cb3e l     O .rodata	00000320 tahomabold_32_51
0201ce5e l     O .rodata	00000320 tahomabold_32_52
0201d17e l     O .rodata	00000320 tahomabold_32_53
0201d49e l     O .rodata	00000320 tahomabold_32_54
0201d7be l     O .rodata	00000320 tahomabold_32_55
0201dade l     O .rodata	00000320 tahomabold_32_56
0201ddfe l     O .rodata	00000320 tahomabold_32_57
0201e11e l     O .rodata	000001e0 tahomabold_32_58
0201e2fe l     O .rodata	000001e0 tahomabold_32_59
0201e4de l     O .rodata	00000410 tahomabold_32_60
0201e8ee l     O .rodata	00000410 tahomabold_32_61
0201ecfe l     O .rodata	00000410 tahomabold_32_62
0201f10e l     O .rodata	000002d0 tahomabold_32_63
0201f3de l     O .rodata	00000488 tahomabold_32_64
0201f866 l     O .rodata	00000370 tahomabold_32_65
0201fbd6 l     O .rodata	00000370 tahomabold_32_66
0201ff46 l     O .rodata	00000348 tahomabold_32_67
0202028e l     O .rodata	000003c0 tahomabold_32_68
0202064e l     O .rodata	00000320 tahomabold_32_69
0202096e l     O .rodata	000002f8 tahomabold_32_70
02020c66 l     O .rodata	000003c0 tahomabold_32_71
02021026 l     O .rodata	000003c0 tahomabold_32_72
020213e6 l     O .rodata	00000258 tahomabold_32_73
0202163e l     O .rodata	00000280 tahomabold_32_74
020218be l     O .rodata	00000398 tahomabold_32_75
02021c56 l     O .rodata	000002d0 tahomabold_32_76
02021f26 l     O .rodata	00000488 tahomabold_32_77
020223ae l     O .rodata	000003e8 tahomabold_32_78
02022796 l     O .rodata	000003e8 tahomabold_32_79
02022b7e l     O .rodata	00000348 tahomabold_32_80
02022ec6 l     O .rodata	000003e8 tahomabold_32_81
020232ae l     O .rodata	000003c0 tahomabold_32_82
0202366e l     O .rodata	00000320 tahomabold_32_83
0202398e l     O .rodata	00000320 tahomabold_32_84
02023cae l     O .rodata	000003c0 tahomabold_32_85
0202406e l     O .rodata	00000370 tahomabold_32_86
020243de l     O .rodata	00000528 tahomabold_32_87
02024906 l     O .rodata	00000370 tahomabold_32_88
02024c76 l     O .rodata	00000370 tahomabold_32_89
02024fe6 l     O .rodata	00000320 tahomabold_32_90
02025306 l     O .rodata	00000258 tahomabold_32_91
0202555e l     O .rodata	000002d0 tahomabold_32_92
0202582e l     O .rodata	00000258 tahomabold_32_93
02025a86 l     O .rodata	00000410 tahomabold_32_94
02025e96 l     O .rodata	00000320 tahomabold_32_95
020261b6 l     O .rodata	000002a8 tahomabold_32_96
0202645e l     O .rodata	000002f8 tahomabold_32_97
02026756 l     O .rodata	00000320 tahomabold_32_98
02026a76 l     O .rodata	000002a8 tahomabold_32_99
02026d1e l     O .rodata	00000320 tahomabold_32_100
0202703e l     O .rodata	000002f8 tahomabold_32_101
02027336 l     O .rodata	00000230 tahomabold_32_102
02027566 l     O .rodata	00000320 tahomabold_32_103
02027886 l     O .rodata	00000320 tahomabold_32_104
02027ba6 l     O .rodata	00000190 tahomabold_32_105
02027d36 l     O .rodata	00000208 tahomabold_32_106
02027f3e l     O .rodata	000002f8 tahomabold_32_107
02028236 l     O .rodata	00000190 tahomabold_32_108
020283c6 l     O .rodata	000004d8 tahomabold_32_109
0202889e l     O .rodata	00000320 tahomabold_32_110
02028bbe l     O .rodata	00000320 tahomabold_32_111
02028ede l     O .rodata	00000320 tahomabold_32_112
020291fe l     O .rodata	00000320 tahomabold_32_113
0202951e l     O .rodata	00000230 tahomabold_32_114
0202974e l     O .rodata	00000280 tahomabold_32_115
020299ce l     O .rodata	00000208 tahomabold_32_116
02029bd6 l     O .rodata	00000320 tahomabold_32_117
02029ef6 l     O .rodata	000002f8 tahomabold_32_118
0202a1ee l     O .rodata	00000460 tahomabold_32_119
0202a64e l     O .rodata	000002f8 tahomabold_32_120
0202a946 l     O .rodata	000002d0 tahomabold_32_121
0202ac16 l     O .rodata	000002a8 tahomabold_32_122
0202aebe l     O .rodata	00000320 tahomabold_32_123
0202b1de l     O .rodata	00000320 tahomabold_32_124
0202b4fe l     O .rodata	00000320 tahomabold_32_125
0202b81e l     O .rodata	00000410 tahomabold_32_126
00000000 l    df *ABS*	00000000 ILI9341.c
00000000 l    df *ABS*	00000000 geometry.c
00000000 l    df *ABS*	00000000 simple_graphics.c
00000000 l    df *ABS*	00000000 simple_text.c
00000000 l    df *ABS*	00000000 main.c
00000000 l    df *ABS*	00000000 touch_spi.c
00000000 l    df *ABS*	00000000 w_sqrt.c
00000000 l    df *ABS*	00000000 e_sqrt.c
00000000 l    df *ABS*	00000000 s_fpclassify.c
00000000 l    df *ABS*	00000000 s_lib_ver.c
00000000 l    df *ABS*	00000000 s_matherr.c
00000000 l    df *ABS*	00000000 lib2-divmod.c
0200a464 l     F .text	0000006c udivmodsi4
00000000 l    df *ABS*	00000000 adddf3.c
00000000 l    df *ABS*	00000000 divdf3.c
00000000 l    df *ABS*	00000000 ledf2.c
00000000 l    df *ABS*	00000000 muldf3.c
00000000 l    df *ABS*	00000000 subdf3.c
00000000 l    df *ABS*	00000000 fixdfsi.c
00000000 l    df *ABS*	00000000 floatsidf.c
00000000 l    df *ABS*	00000000 libgcc2.c
00000000 l    df *ABS*	00000000 libgcc2.c
00000000 l    df *ABS*	00000000 errno.c
00000000 l    df *ABS*	00000000 impure.c
0202d9ec l     O .rwdata	000000e0 impure_data
00000000 l    df *ABS*	00000000 malloc.c
00000000 l    df *ABS*	00000000 mallocr.c
00000000 l    df *ABS*	00000000 memcpy.c
00000000 l    df *ABS*	00000000 memset.c
00000000 l    df *ABS*	00000000 printf.c
00000000 l    df *ABS*	00000000 puts.c
00000000 l    df *ABS*	00000000 sbrkr.c
00000000 l    df *ABS*	00000000 sprintf.c
00000000 l    df *ABS*	00000000 strcpy.c
00000000 l    df *ABS*	00000000 strlen.c
00000000 l    df *ABS*	00000000 vfprintf.c
0200d31c l     F .text	0000006c print_repeat
00000000 l    df *ABS*	00000000 vfprintf.c
0200d8f0 l     F .text	0000006c print_repeat
00000000 l    df *ABS*	00000000 mallocr.c
00000000 l    df *ABS*	00000000 fvwrite_small_dev.c
00000000 l    df *ABS*	00000000 fvwrite_small_str.c
00000000 l    df *ABS*	00000000 int_errno.c
00000000 l    df *ABS*	00000000 memmove.c
00000000 l    df *ABS*	00000000 writer.c
00000000 l    df *ABS*	00000000 alt_alarm_start.c
00000000 l    df *ABS*	00000000 alt_iic.c
00000000 l    df *ABS*	00000000 alt_iic_isr_register.c
00000000 l    df *ABS*	00000000 alt_irq_vars.c
00000000 l    df *ABS*	00000000 alt_load.c
0200e880 l     F .text	00000064 alt_load_section
00000000 l    df *ABS*	00000000 alt_main.c
00000000 l    df *ABS*	00000000 alt_malloc_lock.c
00000000 l    df *ABS*	00000000 alt_sbrk.c
0202f1c4 l     O .rwdata	00000004 heap_end
00000000 l    df *ABS*	00000000 alt_tick.c
00000000 l    df *ABS*	00000000 alt_usleep.c
00000000 l    df *ABS*	00000000 alt_write.c
0200ec98 l     F .text	00000050 alt_get_errno
00000000 l    df *ABS*	00000000 alt_sys_init.c
0200ede0 l     F .text	00000038 alt_dev_reg
0202ded4 l     O .rwdata	000000cc epcs_flash_controller_0
0202dfa0 l     O .rwdata	00001060 JTAG_UART
00000000 l    df *ABS*	00000000 altera_avalon_epcs_flash_controller.c
0200eeb8 l     F .text	00000038 alt_flash_device_register
0200ef44 l     F .text	000003f8 alt_epcs_flash_query
0200f33c l     F .text	000000e8 alt_epcs_flash_memcmp
0200f710 l     F .text	00000094 alt_epcs_test_address
00000000 l    df *ABS*	00000000 altera_avalon_jtag_uart_fd.c
00000000 l    df *ABS*	00000000 altera_avalon_jtag_uart_init.c
0200fbd8 l     F .text	00000204 altera_avalon_jtag_uart_irq
0200fddc l     F .text	000000a8 altera_avalon_jtag_uart_timeout
00000000 l    df *ABS*	00000000 altera_avalon_jtag_uart_ioctl.c
00000000 l    df *ABS*	00000000 altera_avalon_jtag_uart_read.c
00000000 l    df *ABS*	00000000 altera_avalon_jtag_uart_write.c
00000000 l    df *ABS*	00000000 altera_avalon_spi.c
00000000 l    df *ABS*	00000000 altera_avalon_timer_sc.c
02010600 l     F .text	00000074 alt_avalon_timer_sc_irq
00000000 l    df *ABS*	00000000 epcs_commands.c
02010758 l     F .text	00000038 epcs_test_wip
02010790 l     F .text	00000038 epcs_await_wip_released
00000000 l    df *ABS*	00000000 alt_busy_sleep.c
00000000 l    df *ABS*	00000000 alt_close.c
02010e80 l     F .text	00000050 alt_get_errno
00000000 l    df *ABS*	00000000 alt_dcache_flush_all.c
00000000 l    df *ABS*	00000000 alt_dev.c
02010fe4 l     F .text	0000002c alt_dev_null_write
00000000 l    df *ABS*	00000000 alt_dev_llist_insert.c
02011010 l     F .text	00000050 alt_get_errno
00000000 l    df *ABS*	00000000 alt_do_ctors.c
00000000 l    df *ABS*	00000000 alt_do_dtors.c
00000000 l    df *ABS*	00000000 alt_errno.c
00000000 l    df *ABS*	00000000 alt_flash_dev.c
00000000 l    df *ABS*	00000000 alt_icache_flush_all.c
00000000 l    df *ABS*	00000000 alt_io_redirect.c
020112a4 l     F .text	000000c0 alt_open_fd
00000000 l    df *ABS*	00000000 alt_open.c
020113dc l     F .text	00000050 alt_get_errno
0201142c l     F .text	000000cc alt_file_locked
00000000 l    df *ABS*	00000000 alt_release_fd.c
00000000 l    df *ABS*	00000000 altera_nios2_gen2_irq.c
00000000 l    df *ABS*	00000000 alt_find_dev.c
00000000 l    df *ABS*	00000000 alt_find_file.c
00000000 l    df *ABS*	00000000 alt_get_fd.c
00000000 l    df *ABS*	00000000 alt_icache_flush.c
00000000 l    df *ABS*	00000000 atexit.c
00000000 l    df *ABS*	00000000 exit.c
00000000 l    df *ABS*	00000000 memcmp.c
00000000 l    df *ABS*	00000000 __atexit.c
00000000 l    df *ABS*	00000000 __call_atexit.c
00000000 l    df *ABS*	00000000 alt_exit.c
020070dc g     F .text	00000078 vid_draw_horiz_line
0200f684 g     F .text	0000008c alt_epcs_flash_get_info
02005790 g     F .text	0000006c LCD_DrawPoint
0200e964 g     F .text	00000078 alt_main
0200d2d4 g     F .text	0000002c strcpy
0200d114 g     F .text	00000080 _puts_r
020325e8 g     O .bss	00000100 alt_irq
02007240 g     F .text	0000006c vid_color_convert16_24
0200a024 g     F .text	00000130 sqrt
0202f1f0 g       *ABS*	00000000 __flash_rwdata_start
04004000 g       *ABS*	00000000 __alt_mem_pic_mem
02009a2c g     F .text	00000160 touch_enable_penirq
020326e8 g       *ABS*	00000000 __alt_heap_start
02005e68 g     F .text	00000138 LCD_Pattern_Horizon
0200d0c8 g     F .text	0000004c printf
02000a68 g     F .text	0000011c GUI_ROBINSUN_ShowWelcome
0200e9fc g     F .text	00000020 __malloc_unlock
02006d34 g     F .text	00000148 vid_draw_box
020064a8 g     F .text	00000044 PtCopy
02008b40 g     F .text	0000025c vid_print_string_alpha
02000b84 g     F .text	00000150 GUI_ROBINSUN_Init
0200e3b8 g     F .text	00000060 memmove
0202d5d4 g     O .rwdata	00000415 cour10_font_array
02006b10 g     F .text	0000011c vid_move_block
020116b0 g     F .text	00000020 altera_nios2_gen2_irq_init
0200c988 g     F .text	00000010 __errno
020107c8 g     F .text	000000f8 epcs_sector_erase
02009448 g     F .text	000000e0 vid_string_pixel_length_alpha
0200e31c g     F .text	0000009c __sfvwrite_small_str
04007800 g     F .entry	0000001c __reset
020060bc g     F .text	0000003c Clr_BUFFER_FLAG
02000020 g       *ABS*	00000000 __flash_exceptions_start
02005710 g     F .text	00000080 LCD_Clear
020325a4 g     O .bss	00000004 errno
020325b0 g     O .bss	00000004 alt_argv
020371a8 g       *ABS*	00000000 _gp
0200ec68 g     F .text	00000030 usleep
0200028c g     F .text	000000b0 VPG_ColorPanel
020009d4 g     F .text	00000094 GUI_ROBINSUN_CheckButton
02008d9c g     F .text	00000148 seperate_color_channels
0202f028 g     O .rwdata	00000180 alt_fd_list
02010a04 g     F .text	00000068 epcs_write_status_register
020116d0 g     F .text	00000090 alt_find_dev
0200d044 g     F .text	00000028 memcpy
0200c854 g     F .text	000000d0 .hidden __floatsidf
02007a30 g     F .text	00000738 vid_round_corner_points
02009760 g     F .text	00000068 Touch_UnInit
02011364 g     F .text	00000078 alt_io_redirect
0200b6f8 g     F .text	000000e0 .hidden __ltdf2
02011d2c g       *ABS*	00000000 __DTOR_END__
0200d194 g     F .text	00000014 puts
020064ec g     F .text	0000005c vid_clean_screen
0200f818 g     F .text	00000100 alt_epcs_flash_write_block
0200a3e8 g     F .text	00000074 __fpclassifyd
0200664c g     F .text	00000154 vid_scroll_string_init
0200ffd8 g     F .text	0000020c altera_avalon_jtag_uart_read
0200c998 g     F .text	00000014 malloc
0200d08c g     F .text	0000003c _printf_r
020095ec g     F .text	00000174 Touch_Init
0200a580 g     F .text	00000008 .hidden __udivsi3
02011928 g     F .text	0000008c alt_icache_flush
020325a0 g     O .bss	00000004 __malloc_top_pad
020014f8 g     F .text	000007c0 GUI_ROBINSUN_CompetitionChoice1_Draw
0200d1a8 g     F .text	00000050 _sbrk_r
020099bc g     F .text	00000030 touch_empty_fifo
020063c0 g     F .text	00000034 RectHeight
0202f1e0 g     O .rwdata	00000004 alt_max_fd
02000268 g     F .text	00000024 VPG_XLine
0203259c g     O .bss	00000004 __malloc_max_sbrked_mem
0202ca14 g     O .rwdata	00000bc0 tahomabold_32
0200a590 g     F .text	0000089c .hidden __adddf3
0200f7a4 g     F .text	00000074 alt_epcs_flash_erase_block
0200617c g     F .text	00000040 PtSet
0202f1ac g     O .rwdata	00000004 __fdlib_version
0202f1b0 g     O .rwdata	00000004 _global_impure_ptr
02007558 g     F .text	0000013c vid_draw_circle
02010ccc g     F .text	0000005c epcs_exit_4_bytes_mode
020326e8 g       *ABS*	00000000 __bss_end
0200e790 g     F .text	000000f0 alt_iic_isr_register
0200eb64 g     F .text	00000104 alt_tick
020062a0 g     F .text	00000088 RectOffset
020072f0 g     F .text	00000268 vid_draw_sloped_line
02000438 g     F .text	000000e4 VPG_VGrid
0200e744 g     F .text	0000004c alt_ic_irq_enabled
02007694 g     F .text	0000039c vid_draw_round_corner_box
0200eacc g     F .text	00000098 alt_alarm_stop
020325a8 g     O .bss	00000004 alt_irq_active
02005fa0 g     F .text	000000e0 LCD_Pattern_Vertical
020000ec g     F .exceptions	000000d0 alt_irq_handler
0202f000 g     O .rwdata	00000028 alt_dev_null
02010fa0 g     F .text	00000044 alt_dcache_flush_all
02009ed4 g     F .text	00000078 touch_alarm_callback
0200c7cc g     F .text	00000088 .hidden __fixdfsi
020099ec g     F .text	00000040 touch_is_pen_pressed
0202f1f0 g       *ABS*	00000000 __ram_rwdata_end
020085b4 g     F .text	00000378 vid_draw_triangle
0202f1d8 g     O .rwdata	00000008 alt_dev_list
0200ece8 g     F .text	000000f8 write
02008a10 g     F .text	00000130 CropImage16
0202be48 g       *ABS*	00000000 __ram_rodata_end
02000000 g       *ABS*	00000000 __alt_mem_SDRAM
0200b6f8 g     F .text	000000e0 .hidden __ledf2
020067a0 g     F .text	00000370 vid_scroll_string
02009bbc g     F .text	00000318 touch_get_xy
0200a588 g     F .text	00000008 .hidden __umodsi3
02009948 g     F .text	00000074 touch_isr
0200638c g     F .text	00000034 RectWidth
02010b88 g     F .text	00000068 epcs_read_electronic_signature
0200892c g     F .text	000000e4 CopyImage16
020326e8 g       *ABS*	00000000 end
0200092c g     F .text	000000a8 GUI_VPG
0200fb14 g     F .text	000000c4 altera_avalon_jtag_uart_init
02006e7c g     F .text	000000f0 vid_print_char
02011d2c g       *ABS*	00000000 __CTOR_LIST__
04000000 g       *ABS*	00000000 __alt_stack_pointer
02010674 g     F .text	00000088 alt_avalon_timer_sc_init
0200c924 g     F .text	00000064 .hidden __clzsi2
02000cd4 g     F .text	0000058c GUI_ROBINSUN_Draw
020101e4 g     F .text	00000218 altera_avalon_jtag_uart_write
020081bc g     F .text	00000054 min3
020007b0 g     F .text	0000017c GUI_ShowPAT
02006548 g     F .text	000000c4 vid_draw_line
0200d95c g     F .text	00000544 ___vfprintf_internal_r
0200d1f8 g     F .text	00000064 _sprintf_r
0200dfe8 g     F .text	00000288 _free_r
0202be48 g     O .rwdata	0000000c color_team
0200565c g     F .text	000000b4 LCD_SetCursor
02011b5c g     F .text	0000019c __call_exitprocs
0200033c g     F .text	000000fc VPG_Grid
0202f1b8 g     O .rwdata	00000004 __malloc_sbrk_base
020001bc g     F .text	0000004c _start
04000000 g       *ABS*	00000000 __alt_mem_background_mem
020325b8 g     O .bss	00000004 _alt_tick_rate
02009b8c g     F .text	00000030 touch_clear_input
020103fc g     F .text	00000204 alt_avalon_spi_command
020325bc g     O .bss	00000004 _alt_nticks
02008274 g     F .text	00000100 vid_put_pixel_in_span_map
02000600 g     F .text	000001b0 VPG_ColorBar
0200ee4c g     F .text	0000006c alt_sys_init
02011a18 g     F .text	00000144 __register_exitproc
02007048 g     F .text	00000094 vid_paint_block
0200fe84 g     F .text	00000068 altera_avalon_jtag_uart_close
0202be48 g       *ABS*	00000000 __ram_rwdata_start
02011d2c g       *ABS*	00000000 __ram_rodata_start
020325c0 g     O .bss	00000028 __malloc_current_mallinfo
0200051c g     F .text	000000e4 VPG_HGrid
020106fc g     F .text	0000005c epcs_read_status_register
020071a0 g     F .text	000000a0 vid_color_convert24_16
0200f9b0 g     F .text	00000060 altera_avalon_jtag_uart_read_fd
02011874 g     F .text	000000b4 alt_get_fd
02010d28 g     F .text	00000158 alt_busy_sleep
02009048 g     F .text	0000024c alpha_blending
02010bf0 g     F .text	00000080 epcs_read_device_id
020119e8 g     F .text	00000030 memcmp
0200fa70 g     F .text	00000050 altera_avalon_jtag_uart_close_fd
020326e8 g       *ABS*	00000000 __alt_stack_base
0200fac0 g     F .text	00000054 altera_avalon_jtag_uart_ioctl_fd
04007800 g       *ABS*	00000000 __alt_mem_epcs_flash_controller_0
0200ae2c g     F .text	000008cc .hidden __divdf3
0202dacc g     O .rwdata	00000408 __malloc_av_
0200b7d8 g     F .text	00000724 .hidden __muldf3
02011760 g     F .text	00000114 alt_find_file
02011060 g     F .text	000000a4 alt_dev_llist_insert
0200e9dc g     F .text	00000020 __malloc_lock
020072ac g     F .text	00000044 vid_copy_line_to_frame_buffer
0200ea1c g     F .text	000000b0 sbrk
0200d388 g     F .text	00000544 ___svfprintf_internal_r
0202f1e8 g     O .rwdata	00000008 alt_flash_dev_list
0200e270 g     F .text	000000ac __sfvwrite_small_dev
02032598 g       *ABS*	00000000 __bss_start
020057fc g     F .text	0000066c LCD_Init
02002720 g     F .text	000008bc GUI_ROBINSUN_CompetitionSummary_Draw
0200d06c g     F .text	00000020 memset
02009528 g     F .text	000000c4 main
020325b4 g     O .bss	00000004 alt_envp
02032598 g     O .bss	00000004 __malloc_max_total_mem
0200fa10 g     F .text	00000060 altera_avalon_jtag_uart_write_fd
0202be54 g     O .rwdata	00000bc0 tahomabold_20
0200a45c g     F .text	00000008 matherr
04000000 g       *ABS*	00000000 __alt_heap_limit
02009294 g     F .text	000001b4 vid_print_char_alpha
0202f1a8 g     O .rwdata	00000004 cour10_font
0200c9c0 g     F .text	00000684 _malloc_r
02001260 g     F .text	00000298 GUI_ROBINSUN_CompetitionChoice1_Init
0202f1e4 g     O .rwdata	00000004 alt_errno
020063f4 g     F .text	000000b4 PtDistance
02002fdc g     F .text	00002634 GUI_ROBINSUN
020061bc g     F .text	0000005c RectSet
02005610 g     F .text	0000004c Delay_Ms
0200a4d0 g     F .text	00000054 .hidden __divsi3
02006328 g     F .text	00000064 RectCopy
0200dec4 g     F .text	00000124 _malloc_trim_r
02011d2c g       *ABS*	00000000 __CTOR_END__
0200f424 g     F .text	00000260 alt_epcs_flash_write
02009004 g     F .text	00000044 read_from_frame
02011d2c g       *ABS*	00000000 __flash_rodata_start
02011d2c g       *ABS*	00000000 __DTOR_LIST__
02007008 g     F .text	00000040 vid_get_pixel
0200ee18 g     F .text	00000034 alt_irq_init
02011650 g     F .text	00000060 alt_release_fd
02001cb8 g     F .text	00000298 GUI_ROBINSUN_CompetitionChoice2_Init
0200d25c g     F .text	00000078 sprintf
0202bcf5 g     O .rodata	00000100 .hidden __clz_tab
020119b4 g     F .text	00000014 atexit
0200e418 g     F .text	00000058 _write_r
020060f8 g     F .text	00000084 IsPtInRect
0202f1b4 g     O .rwdata	00000004 _impure_ptr
020325ac g     O .bss	00000004 alt_argc
02011160 g     F .text	0000005c _do_dtors
0200241c g     F .text	00000304 GUI_ROBINSUN_CompetitionSummary_Init
02000020 g       .exceptions	00000000 alt_irq_entry
02009800 g     F .text	00000148 Touch_GetXY
0202f1d0 g     O .rwdata	00000008 alt_fs_list
0200d8cc g     F .text	00000024 __vfprintf_internal_unused
02006c2c g     F .text	00000108 vid_print_string
02000020 g       *ABS*	00000000 __ram_exceptions_start
020108c0 g     F .text	000000f4 epcs_read_buffer
0200a154 g     F .text	00000294 __ieee754_sqrt
0200eef0 g     F .text	00000054 alt_epcs_flash_init
0200e5b0 g     F .text	00000050 alt_ic_isr_register
0202f1f0 g       *ABS*	00000000 _edata
020326e8 g       *ABS*	00000000 _end
020111bc g     F .text	00000068 alt_flash_open_dev
02000208 g     F .text	00000060 ShowInfo
02008168 g     F .text	00000054 max3
020001bc g       *ABS*	00000000 __ram_exceptions_end
0200feec g     F .text	000000ec altera_avalon_jtag_uart_ioctl
0200e6a0 g     F .text	000000a4 alt_ic_irq_disable
02010c70 g     F .text	0000005c epcs_enter_4_bytes_mode
02007154 g     F .text	0000004c vid_merge_colors
0202f1bc g     O .rwdata	00000004 __malloc_trim_threshold
020119c8 g     F .text	00000020 exit
02011224 g     F .text	00000050 alt_flash_close_dev
0200a524 g     F .text	0000005c .hidden __modsi3
04000000 g       *ABS*	00000000 __alt_data_end
02000020 g     F .exceptions	00000000 alt_exception
02001f50 g     F .text	000004cc GUI_ROBINSUN_CompetitionChoice2_Draw
02009f4c g     F .text	000000d8 touch_xy_transform
02006f6c g     F .text	0000009c vid_set_pixel
02006080 g     F .text	0000003c Set_BUFFER_FLAG
02011cf8 g     F .text	00000034 _exit
0200e470 g     F .text	00000140 alt_alarm_start
0200660c g     F .text	00000040 vid_scroll_string_quit
0200d300 g     F .text	0000001c strlen
020109b4 g     F .text	00000050 epcs_write_enable
020114f8 g     F .text	00000158 open
02006218 g     F .text	00000088 RectInflate
02011274 g     F .text	00000030 alt_icache_flush_all
0202f1c0 g     O .rwdata	00000004 alt_priority_mask
0200e600 g     F .text	000000a0 alt_ic_irq_enable
0200dea0 g     F .text	00000024 __vfprintf_internal
0200befc g     F .text	000008d0 .hidden __subdf3
02008374 g     F .text	00000240 vid_bres_scan_edges
0200f918 g     F .text	00000098 alt_epcs_flash_read
0202f1c8 g     O .rwdata	00000008 alt_alarm_list
02008210 g     F .text	00000064 max_diff3
02011104 g     F .text	0000005c _do_ctors
02008ee4 g     F .text	00000120 merge_color_channels
02010ed0 g     F .text	000000d0 close
0200e8e4 g     F .text	00000080 alt_load
020097c8 g     F .text	00000038 Touch_EmptyFifo
0200c9ac g     F .text	00000014 free
02010a6c g     F .text	0000011c epcs_write_buffer



Disassembly of section .entry:

04007800 <__reset>:
#if NIOS2_ICACHE_SIZE > 0 && defined(ALT_ALLOW_CODE_AT_RESET) && (!defined(ALT_SIM_OPTIMIZE) || defined(NIOS2_ECC_PRESENT))
    /* Assume the instruction cache size is always a power of two. */
#if NIOS2_ICACHE_SIZE > 0x8000
    movhi r2, %hi(NIOS2_ICACHE_SIZE)
#else
    movui r2, NIOS2_ICACHE_SIZE
 4007800:	00900014 	movui	r2,16384
#endif

0:
    initi r2
 4007804:	1001483a 	initi	r2
    addi r2, r2, -NIOS2_ICACHE_LINE_SIZE
 4007808:	10bff804 	addi	r2,r2,-32
    bgt r2, zero, 0b
 400780c:	00bffd16 	blt	zero,r2,4007804 <__reset+0x4>
 * Jump to the _start entry point in the .text section if reset code
 * is allowed or if optimizing for RTL simulation.
 */
#if defined(ALT_ALLOW_CODE_AT_RESET) || defined(ALT_SIM_OPTIMIZE)
    /* Jump to the _start entry point in the .text section. */
    movhi r1, %hi(_start)
 4007810:	00408034 	movhi	at,512
    ori r1, r1, %lo(_start)
 4007814:	08406f14 	ori	at,at,444
    jmp r1
 4007818:	0800683a 	jmp	at
 400781c:	00000000 	call	0 <__alt_mem_SDRAM-0x2000000>

Disassembly of section .exceptions:

02000020 <alt_exception>:

#else /* ALT_EXCEPTION_STACK disabled */
        /* 
         * Reserve space on normal stack for registers about to be pushed.
         */
        addi  sp, sp, -76
 2000020:	deffed04 	addi	sp,sp,-76
         * documentation for details).
         *
         * Leave a gap in the stack frame at 4(sp) for the muldiv handler to
         * store zero into.
         */
        stw   ra,  0(sp)
 2000024:	dfc00015 	stw	ra,0(sp)
        stw   r1,   8(sp)
 2000028:	d8400215 	stw	at,8(sp)
        stw   r2,  12(sp)
 200002c:	d8800315 	stw	r2,12(sp)
        stw   r3,  16(sp)
 2000030:	d8c00415 	stw	r3,16(sp)
        stw   r4,  20(sp)
 2000034:	d9000515 	stw	r4,20(sp)
        stw   r5,  24(sp)
 2000038:	d9400615 	stw	r5,24(sp)
        stw   r6,  28(sp)
 200003c:	d9800715 	stw	r6,28(sp)
        stw   r7,  32(sp)
 2000040:	d9c00815 	stw	r7,32(sp)
        rdctl r5, estatus   /* Read early to avoid usage stall */
 2000044:	000b307a 	rdctl	r5,estatus
        stw   r8,  36(sp)
 2000048:	da000915 	stw	r8,36(sp)
        stw   r9,  40(sp)
 200004c:	da400a15 	stw	r9,40(sp)
        stw   r10, 44(sp)
 2000050:	da800b15 	stw	r10,44(sp)
        stw   r11, 48(sp)
 2000054:	dac00c15 	stw	r11,48(sp)
        stw   r12, 52(sp)
 2000058:	db000d15 	stw	r12,52(sp)
        stw   r13, 56(sp)
 200005c:	db400e15 	stw	r13,56(sp)
        stw   r14, 60(sp)
 2000060:	db800f15 	stw	r14,60(sp)
        stw   r15, 64(sp)
 2000064:	dbc01015 	stw	r15,64(sp)
        /*
         * ea-4 contains the address of the instruction being executed
         * when the exception occured. For interrupt exceptions, we will
         * will be re-issue the isntruction. Store it in 72(sp)
         */
        stw   r5,  68(sp)  /* estatus */
 2000068:	d9401115 	stw	r5,68(sp)
        addi  r15, ea, -4  /* instruction that caused exception */
 200006c:	ebffff04 	addi	r15,ea,-4
        stw   r15,  72(sp)
 2000070:	dbc01215 	stw	r15,72(sp)
#else
        /*
         * Test to see if the exception was a software exception or caused 
         * by an external interrupt, and vector accordingly.
         */
        rdctl r4, ipending
 2000074:	0009313a 	rdctl	r4,ipending
        andi  r2, r5, 1
 2000078:	2880004c 	andi	r2,r5,1
        beq   r2, zero, .Lnot_irq
 200007c:	10000326 	beq	r2,zero,200008c <alt_exception+0x6c>
        beq   r4, zero, .Lnot_irq
 2000080:	20000226 	beq	r4,zero,200008c <alt_exception+0x6c>
        /*
         * Now that all necessary registers have been preserved, call 
         * alt_irq_handler() to process the interrupts.
         */

        call alt_irq_handler
 2000084:	20000ec0 	call	20000ec <alt_irq_handler>

        .section .exceptions.irqreturn, "xa"

        br    .Lexception_exit
 2000088:	00000306 	br	2000098 <alt_exception_unknown+0x4>
         * upon completion, so we write ea (address of instruction *after*
         * the one where the exception occured) into 72(sp). The actual
         * instruction that caused the exception is written in r2, which these
         * handlers will utilize.
         */
        stw   ea,  72(sp)  /* Don't re-issue */
 200008c:	df401215 	stw	ea,72(sp)
        ldhu.n  r2, 0(r4)
        ldhu.n  r3, 2(r4)
        slli.n  r3, r3, 16
        or.n    r2, r2, r3 /* Instruction that caused exception */
#else
        ldw   r2, -4(ea)   /* Instruction that caused exception */
 2000090:	e8bfff17 	ldw	r2,-4(ea)

02000094 <alt_exception_unknown>:
#ifdef NIOS2_HAS_DEBUG_STUB
       /*
        *  Either tell the user now (if there is a debugger attached) or go into
        *  the debug monitor which will loop until a debugger is attached.
        */
        break
 2000094:	003da03a 	break	0
        /* 
         * Restore the saved registers, so that all general purpose registers 
         * have been restored to their state at the time the interrupt occured.
         */

        ldw   r5,  68(sp)
 2000098:	d9401117 	ldw	r5,68(sp)
        ldw   ea,  72(sp)  /* This becomes the PC once eret is executed */
 200009c:	df401217 	ldw	ea,72(sp)
        ldw   ra,   0(sp)
 20000a0:	dfc00017 	ldw	ra,0(sp)

        wrctl estatus, r5
 20000a4:	2801707a 	wrctl	estatus,r5

        ldw   r1,   8(sp)
 20000a8:	d8400217 	ldw	at,8(sp)
        ldw   r2,  12(sp)
 20000ac:	d8800317 	ldw	r2,12(sp)
        ldw   r3,  16(sp)
 20000b0:	d8c00417 	ldw	r3,16(sp)
        ldw   r4,  20(sp)
 20000b4:	d9000517 	ldw	r4,20(sp)
        ldw   r5,  24(sp)
 20000b8:	d9400617 	ldw	r5,24(sp)
        ldw   r6,  28(sp)
 20000bc:	d9800717 	ldw	r6,28(sp)
        ldw   r7,  32(sp)
 20000c0:	d9c00817 	ldw	r7,32(sp)

#if defined(ALT_EXCEPTION_STACK) && defined(ALT_STACK_CHECK)
        ldw   et, %gprel(alt_exception_old_stack_limit)(gp)
#endif

        ldw   r8,  36(sp)
 20000c4:	da000917 	ldw	r8,36(sp)
        ldw   r9,  40(sp)
 20000c8:	da400a17 	ldw	r9,40(sp)
        ldw   r10, 44(sp)
 20000cc:	da800b17 	ldw	r10,44(sp)
        ldw   r11, 48(sp)
 20000d0:	dac00c17 	ldw	r11,48(sp)
        ldw   r12, 52(sp)
 20000d4:	db000d17 	ldw	r12,52(sp)
        ldw   r13, 56(sp)
 20000d8:	db400e17 	ldw	r13,56(sp)
        ldw   r14, 60(sp)
 20000dc:	db800f17 	ldw	r14,60(sp)
        ldw   r15, 64(sp)
 20000e0:	dbc01017 	ldw	r15,64(sp)
        stw   et, %gprel(alt_stack_limit_value)(gp)
        stw   zero, %gprel(alt_exception_old_stack_limit)(gp)
#endif /* ALT_STACK_CHECK */
        ldw   sp,  76(sp)
#else /* ALT_EXCEPTION_STACK disabled */
        addi  sp, sp, 76
 20000e4:	dec01304 	addi	sp,sp,76

        /*
         * Return to the interrupted instruction.
         */

        eret
 20000e8:	ef80083a 	eret

020000ec <alt_irq_handler>:
 * instruction is present if the macro ALT_CI_INTERRUPT_VECTOR defined.
 */

void alt_irq_handler (void) __attribute__ ((section (".exceptions")));
void alt_irq_handler (void)
{
 20000ec:	defff904 	addi	sp,sp,-28
 20000f0:	dfc00615 	stw	ra,24(sp)
 20000f4:	df000515 	stw	fp,20(sp)
 20000f8:	df000504 	addi	fp,sp,20
  
  /*
   * Notify the operating system that we are at interrupt level.
   */ 
  
  ALT_OS_INT_ENTER();
 20000fc:	0001883a 	nop
#ifndef NIOS2_EIC_PRESENT
static ALT_INLINE alt_u32 ALT_ALWAYS_INLINE alt_irq_pending (void)
{
  alt_u32 active;

  NIOS2_READ_IPENDING (active);
 2000100:	0005313a 	rdctl	r2,ipending
 2000104:	e0bffe15 	stw	r2,-8(fp)

  return active;
 2000108:	e0bffe17 	ldw	r2,-8(fp)
   * Consider the case where the high priority interupt is asserted during
   * the interrupt entry sequence for a lower priority interrupt to see why
   * this is the case.
   */

  active = alt_irq_pending ();
 200010c:	e0bffb15 	stw	r2,-20(fp)

  do
  {
    i = 0;
 2000110:	e03ffd15 	stw	zero,-12(fp)
    mask = 1;
 2000114:	00800044 	movi	r2,1
 2000118:	e0bffc15 	stw	r2,-16(fp)
     * called to clear the interrupt condition.
     */

    do
    {
      if (active & mask)
 200011c:	e0fffb17 	ldw	r3,-20(fp)
 2000120:	e0bffc17 	ldw	r2,-16(fp)
 2000124:	1884703a 	and	r2,r3,r2
 2000128:	10001426 	beq	r2,zero,200017c <alt_irq_handler+0x90>
      { 
#ifdef ALT_ENHANCED_INTERRUPT_API_PRESENT
        alt_irq[i].handler(alt_irq[i].context); 
 200012c:	008080f4 	movhi	r2,515
 2000130:	10897a04 	addi	r2,r2,9704
 2000134:	e0fffd17 	ldw	r3,-12(fp)
 2000138:	180690fa 	slli	r3,r3,3
 200013c:	10c5883a 	add	r2,r2,r3
 2000140:	10c00017 	ldw	r3,0(r2)
 2000144:	008080f4 	movhi	r2,515
 2000148:	10897a04 	addi	r2,r2,9704
 200014c:	e13ffd17 	ldw	r4,-12(fp)
 2000150:	200890fa 	slli	r4,r4,3
 2000154:	1105883a 	add	r2,r2,r4
 2000158:	10800104 	addi	r2,r2,4
 200015c:	10800017 	ldw	r2,0(r2)
 2000160:	1009883a 	mov	r4,r2
 2000164:	183ee83a 	callr	r3
#else
        alt_irq[i].handler(alt_irq[i].context, i); 
#endif
        break;
 2000168:	0001883a 	nop
#ifndef NIOS2_EIC_PRESENT
static ALT_INLINE alt_u32 ALT_ALWAYS_INLINE alt_irq_pending (void)
{
  alt_u32 active;

  NIOS2_READ_IPENDING (active);
 200016c:	0005313a 	rdctl	r2,ipending
 2000170:	e0bfff15 	stw	r2,-4(fp)

  return active;
 2000174:	e0bfff17 	ldw	r2,-4(fp)
 2000178:	00000706 	br	2000198 <alt_irq_handler+0xac>
      }
      mask <<= 1;
 200017c:	e0bffc17 	ldw	r2,-16(fp)
 2000180:	1085883a 	add	r2,r2,r2
 2000184:	e0bffc15 	stw	r2,-16(fp)
      i++;
 2000188:	e0bffd17 	ldw	r2,-12(fp)
 200018c:	10800044 	addi	r2,r2,1
 2000190:	e0bffd15 	stw	r2,-12(fp)

    } while (1);
 2000194:	003fe106 	br	200011c <__reset+0xfdff891c>

    active = alt_irq_pending ();
 2000198:	e0bffb15 	stw	r2,-20(fp)
    
  } while (active);
 200019c:	e0bffb17 	ldw	r2,-20(fp)
 20001a0:	103fdb1e 	bne	r2,zero,2000110 <__reset+0xfdff8910>

  /*
   * Notify the operating system that interrupt processing is complete.
   */ 

  ALT_OS_INT_EXIT();
 20001a4:	0001883a 	nop
}
 20001a8:	e037883a 	mov	sp,fp
 20001ac:	dfc00117 	ldw	ra,4(sp)
 20001b0:	df000017 	ldw	fp,0(sp)
 20001b4:	dec00204 	addi	sp,sp,8
 20001b8:	f800283a 	ret

Disassembly of section .text:

020001bc <_start>:

    /* Assume the data cache size is always a power of two. */
#if NIOS2_DCACHE_SIZE > 0x8000
    movhi r2, %hi(NIOS2_DCACHE_SIZE)
#else
    movui r2, NIOS2_DCACHE_SIZE
 20001bc:	00880014 	movui	r2,8192
#endif

0:
    initd 0(r2)
 20001c0:	10000033 	initd	0(r2)
#ifdef NIOS2_ECC_PRESENT
    addi r2, r2, -4
#else
    addi r2, r2, -NIOS2_DCACHE_LINE_SIZE
 20001c4:	10bff804 	addi	r2,r2,-32
#endif
    bgt r2, zero, 0b
 20001c8:	00bffd16 	blt	zero,r2,20001c0 <__reset+0xfdff89c0>

    /*
     * Now that the caches are initialized, set up the stack pointer and global pointer.
     * The values provided by the linker are assumed to be correctly aligned.
     */
    movhi sp, %hi(__alt_stack_pointer)
 20001cc:	06c10034 	movhi	sp,1024
    ori sp, sp, %lo(__alt_stack_pointer)
 20001d0:	dec00014 	ori	sp,sp,0
    movhi gp, %hi(_gp)
 20001d4:	068080f4 	movhi	gp,515
    ori gp, gp, %lo(_gp)
 20001d8:	d69c6a14 	ori	gp,gp,29096
 */
#ifndef ALT_SIM_OPTIMIZE
    /* Log that the BSS is about to be cleared. */
    ALT_LOG_PUTS(alt_log_msg_bss)

    movhi r2, %hi(__bss_start)
 20001dc:	008080f4 	movhi	r2,515
    ori r2, r2, %lo(__bss_start)
 20001e0:	10896614 	ori	r2,r2,9624

    movhi r3, %hi(__bss_end)
 20001e4:	00c080f4 	movhi	r3,515
    ori r3, r3, %lo(__bss_end)
 20001e8:	18c9ba14 	ori	r3,r3,9960

    beq r2, r3, 1f
 20001ec:	10c00326 	beq	r2,r3,20001fc <_start+0x40>

0:
    stw zero, (r2)
 20001f0:	10000015 	stw	zero,0(r2)
    addi r2, r2, 4
 20001f4:	10800104 	addi	r2,r2,4
    bltu r2, r3, 0b
 20001f8:	10fffd36 	bltu	r2,r3,20001f0 <__reset+0xfdff89f0>
     * section aren't defined until alt_load() has been called).
     */
    mov   et, zero
#endif

    call alt_load
 20001fc:	200e8e40 	call	200e8e4 <alt_load>

    /* Log that alt_main is about to be called. */
    ALT_LOG_PUTS(alt_log_msg_alt_main)

    /* Call the C entry point. It should never return. */
    call alt_main
 2000200:	200e9640 	call	200e964 <alt_main>

02000204 <alt_after_alt_main>:

    /* Wait in infinite loop in case alt_main does return. */
alt_after_alt_main:
    br alt_after_alt_main
 2000204:	003fff06 	br	2000204 <__reset+0xfdff8a04>

02000208 <ShowInfo>:
#include "../graphic_lib/simple_graphics.h"
#include "../graphic_lib/geometry.h"



void ShowInfo(alt_video_display *pDisplay, char *pText){
 2000208:	defff904 	addi	sp,sp,-28
 200020c:	dfc00615 	stw	ra,24(sp)
 2000210:	df000515 	stw	fp,20(sp)
 2000214:	df000504 	addi	fp,sp,20
 2000218:	e13ffe15 	stw	r4,-8(fp)
 200021c:	e17fff15 	stw	r5,-4(fp)
    vid_print_string_alpha(1, 1, WHITE_24, BLACK_24, tahomabold_20, pDisplay, pText);
 2000220:	008080f4 	movhi	r2,515
 2000224:	10af9504 	addi	r2,r2,-16812
 2000228:	d8800015 	stw	r2,0(sp)
 200022c:	e0bffe17 	ldw	r2,-8(fp)
 2000230:	d8800115 	stw	r2,4(sp)
 2000234:	e0bfff17 	ldw	r2,-4(fp)
 2000238:	d8800215 	stw	r2,8(sp)
 200023c:	01000044 	movi	r4,1
 2000240:	01400044 	movi	r5,1
 2000244:	01804034 	movhi	r6,256
 2000248:	31bfffc4 	addi	r6,r6,-1
 200024c:	000f883a 	mov	r7,zero
 2000250:	2008b400 	call	2008b40 <vid_print_string_alpha>
}
 2000254:	e037883a 	mov	sp,fp
 2000258:	dfc00117 	ldw	ra,4(sp)
 200025c:	df000017 	ldw	fp,0(sp)
 2000260:	dec00204 	addi	sp,sp,8
 2000264:	f800283a 	ret

02000268 <VPG_XLine>:


void VPG_XLine(alt_video_display *pDisplay){
 2000268:	defffe04 	addi	sp,sp,-8
 200026c:	df000115 	stw	fp,4(sp)
 2000270:	df000104 	addi	fp,sp,4
 2000274:	e13fff15 	stw	r4,-4(fp)
return ;
 2000278:	0001883a 	nop

    // show text
    ShowInfo(pDisplay, "X Line");


}
 200027c:	e037883a 	mov	sp,fp
 2000280:	df000017 	ldw	fp,0(sp)
 2000284:	dec00104 	addi	sp,sp,4
 2000288:	f800283a 	ret

0200028c <VPG_ColorPanel>:


void VPG_ColorPanel(alt_video_display *pDisplay, alt_u32 Color){
 200028c:	defff204 	addi	sp,sp,-56
 2000290:	dfc00d15 	stw	ra,52(sp)
 2000294:	df000c15 	stw	fp,48(sp)
 2000298:	df000c04 	addi	fp,sp,48
 200029c:	e13ffe15 	stw	r4,-8(fp)
 20002a0:	e17fff15 	stw	r5,-4(fp)
    int x, y;
    char szText[32];

    for(y=0;y<pDisplay->height;y++){
 20002a4:	e03ff515 	stw	zero,-44(fp)
 20002a8:	00001106 	br	20002f0 <VPG_ColorPanel+0x64>
        for(x=0;x<pDisplay->width;x++){
 20002ac:	e03ff415 	stw	zero,-48(fp)
 20002b0:	00000806 	br	20002d4 <VPG_ColorPanel+0x48>
        	vid_set_pixel(x,y,Color, pDisplay);
 20002b4:	e13ff417 	ldw	r4,-48(fp)
 20002b8:	e17ff517 	ldw	r5,-44(fp)
 20002bc:	e1bfff17 	ldw	r6,-4(fp)
 20002c0:	e1fffe17 	ldw	r7,-8(fp)
 20002c4:	2006f6c0 	call	2006f6c <vid_set_pixel>
void VPG_ColorPanel(alt_video_display *pDisplay, alt_u32 Color){
    int x, y;
    char szText[32];

    for(y=0;y<pDisplay->height;y++){
        for(x=0;x<pDisplay->width;x++){
 20002c8:	e0bff417 	ldw	r2,-48(fp)
 20002cc:	10800044 	addi	r2,r2,1
 20002d0:	e0bff415 	stw	r2,-48(fp)
 20002d4:	e0bffe17 	ldw	r2,-8(fp)
 20002d8:	10800117 	ldw	r2,4(r2)
 20002dc:	e0fff417 	ldw	r3,-48(fp)
 20002e0:	18bff416 	blt	r3,r2,20002b4 <__reset+0xfdff8ab4>

void VPG_ColorPanel(alt_video_display *pDisplay, alt_u32 Color){
    int x, y;
    char szText[32];

    for(y=0;y<pDisplay->height;y++){
 20002e4:	e0bff517 	ldw	r2,-44(fp)
 20002e8:	10800044 	addi	r2,r2,1
 20002ec:	e0bff515 	stw	r2,-44(fp)
 20002f0:	e0bffe17 	ldw	r2,-8(fp)
 20002f4:	10800217 	ldw	r2,8(r2)
 20002f8:	e0fff517 	ldw	r3,-44(fp)
 20002fc:	18bfeb16 	blt	r3,r2,20002ac <__reset+0xfdff8aac>
        	vid_set_pixel(x,y,Color, pDisplay);
        }
    }

    // show text
    sprintf(szText,"Panel: %08xh", (unsigned int) Color);
 2000300:	e0bff604 	addi	r2,fp,-40
 2000304:	1009883a 	mov	r4,r2
 2000308:	01408074 	movhi	r5,513
 200030c:	29474b04 	addi	r5,r5,7468
 2000310:	e1bfff17 	ldw	r6,-4(fp)
 2000314:	200d25c0 	call	200d25c <sprintf>
    ShowInfo(pDisplay, szText);
 2000318:	e0bff604 	addi	r2,fp,-40
 200031c:	e13ffe17 	ldw	r4,-8(fp)
 2000320:	100b883a 	mov	r5,r2
 2000324:	20002080 	call	2000208 <ShowInfo>



}
 2000328:	e037883a 	mov	sp,fp
 200032c:	dfc00117 	ldw	ra,4(sp)
 2000330:	df000017 	ldw	fp,0(sp)
 2000334:	dec00204 	addi	sp,sp,8
 2000338:	f800283a 	ret

0200033c <VPG_Grid>:

void VPG_Grid(alt_video_display *pDisplay, alt_u8 GridSize){
 200033c:	defff104 	addi	sp,sp,-60
 2000340:	dfc00e15 	stw	ra,56(sp)
 2000344:	df000d15 	stw	fp,52(sp)
 2000348:	df000d04 	addi	fp,sp,52
 200034c:	e13ffe15 	stw	r4,-8(fp)
 2000350:	2805883a 	mov	r2,r5
 2000354:	e0bfff05 	stb	r2,-4(fp)
    int x,y;
    alt_u32 Value32;
    char szText[32];


    for(y=0;y<pDisplay->height;y++){
 2000358:	e03ff415 	stw	zero,-48(fp)
 200035c:	00002206 	br	20003e8 <VPG_Grid+0xac>
        for(x=0;x<pDisplay->width;x++){
 2000360:	e03ff315 	stw	zero,-52(fp)
 2000364:	00001906 	br	20003cc <VPG_Grid+0x90>
            if (x%GridSize == 0 || y%GridSize == 0)
 2000368:	e0bfff03 	ldbu	r2,-4(fp)
 200036c:	e0fff317 	ldw	r3,-52(fp)
 2000370:	1809883a 	mov	r4,r3
 2000374:	100b883a 	mov	r5,r2
 2000378:	200a5240 	call	200a524 <__modsi3>
 200037c:	10000626 	beq	r2,zero,2000398 <VPG_Grid+0x5c>
 2000380:	e0bfff03 	ldbu	r2,-4(fp)
 2000384:	e0fff417 	ldw	r3,-48(fp)
 2000388:	1809883a 	mov	r4,r3
 200038c:	100b883a 	mov	r5,r2
 2000390:	200a5240 	call	200a524 <__modsi3>
 2000394:	1000041e 	bne	r2,zero,20003a8 <VPG_Grid+0x6c>
                Value32 = WHITE_24;
 2000398:	00804034 	movhi	r2,256
 200039c:	10bfffc4 	addi	r2,r2,-1
 20003a0:	e0bff515 	stw	r2,-44(fp)
 20003a4:	00000106 	br	20003ac <VPG_Grid+0x70>
            else
                Value32 = BLACK_24;
 20003a8:	e03ff515 	stw	zero,-44(fp)
            vid_set_pixel(x,y,Value32, pDisplay);
 20003ac:	e13ff317 	ldw	r4,-52(fp)
 20003b0:	e17ff417 	ldw	r5,-48(fp)
 20003b4:	e1bff517 	ldw	r6,-44(fp)
 20003b8:	e1fffe17 	ldw	r7,-8(fp)
 20003bc:	2006f6c0 	call	2006f6c <vid_set_pixel>
    alt_u32 Value32;
    char szText[32];


    for(y=0;y<pDisplay->height;y++){
        for(x=0;x<pDisplay->width;x++){
 20003c0:	e0bff317 	ldw	r2,-52(fp)
 20003c4:	10800044 	addi	r2,r2,1
 20003c8:	e0bff315 	stw	r2,-52(fp)
 20003cc:	e0bffe17 	ldw	r2,-8(fp)
 20003d0:	10800117 	ldw	r2,4(r2)
 20003d4:	e0fff317 	ldw	r3,-52(fp)
 20003d8:	18bfe316 	blt	r3,r2,2000368 <__reset+0xfdff8b68>
    int x,y;
    alt_u32 Value32;
    char szText[32];


    for(y=0;y<pDisplay->height;y++){
 20003dc:	e0bff417 	ldw	r2,-48(fp)
 20003e0:	10800044 	addi	r2,r2,1
 20003e4:	e0bff415 	stw	r2,-48(fp)
 20003e8:	e0bffe17 	ldw	r2,-8(fp)
 20003ec:	10800217 	ldw	r2,8(r2)
 20003f0:	e0fff417 	ldw	r3,-48(fp)
 20003f4:	18bfda16 	blt	r3,r2,2000360 <__reset+0xfdff8b60>
            vid_set_pixel(x,y,Value32, pDisplay);
        }

    }
    // show text
    sprintf(szText,"Grid%d", GridSize);
 20003f8:	e0bfff03 	ldbu	r2,-4(fp)
 20003fc:	e0fff604 	addi	r3,fp,-40
 2000400:	1809883a 	mov	r4,r3
 2000404:	01408074 	movhi	r5,513
 2000408:	29474f04 	addi	r5,r5,7484
 200040c:	100d883a 	mov	r6,r2
 2000410:	200d25c0 	call	200d25c <sprintf>
    ShowInfo(pDisplay, szText);
 2000414:	e0bff604 	addi	r2,fp,-40
 2000418:	e13ffe17 	ldw	r4,-8(fp)
 200041c:	100b883a 	mov	r5,r2
 2000420:	20002080 	call	2000208 <ShowInfo>

}
 2000424:	e037883a 	mov	sp,fp
 2000428:	dfc00117 	ldw	ra,4(sp)
 200042c:	df000017 	ldw	fp,0(sp)
 2000430:	dec00204 	addi	sp,sp,8
 2000434:	f800283a 	ret

02000438 <VPG_VGrid>:

void VPG_VGrid(alt_video_display *pDisplay, alt_u8 GridSize){
 2000438:	defff104 	addi	sp,sp,-60
 200043c:	dfc00e15 	stw	ra,56(sp)
 2000440:	df000d15 	stw	fp,52(sp)
 2000444:	df000d04 	addi	fp,sp,52
 2000448:	e13ffe15 	stw	r4,-8(fp)
 200044c:	2805883a 	mov	r2,r5
 2000450:	e0bfff05 	stb	r2,-4(fp)
    int x,y;
    alt_u32 Value32;
    char szText[32];


    for(y=0;y<pDisplay->height;y++){
 2000454:	e03ff415 	stw	zero,-48(fp)
 2000458:	00001c06 	br	20004cc <VPG_VGrid+0x94>
        for(x=0;x<pDisplay->width;x++){
 200045c:	e03ff315 	stw	zero,-52(fp)
 2000460:	00001306 	br	20004b0 <VPG_VGrid+0x78>
            if (x%GridSize == 0)
 2000464:	e0bfff03 	ldbu	r2,-4(fp)
 2000468:	e0fff317 	ldw	r3,-52(fp)
 200046c:	1809883a 	mov	r4,r3
 2000470:	100b883a 	mov	r5,r2
 2000474:	200a5240 	call	200a524 <__modsi3>
 2000478:	1000041e 	bne	r2,zero,200048c <VPG_VGrid+0x54>
                Value32 = WHITE_24;
 200047c:	00804034 	movhi	r2,256
 2000480:	10bfffc4 	addi	r2,r2,-1
 2000484:	e0bff515 	stw	r2,-44(fp)
 2000488:	00000106 	br	2000490 <VPG_VGrid+0x58>
            else
                Value32 = BLACK_24;
 200048c:	e03ff515 	stw	zero,-44(fp)
            vid_set_pixel(x,y,Value32, pDisplay);
 2000490:	e13ff317 	ldw	r4,-52(fp)
 2000494:	e17ff417 	ldw	r5,-48(fp)
 2000498:	e1bff517 	ldw	r6,-44(fp)
 200049c:	e1fffe17 	ldw	r7,-8(fp)
 20004a0:	2006f6c0 	call	2006f6c <vid_set_pixel>
    alt_u32 Value32;
    char szText[32];


    for(y=0;y<pDisplay->height;y++){
        for(x=0;x<pDisplay->width;x++){
 20004a4:	e0bff317 	ldw	r2,-52(fp)
 20004a8:	10800044 	addi	r2,r2,1
 20004ac:	e0bff315 	stw	r2,-52(fp)
 20004b0:	e0bffe17 	ldw	r2,-8(fp)
 20004b4:	10800117 	ldw	r2,4(r2)
 20004b8:	e0fff317 	ldw	r3,-52(fp)
 20004bc:	18bfe916 	blt	r3,r2,2000464 <__reset+0xfdff8c64>
    int x,y;
    alt_u32 Value32;
    char szText[32];


    for(y=0;y<pDisplay->height;y++){
 20004c0:	e0bff417 	ldw	r2,-48(fp)
 20004c4:	10800044 	addi	r2,r2,1
 20004c8:	e0bff415 	stw	r2,-48(fp)
 20004cc:	e0bffe17 	ldw	r2,-8(fp)
 20004d0:	10800217 	ldw	r2,8(r2)
 20004d4:	e0fff417 	ldw	r3,-48(fp)
 20004d8:	18bfe016 	blt	r3,r2,200045c <__reset+0xfdff8c5c>
            vid_set_pixel(x,y,Value32, pDisplay);
        }

    }
    // show text
    sprintf(szText,"VGrid%d", GridSize);
 20004dc:	e0bfff03 	ldbu	r2,-4(fp)
 20004e0:	e0fff604 	addi	r3,fp,-40
 20004e4:	1809883a 	mov	r4,r3
 20004e8:	01408074 	movhi	r5,513
 20004ec:	29475104 	addi	r5,r5,7492
 20004f0:	100d883a 	mov	r6,r2
 20004f4:	200d25c0 	call	200d25c <sprintf>
    ShowInfo(pDisplay, szText);
 20004f8:	e0bff604 	addi	r2,fp,-40
 20004fc:	e13ffe17 	ldw	r4,-8(fp)
 2000500:	100b883a 	mov	r5,r2
 2000504:	20002080 	call	2000208 <ShowInfo>

}
 2000508:	e037883a 	mov	sp,fp
 200050c:	dfc00117 	ldw	ra,4(sp)
 2000510:	df000017 	ldw	fp,0(sp)
 2000514:	dec00204 	addi	sp,sp,8
 2000518:	f800283a 	ret

0200051c <VPG_HGrid>:

void VPG_HGrid(alt_video_display *pDisplay, alt_u8 GridSize){
 200051c:	defff104 	addi	sp,sp,-60
 2000520:	dfc00e15 	stw	ra,56(sp)
 2000524:	df000d15 	stw	fp,52(sp)
 2000528:	df000d04 	addi	fp,sp,52
 200052c:	e13ffe15 	stw	r4,-8(fp)
 2000530:	2805883a 	mov	r2,r5
 2000534:	e0bfff05 	stb	r2,-4(fp)
    int x,y;
    alt_u32 Value32;
    char szText[32];

    for(y=0;y<pDisplay->height;y++){
 2000538:	e03ff415 	stw	zero,-48(fp)
 200053c:	00001c06 	br	20005b0 <VPG_HGrid+0x94>
        for(x=0;x<pDisplay->width;x++){
 2000540:	e03ff315 	stw	zero,-52(fp)
 2000544:	00001306 	br	2000594 <VPG_HGrid+0x78>
            if (y%GridSize == 0)
 2000548:	e0bfff03 	ldbu	r2,-4(fp)
 200054c:	e0fff417 	ldw	r3,-48(fp)
 2000550:	1809883a 	mov	r4,r3
 2000554:	100b883a 	mov	r5,r2
 2000558:	200a5240 	call	200a524 <__modsi3>
 200055c:	1000041e 	bne	r2,zero,2000570 <VPG_HGrid+0x54>
                Value32 = WHITE_24;
 2000560:	00804034 	movhi	r2,256
 2000564:	10bfffc4 	addi	r2,r2,-1
 2000568:	e0bff515 	stw	r2,-44(fp)
 200056c:	00000106 	br	2000574 <VPG_HGrid+0x58>
            else
                Value32 = BLACK_24;
 2000570:	e03ff515 	stw	zero,-44(fp)
            vid_set_pixel(x,y,Value32, pDisplay);
 2000574:	e13ff317 	ldw	r4,-52(fp)
 2000578:	e17ff417 	ldw	r5,-48(fp)
 200057c:	e1bff517 	ldw	r6,-44(fp)
 2000580:	e1fffe17 	ldw	r7,-8(fp)
 2000584:	2006f6c0 	call	2006f6c <vid_set_pixel>
    int x,y;
    alt_u32 Value32;
    char szText[32];

    for(y=0;y<pDisplay->height;y++){
        for(x=0;x<pDisplay->width;x++){
 2000588:	e0bff317 	ldw	r2,-52(fp)
 200058c:	10800044 	addi	r2,r2,1
 2000590:	e0bff315 	stw	r2,-52(fp)
 2000594:	e0bffe17 	ldw	r2,-8(fp)
 2000598:	10800117 	ldw	r2,4(r2)
 200059c:	e0fff317 	ldw	r3,-52(fp)
 20005a0:	18bfe916 	blt	r3,r2,2000548 <__reset+0xfdff8d48>
void VPG_HGrid(alt_video_display *pDisplay, alt_u8 GridSize){
    int x,y;
    alt_u32 Value32;
    char szText[32];

    for(y=0;y<pDisplay->height;y++){
 20005a4:	e0bff417 	ldw	r2,-48(fp)
 20005a8:	10800044 	addi	r2,r2,1
 20005ac:	e0bff415 	stw	r2,-48(fp)
 20005b0:	e0bffe17 	ldw	r2,-8(fp)
 20005b4:	10800217 	ldw	r2,8(r2)
 20005b8:	e0fff417 	ldw	r3,-48(fp)
 20005bc:	18bfe016 	blt	r3,r2,2000540 <__reset+0xfdff8d40>
            vid_set_pixel(x,y,Value32, pDisplay);
        }

    }
    // show text
    sprintf(szText,"HGrid%d", GridSize);
 20005c0:	e0bfff03 	ldbu	r2,-4(fp)
 20005c4:	e0fff604 	addi	r3,fp,-40
 20005c8:	1809883a 	mov	r4,r3
 20005cc:	01408074 	movhi	r5,513
 20005d0:	29475304 	addi	r5,r5,7500
 20005d4:	100d883a 	mov	r6,r2
 20005d8:	200d25c0 	call	200d25c <sprintf>
    ShowInfo(pDisplay, szText);
 20005dc:	e0bff604 	addi	r2,fp,-40
 20005e0:	e13ffe17 	ldw	r4,-8(fp)
 20005e4:	100b883a 	mov	r5,r2
 20005e8:	20002080 	call	2000208 <ShowInfo>

}
 20005ec:	e037883a 	mov	sp,fp
 20005f0:	dfc00117 	ldw	ra,4(sp)
 20005f4:	df000017 	ldw	fp,0(sp)
 20005f8:	dec00204 	addi	sp,sp,8
 20005fc:	f800283a 	ret

02000600 <VPG_ColorBar>:




void VPG_ColorBar(alt_video_display *pDisplay){
 2000600:	defffa04 	addi	sp,sp,-24
 2000604:	dfc00515 	stw	ra,20(sp)
 2000608:	df000415 	stw	fp,16(sp)
 200060c:	df000404 	addi	fp,sp,16
 2000610:	e13fff15 	stw	r4,-4(fp)
    int x,y;
    alt_u32 Value32;

    for(y=0;y<pDisplay->height;y++){
 2000614:	e03ffd15 	stw	zero,-12(fp)
 2000618:	00005c06 	br	200078c <VPG_ColorBar+0x18c>
        for(x=0;x<pDisplay->width;x++){
 200061c:	e03ffc15 	stw	zero,-16(fp)
 2000620:	00005306 	br	2000770 <VPG_ColorBar+0x170>
            if (x == 0 || y == 0 || x == pDisplay->width-1 || y == pDisplay->height-1){
 2000624:	e0bffc17 	ldw	r2,-16(fp)
 2000628:	10000c26 	beq	r2,zero,200065c <VPG_ColorBar+0x5c>
 200062c:	e0bffd17 	ldw	r2,-12(fp)
 2000630:	10000a26 	beq	r2,zero,200065c <VPG_ColorBar+0x5c>
 2000634:	e0bfff17 	ldw	r2,-4(fp)
 2000638:	10800117 	ldw	r2,4(r2)
 200063c:	10ffffc4 	addi	r3,r2,-1
 2000640:	e0bffc17 	ldw	r2,-16(fp)
 2000644:	18800526 	beq	r3,r2,200065c <VPG_ColorBar+0x5c>
 2000648:	e0bfff17 	ldw	r2,-4(fp)
 200064c:	10800217 	ldw	r2,8(r2)
 2000650:	10ffffc4 	addi	r3,r2,-1
 2000654:	e0bffd17 	ldw	r2,-12(fp)
 2000658:	1880041e 	bne	r3,r2,200066c <VPG_ColorBar+0x6c>
                Value32 = WHITE_24;
 200065c:	00804034 	movhi	r2,256
 2000660:	10bfffc4 	addi	r2,r2,-1
 2000664:	e0bffe15 	stw	r2,-8(fp)
 2000668:	00003906 	br	2000750 <VPG_ColorBar+0x150>
            }else if (y < pDisplay->height/4){
 200066c:	e0bfff17 	ldw	r2,-4(fp)
 2000670:	10800217 	ldw	r2,8(r2)
 2000674:	1000010e 	bge	r2,zero,200067c <VPG_ColorBar+0x7c>
 2000678:	108000c4 	addi	r2,r2,3
 200067c:	1005d0ba 	srai	r2,r2,2
 2000680:	1007883a 	mov	r3,r2
 2000684:	e0bffd17 	ldw	r2,-12(fp)
 2000688:	10c0040e 	bge	r2,r3,200069c <VPG_ColorBar+0x9c>
                // red
                Value32 = x & 0xFF;
 200068c:	e0bffc17 	ldw	r2,-16(fp)
 2000690:	10803fcc 	andi	r2,r2,255
 2000694:	e0bffe15 	stw	r2,-8(fp)
 2000698:	00002d06 	br	2000750 <VPG_ColorBar+0x150>
            }else if (y < pDisplay->height/2){
 200069c:	e0bfff17 	ldw	r2,-4(fp)
 20006a0:	10800217 	ldw	r2,8(r2)
 20006a4:	1006d7fa 	srli	r3,r2,31
 20006a8:	1885883a 	add	r2,r3,r2
 20006ac:	1005d07a 	srai	r2,r2,1
 20006b0:	1007883a 	mov	r3,r2
 20006b4:	e0bffd17 	ldw	r2,-12(fp)
 20006b8:	10c0050e 	bge	r2,r3,20006d0 <VPG_ColorBar+0xd0>
                Value32 = (x & 0xFF) << 8;
 20006bc:	e0bffc17 	ldw	r2,-16(fp)
 20006c0:	1004923a 	slli	r2,r2,8
 20006c4:	10bfffcc 	andi	r2,r2,65535
 20006c8:	e0bffe15 	stw	r2,-8(fp)
 20006cc:	00002006 	br	2000750 <VPG_ColorBar+0x150>
            }else if (y < pDisplay->height*3/4){
 20006d0:	e0bfff17 	ldw	r2,-4(fp)
 20006d4:	10c00217 	ldw	r3,8(r2)
 20006d8:	1805883a 	mov	r2,r3
 20006dc:	1085883a 	add	r2,r2,r2
 20006e0:	10c5883a 	add	r2,r2,r3
 20006e4:	1000010e 	bge	r2,zero,20006ec <VPG_ColorBar+0xec>
 20006e8:	108000c4 	addi	r2,r2,3
 20006ec:	1005d0ba 	srai	r2,r2,2
 20006f0:	1007883a 	mov	r3,r2
 20006f4:	e0bffd17 	ldw	r2,-12(fp)
 20006f8:	10c0050e 	bge	r2,r3,2000710 <VPG_ColorBar+0x110>
                Value32 = (x & 0xFF) << 16;
 20006fc:	e0bffc17 	ldw	r2,-16(fp)
 2000700:	10803fcc 	andi	r2,r2,255
 2000704:	1004943a 	slli	r2,r2,16
 2000708:	e0bffe15 	stw	r2,-8(fp)
 200070c:	00001006 	br	2000750 <VPG_ColorBar+0x150>
            }else{
                Value32 = x & 0xFF;
 2000710:	e0bffc17 	ldw	r2,-16(fp)
 2000714:	10803fcc 	andi	r2,r2,255
 2000718:	e0bffe15 	stw	r2,-8(fp)
                Value32 |= (x & 0xFF) << 8;
 200071c:	e0bffc17 	ldw	r2,-16(fp)
 2000720:	1004923a 	slli	r2,r2,8
 2000724:	10bfffcc 	andi	r2,r2,65535
 2000728:	e0fffe17 	ldw	r3,-8(fp)
 200072c:	1884b03a 	or	r2,r3,r2
 2000730:	e0bffe15 	stw	r2,-8(fp)
                Value32 |= (x & 0xFF) << 16;
 2000734:	e0bffc17 	ldw	r2,-16(fp)
 2000738:	10803fcc 	andi	r2,r2,255
 200073c:	1004943a 	slli	r2,r2,16
 2000740:	1007883a 	mov	r3,r2
 2000744:	e0bffe17 	ldw	r2,-8(fp)
 2000748:	10c4b03a 	or	r2,r2,r3
 200074c:	e0bffe15 	stw	r2,-8(fp)
            }
            vid_set_pixel(x,y,Value32, pDisplay);
 2000750:	e13ffc17 	ldw	r4,-16(fp)
 2000754:	e17ffd17 	ldw	r5,-12(fp)
 2000758:	e1bffe17 	ldw	r6,-8(fp)
 200075c:	e1ffff17 	ldw	r7,-4(fp)
 2000760:	2006f6c0 	call	2006f6c <vid_set_pixel>
void VPG_ColorBar(alt_video_display *pDisplay){
    int x,y;
    alt_u32 Value32;

    for(y=0;y<pDisplay->height;y++){
        for(x=0;x<pDisplay->width;x++){
 2000764:	e0bffc17 	ldw	r2,-16(fp)
 2000768:	10800044 	addi	r2,r2,1
 200076c:	e0bffc15 	stw	r2,-16(fp)
 2000770:	e0bfff17 	ldw	r2,-4(fp)
 2000774:	10800117 	ldw	r2,4(r2)
 2000778:	e0fffc17 	ldw	r3,-16(fp)
 200077c:	18bfa916 	blt	r3,r2,2000624 <__reset+0xfdff8e24>

void VPG_ColorBar(alt_video_display *pDisplay){
    int x,y;
    alt_u32 Value32;

    for(y=0;y<pDisplay->height;y++){
 2000780:	e0bffd17 	ldw	r2,-12(fp)
 2000784:	10800044 	addi	r2,r2,1
 2000788:	e0bffd15 	stw	r2,-12(fp)
 200078c:	e0bfff17 	ldw	r2,-4(fp)
 2000790:	10800217 	ldw	r2,8(r2)
 2000794:	e0fffd17 	ldw	r3,-12(fp)
 2000798:	18bfa016 	blt	r3,r2,200061c <__reset+0xfdff8e1c>

        }

    }

}
 200079c:	e037883a 	mov	sp,fp
 20007a0:	dfc00117 	ldw	ra,4(sp)
 20007a4:	df000017 	ldw	fp,0(sp)
 20007a8:	dec00204 	addi	sp,sp,8
 20007ac:	f800283a 	ret

020007b0 <GUI_ShowPAT>:


void GUI_ShowPAT(alt_video_display *pDisplay, int PatId){
 20007b0:	defffc04 	addi	sp,sp,-16
 20007b4:	dfc00315 	stw	ra,12(sp)
 20007b8:	df000215 	stw	fp,8(sp)
 20007bc:	df000204 	addi	fp,sp,8
 20007c0:	e13ffe15 	stw	r4,-8(fp)
 20007c4:	e17fff15 	stw	r5,-4(fp)

                switch(PatId){
 20007c8:	e0bfff17 	ldw	r2,-4(fp)
 20007cc:	108003e8 	cmpgeui	r2,r2,15
 20007d0:	1000511e 	bne	r2,zero,2000918 <GUI_ShowPAT+0x168>
 20007d4:	e0bfff17 	ldw	r2,-4(fp)
 20007d8:	100690ba 	slli	r3,r2,2
 20007dc:	00808034 	movhi	r2,512
 20007e0:	1081fc04 	addi	r2,r2,2032
 20007e4:	1885883a 	add	r2,r3,r2
 20007e8:	10800017 	ldw	r2,0(r2)
 20007ec:	1000683a 	jmp	r2
 20007f0:	0200082c 	andhi	r8,zero,32
 20007f4:	02000838 	rdprs	r8,zero,32
 20007f8:	0200084c 	andi	r8,zero,33
 20007fc:	0200085c 	xori	r8,zero,33
 2000800:	0200086c 	andhi	r8,zero,33
 2000804:	0200087c 	xorhi	r8,zero,33
 2000808:	02000888 	cmpgei	r8,zero,34
 200080c:	02000898 	cmpnei	r8,zero,34
 2000810:	020008a8 	cmpgeui	r8,zero,34
 2000814:	020008b8 	rdprs	r8,zero,34
 2000818:	020008c8 	cmpgei	r8,zero,35
 200081c:	020008d8 	cmpnei	r8,zero,35
 2000820:	020008e8 	cmpgeui	r8,zero,35
 2000824:	020008f8 	rdprs	r8,zero,35
 2000828:	02000908 	cmpgei	r8,zero,36
                    case 0: VPG_ColorBar(pDisplay); break;
 200082c:	e13ffe17 	ldw	r4,-8(fp)
 2000830:	20006000 	call	2000600 <VPG_ColorBar>
 2000834:	00003806 	br	2000918 <GUI_ShowPAT+0x168>
                    case 1: VPG_ColorPanel(pDisplay, WHITE_24); break;
 2000838:	e13ffe17 	ldw	r4,-8(fp)
 200083c:	01404034 	movhi	r5,256
 2000840:	297fffc4 	addi	r5,r5,-1
 2000844:	200028c0 	call	200028c <VPG_ColorPanel>
 2000848:	00003306 	br	2000918 <GUI_ShowPAT+0x168>
                    case 2: VPG_ColorPanel(pDisplay, RED_24); break;
 200084c:	e13ffe17 	ldw	r4,-8(fp)
 2000850:	01403ff4 	movhi	r5,255
 2000854:	200028c0 	call	200028c <VPG_ColorPanel>
 2000858:	00002f06 	br	2000918 <GUI_ShowPAT+0x168>
                    case 3: VPG_ColorPanel(pDisplay, GREEN_24); break;
 200085c:	e13ffe17 	ldw	r4,-8(fp)
 2000860:	01600014 	movui	r5,32768
 2000864:	200028c0 	call	200028c <VPG_ColorPanel>
 2000868:	00002b06 	br	2000918 <GUI_ShowPAT+0x168>
                    case 4: VPG_ColorPanel(pDisplay, BLUE_24); break;
 200086c:	e13ffe17 	ldw	r4,-8(fp)
 2000870:	01403fc4 	movi	r5,255
 2000874:	200028c0 	call	200028c <VPG_ColorPanel>
 2000878:	00002706 	br	2000918 <GUI_ShowPAT+0x168>
                    case 5: VPG_XLine(pDisplay); break;
 200087c:	e13ffe17 	ldw	r4,-8(fp)
 2000880:	20002680 	call	2000268 <VPG_XLine>
 2000884:	00002406 	br	2000918 <GUI_ShowPAT+0x168>
                    case 6: VPG_VGrid(pDisplay, 2); break;
 2000888:	e13ffe17 	ldw	r4,-8(fp)
 200088c:	01400084 	movi	r5,2
 2000890:	20004380 	call	2000438 <VPG_VGrid>
 2000894:	00002006 	br	2000918 <GUI_ShowPAT+0x168>
                    case 7: VPG_VGrid(pDisplay, 4); break;
 2000898:	e13ffe17 	ldw	r4,-8(fp)
 200089c:	01400104 	movi	r5,4
 20008a0:	20004380 	call	2000438 <VPG_VGrid>
 20008a4:	00001c06 	br	2000918 <GUI_ShowPAT+0x168>
                    case 8: VPG_VGrid(pDisplay, 8); break;
 20008a8:	e13ffe17 	ldw	r4,-8(fp)
 20008ac:	01400204 	movi	r5,8
 20008b0:	20004380 	call	2000438 <VPG_VGrid>
 20008b4:	00001806 	br	2000918 <GUI_ShowPAT+0x168>
                    case 9: VPG_HGrid(pDisplay, 2); break;
 20008b8:	e13ffe17 	ldw	r4,-8(fp)
 20008bc:	01400084 	movi	r5,2
 20008c0:	200051c0 	call	200051c <VPG_HGrid>
 20008c4:	00001406 	br	2000918 <GUI_ShowPAT+0x168>
                    case 10: VPG_HGrid(pDisplay, 4); break;
 20008c8:	e13ffe17 	ldw	r4,-8(fp)
 20008cc:	01400104 	movi	r5,4
 20008d0:	200051c0 	call	200051c <VPG_HGrid>
 20008d4:	00001006 	br	2000918 <GUI_ShowPAT+0x168>
                    case 11: VPG_HGrid(pDisplay, 8); break;
 20008d8:	e13ffe17 	ldw	r4,-8(fp)
 20008dc:	01400204 	movi	r5,8
 20008e0:	200051c0 	call	200051c <VPG_HGrid>
 20008e4:	00000c06 	br	2000918 <GUI_ShowPAT+0x168>
                    case 12: VPG_Grid(pDisplay, 2); break;
 20008e8:	e13ffe17 	ldw	r4,-8(fp)
 20008ec:	01400084 	movi	r5,2
 20008f0:	200033c0 	call	200033c <VPG_Grid>
 20008f4:	00000806 	br	2000918 <GUI_ShowPAT+0x168>
                    case 13: VPG_Grid(pDisplay, 4); break;
 20008f8:	e13ffe17 	ldw	r4,-8(fp)
 20008fc:	01400104 	movi	r5,4
 2000900:	200033c0 	call	200033c <VPG_Grid>
 2000904:	00000406 	br	2000918 <GUI_ShowPAT+0x168>
                    case 14: VPG_Grid(pDisplay, 8); break;
 2000908:	e13ffe17 	ldw	r4,-8(fp)
 200090c:	01400204 	movi	r5,8
 2000910:	200033c0 	call	200033c <VPG_Grid>
 2000914:	0001883a 	nop
                }

}
 2000918:	e037883a 	mov	sp,fp
 200091c:	dfc00117 	ldw	ra,4(sp)
 2000920:	df000017 	ldw	fp,0(sp)
 2000924:	dec00204 	addi	sp,sp,8
 2000928:	f800283a 	ret

0200092c <GUI_VPG>:

void GUI_VPG(alt_video_display *pDisplay, TOUCH_HANDLE *pTouch){
 200092c:	defff904 	addi	sp,sp,-28
 2000930:	dfc00615 	stw	ra,24(sp)
 2000934:	df000515 	stw	fp,20(sp)
 2000938:	df000504 	addi	fp,sp,20
 200093c:	e13ffe15 	stw	r4,-8(fp)
 2000940:	e17fff15 	stw	r5,-4(fp)
	int X, Y;
	int PatId = 0;
 2000944:	e03ffb15 	stw	zero,-20(fp)

    // clean screen
    vid_clean_screen(pDisplay, BLACK_24);
 2000948:	e13ffe17 	ldw	r4,-8(fp)
 200094c:	000b883a 	mov	r5,zero
 2000950:	20064ec0 	call	20064ec <vid_clean_screen>


    VPG_ColorBar(pDisplay);
 2000954:	e13ffe17 	ldw	r4,-8(fp)
 2000958:	20006000 	call	2000600 <VPG_ColorBar>

    GUI_ShowPAT(pDisplay, PatId);
 200095c:	e13ffe17 	ldw	r4,-8(fp)
 2000960:	e17ffb17 	ldw	r5,-20(fp)
 2000964:	20007b00 	call	20007b0 <GUI_ShowPAT>

    while(1){
        if (Touch_GetXY(pTouch, &X, &Y)){
 2000968:	e0fffc04 	addi	r3,fp,-16
 200096c:	e0bffd04 	addi	r2,fp,-12
 2000970:	e13fff17 	ldw	r4,-4(fp)
 2000974:	180b883a 	mov	r5,r3
 2000978:	100d883a 	mov	r6,r2
 200097c:	20098000 	call	2009800 <Touch_GetXY>
 2000980:	10001326 	beq	r2,zero,20009d0 <GUI_VPG+0xa4>
            //printf(".");

            // change pattern
            PatId++;
 2000984:	e0bffb17 	ldw	r2,-20(fp)
 2000988:	10800044 	addi	r2,r2,1
 200098c:	e0bffb15 	stw	r2,-20(fp)
            if (PatId > 14)
 2000990:	e0bffb17 	ldw	r2,-20(fp)
 2000994:	108003d0 	cmplti	r2,r2,15
 2000998:	1000011e 	bne	r2,zero,20009a0 <GUI_VPG+0x74>
                PatId = 0;
 200099c:	e03ffb15 	stw	zero,-20(fp)

            printf("PatId=%d\r\n", PatId);
 20009a0:	01008074 	movhi	r4,513
 20009a4:	21075504 	addi	r4,r4,7508
 20009a8:	e17ffb17 	ldw	r5,-20(fp)
 20009ac:	200d0c80 	call	200d0c8 <printf>
            GUI_ShowPAT(pDisplay, PatId);
 20009b0:	e13ffe17 	ldw	r4,-8(fp)
 20009b4:	e17ffb17 	ldw	r5,-20(fp)
 20009b8:	20007b00 	call	20007b0 <GUI_ShowPAT>
            usleep(300*1000); // debounce
 20009bc:	01000174 	movhi	r4,5
 20009c0:	2124f804 	addi	r4,r4,-27680
 20009c4:	200ec680 	call	200ec68 <usleep>
            Touch_EmptyFifo( pTouch);
 20009c8:	e13fff17 	ldw	r4,-4(fp)
 20009cc:	20097c80 	call	20097c8 <Touch_EmptyFifo>
        }
    }
 20009d0:	003fe506 	br	2000968 <__reset+0xfdff9168>

020009d4 <GUI_ROBINSUN_CheckButton>:
    BUTTON_INFO buttons_competitionchoice2[6];
    BUTTON_INFO buttons_competitionsummary[8];
}DESK_INFO;

// Checks if we touched a button
int GUI_ROBINSUN_CheckButton(DESK_INFO *pDeskInfo, POINT *pt, BUTTON_INFO *button, int num, int none){
 20009d4:	defff804 	addi	sp,sp,-32
 20009d8:	dfc00715 	stw	ra,28(sp)
 20009dc:	df000615 	stw	fp,24(sp)
 20009e0:	df000604 	addi	fp,sp,24
 20009e4:	e13ffc15 	stw	r4,-16(fp)
 20009e8:	e17ffd15 	stw	r5,-12(fp)
 20009ec:	e1bffe15 	stw	r6,-8(fp)
 20009f0:	e1ffff15 	stw	r7,-4(fp)
	int ButtonId = none;
 20009f4:	e0800217 	ldw	r2,8(fp)
 20009f8:	e0bffa15 	stw	r2,-24(fp)
	int i;

	for(i=0;i<num && (ButtonId == none);i++){
 20009fc:	e03ffb15 	stw	zero,-20(fp)
 2000a00:	00000d06 	br	2000a38 <GUI_ROBINSUN_CheckButton+0x64>
		if (IsPtInRect(pt, &button[i].rc))
 2000a04:	e0bffb17 	ldw	r2,-20(fp)
 2000a08:	10800524 	muli	r2,r2,20
 2000a0c:	e0fffe17 	ldw	r3,-8(fp)
 2000a10:	1885883a 	add	r2,r3,r2
 2000a14:	e13ffd17 	ldw	r4,-12(fp)
 2000a18:	100b883a 	mov	r5,r2
 2000a1c:	20060f80 	call	20060f8 <IsPtInRect>
 2000a20:	10000226 	beq	r2,zero,2000a2c <GUI_ROBINSUN_CheckButton+0x58>
			ButtonId = i;
 2000a24:	e0bffb17 	ldw	r2,-20(fp)
 2000a28:	e0bffa15 	stw	r2,-24(fp)
// Checks if we touched a button
int GUI_ROBINSUN_CheckButton(DESK_INFO *pDeskInfo, POINT *pt, BUTTON_INFO *button, int num, int none){
	int ButtonId = none;
	int i;

	for(i=0;i<num && (ButtonId == none);i++){
 2000a2c:	e0bffb17 	ldw	r2,-20(fp)
 2000a30:	10800044 	addi	r2,r2,1
 2000a34:	e0bffb15 	stw	r2,-20(fp)
 2000a38:	e0fffb17 	ldw	r3,-20(fp)
 2000a3c:	e0bfff17 	ldw	r2,-4(fp)
 2000a40:	1880030e 	bge	r3,r2,2000a50 <GUI_ROBINSUN_CheckButton+0x7c>
 2000a44:	e0fffa17 	ldw	r3,-24(fp)
 2000a48:	e0800217 	ldw	r2,8(fp)
 2000a4c:	18bfed26 	beq	r3,r2,2000a04 <__reset+0xfdff9204>
		if (IsPtInRect(pt, &button[i].rc))
			ButtonId = i;
	}
	return ButtonId;
 2000a50:	e0bffa17 	ldw	r2,-24(fp)
}
 2000a54:	e037883a 	mov	sp,fp
 2000a58:	dfc00117 	ldw	ra,4(sp)
 2000a5c:	df000017 	ldw	fp,0(sp)
 2000a60:	dec00204 	addi	sp,sp,8
 2000a64:	f800283a 	ret

02000a68 <GUI_ROBINSUN_ShowWelcome>:
// ------------------------------------------------------------------------------ //
// ----------------------- BEGIN OF THE DISPLAY FUNCTIONS ----------------------- //
// ------------------------------------------------------------------------------ //

// Displays the starting message
void GUI_ROBINSUN_ShowWelcome(alt_video_display *pDisplay){
 2000a68:	defff804 	addi	sp,sp,-32
 2000a6c:	dfc00715 	stw	ra,28(sp)
 2000a70:	df000615 	stw	fp,24(sp)
 2000a74:	df000604 	addi	fp,sp,24
 2000a78:	e13fff15 	stw	r4,-4(fp)
	int x, y;

	// SCREEN_WIDTH = 240
	// SCREEN_HEIGHT = 320
	x = pDisplay->width / 2;	// 60 = 9mm   SCREEN = 36.5mm
 2000a7c:	e0bfff17 	ldw	r2,-4(fp)
 2000a80:	10800117 	ldw	r2,4(r2)
 2000a84:	1006d7fa 	srli	r3,r2,31
 2000a88:	1885883a 	add	r2,r3,r2
 2000a8c:	1005d07a 	srai	r2,r2,1
 2000a90:	e0bffd15 	stw	r2,-12(fp)
	y = pDisplay->height / 2 - 50;	// 20 = 3mm
 2000a94:	e0bfff17 	ldw	r2,-4(fp)
 2000a98:	10800217 	ldw	r2,8(r2)
 2000a9c:	1006d7fa 	srli	r3,r2,31
 2000aa0:	1885883a 	add	r2,r3,r2
 2000aa4:	1005d07a 	srai	r2,r2,1
 2000aa8:	10bff384 	addi	r2,r2,-50
 2000aac:	e0bffe15 	stw	r2,-8(fp)

	vid_print_string_alpha(x - 77, y, WHITE_24, BLACK_24, tahomabold_32, pDisplay, "Welcome"); // Welcome = 23mm
 2000ab0:	e0bffd17 	ldw	r2,-12(fp)
 2000ab4:	10ffecc4 	addi	r3,r2,-77
 2000ab8:	008080f4 	movhi	r2,515
 2000abc:	10b28504 	addi	r2,r2,-13804
 2000ac0:	d8800015 	stw	r2,0(sp)
 2000ac4:	e0bfff17 	ldw	r2,-4(fp)
 2000ac8:	d8800115 	stw	r2,4(sp)
 2000acc:	00808074 	movhi	r2,513
 2000ad0:	10875804 	addi	r2,r2,7520
 2000ad4:	d8800215 	stw	r2,8(sp)
 2000ad8:	1809883a 	mov	r4,r3
 2000adc:	e17ffe17 	ldw	r5,-8(fp)
 2000ae0:	01804034 	movhi	r6,256
 2000ae4:	31bfffc4 	addi	r6,r6,-1
 2000ae8:	000f883a 	mov	r7,zero
 2000aec:	2008b400 	call	2008b40 <vid_print_string_alpha>
	vid_print_string_alpha(x - 57, y+40, BLUE_24, BLACK_24, tahomabold_20, pDisplay, "ROBINSUN"); // ROBINSUN = 17mm
 2000af0:	e0bffd17 	ldw	r2,-12(fp)
 2000af4:	113ff1c4 	addi	r4,r2,-57
 2000af8:	e0bffe17 	ldw	r2,-8(fp)
 2000afc:	10c00a04 	addi	r3,r2,40
 2000b00:	008080f4 	movhi	r2,515
 2000b04:	10af9504 	addi	r2,r2,-16812
 2000b08:	d8800015 	stw	r2,0(sp)
 2000b0c:	e0bfff17 	ldw	r2,-4(fp)
 2000b10:	d8800115 	stw	r2,4(sp)
 2000b14:	00808074 	movhi	r2,513
 2000b18:	10875a04 	addi	r2,r2,7528
 2000b1c:	d8800215 	stw	r2,8(sp)
 2000b20:	180b883a 	mov	r5,r3
 2000b24:	01803fc4 	movi	r6,255
 2000b28:	000f883a 	mov	r7,zero
 2000b2c:	2008b400 	call	2008b40 <vid_print_string_alpha>
	vid_print_string_alpha(x - 83, y+62, BLUE_24, BLACK_24, tahomabold_20, pDisplay, "Team's Member !"); // 25mm
 2000b30:	e0bffd17 	ldw	r2,-12(fp)
 2000b34:	113feb44 	addi	r4,r2,-83
 2000b38:	e0bffe17 	ldw	r2,-8(fp)
 2000b3c:	10c00f84 	addi	r3,r2,62
 2000b40:	008080f4 	movhi	r2,515
 2000b44:	10af9504 	addi	r2,r2,-16812
 2000b48:	d8800015 	stw	r2,0(sp)
 2000b4c:	e0bfff17 	ldw	r2,-4(fp)
 2000b50:	d8800115 	stw	r2,4(sp)
 2000b54:	00808074 	movhi	r2,513
 2000b58:	10875d04 	addi	r2,r2,7540
 2000b5c:	d8800215 	stw	r2,8(sp)
 2000b60:	180b883a 	mov	r5,r3
 2000b64:	01803fc4 	movi	r6,255
 2000b68:	000f883a 	mov	r7,zero
 2000b6c:	2008b400 	call	2008b40 <vid_print_string_alpha>
}
 2000b70:	e037883a 	mov	sp,fp
 2000b74:	dfc00117 	ldw	ra,4(sp)
 2000b78:	df000017 	ldw	fp,0(sp)
 2000b7c:	dec00204 	addi	sp,sp,8
 2000b80:	f800283a 	ret

02000b84 <GUI_ROBINSUN_Init>:

void GUI_ROBINSUN_Init(alt_video_display *pDisplay, DESK_INFO *pDeskInfo, BUTTON_INFO *button, int num){
 2000b84:	defff004 	addi	sp,sp,-64
 2000b88:	dfc00f15 	stw	ra,60(sp)
 2000b8c:	df000e15 	stw	fp,56(sp)
 2000b90:	df000e04 	addi	fp,sp,56
 2000b94:	e13ffc15 	stw	r4,-16(fp)
 2000b98:	e17ffd15 	stw	r5,-12(fp)
 2000b9c:	e1bffe15 	stw	r6,-8(fp)
 2000ba0:	e1ffff15 	stw	r7,-4(fp)
	int i;
	RECT rc;
	const int BoxH = 40;
 2000ba4:	00800a04 	movi	r2,40
 2000ba8:	e0bff415 	stw	r2,-48(fp)
	const int DistBorder = 2;
 2000bac:	00800084 	movi	r2,2
 2000bb0:	e0bff515 	stw	r2,-44(fp)
	const int DistW = 25;
 2000bb4:	00800644 	movi	r2,25
 2000bb8:	e0bff615 	stw	r2,-40(fp)
	int GapH;

	// Space to put between the buttons in order to be equally spaced
	GapH = (pDisplay->height - ((num)*BoxH))/(num+1);
 2000bbc:	e0bffc17 	ldw	r2,-16(fp)
 2000bc0:	10c00217 	ldw	r3,8(r2)
 2000bc4:	e13fff17 	ldw	r4,-4(fp)
 2000bc8:	e0bff417 	ldw	r2,-48(fp)
 2000bcc:	2085383a 	mul	r2,r4,r2
 2000bd0:	1887c83a 	sub	r3,r3,r2
 2000bd4:	e0bfff17 	ldw	r2,-4(fp)
 2000bd8:	10800044 	addi	r2,r2,1
 2000bdc:	1809883a 	mov	r4,r3
 2000be0:	100b883a 	mov	r5,r2
 2000be4:	200a4d00 	call	200a4d0 <__divsi3>
 2000be8:	e0bff715 	stw	r2,-36(fp)

	rc.top = DistBorder + GapH;
 2000bec:	e0fff517 	ldw	r3,-44(fp)
 2000bf0:	e0bff717 	ldw	r2,-36(fp)
 2000bf4:	1885883a 	add	r2,r3,r2
 2000bf8:	e0bffa15 	stw	r2,-24(fp)
	rc.bottom = rc.top + BoxH;
 2000bfc:	e0fffa17 	ldw	r3,-24(fp)
 2000c00:	e0bff417 	ldw	r2,-48(fp)
 2000c04:	1885883a 	add	r2,r3,r2
 2000c08:	e0bffb15 	stw	r2,-20(fp)
	rc.left = DistW;
 2000c0c:	e0bff617 	ldw	r2,-40(fp)
 2000c10:	e0bff815 	stw	r2,-32(fp)
	rc.right = pDisplay->width - DistW;
 2000c14:	e0bffc17 	ldw	r2,-16(fp)
 2000c18:	10c00117 	ldw	r3,4(r2)
 2000c1c:	e0bff617 	ldw	r2,-40(fp)
 2000c20:	1885c83a 	sub	r2,r3,r2
 2000c24:	e0bff915 	stw	r2,-28(fp)

	// Desk border
	RectSet(&pDeskInfo->rcDisp, DistBorder, pDisplay->width-DistBorder, DistBorder, pDisplay->height-DistBorder);
 2000c28:	e13ffd17 	ldw	r4,-12(fp)
 2000c2c:	e0bffc17 	ldw	r2,-16(fp)
 2000c30:	10c00117 	ldw	r3,4(r2)
 2000c34:	e0bff517 	ldw	r2,-44(fp)
 2000c38:	188dc83a 	sub	r6,r3,r2
 2000c3c:	e0bffc17 	ldw	r2,-16(fp)
 2000c40:	10c00217 	ldw	r3,8(r2)
 2000c44:	e0bff517 	ldw	r2,-44(fp)
 2000c48:	1885c83a 	sub	r2,r3,r2
 2000c4c:	d8800015 	stw	r2,0(sp)
 2000c50:	e17ff517 	ldw	r5,-44(fp)
 2000c54:	e1fff517 	ldw	r7,-44(fp)
 2000c58:	20061bc0 	call	20061bc <RectSet>

	// Initialization of the rectangles for the buttons
	for(i=0;i<num;i++){
 2000c5c:	e03ff315 	stw	zero,-52(fp)
 2000c60:	00001406 	br	2000cb4 <GUI_ROBINSUN_Init+0x130>
		RectCopy(&button[i].rc, &rc);
 2000c64:	e0bff317 	ldw	r2,-52(fp)
 2000c68:	10800524 	muli	r2,r2,20
 2000c6c:	e0fffe17 	ldw	r3,-8(fp)
 2000c70:	1885883a 	add	r2,r3,r2
 2000c74:	1007883a 	mov	r3,r2
 2000c78:	e0bff804 	addi	r2,fp,-32
 2000c7c:	1809883a 	mov	r4,r3
 2000c80:	100b883a 	mov	r5,r2
 2000c84:	20063280 	call	2006328 <RectCopy>
		RectOffset(&rc, 0, BoxH+GapH);
 2000c88:	e0fff417 	ldw	r3,-48(fp)
 2000c8c:	e0bff717 	ldw	r2,-36(fp)
 2000c90:	1885883a 	add	r2,r3,r2
 2000c94:	e0fff804 	addi	r3,fp,-32
 2000c98:	1809883a 	mov	r4,r3
 2000c9c:	000b883a 	mov	r5,zero
 2000ca0:	100d883a 	mov	r6,r2
 2000ca4:	20062a00 	call	20062a0 <RectOffset>

	// Desk border
	RectSet(&pDeskInfo->rcDisp, DistBorder, pDisplay->width-DistBorder, DistBorder, pDisplay->height-DistBorder);

	// Initialization of the rectangles for the buttons
	for(i=0;i<num;i++){
 2000ca8:	e0bff317 	ldw	r2,-52(fp)
 2000cac:	10800044 	addi	r2,r2,1
 2000cb0:	e0bff315 	stw	r2,-52(fp)
 2000cb4:	e0fff317 	ldw	r3,-52(fp)
 2000cb8:	e0bfff17 	ldw	r2,-4(fp)
 2000cbc:	18bfe916 	blt	r3,r2,2000c64 <__reset+0xfdff9464>
		RectCopy(&button[i].rc, &rc);
		RectOffset(&rc, 0, BoxH+GapH);
	}
}
 2000cc0:	e037883a 	mov	sp,fp
 2000cc4:	dfc00117 	ldw	ra,4(sp)
 2000cc8:	df000017 	ldw	fp,0(sp)
 2000ccc:	dec00204 	addi	sp,sp,8
 2000cd0:	f800283a 	ret

02000cd4 <GUI_ROBINSUN_Draw>:

void GUI_ROBINSUN_Draw(alt_video_display *pDisplay, DESK_INFO *pDeskInfo, BUTTON_INFO *button, int num, char *text1, char *text2, char *text3, char *text4, char *text5, char *text6){
 2000cd4:	defff004 	addi	sp,sp,-64
 2000cd8:	dfc00f15 	stw	ra,60(sp)
 2000cdc:	df000e15 	stw	fp,56(sp)
 2000ce0:	dc400d15 	stw	r17,52(sp)
 2000ce4:	dc000c15 	stw	r16,48(sp)
 2000ce8:	df000e04 	addi	fp,sp,56
 2000cec:	e13ffa15 	stw	r4,-24(fp)
 2000cf0:	e17ffb15 	stw	r5,-20(fp)
 2000cf4:	e1bffc15 	stw	r6,-16(fp)
 2000cf8:	e1fffd15 	stw	r7,-12(fp)
    int i;
    RECT rc;

    // draw border
    RectCopy(&rc, &pDeskInfo->rcDisp);
 2000cfc:	e0bffb17 	ldw	r2,-20(fp)
 2000d00:	e0fff604 	addi	r3,fp,-40
 2000d04:	1809883a 	mov	r4,r3
 2000d08:	100b883a 	mov	r5,r2
 2000d0c:	20063280 	call	2006328 <RectCopy>
    vid_draw_box (rc.left, rc.top, rc.right, rc.bottom, WHITE_24, DO_NOT_FILL, pDisplay);
 2000d10:	e13ff617 	ldw	r4,-40(fp)
 2000d14:	e17ff817 	ldw	r5,-32(fp)
 2000d18:	e1bff717 	ldw	r6,-36(fp)
 2000d1c:	e0fff917 	ldw	r3,-28(fp)
 2000d20:	00804034 	movhi	r2,256
 2000d24:	10bfffc4 	addi	r2,r2,-1
 2000d28:	d8800015 	stw	r2,0(sp)
 2000d2c:	d8000115 	stw	zero,4(sp)
 2000d30:	e0bffa17 	ldw	r2,-24(fp)
 2000d34:	d8800215 	stw	r2,8(sp)
 2000d38:	180f883a 	mov	r7,r3
 2000d3c:	2006d340 	call	2006d34 <vid_draw_box>

    // draw buttons
    for(i=0;i<num;i++){
 2000d40:	e03ff515 	stw	zero,-44(fp)
 2000d44:	00013c06 	br	2001238 <GUI_ROBINSUN_Draw+0x564>
        RectCopy(&rc, &button[i].rc);
 2000d48:	e0bff517 	ldw	r2,-44(fp)
 2000d4c:	10800524 	muli	r2,r2,20
 2000d50:	e0fffc17 	ldw	r3,-16(fp)
 2000d54:	1885883a 	add	r2,r3,r2
 2000d58:	1007883a 	mov	r3,r2
 2000d5c:	e0bff604 	addi	r2,fp,-40
 2000d60:	1009883a 	mov	r4,r2
 2000d64:	180b883a 	mov	r5,r3
 2000d68:	20063280 	call	2006328 <RectCopy>
        if (i == 0){
 2000d6c:	e0bff517 	ldw	r2,-44(fp)
 2000d70:	1000301e 	bne	r2,zero,2000e34 <GUI_ROBINSUN_Draw+0x160>
        	vid_draw_box (rc.left, rc.top, rc.right, rc.bottom, BLACK_24, DO_FILL, pDisplay);
 2000d74:	e13ff617 	ldw	r4,-40(fp)
 2000d78:	e17ff817 	ldw	r5,-32(fp)
 2000d7c:	e1bff717 	ldw	r6,-36(fp)
 2000d80:	e0fff917 	ldw	r3,-28(fp)
 2000d84:	d8000015 	stw	zero,0(sp)
 2000d88:	00800044 	movi	r2,1
 2000d8c:	d8800115 	stw	r2,4(sp)
 2000d90:	e0bffa17 	ldw	r2,-24(fp)
 2000d94:	d8800215 	stw	r2,8(sp)
 2000d98:	180f883a 	mov	r7,r3
 2000d9c:	2006d340 	call	2006d34 <vid_draw_box>
            vid_draw_box (rc.left, rc.top, rc.right, rc.bottom, WHITE_24, DO_NOT_FILL, pDisplay);
 2000da0:	e13ff617 	ldw	r4,-40(fp)
 2000da4:	e17ff817 	ldw	r5,-32(fp)
 2000da8:	e1bff717 	ldw	r6,-36(fp)
 2000dac:	e0fff917 	ldw	r3,-28(fp)
 2000db0:	00804034 	movhi	r2,256
 2000db4:	10bfffc4 	addi	r2,r2,-1
 2000db8:	d8800015 	stw	r2,0(sp)
 2000dbc:	d8000115 	stw	zero,4(sp)
 2000dc0:	e0bffa17 	ldw	r2,-24(fp)
 2000dc4:	d8800215 	stw	r2,8(sp)
 2000dc8:	180f883a 	mov	r7,r3
 2000dcc:	2006d340 	call	2006d34 <vid_draw_box>
            vid_print_string_alpha(rc.left+8, rc.top+(RectHeight(&rc)-22)/2, WHITE_24, BLACK_24, tahomabold_20, pDisplay, text1);
 2000dd0:	e0bff617 	ldw	r2,-40(fp)
 2000dd4:	14400204 	addi	r17,r2,8
 2000dd8:	e43ff817 	ldw	r16,-32(fp)
 2000ddc:	e0bff604 	addi	r2,fp,-40
 2000de0:	1009883a 	mov	r4,r2
 2000de4:	20063c00 	call	20063c0 <RectHeight>
 2000de8:	10bffa84 	addi	r2,r2,-22
 2000dec:	1006d7fa 	srli	r3,r2,31
 2000df0:	1885883a 	add	r2,r3,r2
 2000df4:	1005d07a 	srai	r2,r2,1
 2000df8:	8087883a 	add	r3,r16,r2
 2000dfc:	008080f4 	movhi	r2,515
 2000e00:	10af9504 	addi	r2,r2,-16812
 2000e04:	d8800015 	stw	r2,0(sp)
 2000e08:	e0bffa17 	ldw	r2,-24(fp)
 2000e0c:	d8800115 	stw	r2,4(sp)
 2000e10:	e0800217 	ldw	r2,8(fp)
 2000e14:	d8800215 	stw	r2,8(sp)
 2000e18:	8809883a 	mov	r4,r17
 2000e1c:	180b883a 	mov	r5,r3
 2000e20:	01804034 	movhi	r6,256
 2000e24:	31bfffc4 	addi	r6,r6,-1
 2000e28:	000f883a 	mov	r7,zero
 2000e2c:	2008b400 	call	2008b40 <vid_print_string_alpha>
 2000e30:	0000fe06 	br	200122c <GUI_ROBINSUN_Draw+0x558>
        }
        else if (i == 1){
 2000e34:	e0bff517 	ldw	r2,-44(fp)
 2000e38:	10800058 	cmpnei	r2,r2,1
 2000e3c:	1000301e 	bne	r2,zero,2000f00 <GUI_ROBINSUN_Draw+0x22c>
        	vid_draw_box (rc.left, rc.top, rc.right, rc.bottom, BLACK_24, DO_FILL, pDisplay);
 2000e40:	e13ff617 	ldw	r4,-40(fp)
 2000e44:	e17ff817 	ldw	r5,-32(fp)
 2000e48:	e1bff717 	ldw	r6,-36(fp)
 2000e4c:	e0fff917 	ldw	r3,-28(fp)
 2000e50:	d8000015 	stw	zero,0(sp)
 2000e54:	00800044 	movi	r2,1
 2000e58:	d8800115 	stw	r2,4(sp)
 2000e5c:	e0bffa17 	ldw	r2,-24(fp)
 2000e60:	d8800215 	stw	r2,8(sp)
 2000e64:	180f883a 	mov	r7,r3
 2000e68:	2006d340 	call	2006d34 <vid_draw_box>
        	vid_draw_box (rc.left, rc.top, rc.right, rc.bottom, WHITE_24, DO_NOT_FILL, pDisplay);
 2000e6c:	e13ff617 	ldw	r4,-40(fp)
 2000e70:	e17ff817 	ldw	r5,-32(fp)
 2000e74:	e1bff717 	ldw	r6,-36(fp)
 2000e78:	e0fff917 	ldw	r3,-28(fp)
 2000e7c:	00804034 	movhi	r2,256
 2000e80:	10bfffc4 	addi	r2,r2,-1
 2000e84:	d8800015 	stw	r2,0(sp)
 2000e88:	d8000115 	stw	zero,4(sp)
 2000e8c:	e0bffa17 	ldw	r2,-24(fp)
 2000e90:	d8800215 	stw	r2,8(sp)
 2000e94:	180f883a 	mov	r7,r3
 2000e98:	2006d340 	call	2006d34 <vid_draw_box>
        	vid_print_string_alpha(rc.left+8, rc.top+(RectHeight(&rc)-22)/2, WHITE_24, BLACK_24, tahomabold_20, pDisplay, text2);
 2000e9c:	e0bff617 	ldw	r2,-40(fp)
 2000ea0:	14400204 	addi	r17,r2,8
 2000ea4:	e43ff817 	ldw	r16,-32(fp)
 2000ea8:	e0bff604 	addi	r2,fp,-40
 2000eac:	1009883a 	mov	r4,r2
 2000eb0:	20063c00 	call	20063c0 <RectHeight>
 2000eb4:	10bffa84 	addi	r2,r2,-22
 2000eb8:	1006d7fa 	srli	r3,r2,31
 2000ebc:	1885883a 	add	r2,r3,r2
 2000ec0:	1005d07a 	srai	r2,r2,1
 2000ec4:	8087883a 	add	r3,r16,r2
 2000ec8:	008080f4 	movhi	r2,515
 2000ecc:	10af9504 	addi	r2,r2,-16812
 2000ed0:	d8800015 	stw	r2,0(sp)
 2000ed4:	e0bffa17 	ldw	r2,-24(fp)
 2000ed8:	d8800115 	stw	r2,4(sp)
 2000edc:	e0800317 	ldw	r2,12(fp)
 2000ee0:	d8800215 	stw	r2,8(sp)
 2000ee4:	8809883a 	mov	r4,r17
 2000ee8:	180b883a 	mov	r5,r3
 2000eec:	01804034 	movhi	r6,256
 2000ef0:	31bfffc4 	addi	r6,r6,-1
 2000ef4:	000f883a 	mov	r7,zero
 2000ef8:	2008b400 	call	2008b40 <vid_print_string_alpha>
 2000efc:	0000cb06 	br	200122c <GUI_ROBINSUN_Draw+0x558>
        }
        else if (i == 2){
 2000f00:	e0bff517 	ldw	r2,-44(fp)
 2000f04:	10800098 	cmpnei	r2,r2,2
 2000f08:	1000301e 	bne	r2,zero,2000fcc <GUI_ROBINSUN_Draw+0x2f8>
        	vid_draw_box (rc.left, rc.top, rc.right, rc.bottom, BLACK_24, DO_FILL, pDisplay);
 2000f0c:	e13ff617 	ldw	r4,-40(fp)
 2000f10:	e17ff817 	ldw	r5,-32(fp)
 2000f14:	e1bff717 	ldw	r6,-36(fp)
 2000f18:	e0fff917 	ldw	r3,-28(fp)
 2000f1c:	d8000015 	stw	zero,0(sp)
 2000f20:	00800044 	movi	r2,1
 2000f24:	d8800115 	stw	r2,4(sp)
 2000f28:	e0bffa17 	ldw	r2,-24(fp)
 2000f2c:	d8800215 	stw	r2,8(sp)
 2000f30:	180f883a 	mov	r7,r3
 2000f34:	2006d340 	call	2006d34 <vid_draw_box>
        	vid_draw_box (rc.left, rc.top, rc.right, rc.bottom, WHITE_24, DO_NOT_FILL, pDisplay);
 2000f38:	e13ff617 	ldw	r4,-40(fp)
 2000f3c:	e17ff817 	ldw	r5,-32(fp)
 2000f40:	e1bff717 	ldw	r6,-36(fp)
 2000f44:	e0fff917 	ldw	r3,-28(fp)
 2000f48:	00804034 	movhi	r2,256
 2000f4c:	10bfffc4 	addi	r2,r2,-1
 2000f50:	d8800015 	stw	r2,0(sp)
 2000f54:	d8000115 	stw	zero,4(sp)
 2000f58:	e0bffa17 	ldw	r2,-24(fp)
 2000f5c:	d8800215 	stw	r2,8(sp)
 2000f60:	180f883a 	mov	r7,r3
 2000f64:	2006d340 	call	2006d34 <vid_draw_box>
        	vid_print_string_alpha(rc.left+8, rc.top+(RectHeight(&rc)-22)/2, WHITE_24, BLACK_24, tahomabold_20, pDisplay, text3);
 2000f68:	e0bff617 	ldw	r2,-40(fp)
 2000f6c:	14400204 	addi	r17,r2,8
 2000f70:	e43ff817 	ldw	r16,-32(fp)
 2000f74:	e0bff604 	addi	r2,fp,-40
 2000f78:	1009883a 	mov	r4,r2
 2000f7c:	20063c00 	call	20063c0 <RectHeight>
 2000f80:	10bffa84 	addi	r2,r2,-22
 2000f84:	1006d7fa 	srli	r3,r2,31
 2000f88:	1885883a 	add	r2,r3,r2
 2000f8c:	1005d07a 	srai	r2,r2,1
 2000f90:	8087883a 	add	r3,r16,r2
 2000f94:	008080f4 	movhi	r2,515
 2000f98:	10af9504 	addi	r2,r2,-16812
 2000f9c:	d8800015 	stw	r2,0(sp)
 2000fa0:	e0bffa17 	ldw	r2,-24(fp)
 2000fa4:	d8800115 	stw	r2,4(sp)
 2000fa8:	e0800417 	ldw	r2,16(fp)
 2000fac:	d8800215 	stw	r2,8(sp)
 2000fb0:	8809883a 	mov	r4,r17
 2000fb4:	180b883a 	mov	r5,r3
 2000fb8:	01804034 	movhi	r6,256
 2000fbc:	31bfffc4 	addi	r6,r6,-1
 2000fc0:	000f883a 	mov	r7,zero
 2000fc4:	2008b400 	call	2008b40 <vid_print_string_alpha>
 2000fc8:	00009806 	br	200122c <GUI_ROBINSUN_Draw+0x558>
        }
        else if (i == 3){
 2000fcc:	e0bff517 	ldw	r2,-44(fp)
 2000fd0:	108000d8 	cmpnei	r2,r2,3
 2000fd4:	1000301e 	bne	r2,zero,2001098 <GUI_ROBINSUN_Draw+0x3c4>
        	vid_draw_box (rc.left, rc.top, rc.right, rc.bottom, BLACK_24, DO_FILL, pDisplay);
 2000fd8:	e13ff617 	ldw	r4,-40(fp)
 2000fdc:	e17ff817 	ldw	r5,-32(fp)
 2000fe0:	e1bff717 	ldw	r6,-36(fp)
 2000fe4:	e0fff917 	ldw	r3,-28(fp)
 2000fe8:	d8000015 	stw	zero,0(sp)
 2000fec:	00800044 	movi	r2,1
 2000ff0:	d8800115 	stw	r2,4(sp)
 2000ff4:	e0bffa17 	ldw	r2,-24(fp)
 2000ff8:	d8800215 	stw	r2,8(sp)
 2000ffc:	180f883a 	mov	r7,r3
 2001000:	2006d340 	call	2006d34 <vid_draw_box>
        	vid_draw_box (rc.left, rc.top, rc.right, rc.bottom, WHITE_24, DO_NOT_FILL, pDisplay);
 2001004:	e13ff617 	ldw	r4,-40(fp)
 2001008:	e17ff817 	ldw	r5,-32(fp)
 200100c:	e1bff717 	ldw	r6,-36(fp)
 2001010:	e0fff917 	ldw	r3,-28(fp)
 2001014:	00804034 	movhi	r2,256
 2001018:	10bfffc4 	addi	r2,r2,-1
 200101c:	d8800015 	stw	r2,0(sp)
 2001020:	d8000115 	stw	zero,4(sp)
 2001024:	e0bffa17 	ldw	r2,-24(fp)
 2001028:	d8800215 	stw	r2,8(sp)
 200102c:	180f883a 	mov	r7,r3
 2001030:	2006d340 	call	2006d34 <vid_draw_box>
        	vid_print_string_alpha(rc.left+8, rc.top+(RectHeight(&rc)-22)/2, WHITE_24, BLACK_24, tahomabold_20, pDisplay, text4);
 2001034:	e0bff617 	ldw	r2,-40(fp)
 2001038:	14400204 	addi	r17,r2,8
 200103c:	e43ff817 	ldw	r16,-32(fp)
 2001040:	e0bff604 	addi	r2,fp,-40
 2001044:	1009883a 	mov	r4,r2
 2001048:	20063c00 	call	20063c0 <RectHeight>
 200104c:	10bffa84 	addi	r2,r2,-22
 2001050:	1006d7fa 	srli	r3,r2,31
 2001054:	1885883a 	add	r2,r3,r2
 2001058:	1005d07a 	srai	r2,r2,1
 200105c:	8087883a 	add	r3,r16,r2
 2001060:	008080f4 	movhi	r2,515
 2001064:	10af9504 	addi	r2,r2,-16812
 2001068:	d8800015 	stw	r2,0(sp)
 200106c:	e0bffa17 	ldw	r2,-24(fp)
 2001070:	d8800115 	stw	r2,4(sp)
 2001074:	e0800517 	ldw	r2,20(fp)
 2001078:	d8800215 	stw	r2,8(sp)
 200107c:	8809883a 	mov	r4,r17
 2001080:	180b883a 	mov	r5,r3
 2001084:	01804034 	movhi	r6,256
 2001088:	31bfffc4 	addi	r6,r6,-1
 200108c:	000f883a 	mov	r7,zero
 2001090:	2008b400 	call	2008b40 <vid_print_string_alpha>
 2001094:	00006506 	br	200122c <GUI_ROBINSUN_Draw+0x558>
        }
        else if (i == 4){
 2001098:	e0bff517 	ldw	r2,-44(fp)
 200109c:	10800118 	cmpnei	r2,r2,4
 20010a0:	1000301e 	bne	r2,zero,2001164 <GUI_ROBINSUN_Draw+0x490>
        	vid_draw_box (rc.left, rc.top, rc.right, rc.bottom, BLACK_24, DO_FILL, pDisplay);
 20010a4:	e13ff617 	ldw	r4,-40(fp)
 20010a8:	e17ff817 	ldw	r5,-32(fp)
 20010ac:	e1bff717 	ldw	r6,-36(fp)
 20010b0:	e0fff917 	ldw	r3,-28(fp)
 20010b4:	d8000015 	stw	zero,0(sp)
 20010b8:	00800044 	movi	r2,1
 20010bc:	d8800115 	stw	r2,4(sp)
 20010c0:	e0bffa17 	ldw	r2,-24(fp)
 20010c4:	d8800215 	stw	r2,8(sp)
 20010c8:	180f883a 	mov	r7,r3
 20010cc:	2006d340 	call	2006d34 <vid_draw_box>
        	vid_draw_box (rc.left, rc.top, rc.right, rc.bottom, WHITE_24, DO_NOT_FILL, pDisplay);
 20010d0:	e13ff617 	ldw	r4,-40(fp)
 20010d4:	e17ff817 	ldw	r5,-32(fp)
 20010d8:	e1bff717 	ldw	r6,-36(fp)
 20010dc:	e0fff917 	ldw	r3,-28(fp)
 20010e0:	00804034 	movhi	r2,256
 20010e4:	10bfffc4 	addi	r2,r2,-1
 20010e8:	d8800015 	stw	r2,0(sp)
 20010ec:	d8000115 	stw	zero,4(sp)
 20010f0:	e0bffa17 	ldw	r2,-24(fp)
 20010f4:	d8800215 	stw	r2,8(sp)
 20010f8:	180f883a 	mov	r7,r3
 20010fc:	2006d340 	call	2006d34 <vid_draw_box>
        	vid_print_string_alpha(rc.left+8, rc.top+(RectHeight(&rc)-22)/2, WHITE_24, BLACK_24, tahomabold_20, pDisplay, text5);
 2001100:	e0bff617 	ldw	r2,-40(fp)
 2001104:	14400204 	addi	r17,r2,8
 2001108:	e43ff817 	ldw	r16,-32(fp)
 200110c:	e0bff604 	addi	r2,fp,-40
 2001110:	1009883a 	mov	r4,r2
 2001114:	20063c00 	call	20063c0 <RectHeight>
 2001118:	10bffa84 	addi	r2,r2,-22
 200111c:	1006d7fa 	srli	r3,r2,31
 2001120:	1885883a 	add	r2,r3,r2
 2001124:	1005d07a 	srai	r2,r2,1
 2001128:	8087883a 	add	r3,r16,r2
 200112c:	008080f4 	movhi	r2,515
 2001130:	10af9504 	addi	r2,r2,-16812
 2001134:	d8800015 	stw	r2,0(sp)
 2001138:	e0bffa17 	ldw	r2,-24(fp)
 200113c:	d8800115 	stw	r2,4(sp)
 2001140:	e0800617 	ldw	r2,24(fp)
 2001144:	d8800215 	stw	r2,8(sp)
 2001148:	8809883a 	mov	r4,r17
 200114c:	180b883a 	mov	r5,r3
 2001150:	01804034 	movhi	r6,256
 2001154:	31bfffc4 	addi	r6,r6,-1
 2001158:	000f883a 	mov	r7,zero
 200115c:	2008b400 	call	2008b40 <vid_print_string_alpha>
 2001160:	00003206 	br	200122c <GUI_ROBINSUN_Draw+0x558>
        }
        else if (i == 5){
 2001164:	e0bff517 	ldw	r2,-44(fp)
 2001168:	10800158 	cmpnei	r2,r2,5
 200116c:	10002f1e 	bne	r2,zero,200122c <GUI_ROBINSUN_Draw+0x558>
        	vid_draw_box (rc.left, rc.top, rc.right, rc.bottom, BLACK_24, DO_FILL, pDisplay);
 2001170:	e13ff617 	ldw	r4,-40(fp)
 2001174:	e17ff817 	ldw	r5,-32(fp)
 2001178:	e1bff717 	ldw	r6,-36(fp)
 200117c:	e0fff917 	ldw	r3,-28(fp)
 2001180:	d8000015 	stw	zero,0(sp)
 2001184:	00800044 	movi	r2,1
 2001188:	d8800115 	stw	r2,4(sp)
 200118c:	e0bffa17 	ldw	r2,-24(fp)
 2001190:	d8800215 	stw	r2,8(sp)
 2001194:	180f883a 	mov	r7,r3
 2001198:	2006d340 	call	2006d34 <vid_draw_box>
        	vid_draw_box (rc.left, rc.top, rc.right, rc.bottom, WHITE_24, DO_NOT_FILL, pDisplay);
 200119c:	e13ff617 	ldw	r4,-40(fp)
 20011a0:	e17ff817 	ldw	r5,-32(fp)
 20011a4:	e1bff717 	ldw	r6,-36(fp)
 20011a8:	e0fff917 	ldw	r3,-28(fp)
 20011ac:	00804034 	movhi	r2,256
 20011b0:	10bfffc4 	addi	r2,r2,-1
 20011b4:	d8800015 	stw	r2,0(sp)
 20011b8:	d8000115 	stw	zero,4(sp)
 20011bc:	e0bffa17 	ldw	r2,-24(fp)
 20011c0:	d8800215 	stw	r2,8(sp)
 20011c4:	180f883a 	mov	r7,r3
 20011c8:	2006d340 	call	2006d34 <vid_draw_box>
        	vid_print_string_alpha(rc.left+8, rc.top+(RectHeight(&rc)-22)/2, WHITE_24, BLACK_24, tahomabold_20, pDisplay, text6);
 20011cc:	e0bff617 	ldw	r2,-40(fp)
 20011d0:	14400204 	addi	r17,r2,8
 20011d4:	e43ff817 	ldw	r16,-32(fp)
 20011d8:	e0bff604 	addi	r2,fp,-40
 20011dc:	1009883a 	mov	r4,r2
 20011e0:	20063c00 	call	20063c0 <RectHeight>
 20011e4:	10bffa84 	addi	r2,r2,-22
 20011e8:	1006d7fa 	srli	r3,r2,31
 20011ec:	1885883a 	add	r2,r3,r2
 20011f0:	1005d07a 	srai	r2,r2,1
 20011f4:	8087883a 	add	r3,r16,r2
 20011f8:	008080f4 	movhi	r2,515
 20011fc:	10af9504 	addi	r2,r2,-16812
 2001200:	d8800015 	stw	r2,0(sp)
 2001204:	e0bffa17 	ldw	r2,-24(fp)
 2001208:	d8800115 	stw	r2,4(sp)
 200120c:	e0800717 	ldw	r2,28(fp)
 2001210:	d8800215 	stw	r2,8(sp)
 2001214:	8809883a 	mov	r4,r17
 2001218:	180b883a 	mov	r5,r3
 200121c:	01804034 	movhi	r6,256
 2001220:	31bfffc4 	addi	r6,r6,-1
 2001224:	000f883a 	mov	r7,zero
 2001228:	2008b400 	call	2008b40 <vid_print_string_alpha>
    // draw border
    RectCopy(&rc, &pDeskInfo->rcDisp);
    vid_draw_box (rc.left, rc.top, rc.right, rc.bottom, WHITE_24, DO_NOT_FILL, pDisplay);

    // draw buttons
    for(i=0;i<num;i++){
 200122c:	e0bff517 	ldw	r2,-44(fp)
 2001230:	10800044 	addi	r2,r2,1
 2001234:	e0bff515 	stw	r2,-44(fp)
 2001238:	e0fff517 	ldw	r3,-44(fp)
 200123c:	e0bffd17 	ldw	r2,-12(fp)
 2001240:	18bec116 	blt	r3,r2,2000d48 <__reset+0xfdff9548>
        else
        {

        }
    }
}
 2001244:	e6fffe04 	addi	sp,fp,-8
 2001248:	dfc00317 	ldw	ra,12(sp)
 200124c:	df000217 	ldw	fp,8(sp)
 2001250:	dc400117 	ldw	r17,4(sp)
 2001254:	dc000017 	ldw	r16,0(sp)
 2001258:	dec00404 	addi	sp,sp,16
 200125c:	f800283a 	ret

02001260 <GUI_ROBINSUN_CompetitionChoice1_Init>:

void GUI_ROBINSUN_CompetitionChoice1_Init(alt_video_display *pDisplay, DESK_INFO *pDeskInfo){
 2001260:	defff104 	addi	sp,sp,-60
 2001264:	dfc00e15 	stw	ra,56(sp)
 2001268:	df000d15 	stw	fp,52(sp)
 200126c:	df000d04 	addi	fp,sp,52
 2001270:	e13ffe15 	stw	r4,-8(fp)
 2001274:	e17fff15 	stw	r5,-4(fp)
	int i;
	RECT rc;
	const int BoxH = 40;
 2001278:	00800a04 	movi	r2,40
 200127c:	e0bff515 	stw	r2,-44(fp)
	const int DistBorder = 2;
 2001280:	00800084 	movi	r2,2
 2001284:	e0bff615 	stw	r2,-40(fp)
	const int DistW = 10;
 2001288:	00800284 	movi	r2,10
 200128c:	e0bff715 	stw	r2,-36(fp)
	int GapH, BoxW;

	// Space to put between the buttons in order to be equally spaced
	GapH = (pDisplay->height - (6*BoxH) - 12 - 4)/(3+1);
 2001290:	e0bffe17 	ldw	r2,-8(fp)
 2001294:	10c00217 	ldw	r3,8(r2)
 2001298:	e0bff517 	ldw	r2,-44(fp)
 200129c:	10bffea4 	muli	r2,r2,-6
 20012a0:	1885883a 	add	r2,r3,r2
 20012a4:	10bffc04 	addi	r2,r2,-16
 20012a8:	1000010e 	bge	r2,zero,20012b0 <GUI_ROBINSUN_CompetitionChoice1_Init+0x50>
 20012ac:	108000c4 	addi	r2,r2,3
 20012b0:	1005d0ba 	srai	r2,r2,2
 20012b4:	e0bff815 	stw	r2,-32(fp)
	BoxW = (pDisplay->width - 2*DistW - 5)/2;
 20012b8:	e0bffe17 	ldw	r2,-8(fp)
 20012bc:	10c00117 	ldw	r3,4(r2)
 20012c0:	e13ff717 	ldw	r4,-36(fp)
 20012c4:	0005883a 	mov	r2,zero
 20012c8:	1105c83a 	sub	r2,r2,r4
 20012cc:	1085883a 	add	r2,r2,r2
 20012d0:	1885883a 	add	r2,r3,r2
 20012d4:	10bffec4 	addi	r2,r2,-5
 20012d8:	1006d7fa 	srli	r3,r2,31
 20012dc:	1885883a 	add	r2,r3,r2
 20012e0:	1005d07a 	srai	r2,r2,1
 20012e4:	e0bff915 	stw	r2,-28(fp)

	// Desk border
	RectSet(&pDeskInfo->rcDisp, DistBorder, pDisplay->width-DistBorder, DistBorder, pDisplay->height-DistBorder);
 20012e8:	e13fff17 	ldw	r4,-4(fp)
 20012ec:	e0bffe17 	ldw	r2,-8(fp)
 20012f0:	10c00117 	ldw	r3,4(r2)
 20012f4:	e0bff617 	ldw	r2,-40(fp)
 20012f8:	188dc83a 	sub	r6,r3,r2
 20012fc:	e0bffe17 	ldw	r2,-8(fp)
 2001300:	10c00217 	ldw	r3,8(r2)
 2001304:	e0bff617 	ldw	r2,-40(fp)
 2001308:	1885c83a 	sub	r2,r3,r2
 200130c:	d8800015 	stw	r2,0(sp)
 2001310:	e17ff617 	ldw	r5,-40(fp)
 2001314:	e1fff617 	ldw	r7,-40(fp)
 2001318:	20061bc0 	call	20061bc <RectSet>

	rc.top = DistBorder + GapH;
 200131c:	e0fff617 	ldw	r3,-40(fp)
 2001320:	e0bff817 	ldw	r2,-32(fp)
 2001324:	1885883a 	add	r2,r3,r2
 2001328:	e0bffc15 	stw	r2,-16(fp)
	rc.bottom = rc.top + BoxH;
 200132c:	e0fffc17 	ldw	r3,-16(fp)
 2001330:	e0bff517 	ldw	r2,-44(fp)
 2001334:	1885883a 	add	r2,r3,r2
 2001338:	e0bffd15 	stw	r2,-12(fp)
	rc.left = DistW;
 200133c:	e0bff717 	ldw	r2,-36(fp)
 2001340:	e0bffa15 	stw	r2,-24(fp)
	rc.right = rc.left + BoxW;
 2001344:	e0fffa17 	ldw	r3,-24(fp)
 2001348:	e0bff917 	ldw	r2,-28(fp)
 200134c:	1885883a 	add	r2,r3,r2
 2001350:	e0bffb15 	stw	r2,-20(fp)

	// Initialization of the rectangles for the buttons
	for(i=0;i<10;i++){
 2001354:	e03ff415 	stw	zero,-48(fp)
 2001358:	00005f06 	br	20014d8 <GUI_ROBINSUN_CompetitionChoice1_Init+0x278>
		if (i==0 || i==3){
 200135c:	e0bff417 	ldw	r2,-48(fp)
 2001360:	10000326 	beq	r2,zero,2001370 <GUI_ROBINSUN_CompetitionChoice1_Init+0x110>
 2001364:	e0bff417 	ldw	r2,-48(fp)
 2001368:	108000d8 	cmpnei	r2,r2,3
 200136c:	1000111e 	bne	r2,zero,20013b4 <GUI_ROBINSUN_CompetitionChoice1_Init+0x154>
			RectCopy(&pDeskInfo->buttons_competitionchoice1[i].rc, &rc);
 2001370:	e0bff417 	ldw	r2,-48(fp)
 2001374:	10800524 	muli	r2,r2,20
 2001378:	10809004 	addi	r2,r2,576
 200137c:	e0ffff17 	ldw	r3,-4(fp)
 2001380:	1887883a 	add	r3,r3,r2
 2001384:	e0bffa04 	addi	r2,fp,-24
 2001388:	1809883a 	mov	r4,r3
 200138c:	100b883a 	mov	r5,r2
 2001390:	20063280 	call	2006328 <RectCopy>
			RectOffset(&rc, 0, BoxH+5);
 2001394:	e0bff517 	ldw	r2,-44(fp)
 2001398:	10800144 	addi	r2,r2,5
 200139c:	e0fffa04 	addi	r3,fp,-24
 20013a0:	1809883a 	mov	r4,r3
 20013a4:	000b883a 	mov	r5,zero
 20013a8:	100d883a 	mov	r6,r2
 20013ac:	20062a00 	call	20062a0 <RectOffset>
 20013b0:	00004606 	br	20014cc <GUI_ROBINSUN_CompetitionChoice1_Init+0x26c>
		}
		else if(i==1 || i==4 || i==6 || i==8){
 20013b4:	e0bff417 	ldw	r2,-48(fp)
 20013b8:	10800060 	cmpeqi	r2,r2,1
 20013bc:	1000091e 	bne	r2,zero,20013e4 <GUI_ROBINSUN_CompetitionChoice1_Init+0x184>
 20013c0:	e0bff417 	ldw	r2,-48(fp)
 20013c4:	10800120 	cmpeqi	r2,r2,4
 20013c8:	1000061e 	bne	r2,zero,20013e4 <GUI_ROBINSUN_CompetitionChoice1_Init+0x184>
 20013cc:	e0bff417 	ldw	r2,-48(fp)
 20013d0:	108001a0 	cmpeqi	r2,r2,6
 20013d4:	1000031e 	bne	r2,zero,20013e4 <GUI_ROBINSUN_CompetitionChoice1_Init+0x184>
 20013d8:	e0bff417 	ldw	r2,-48(fp)
 20013dc:	10800218 	cmpnei	r2,r2,8
 20013e0:	1000111e 	bne	r2,zero,2001428 <GUI_ROBINSUN_CompetitionChoice1_Init+0x1c8>
			RectCopy(&pDeskInfo->buttons_competitionchoice1[i].rc, &rc);
 20013e4:	e0bff417 	ldw	r2,-48(fp)
 20013e8:	10800524 	muli	r2,r2,20
 20013ec:	10809004 	addi	r2,r2,576
 20013f0:	e0ffff17 	ldw	r3,-4(fp)
 20013f4:	1887883a 	add	r3,r3,r2
 20013f8:	e0bffa04 	addi	r2,fp,-24
 20013fc:	1809883a 	mov	r4,r3
 2001400:	100b883a 	mov	r5,r2
 2001404:	20063280 	call	2006328 <RectCopy>
			RectOffset(&rc, BoxW+5, 0);
 2001408:	e0bff917 	ldw	r2,-28(fp)
 200140c:	10800144 	addi	r2,r2,5
 2001410:	e0fffa04 	addi	r3,fp,-24
 2001414:	1809883a 	mov	r4,r3
 2001418:	100b883a 	mov	r5,r2
 200141c:	000d883a 	mov	r6,zero
 2001420:	20062a00 	call	20062a0 <RectOffset>
 2001424:	00002906 	br	20014cc <GUI_ROBINSUN_CompetitionChoice1_Init+0x26c>
		}
		else if(i==5){
 2001428:	e0bff417 	ldw	r2,-48(fp)
 200142c:	10800158 	cmpnei	r2,r2,5
 2001430:	1000131e 	bne	r2,zero,2001480 <GUI_ROBINSUN_CompetitionChoice1_Init+0x220>
			RectCopy(&pDeskInfo->buttons_competitionchoice1[i].rc, &rc);
 2001434:	e0bff417 	ldw	r2,-48(fp)
 2001438:	10800524 	muli	r2,r2,20
 200143c:	10809004 	addi	r2,r2,576
 2001440:	e0ffff17 	ldw	r3,-4(fp)
 2001444:	1887883a 	add	r3,r3,r2
 2001448:	e0bffa04 	addi	r2,fp,-24
 200144c:	1809883a 	mov	r4,r3
 2001450:	100b883a 	mov	r5,r2
 2001454:	20063280 	call	2006328 <RectCopy>
			RectOffset(&rc, -BoxW-5, BoxH+2);
 2001458:	00fffec4 	movi	r3,-5
 200145c:	e0bff917 	ldw	r2,-28(fp)
 2001460:	1887c83a 	sub	r3,r3,r2
 2001464:	e0bff517 	ldw	r2,-44(fp)
 2001468:	10800084 	addi	r2,r2,2
 200146c:	e13ffa04 	addi	r4,fp,-24
 2001470:	180b883a 	mov	r5,r3
 2001474:	100d883a 	mov	r6,r2
 2001478:	20062a00 	call	20062a0 <RectOffset>
 200147c:	00001306 	br	20014cc <GUI_ROBINSUN_CompetitionChoice1_Init+0x26c>
		}
		else{
			RectCopy(&pDeskInfo->buttons_competitionchoice1[i].rc, &rc);
 2001480:	e0bff417 	ldw	r2,-48(fp)
 2001484:	10800524 	muli	r2,r2,20
 2001488:	10809004 	addi	r2,r2,576
 200148c:	e0ffff17 	ldw	r3,-4(fp)
 2001490:	1887883a 	add	r3,r3,r2
 2001494:	e0bffa04 	addi	r2,fp,-24
 2001498:	1809883a 	mov	r4,r3
 200149c:	100b883a 	mov	r5,r2
 20014a0:	20063280 	call	2006328 <RectCopy>
			RectOffset(&rc, -BoxW-5, BoxH+GapH);
 20014a4:	00fffec4 	movi	r3,-5
 20014a8:	e0bff917 	ldw	r2,-28(fp)
 20014ac:	188bc83a 	sub	r5,r3,r2
 20014b0:	e0fff517 	ldw	r3,-44(fp)
 20014b4:	e0bff817 	ldw	r2,-32(fp)
 20014b8:	1885883a 	add	r2,r3,r2
 20014bc:	e0fffa04 	addi	r3,fp,-24
 20014c0:	1809883a 	mov	r4,r3
 20014c4:	100d883a 	mov	r6,r2
 20014c8:	20062a00 	call	20062a0 <RectOffset>
	rc.bottom = rc.top + BoxH;
	rc.left = DistW;
	rc.right = rc.left + BoxW;

	// Initialization of the rectangles for the buttons
	for(i=0;i<10;i++){
 20014cc:	e0bff417 	ldw	r2,-48(fp)
 20014d0:	10800044 	addi	r2,r2,1
 20014d4:	e0bff415 	stw	r2,-48(fp)
 20014d8:	e0bff417 	ldw	r2,-48(fp)
 20014dc:	10800290 	cmplti	r2,r2,10
 20014e0:	103f9e1e 	bne	r2,zero,200135c <__reset+0xfdff9b5c>
		else{
			RectCopy(&pDeskInfo->buttons_competitionchoice1[i].rc, &rc);
			RectOffset(&rc, -BoxW-5, BoxH+GapH);
		}
	}
}
 20014e4:	e037883a 	mov	sp,fp
 20014e8:	dfc00117 	ldw	ra,4(sp)
 20014ec:	df000017 	ldw	fp,0(sp)
 20014f0:	dec00204 	addi	sp,sp,8
 20014f4:	f800283a 	ret

020014f8 <GUI_ROBINSUN_CompetitionChoice1_Draw>:

void GUI_ROBINSUN_CompetitionChoice1_Draw(alt_video_display *pDisplay, DESK_INFO *pDeskInfo){
 20014f8:	defff204 	addi	sp,sp,-56
 20014fc:	dfc00d15 	stw	ra,52(sp)
 2001500:	df000c15 	stw	fp,48(sp)
 2001504:	dc400b15 	stw	r17,44(sp)
 2001508:	dc000a15 	stw	r16,40(sp)
 200150c:	df000c04 	addi	fp,sp,48
 2001510:	e13ffc15 	stw	r4,-16(fp)
 2001514:	e17ffd15 	stw	r5,-12(fp)
	int i;
	RECT rc;

	// draw border
	RectCopy(&rc, &pDeskInfo->rcDisp);
 2001518:	e0bffd17 	ldw	r2,-12(fp)
 200151c:	e0fff804 	addi	r3,fp,-32
 2001520:	1809883a 	mov	r4,r3
 2001524:	100b883a 	mov	r5,r2
 2001528:	20063280 	call	2006328 <RectCopy>
	vid_draw_box (rc.left, rc.top, rc.right, rc.bottom, WHITE_24, DO_NOT_FILL, pDisplay);
 200152c:	e13ff817 	ldw	r4,-32(fp)
 2001530:	e17ffa17 	ldw	r5,-24(fp)
 2001534:	e1bff917 	ldw	r6,-28(fp)
 2001538:	e0fffb17 	ldw	r3,-20(fp)
 200153c:	00804034 	movhi	r2,256
 2001540:	10bfffc4 	addi	r2,r2,-1
 2001544:	d8800015 	stw	r2,0(sp)
 2001548:	d8000115 	stw	zero,4(sp)
 200154c:	e0bffc17 	ldw	r2,-16(fp)
 2001550:	d8800215 	stw	r2,8(sp)
 2001554:	180f883a 	mov	r7,r3
 2001558:	2006d340 	call	2006d34 <vid_draw_box>

	// draw buttons
	for(i=0;i<10;i++){
 200155c:	e03ff715 	stw	zero,-36(fp)
 2001560:	0001cb06 	br	2001c90 <GUI_ROBINSUN_CompetitionChoice1_Draw+0x798>
		RectCopy(&rc, &pDeskInfo->buttons_competitionchoice1[i].rc);
 2001564:	e0bff717 	ldw	r2,-36(fp)
 2001568:	10800524 	muli	r2,r2,20
 200156c:	10809004 	addi	r2,r2,576
 2001570:	e0fffd17 	ldw	r3,-12(fp)
 2001574:	1885883a 	add	r2,r3,r2
 2001578:	e0fff804 	addi	r3,fp,-32
 200157c:	1809883a 	mov	r4,r3
 2001580:	100b883a 	mov	r5,r2
 2001584:	20063280 	call	2006328 <RectCopy>
		if (i == 0){
 2001588:	e0bff717 	ldw	r2,-36(fp)
 200158c:	1000311e 	bne	r2,zero,2001654 <GUI_ROBINSUN_CompetitionChoice1_Draw+0x15c>
			vid_draw_box (rc.left, rc.top, rc.right, rc.bottom, BLACK_24, DO_FILL, pDisplay);
 2001590:	e13ff817 	ldw	r4,-32(fp)
 2001594:	e17ffa17 	ldw	r5,-24(fp)
 2001598:	e1bff917 	ldw	r6,-28(fp)
 200159c:	e0fffb17 	ldw	r3,-20(fp)
 20015a0:	d8000015 	stw	zero,0(sp)
 20015a4:	00800044 	movi	r2,1
 20015a8:	d8800115 	stw	r2,4(sp)
 20015ac:	e0bffc17 	ldw	r2,-16(fp)
 20015b0:	d8800215 	stw	r2,8(sp)
 20015b4:	180f883a 	mov	r7,r3
 20015b8:	2006d340 	call	2006d34 <vid_draw_box>
			vid_draw_box (rc.left, rc.top, rc.right, rc.bottom, WHITE_24, DO_NOT_FILL, pDisplay);
 20015bc:	e13ff817 	ldw	r4,-32(fp)
 20015c0:	e17ffa17 	ldw	r5,-24(fp)
 20015c4:	e1bff917 	ldw	r6,-28(fp)
 20015c8:	e0fffb17 	ldw	r3,-20(fp)
 20015cc:	00804034 	movhi	r2,256
 20015d0:	10bfffc4 	addi	r2,r2,-1
 20015d4:	d8800015 	stw	r2,0(sp)
 20015d8:	d8000115 	stw	zero,4(sp)
 20015dc:	e0bffc17 	ldw	r2,-16(fp)
 20015e0:	d8800215 	stw	r2,8(sp)
 20015e4:	180f883a 	mov	r7,r3
 20015e8:	2006d340 	call	2006d34 <vid_draw_box>
			vid_print_string_alpha(rc.left+8, rc.top+(RectHeight(&rc)-22)/2, WHITE_24, BLACK_24, tahomabold_20, pDisplay, "Team");
 20015ec:	e0bff817 	ldw	r2,-32(fp)
 20015f0:	14400204 	addi	r17,r2,8
 20015f4:	e43ffa17 	ldw	r16,-24(fp)
 20015f8:	e0bff804 	addi	r2,fp,-32
 20015fc:	1009883a 	mov	r4,r2
 2001600:	20063c00 	call	20063c0 <RectHeight>
 2001604:	10bffa84 	addi	r2,r2,-22
 2001608:	1006d7fa 	srli	r3,r2,31
 200160c:	1885883a 	add	r2,r3,r2
 2001610:	1005d07a 	srai	r2,r2,1
 2001614:	8087883a 	add	r3,r16,r2
 2001618:	008080f4 	movhi	r2,515
 200161c:	10af9504 	addi	r2,r2,-16812
 2001620:	d8800015 	stw	r2,0(sp)
 2001624:	e0bffc17 	ldw	r2,-16(fp)
 2001628:	d8800115 	stw	r2,4(sp)
 200162c:	00808074 	movhi	r2,513
 2001630:	10876104 	addi	r2,r2,7556
 2001634:	d8800215 	stw	r2,8(sp)
 2001638:	8809883a 	mov	r4,r17
 200163c:	180b883a 	mov	r5,r3
 2001640:	01804034 	movhi	r6,256
 2001644:	31bfffc4 	addi	r6,r6,-1
 2001648:	000f883a 	mov	r7,zero
 200164c:	2008b400 	call	2008b40 <vid_print_string_alpha>
 2001650:	00018c06 	br	2001c84 <GUI_ROBINSUN_CompetitionChoice1_Draw+0x78c>
		}
		else if (i == 1){
 2001654:	e0bff717 	ldw	r2,-36(fp)
 2001658:	10800058 	cmpnei	r2,r2,1
 200165c:	10000d1e 	bne	r2,zero,2001694 <GUI_ROBINSUN_CompetitionChoice1_Draw+0x19c>
			vid_draw_box (rc.left, rc.top, rc.right, rc.bottom, GREEN_24, DO_FILL, pDisplay);
 2001660:	e13ff817 	ldw	r4,-32(fp)
 2001664:	e17ffa17 	ldw	r5,-24(fp)
 2001668:	e1bff917 	ldw	r6,-28(fp)
 200166c:	e0fffb17 	ldw	r3,-20(fp)
 2001670:	00a00014 	movui	r2,32768
 2001674:	d8800015 	stw	r2,0(sp)
 2001678:	00800044 	movi	r2,1
 200167c:	d8800115 	stw	r2,4(sp)
 2001680:	e0bffc17 	ldw	r2,-16(fp)
 2001684:	d8800215 	stw	r2,8(sp)
 2001688:	180f883a 	mov	r7,r3
 200168c:	2006d340 	call	2006d34 <vid_draw_box>
 2001690:	00017c06 	br	2001c84 <GUI_ROBINSUN_CompetitionChoice1_Draw+0x78c>
		}
		else if (i == 2){
 2001694:	e0bff717 	ldw	r2,-36(fp)
 2001698:	10800098 	cmpnei	r2,r2,2
 200169c:	10000e1e 	bne	r2,zero,20016d8 <GUI_ROBINSUN_CompetitionChoice1_Draw+0x1e0>
			vid_draw_box (rc.left, rc.top, rc.right, rc.bottom, PURPLE_24, DO_FILL, pDisplay);
 20016a0:	e13ff817 	ldw	r4,-32(fp)
 20016a4:	e17ffa17 	ldw	r5,-24(fp)
 20016a8:	e1bff917 	ldw	r6,-28(fp)
 20016ac:	e0fffb17 	ldw	r3,-20(fp)
 20016b0:	00802034 	movhi	r2,128
 20016b4:	10802004 	addi	r2,r2,128
 20016b8:	d8800015 	stw	r2,0(sp)
 20016bc:	00800044 	movi	r2,1
 20016c0:	d8800115 	stw	r2,4(sp)
 20016c4:	e0bffc17 	ldw	r2,-16(fp)
 20016c8:	d8800215 	stw	r2,8(sp)
 20016cc:	180f883a 	mov	r7,r3
 20016d0:	2006d340 	call	2006d34 <vid_draw_box>
 20016d4:	00016b06 	br	2001c84 <GUI_ROBINSUN_CompetitionChoice1_Draw+0x78c>
		}
		else if (i == 3){
 20016d8:	e0bff717 	ldw	r2,-36(fp)
 20016dc:	108000d8 	cmpnei	r2,r2,3
 20016e0:	1000311e 	bne	r2,zero,20017a8 <GUI_ROBINSUN_CompetitionChoice1_Draw+0x2b0>
			vid_draw_box (rc.left, rc.top, rc.right, rc.bottom, BLACK_24, DO_FILL, pDisplay);
 20016e4:	e13ff817 	ldw	r4,-32(fp)
 20016e8:	e17ffa17 	ldw	r5,-24(fp)
 20016ec:	e1bff917 	ldw	r6,-28(fp)
 20016f0:	e0fffb17 	ldw	r3,-20(fp)
 20016f4:	d8000015 	stw	zero,0(sp)
 20016f8:	00800044 	movi	r2,1
 20016fc:	d8800115 	stw	r2,4(sp)
 2001700:	e0bffc17 	ldw	r2,-16(fp)
 2001704:	d8800215 	stw	r2,8(sp)
 2001708:	180f883a 	mov	r7,r3
 200170c:	2006d340 	call	2006d34 <vid_draw_box>
			vid_draw_box (rc.left, rc.top, rc.right, rc.bottom, WHITE_24, DO_NOT_FILL, pDisplay);
 2001710:	e13ff817 	ldw	r4,-32(fp)
 2001714:	e17ffa17 	ldw	r5,-24(fp)
 2001718:	e1bff917 	ldw	r6,-28(fp)
 200171c:	e0fffb17 	ldw	r3,-20(fp)
 2001720:	00804034 	movhi	r2,256
 2001724:	10bfffc4 	addi	r2,r2,-1
 2001728:	d8800015 	stw	r2,0(sp)
 200172c:	d8000115 	stw	zero,4(sp)
 2001730:	e0bffc17 	ldw	r2,-16(fp)
 2001734:	d8800215 	stw	r2,8(sp)
 2001738:	180f883a 	mov	r7,r3
 200173c:	2006d340 	call	2006d34 <vid_draw_box>
			vid_print_string_alpha(rc.left+8, rc.top+(RectHeight(&rc)-22)/2, WHITE_24, BLACK_24, tahomabold_20, pDisplay, "Strategy");
 2001740:	e0bff817 	ldw	r2,-32(fp)
 2001744:	14400204 	addi	r17,r2,8
 2001748:	e43ffa17 	ldw	r16,-24(fp)
 200174c:	e0bff804 	addi	r2,fp,-32
 2001750:	1009883a 	mov	r4,r2
 2001754:	20063c00 	call	20063c0 <RectHeight>
 2001758:	10bffa84 	addi	r2,r2,-22
 200175c:	1006d7fa 	srli	r3,r2,31
 2001760:	1885883a 	add	r2,r3,r2
 2001764:	1005d07a 	srai	r2,r2,1
 2001768:	8087883a 	add	r3,r16,r2
 200176c:	008080f4 	movhi	r2,515
 2001770:	10af9504 	addi	r2,r2,-16812
 2001774:	d8800015 	stw	r2,0(sp)
 2001778:	e0bffc17 	ldw	r2,-16(fp)
 200177c:	d8800115 	stw	r2,4(sp)
 2001780:	00808074 	movhi	r2,513
 2001784:	10876304 	addi	r2,r2,7564
 2001788:	d8800215 	stw	r2,8(sp)
 200178c:	8809883a 	mov	r4,r17
 2001790:	180b883a 	mov	r5,r3
 2001794:	01804034 	movhi	r6,256
 2001798:	31bfffc4 	addi	r6,r6,-1
 200179c:	000f883a 	mov	r7,zero
 20017a0:	2008b400 	call	2008b40 <vid_print_string_alpha>
 20017a4:	00013706 	br	2001c84 <GUI_ROBINSUN_CompetitionChoice1_Draw+0x78c>
		}
		else if (i == 4){
 20017a8:	e0bff717 	ldw	r2,-36(fp)
 20017ac:	10800118 	cmpnei	r2,r2,4
 20017b0:	1000311e 	bne	r2,zero,2001878 <GUI_ROBINSUN_CompetitionChoice1_Draw+0x380>
			vid_draw_box (rc.left, rc.top, rc.right, rc.bottom, BLACK_24, DO_FILL, pDisplay);
 20017b4:	e13ff817 	ldw	r4,-32(fp)
 20017b8:	e17ffa17 	ldw	r5,-24(fp)
 20017bc:	e1bff917 	ldw	r6,-28(fp)
 20017c0:	e0fffb17 	ldw	r3,-20(fp)
 20017c4:	d8000015 	stw	zero,0(sp)
 20017c8:	00800044 	movi	r2,1
 20017cc:	d8800115 	stw	r2,4(sp)
 20017d0:	e0bffc17 	ldw	r2,-16(fp)
 20017d4:	d8800215 	stw	r2,8(sp)
 20017d8:	180f883a 	mov	r7,r3
 20017dc:	2006d340 	call	2006d34 <vid_draw_box>
			vid_draw_box (rc.left, rc.top, rc.right, rc.bottom, WHITE_24, DO_NOT_FILL, pDisplay);
 20017e0:	e13ff817 	ldw	r4,-32(fp)
 20017e4:	e17ffa17 	ldw	r5,-24(fp)
 20017e8:	e1bff917 	ldw	r6,-28(fp)
 20017ec:	e0fffb17 	ldw	r3,-20(fp)
 20017f0:	00804034 	movhi	r2,256
 20017f4:	10bfffc4 	addi	r2,r2,-1
 20017f8:	d8800015 	stw	r2,0(sp)
 20017fc:	d8000115 	stw	zero,4(sp)
 2001800:	e0bffc17 	ldw	r2,-16(fp)
 2001804:	d8800215 	stw	r2,8(sp)
 2001808:	180f883a 	mov	r7,r3
 200180c:	2006d340 	call	2006d34 <vid_draw_box>
			vid_print_string_alpha(rc.left+8, rc.top+(RectHeight(&rc)-22)/2, WHITE_24, BLACK_24, tahomabold_20, pDisplay, "1");
 2001810:	e0bff817 	ldw	r2,-32(fp)
 2001814:	14400204 	addi	r17,r2,8
 2001818:	e43ffa17 	ldw	r16,-24(fp)
 200181c:	e0bff804 	addi	r2,fp,-32
 2001820:	1009883a 	mov	r4,r2
 2001824:	20063c00 	call	20063c0 <RectHeight>
 2001828:	10bffa84 	addi	r2,r2,-22
 200182c:	1006d7fa 	srli	r3,r2,31
 2001830:	1885883a 	add	r2,r3,r2
 2001834:	1005d07a 	srai	r2,r2,1
 2001838:	8087883a 	add	r3,r16,r2
 200183c:	008080f4 	movhi	r2,515
 2001840:	10af9504 	addi	r2,r2,-16812
 2001844:	d8800015 	stw	r2,0(sp)
 2001848:	e0bffc17 	ldw	r2,-16(fp)
 200184c:	d8800115 	stw	r2,4(sp)
 2001850:	00808074 	movhi	r2,513
 2001854:	10876604 	addi	r2,r2,7576
 2001858:	d8800215 	stw	r2,8(sp)
 200185c:	8809883a 	mov	r4,r17
 2001860:	180b883a 	mov	r5,r3
 2001864:	01804034 	movhi	r6,256
 2001868:	31bfffc4 	addi	r6,r6,-1
 200186c:	000f883a 	mov	r7,zero
 2001870:	2008b400 	call	2008b40 <vid_print_string_alpha>
 2001874:	00010306 	br	2001c84 <GUI_ROBINSUN_CompetitionChoice1_Draw+0x78c>
		}
		else if (i == 5){
 2001878:	e0bff717 	ldw	r2,-36(fp)
 200187c:	10800158 	cmpnei	r2,r2,5
 2001880:	1000311e 	bne	r2,zero,2001948 <GUI_ROBINSUN_CompetitionChoice1_Draw+0x450>
			vid_draw_box (rc.left, rc.top, rc.right, rc.bottom, BLACK_24, DO_FILL, pDisplay);
 2001884:	e13ff817 	ldw	r4,-32(fp)
 2001888:	e17ffa17 	ldw	r5,-24(fp)
 200188c:	e1bff917 	ldw	r6,-28(fp)
 2001890:	e0fffb17 	ldw	r3,-20(fp)
 2001894:	d8000015 	stw	zero,0(sp)
 2001898:	00800044 	movi	r2,1
 200189c:	d8800115 	stw	r2,4(sp)
 20018a0:	e0bffc17 	ldw	r2,-16(fp)
 20018a4:	d8800215 	stw	r2,8(sp)
 20018a8:	180f883a 	mov	r7,r3
 20018ac:	2006d340 	call	2006d34 <vid_draw_box>
			vid_draw_box (rc.left, rc.top, rc.right, rc.bottom, WHITE_24, DO_NOT_FILL, pDisplay);
 20018b0:	e13ff817 	ldw	r4,-32(fp)
 20018b4:	e17ffa17 	ldw	r5,-24(fp)
 20018b8:	e1bff917 	ldw	r6,-28(fp)
 20018bc:	e0fffb17 	ldw	r3,-20(fp)
 20018c0:	00804034 	movhi	r2,256
 20018c4:	10bfffc4 	addi	r2,r2,-1
 20018c8:	d8800015 	stw	r2,0(sp)
 20018cc:	d8000115 	stw	zero,4(sp)
 20018d0:	e0bffc17 	ldw	r2,-16(fp)
 20018d4:	d8800215 	stw	r2,8(sp)
 20018d8:	180f883a 	mov	r7,r3
 20018dc:	2006d340 	call	2006d34 <vid_draw_box>
			vid_print_string_alpha(rc.left+8, rc.top+(RectHeight(&rc)-22)/2, WHITE_24, BLACK_24, tahomabold_20, pDisplay, "2");
 20018e0:	e0bff817 	ldw	r2,-32(fp)
 20018e4:	14400204 	addi	r17,r2,8
 20018e8:	e43ffa17 	ldw	r16,-24(fp)
 20018ec:	e0bff804 	addi	r2,fp,-32
 20018f0:	1009883a 	mov	r4,r2
 20018f4:	20063c00 	call	20063c0 <RectHeight>
 20018f8:	10bffa84 	addi	r2,r2,-22
 20018fc:	1006d7fa 	srli	r3,r2,31
 2001900:	1885883a 	add	r2,r3,r2
 2001904:	1005d07a 	srai	r2,r2,1
 2001908:	8087883a 	add	r3,r16,r2
 200190c:	008080f4 	movhi	r2,515
 2001910:	10af9504 	addi	r2,r2,-16812
 2001914:	d8800015 	stw	r2,0(sp)
 2001918:	e0bffc17 	ldw	r2,-16(fp)
 200191c:	d8800115 	stw	r2,4(sp)
 2001920:	00808074 	movhi	r2,513
 2001924:	10876704 	addi	r2,r2,7580
 2001928:	d8800215 	stw	r2,8(sp)
 200192c:	8809883a 	mov	r4,r17
 2001930:	180b883a 	mov	r5,r3
 2001934:	01804034 	movhi	r6,256
 2001938:	31bfffc4 	addi	r6,r6,-1
 200193c:	000f883a 	mov	r7,zero
 2001940:	2008b400 	call	2008b40 <vid_print_string_alpha>
 2001944:	0000cf06 	br	2001c84 <GUI_ROBINSUN_CompetitionChoice1_Draw+0x78c>
		}
		else if (i == 6){
 2001948:	e0bff717 	ldw	r2,-36(fp)
 200194c:	10800198 	cmpnei	r2,r2,6
 2001950:	1000311e 	bne	r2,zero,2001a18 <GUI_ROBINSUN_CompetitionChoice1_Draw+0x520>
			vid_draw_box (rc.left, rc.top, rc.right, rc.bottom, BLACK_24, DO_FILL, pDisplay);
 2001954:	e13ff817 	ldw	r4,-32(fp)
 2001958:	e17ffa17 	ldw	r5,-24(fp)
 200195c:	e1bff917 	ldw	r6,-28(fp)
 2001960:	e0fffb17 	ldw	r3,-20(fp)
 2001964:	d8000015 	stw	zero,0(sp)
 2001968:	00800044 	movi	r2,1
 200196c:	d8800115 	stw	r2,4(sp)
 2001970:	e0bffc17 	ldw	r2,-16(fp)
 2001974:	d8800215 	stw	r2,8(sp)
 2001978:	180f883a 	mov	r7,r3
 200197c:	2006d340 	call	2006d34 <vid_draw_box>
			vid_draw_box (rc.left, rc.top, rc.right, rc.bottom, WHITE_24, DO_NOT_FILL, pDisplay);
 2001980:	e13ff817 	ldw	r4,-32(fp)
 2001984:	e17ffa17 	ldw	r5,-24(fp)
 2001988:	e1bff917 	ldw	r6,-28(fp)
 200198c:	e0fffb17 	ldw	r3,-20(fp)
 2001990:	00804034 	movhi	r2,256
 2001994:	10bfffc4 	addi	r2,r2,-1
 2001998:	d8800015 	stw	r2,0(sp)
 200199c:	d8000115 	stw	zero,4(sp)
 20019a0:	e0bffc17 	ldw	r2,-16(fp)
 20019a4:	d8800215 	stw	r2,8(sp)
 20019a8:	180f883a 	mov	r7,r3
 20019ac:	2006d340 	call	2006d34 <vid_draw_box>
			vid_print_string_alpha(rc.left+8, rc.top+(RectHeight(&rc)-22)/2, WHITE_24, BLACK_24, tahomabold_20, pDisplay, "3");
 20019b0:	e0bff817 	ldw	r2,-32(fp)
 20019b4:	14400204 	addi	r17,r2,8
 20019b8:	e43ffa17 	ldw	r16,-24(fp)
 20019bc:	e0bff804 	addi	r2,fp,-32
 20019c0:	1009883a 	mov	r4,r2
 20019c4:	20063c00 	call	20063c0 <RectHeight>
 20019c8:	10bffa84 	addi	r2,r2,-22
 20019cc:	1006d7fa 	srli	r3,r2,31
 20019d0:	1885883a 	add	r2,r3,r2
 20019d4:	1005d07a 	srai	r2,r2,1
 20019d8:	8087883a 	add	r3,r16,r2
 20019dc:	008080f4 	movhi	r2,515
 20019e0:	10af9504 	addi	r2,r2,-16812
 20019e4:	d8800015 	stw	r2,0(sp)
 20019e8:	e0bffc17 	ldw	r2,-16(fp)
 20019ec:	d8800115 	stw	r2,4(sp)
 20019f0:	00808074 	movhi	r2,513
 20019f4:	10876804 	addi	r2,r2,7584
 20019f8:	d8800215 	stw	r2,8(sp)
 20019fc:	8809883a 	mov	r4,r17
 2001a00:	180b883a 	mov	r5,r3
 2001a04:	01804034 	movhi	r6,256
 2001a08:	31bfffc4 	addi	r6,r6,-1
 2001a0c:	000f883a 	mov	r7,zero
 2001a10:	2008b400 	call	2008b40 <vid_print_string_alpha>
 2001a14:	00009b06 	br	2001c84 <GUI_ROBINSUN_CompetitionChoice1_Draw+0x78c>
		}
		else if (i == 7){
 2001a18:	e0bff717 	ldw	r2,-36(fp)
 2001a1c:	108001d8 	cmpnei	r2,r2,7
 2001a20:	1000311e 	bne	r2,zero,2001ae8 <GUI_ROBINSUN_CompetitionChoice1_Draw+0x5f0>
			vid_draw_box (rc.left, rc.top, rc.right, rc.bottom, BLACK_24, DO_FILL, pDisplay);
 2001a24:	e13ff817 	ldw	r4,-32(fp)
 2001a28:	e17ffa17 	ldw	r5,-24(fp)
 2001a2c:	e1bff917 	ldw	r6,-28(fp)
 2001a30:	e0fffb17 	ldw	r3,-20(fp)
 2001a34:	d8000015 	stw	zero,0(sp)
 2001a38:	00800044 	movi	r2,1
 2001a3c:	d8800115 	stw	r2,4(sp)
 2001a40:	e0bffc17 	ldw	r2,-16(fp)
 2001a44:	d8800215 	stw	r2,8(sp)
 2001a48:	180f883a 	mov	r7,r3
 2001a4c:	2006d340 	call	2006d34 <vid_draw_box>
			vid_draw_box (rc.left, rc.top, rc.right, rc.bottom, WHITE_24, DO_NOT_FILL, pDisplay);
 2001a50:	e13ff817 	ldw	r4,-32(fp)
 2001a54:	e17ffa17 	ldw	r5,-24(fp)
 2001a58:	e1bff917 	ldw	r6,-28(fp)
 2001a5c:	e0fffb17 	ldw	r3,-20(fp)
 2001a60:	00804034 	movhi	r2,256
 2001a64:	10bfffc4 	addi	r2,r2,-1
 2001a68:	d8800015 	stw	r2,0(sp)
 2001a6c:	d8000115 	stw	zero,4(sp)
 2001a70:	e0bffc17 	ldw	r2,-16(fp)
 2001a74:	d8800215 	stw	r2,8(sp)
 2001a78:	180f883a 	mov	r7,r3
 2001a7c:	2006d340 	call	2006d34 <vid_draw_box>
			vid_print_string_alpha(rc.left+8, rc.top+(RectHeight(&rc)-22)/2, WHITE_24, BLACK_24, tahomabold_20, pDisplay, "4");
 2001a80:	e0bff817 	ldw	r2,-32(fp)
 2001a84:	14400204 	addi	r17,r2,8
 2001a88:	e43ffa17 	ldw	r16,-24(fp)
 2001a8c:	e0bff804 	addi	r2,fp,-32
 2001a90:	1009883a 	mov	r4,r2
 2001a94:	20063c00 	call	20063c0 <RectHeight>
 2001a98:	10bffa84 	addi	r2,r2,-22
 2001a9c:	1006d7fa 	srli	r3,r2,31
 2001aa0:	1885883a 	add	r2,r3,r2
 2001aa4:	1005d07a 	srai	r2,r2,1
 2001aa8:	8087883a 	add	r3,r16,r2
 2001aac:	008080f4 	movhi	r2,515
 2001ab0:	10af9504 	addi	r2,r2,-16812
 2001ab4:	d8800015 	stw	r2,0(sp)
 2001ab8:	e0bffc17 	ldw	r2,-16(fp)
 2001abc:	d8800115 	stw	r2,4(sp)
 2001ac0:	00808074 	movhi	r2,513
 2001ac4:	10876904 	addi	r2,r2,7588
 2001ac8:	d8800215 	stw	r2,8(sp)
 2001acc:	8809883a 	mov	r4,r17
 2001ad0:	180b883a 	mov	r5,r3
 2001ad4:	01804034 	movhi	r6,256
 2001ad8:	31bfffc4 	addi	r6,r6,-1
 2001adc:	000f883a 	mov	r7,zero
 2001ae0:	2008b400 	call	2008b40 <vid_print_string_alpha>
 2001ae4:	00006706 	br	2001c84 <GUI_ROBINSUN_CompetitionChoice1_Draw+0x78c>
		}
		else if (i == 8){
 2001ae8:	e0bff717 	ldw	r2,-36(fp)
 2001aec:	10800218 	cmpnei	r2,r2,8
 2001af0:	1000311e 	bne	r2,zero,2001bb8 <GUI_ROBINSUN_CompetitionChoice1_Draw+0x6c0>
			vid_draw_box (rc.left, rc.top, rc.right, rc.bottom, BLACK_24, DO_FILL, pDisplay);
 2001af4:	e13ff817 	ldw	r4,-32(fp)
 2001af8:	e17ffa17 	ldw	r5,-24(fp)
 2001afc:	e1bff917 	ldw	r6,-28(fp)
 2001b00:	e0fffb17 	ldw	r3,-20(fp)
 2001b04:	d8000015 	stw	zero,0(sp)
 2001b08:	00800044 	movi	r2,1
 2001b0c:	d8800115 	stw	r2,4(sp)
 2001b10:	e0bffc17 	ldw	r2,-16(fp)
 2001b14:	d8800215 	stw	r2,8(sp)
 2001b18:	180f883a 	mov	r7,r3
 2001b1c:	2006d340 	call	2006d34 <vid_draw_box>
			vid_draw_box (rc.left, rc.top, rc.right, rc.bottom, WHITE_24, DO_NOT_FILL, pDisplay);
 2001b20:	e13ff817 	ldw	r4,-32(fp)
 2001b24:	e17ffa17 	ldw	r5,-24(fp)
 2001b28:	e1bff917 	ldw	r6,-28(fp)
 2001b2c:	e0fffb17 	ldw	r3,-20(fp)
 2001b30:	00804034 	movhi	r2,256
 2001b34:	10bfffc4 	addi	r2,r2,-1
 2001b38:	d8800015 	stw	r2,0(sp)
 2001b3c:	d8000115 	stw	zero,4(sp)
 2001b40:	e0bffc17 	ldw	r2,-16(fp)
 2001b44:	d8800215 	stw	r2,8(sp)
 2001b48:	180f883a 	mov	r7,r3
 2001b4c:	2006d340 	call	2006d34 <vid_draw_box>
			vid_print_string_alpha(rc.left+8, rc.top+(RectHeight(&rc)-22)/2, WHITE_24, BLACK_24, tahomabold_20, pDisplay, "Back");
 2001b50:	e0bff817 	ldw	r2,-32(fp)
 2001b54:	14400204 	addi	r17,r2,8
 2001b58:	e43ffa17 	ldw	r16,-24(fp)
 2001b5c:	e0bff804 	addi	r2,fp,-32
 2001b60:	1009883a 	mov	r4,r2
 2001b64:	20063c00 	call	20063c0 <RectHeight>
 2001b68:	10bffa84 	addi	r2,r2,-22
 2001b6c:	1006d7fa 	srli	r3,r2,31
 2001b70:	1885883a 	add	r2,r3,r2
 2001b74:	1005d07a 	srai	r2,r2,1
 2001b78:	8087883a 	add	r3,r16,r2
 2001b7c:	008080f4 	movhi	r2,515
 2001b80:	10af9504 	addi	r2,r2,-16812
 2001b84:	d8800015 	stw	r2,0(sp)
 2001b88:	e0bffc17 	ldw	r2,-16(fp)
 2001b8c:	d8800115 	stw	r2,4(sp)
 2001b90:	00808074 	movhi	r2,513
 2001b94:	10876a04 	addi	r2,r2,7592
 2001b98:	d8800215 	stw	r2,8(sp)
 2001b9c:	8809883a 	mov	r4,r17
 2001ba0:	180b883a 	mov	r5,r3
 2001ba4:	01804034 	movhi	r6,256
 2001ba8:	31bfffc4 	addi	r6,r6,-1
 2001bac:	000f883a 	mov	r7,zero
 2001bb0:	2008b400 	call	2008b40 <vid_print_string_alpha>
 2001bb4:	00003306 	br	2001c84 <GUI_ROBINSUN_CompetitionChoice1_Draw+0x78c>
		}
		else if (i == 9){
 2001bb8:	e0bff717 	ldw	r2,-36(fp)
 2001bbc:	10800258 	cmpnei	r2,r2,9
 2001bc0:	1000301e 	bne	r2,zero,2001c84 <GUI_ROBINSUN_CompetitionChoice1_Draw+0x78c>
			vid_draw_box (rc.left, rc.top, rc.right, rc.bottom, BLACK_24, DO_FILL, pDisplay);
 2001bc4:	e13ff817 	ldw	r4,-32(fp)
 2001bc8:	e17ffa17 	ldw	r5,-24(fp)
 2001bcc:	e1bff917 	ldw	r6,-28(fp)
 2001bd0:	e0fffb17 	ldw	r3,-20(fp)
 2001bd4:	d8000015 	stw	zero,0(sp)
 2001bd8:	00800044 	movi	r2,1
 2001bdc:	d8800115 	stw	r2,4(sp)
 2001be0:	e0bffc17 	ldw	r2,-16(fp)
 2001be4:	d8800215 	stw	r2,8(sp)
 2001be8:	180f883a 	mov	r7,r3
 2001bec:	2006d340 	call	2006d34 <vid_draw_box>
			vid_draw_box (rc.left, rc.top, rc.right, rc.bottom, WHITE_24, DO_NOT_FILL, pDisplay);
 2001bf0:	e13ff817 	ldw	r4,-32(fp)
 2001bf4:	e17ffa17 	ldw	r5,-24(fp)
 2001bf8:	e1bff917 	ldw	r6,-28(fp)
 2001bfc:	e0fffb17 	ldw	r3,-20(fp)
 2001c00:	00804034 	movhi	r2,256
 2001c04:	10bfffc4 	addi	r2,r2,-1
 2001c08:	d8800015 	stw	r2,0(sp)
 2001c0c:	d8000115 	stw	zero,4(sp)
 2001c10:	e0bffc17 	ldw	r2,-16(fp)
 2001c14:	d8800215 	stw	r2,8(sp)
 2001c18:	180f883a 	mov	r7,r3
 2001c1c:	2006d340 	call	2006d34 <vid_draw_box>
			vid_print_string_alpha(rc.left+8, rc.top+(RectHeight(&rc)-22)/2, WHITE_24, BLACK_24, tahomabold_20, pDisplay, "Continue");
 2001c20:	e0bff817 	ldw	r2,-32(fp)
 2001c24:	14400204 	addi	r17,r2,8
 2001c28:	e43ffa17 	ldw	r16,-24(fp)
 2001c2c:	e0bff804 	addi	r2,fp,-32
 2001c30:	1009883a 	mov	r4,r2
 2001c34:	20063c00 	call	20063c0 <RectHeight>
 2001c38:	10bffa84 	addi	r2,r2,-22
 2001c3c:	1006d7fa 	srli	r3,r2,31
 2001c40:	1885883a 	add	r2,r3,r2
 2001c44:	1005d07a 	srai	r2,r2,1
 2001c48:	8087883a 	add	r3,r16,r2
 2001c4c:	008080f4 	movhi	r2,515
 2001c50:	10af9504 	addi	r2,r2,-16812
 2001c54:	d8800015 	stw	r2,0(sp)
 2001c58:	e0bffc17 	ldw	r2,-16(fp)
 2001c5c:	d8800115 	stw	r2,4(sp)
 2001c60:	00808074 	movhi	r2,513
 2001c64:	10876c04 	addi	r2,r2,7600
 2001c68:	d8800215 	stw	r2,8(sp)
 2001c6c:	8809883a 	mov	r4,r17
 2001c70:	180b883a 	mov	r5,r3
 2001c74:	01804034 	movhi	r6,256
 2001c78:	31bfffc4 	addi	r6,r6,-1
 2001c7c:	000f883a 	mov	r7,zero
 2001c80:	2008b400 	call	2008b40 <vid_print_string_alpha>
	// draw border
	RectCopy(&rc, &pDeskInfo->rcDisp);
	vid_draw_box (rc.left, rc.top, rc.right, rc.bottom, WHITE_24, DO_NOT_FILL, pDisplay);

	// draw buttons
	for(i=0;i<10;i++){
 2001c84:	e0bff717 	ldw	r2,-36(fp)
 2001c88:	10800044 	addi	r2,r2,1
 2001c8c:	e0bff715 	stw	r2,-36(fp)
 2001c90:	e0bff717 	ldw	r2,-36(fp)
 2001c94:	10800290 	cmplti	r2,r2,10
 2001c98:	103e321e 	bne	r2,zero,2001564 <__reset+0xfdff9d64>
		else
		{

		}
	}
}
 2001c9c:	e6fffe04 	addi	sp,fp,-8
 2001ca0:	dfc00317 	ldw	ra,12(sp)
 2001ca4:	df000217 	ldw	fp,8(sp)
 2001ca8:	dc400117 	ldw	r17,4(sp)
 2001cac:	dc000017 	ldw	r16,0(sp)
 2001cb0:	dec00404 	addi	sp,sp,16
 2001cb4:	f800283a 	ret

02001cb8 <GUI_ROBINSUN_CompetitionChoice2_Init>:

void GUI_ROBINSUN_CompetitionChoice2_Init(alt_video_display *pDisplay, DESK_INFO *pDeskInfo){
 2001cb8:	defff104 	addi	sp,sp,-60
 2001cbc:	dfc00e15 	stw	ra,56(sp)
 2001cc0:	df000d15 	stw	fp,52(sp)
 2001cc4:	df000d04 	addi	fp,sp,52
 2001cc8:	e13ffe15 	stw	r4,-8(fp)
 2001ccc:	e17fff15 	stw	r5,-4(fp)
	int i;
	RECT rc;
	const int BoxH = 40;
 2001cd0:	00800a04 	movi	r2,40
 2001cd4:	e0bff515 	stw	r2,-44(fp)
	const int DistBorder = 2;
 2001cd8:	00800084 	movi	r2,2
 2001cdc:	e0bff615 	stw	r2,-40(fp)
	const int DistW = 10;
 2001ce0:	00800284 	movi	r2,10
 2001ce4:	e0bff715 	stw	r2,-36(fp)
	int GapH, BoxW;

	// Space to put between the buttons in order to be equally spaced
	GapH = (pDisplay->height - (6*BoxH) - 12 - 4)/(3+1);
 2001ce8:	e0bffe17 	ldw	r2,-8(fp)
 2001cec:	10c00217 	ldw	r3,8(r2)
 2001cf0:	e0bff517 	ldw	r2,-44(fp)
 2001cf4:	10bffea4 	muli	r2,r2,-6
 2001cf8:	1885883a 	add	r2,r3,r2
 2001cfc:	10bffc04 	addi	r2,r2,-16
 2001d00:	1000010e 	bge	r2,zero,2001d08 <GUI_ROBINSUN_CompetitionChoice2_Init+0x50>
 2001d04:	108000c4 	addi	r2,r2,3
 2001d08:	1005d0ba 	srai	r2,r2,2
 2001d0c:	e0bff815 	stw	r2,-32(fp)
	BoxW = (pDisplay->width - 2*DistW - 5)/2;
 2001d10:	e0bffe17 	ldw	r2,-8(fp)
 2001d14:	10c00117 	ldw	r3,4(r2)
 2001d18:	e13ff717 	ldw	r4,-36(fp)
 2001d1c:	0005883a 	mov	r2,zero
 2001d20:	1105c83a 	sub	r2,r2,r4
 2001d24:	1085883a 	add	r2,r2,r2
 2001d28:	1885883a 	add	r2,r3,r2
 2001d2c:	10bffec4 	addi	r2,r2,-5
 2001d30:	1006d7fa 	srli	r3,r2,31
 2001d34:	1885883a 	add	r2,r3,r2
 2001d38:	1005d07a 	srai	r2,r2,1
 2001d3c:	e0bff915 	stw	r2,-28(fp)

	// Desk border
	RectSet(&pDeskInfo->rcDisp, DistBorder, pDisplay->width-DistBorder, DistBorder, pDisplay->height-DistBorder);
 2001d40:	e13fff17 	ldw	r4,-4(fp)
 2001d44:	e0bffe17 	ldw	r2,-8(fp)
 2001d48:	10c00117 	ldw	r3,4(r2)
 2001d4c:	e0bff617 	ldw	r2,-40(fp)
 2001d50:	188dc83a 	sub	r6,r3,r2
 2001d54:	e0bffe17 	ldw	r2,-8(fp)
 2001d58:	10c00217 	ldw	r3,8(r2)
 2001d5c:	e0bff617 	ldw	r2,-40(fp)
 2001d60:	1885c83a 	sub	r2,r3,r2
 2001d64:	d8800015 	stw	r2,0(sp)
 2001d68:	e17ff617 	ldw	r5,-40(fp)
 2001d6c:	e1fff617 	ldw	r7,-40(fp)
 2001d70:	20061bc0 	call	20061bc <RectSet>

	rc.top = DistBorder + GapH;
 2001d74:	e0fff617 	ldw	r3,-40(fp)
 2001d78:	e0bff817 	ldw	r2,-32(fp)
 2001d7c:	1885883a 	add	r2,r3,r2
 2001d80:	e0bffc15 	stw	r2,-16(fp)
	rc.bottom = rc.top + BoxH;
 2001d84:	e0fffc17 	ldw	r3,-16(fp)
 2001d88:	e0bff517 	ldw	r2,-44(fp)
 2001d8c:	1885883a 	add	r2,r3,r2
 2001d90:	e0bffd15 	stw	r2,-12(fp)
	rc.left = DistW;
 2001d94:	e0bff717 	ldw	r2,-36(fp)
 2001d98:	e0bffa15 	stw	r2,-24(fp)
	rc.right = rc.left + 2*BoxW + 5;
 2001d9c:	e0fffa17 	ldw	r3,-24(fp)
 2001da0:	e0bff917 	ldw	r2,-28(fp)
 2001da4:	1085883a 	add	r2,r2,r2
 2001da8:	1885883a 	add	r2,r3,r2
 2001dac:	10800144 	addi	r2,r2,5
 2001db0:	e0bffb15 	stw	r2,-20(fp)

	// Initialization of the rectangles for the buttons
	for(i=0;i<6;i++){
 2001db4:	e03ff415 	stw	zero,-48(fp)
 2001db8:	00005d06 	br	2001f30 <GUI_ROBINSUN_CompetitionChoice2_Init+0x278>
		if (i==0){
 2001dbc:	e0bff417 	ldw	r2,-48(fp)
 2001dc0:	1000151e 	bne	r2,zero,2001e18 <GUI_ROBINSUN_CompetitionChoice2_Init+0x160>
			RectCopy(&pDeskInfo->buttons_competitionchoice2[i].rc, &rc);
 2001dc4:	e0bff417 	ldw	r2,-48(fp)
 2001dc8:	10800524 	muli	r2,r2,20
 2001dcc:	1080c204 	addi	r2,r2,776
 2001dd0:	e0ffff17 	ldw	r3,-4(fp)
 2001dd4:	1887883a 	add	r3,r3,r2
 2001dd8:	e0bffa04 	addi	r2,fp,-24
 2001ddc:	1809883a 	mov	r4,r3
 2001de0:	100b883a 	mov	r5,r2
 2001de4:	20063280 	call	2006328 <RectCopy>
			rc.right = rc.left + BoxW;
 2001de8:	e0fffa17 	ldw	r3,-24(fp)
 2001dec:	e0bff917 	ldw	r2,-28(fp)
 2001df0:	1885883a 	add	r2,r3,r2
 2001df4:	e0bffb15 	stw	r2,-20(fp)
			RectOffset(&rc, 0, BoxH+5);
 2001df8:	e0bff517 	ldw	r2,-44(fp)
 2001dfc:	10800144 	addi	r2,r2,5
 2001e00:	e0fffa04 	addi	r3,fp,-24
 2001e04:	1809883a 	mov	r4,r3
 2001e08:	000b883a 	mov	r5,zero
 2001e0c:	100d883a 	mov	r6,r2
 2001e10:	20062a00 	call	20062a0 <RectOffset>
 2001e14:	00004306 	br	2001f24 <GUI_ROBINSUN_CompetitionChoice2_Init+0x26c>
		}
		else if(i==1 || i==4){
 2001e18:	e0bff417 	ldw	r2,-48(fp)
 2001e1c:	10800060 	cmpeqi	r2,r2,1
 2001e20:	1000031e 	bne	r2,zero,2001e30 <GUI_ROBINSUN_CompetitionChoice2_Init+0x178>
 2001e24:	e0bff417 	ldw	r2,-48(fp)
 2001e28:	10800118 	cmpnei	r2,r2,4
 2001e2c:	1000111e 	bne	r2,zero,2001e74 <GUI_ROBINSUN_CompetitionChoice2_Init+0x1bc>
			RectCopy(&pDeskInfo->buttons_competitionchoice2[i].rc, &rc);
 2001e30:	e0bff417 	ldw	r2,-48(fp)
 2001e34:	10800524 	muli	r2,r2,20
 2001e38:	1080c204 	addi	r2,r2,776
 2001e3c:	e0ffff17 	ldw	r3,-4(fp)
 2001e40:	1887883a 	add	r3,r3,r2
 2001e44:	e0bffa04 	addi	r2,fp,-24
 2001e48:	1809883a 	mov	r4,r3
 2001e4c:	100b883a 	mov	r5,r2
 2001e50:	20063280 	call	2006328 <RectCopy>
			RectOffset(&rc, BoxW+5, 0);
 2001e54:	e0bff917 	ldw	r2,-28(fp)
 2001e58:	10800144 	addi	r2,r2,5
 2001e5c:	e0fffa04 	addi	r3,fp,-24
 2001e60:	1809883a 	mov	r4,r3
 2001e64:	100b883a 	mov	r5,r2
 2001e68:	000d883a 	mov	r6,zero
 2001e6c:	20062a00 	call	20062a0 <RectOffset>
 2001e70:	00002c06 	br	2001f24 <GUI_ROBINSUN_CompetitionChoice2_Init+0x26c>
		}
		else if(i==2){
 2001e74:	e0bff417 	ldw	r2,-48(fp)
 2001e78:	10800098 	cmpnei	r2,r2,2
 2001e7c:	1000141e 	bne	r2,zero,2001ed0 <GUI_ROBINSUN_CompetitionChoice2_Init+0x218>
			RectCopy(&pDeskInfo->buttons_competitionchoice2[i].rc, &rc);
 2001e80:	e0bff417 	ldw	r2,-48(fp)
 2001e84:	10800524 	muli	r2,r2,20
 2001e88:	1080c204 	addi	r2,r2,776
 2001e8c:	e0ffff17 	ldw	r3,-4(fp)
 2001e90:	1887883a 	add	r3,r3,r2
 2001e94:	e0bffa04 	addi	r2,fp,-24
 2001e98:	1809883a 	mov	r4,r3
 2001e9c:	100b883a 	mov	r5,r2
 2001ea0:	20063280 	call	2006328 <RectCopy>
			RectOffset(&rc, -BoxW-5, BoxH+GapH);
 2001ea4:	00fffec4 	movi	r3,-5
 2001ea8:	e0bff917 	ldw	r2,-28(fp)
 2001eac:	188bc83a 	sub	r5,r3,r2
 2001eb0:	e0fff517 	ldw	r3,-44(fp)
 2001eb4:	e0bff817 	ldw	r2,-32(fp)
 2001eb8:	1885883a 	add	r2,r3,r2
 2001ebc:	e0fffa04 	addi	r3,fp,-24
 2001ec0:	1809883a 	mov	r4,r3
 2001ec4:	100d883a 	mov	r6,r2
 2001ec8:	20062a00 	call	20062a0 <RectOffset>
 2001ecc:	00001506 	br	2001f24 <GUI_ROBINSUN_CompetitionChoice2_Init+0x26c>
		}
		else{
			RectCopy(&pDeskInfo->buttons_competitionchoice2[i].rc, &rc);
 2001ed0:	e0bff417 	ldw	r2,-48(fp)
 2001ed4:	10800524 	muli	r2,r2,20
 2001ed8:	1080c204 	addi	r2,r2,776
 2001edc:	e0ffff17 	ldw	r3,-4(fp)
 2001ee0:	1887883a 	add	r3,r3,r2
 2001ee4:	e0bffa04 	addi	r2,fp,-24
 2001ee8:	1809883a 	mov	r4,r3
 2001eec:	100b883a 	mov	r5,r2
 2001ef0:	20063280 	call	2006328 <RectCopy>
			RectOffset(&rc, 0, 3*BoxH + 7 + GapH);
 2001ef4:	e0fff517 	ldw	r3,-44(fp)
 2001ef8:	1805883a 	mov	r2,r3
 2001efc:	1085883a 	add	r2,r2,r2
 2001f00:	10c5883a 	add	r2,r2,r3
 2001f04:	10c001c4 	addi	r3,r2,7
 2001f08:	e0bff817 	ldw	r2,-32(fp)
 2001f0c:	1885883a 	add	r2,r3,r2
 2001f10:	e0fffa04 	addi	r3,fp,-24
 2001f14:	1809883a 	mov	r4,r3
 2001f18:	000b883a 	mov	r5,zero
 2001f1c:	100d883a 	mov	r6,r2
 2001f20:	20062a00 	call	20062a0 <RectOffset>
	rc.bottom = rc.top + BoxH;
	rc.left = DistW;
	rc.right = rc.left + 2*BoxW + 5;

	// Initialization of the rectangles for the buttons
	for(i=0;i<6;i++){
 2001f24:	e0bff417 	ldw	r2,-48(fp)
 2001f28:	10800044 	addi	r2,r2,1
 2001f2c:	e0bff415 	stw	r2,-48(fp)
 2001f30:	e0bff417 	ldw	r2,-48(fp)
 2001f34:	10800190 	cmplti	r2,r2,6
 2001f38:	103fa01e 	bne	r2,zero,2001dbc <__reset+0xfdffa5bc>
		else{
			RectCopy(&pDeskInfo->buttons_competitionchoice2[i].rc, &rc);
			RectOffset(&rc, 0, 3*BoxH + 7 + GapH);
		}
	}
}
 2001f3c:	e037883a 	mov	sp,fp
 2001f40:	dfc00117 	ldw	ra,4(sp)
 2001f44:	df000017 	ldw	fp,0(sp)
 2001f48:	dec00204 	addi	sp,sp,8
 2001f4c:	f800283a 	ret

02001f50 <GUI_ROBINSUN_CompetitionChoice2_Draw>:

void GUI_ROBINSUN_CompetitionChoice2_Draw(alt_video_display *pDisplay, DESK_INFO *pDeskInfo){
 2001f50:	defff204 	addi	sp,sp,-56
 2001f54:	dfc00d15 	stw	ra,52(sp)
 2001f58:	df000c15 	stw	fp,48(sp)
 2001f5c:	dc400b15 	stw	r17,44(sp)
 2001f60:	dc000a15 	stw	r16,40(sp)
 2001f64:	df000c04 	addi	fp,sp,48
 2001f68:	e13ffc15 	stw	r4,-16(fp)
 2001f6c:	e17ffd15 	stw	r5,-12(fp)
	int i;
	RECT rc;

	// draw border
	RectCopy(&rc, &pDeskInfo->rcDisp);
 2001f70:	e0bffd17 	ldw	r2,-12(fp)
 2001f74:	e0fff804 	addi	r3,fp,-32
 2001f78:	1809883a 	mov	r4,r3
 2001f7c:	100b883a 	mov	r5,r2
 2001f80:	20063280 	call	2006328 <RectCopy>
	vid_draw_box (rc.left, rc.top, rc.right, rc.bottom, WHITE_24, DO_NOT_FILL, pDisplay);
 2001f84:	e13ff817 	ldw	r4,-32(fp)
 2001f88:	e17ffa17 	ldw	r5,-24(fp)
 2001f8c:	e1bff917 	ldw	r6,-28(fp)
 2001f90:	e0fffb17 	ldw	r3,-20(fp)
 2001f94:	00804034 	movhi	r2,256
 2001f98:	10bfffc4 	addi	r2,r2,-1
 2001f9c:	d8800015 	stw	r2,0(sp)
 2001fa0:	d8000115 	stw	zero,4(sp)
 2001fa4:	e0bffc17 	ldw	r2,-16(fp)
 2001fa8:	d8800215 	stw	r2,8(sp)
 2001fac:	180f883a 	mov	r7,r3
 2001fb0:	2006d340 	call	2006d34 <vid_draw_box>

	// draw buttons
	for(i=0;i<6;i++){
 2001fb4:	e03ff715 	stw	zero,-36(fp)
 2001fb8:	00010e06 	br	20023f4 <GUI_ROBINSUN_CompetitionChoice2_Draw+0x4a4>
		RectCopy(&rc, &pDeskInfo->buttons_competitionchoice2[i].rc);
 2001fbc:	e0bff717 	ldw	r2,-36(fp)
 2001fc0:	10800524 	muli	r2,r2,20
 2001fc4:	1080c204 	addi	r2,r2,776
 2001fc8:	e0fffd17 	ldw	r3,-12(fp)
 2001fcc:	1885883a 	add	r2,r3,r2
 2001fd0:	e0fff804 	addi	r3,fp,-32
 2001fd4:	1809883a 	mov	r4,r3
 2001fd8:	100b883a 	mov	r5,r2
 2001fdc:	20063280 	call	2006328 <RectCopy>
		if (i == 0){
 2001fe0:	e0bff717 	ldw	r2,-36(fp)
 2001fe4:	1000311e 	bne	r2,zero,20020ac <GUI_ROBINSUN_CompetitionChoice2_Draw+0x15c>
			vid_draw_box (rc.left, rc.top, rc.right, rc.bottom, BLACK_24, DO_FILL, pDisplay);
 2001fe8:	e13ff817 	ldw	r4,-32(fp)
 2001fec:	e17ffa17 	ldw	r5,-24(fp)
 2001ff0:	e1bff917 	ldw	r6,-28(fp)
 2001ff4:	e0fffb17 	ldw	r3,-20(fp)
 2001ff8:	d8000015 	stw	zero,0(sp)
 2001ffc:	00800044 	movi	r2,1
 2002000:	d8800115 	stw	r2,4(sp)
 2002004:	e0bffc17 	ldw	r2,-16(fp)
 2002008:	d8800215 	stw	r2,8(sp)
 200200c:	180f883a 	mov	r7,r3
 2002010:	2006d340 	call	2006d34 <vid_draw_box>
			vid_draw_box (rc.left, rc.top, rc.right, rc.bottom, WHITE_24, DO_NOT_FILL, pDisplay);
 2002014:	e13ff817 	ldw	r4,-32(fp)
 2002018:	e17ffa17 	ldw	r5,-24(fp)
 200201c:	e1bff917 	ldw	r6,-28(fp)
 2002020:	e0fffb17 	ldw	r3,-20(fp)
 2002024:	00804034 	movhi	r2,256
 2002028:	10bfffc4 	addi	r2,r2,-1
 200202c:	d8800015 	stw	r2,0(sp)
 2002030:	d8000115 	stw	zero,4(sp)
 2002034:	e0bffc17 	ldw	r2,-16(fp)
 2002038:	d8800215 	stw	r2,8(sp)
 200203c:	180f883a 	mov	r7,r3
 2002040:	2006d340 	call	2006d34 <vid_draw_box>
			vid_print_string_alpha(rc.left+8, rc.top+(RectHeight(&rc)-22)/2, WHITE_24, BLACK_24, tahomabold_20, pDisplay, "Nb of opponents");
 2002044:	e0bff817 	ldw	r2,-32(fp)
 2002048:	14400204 	addi	r17,r2,8
 200204c:	e43ffa17 	ldw	r16,-24(fp)
 2002050:	e0bff804 	addi	r2,fp,-32
 2002054:	1009883a 	mov	r4,r2
 2002058:	20063c00 	call	20063c0 <RectHeight>
 200205c:	10bffa84 	addi	r2,r2,-22
 2002060:	1006d7fa 	srli	r3,r2,31
 2002064:	1885883a 	add	r2,r3,r2
 2002068:	1005d07a 	srai	r2,r2,1
 200206c:	8087883a 	add	r3,r16,r2
 2002070:	008080f4 	movhi	r2,515
 2002074:	10af9504 	addi	r2,r2,-16812
 2002078:	d8800015 	stw	r2,0(sp)
 200207c:	e0bffc17 	ldw	r2,-16(fp)
 2002080:	d8800115 	stw	r2,4(sp)
 2002084:	00808074 	movhi	r2,513
 2002088:	10876f04 	addi	r2,r2,7612
 200208c:	d8800215 	stw	r2,8(sp)
 2002090:	8809883a 	mov	r4,r17
 2002094:	180b883a 	mov	r5,r3
 2002098:	01804034 	movhi	r6,256
 200209c:	31bfffc4 	addi	r6,r6,-1
 20020a0:	000f883a 	mov	r7,zero
 20020a4:	2008b400 	call	2008b40 <vid_print_string_alpha>
 20020a8:	0000cf06 	br	20023e8 <GUI_ROBINSUN_CompetitionChoice2_Draw+0x498>
		}
		else if (i == 1){
 20020ac:	e0bff717 	ldw	r2,-36(fp)
 20020b0:	10800058 	cmpnei	r2,r2,1
 20020b4:	1000311e 	bne	r2,zero,200217c <GUI_ROBINSUN_CompetitionChoice2_Draw+0x22c>
			vid_draw_box (rc.left, rc.top, rc.right, rc.bottom, BLACK_24, DO_FILL, pDisplay);
 20020b8:	e13ff817 	ldw	r4,-32(fp)
 20020bc:	e17ffa17 	ldw	r5,-24(fp)
 20020c0:	e1bff917 	ldw	r6,-28(fp)
 20020c4:	e0fffb17 	ldw	r3,-20(fp)
 20020c8:	d8000015 	stw	zero,0(sp)
 20020cc:	00800044 	movi	r2,1
 20020d0:	d8800115 	stw	r2,4(sp)
 20020d4:	e0bffc17 	ldw	r2,-16(fp)
 20020d8:	d8800215 	stw	r2,8(sp)
 20020dc:	180f883a 	mov	r7,r3
 20020e0:	2006d340 	call	2006d34 <vid_draw_box>
			vid_draw_box (rc.left, rc.top, rc.right, rc.bottom, WHITE_24, DO_NOT_FILL, pDisplay);
 20020e4:	e13ff817 	ldw	r4,-32(fp)
 20020e8:	e17ffa17 	ldw	r5,-24(fp)
 20020ec:	e1bff917 	ldw	r6,-28(fp)
 20020f0:	e0fffb17 	ldw	r3,-20(fp)
 20020f4:	00804034 	movhi	r2,256
 20020f8:	10bfffc4 	addi	r2,r2,-1
 20020fc:	d8800015 	stw	r2,0(sp)
 2002100:	d8000115 	stw	zero,4(sp)
 2002104:	e0bffc17 	ldw	r2,-16(fp)
 2002108:	d8800215 	stw	r2,8(sp)
 200210c:	180f883a 	mov	r7,r3
 2002110:	2006d340 	call	2006d34 <vid_draw_box>
			vid_print_string_alpha(rc.left+8, rc.top+(RectHeight(&rc)-22)/2, WHITE_24, BLACK_24, tahomabold_20, pDisplay, "1");
 2002114:	e0bff817 	ldw	r2,-32(fp)
 2002118:	14400204 	addi	r17,r2,8
 200211c:	e43ffa17 	ldw	r16,-24(fp)
 2002120:	e0bff804 	addi	r2,fp,-32
 2002124:	1009883a 	mov	r4,r2
 2002128:	20063c00 	call	20063c0 <RectHeight>
 200212c:	10bffa84 	addi	r2,r2,-22
 2002130:	1006d7fa 	srli	r3,r2,31
 2002134:	1885883a 	add	r2,r3,r2
 2002138:	1005d07a 	srai	r2,r2,1
 200213c:	8087883a 	add	r3,r16,r2
 2002140:	008080f4 	movhi	r2,515
 2002144:	10af9504 	addi	r2,r2,-16812
 2002148:	d8800015 	stw	r2,0(sp)
 200214c:	e0bffc17 	ldw	r2,-16(fp)
 2002150:	d8800115 	stw	r2,4(sp)
 2002154:	00808074 	movhi	r2,513
 2002158:	10876604 	addi	r2,r2,7576
 200215c:	d8800215 	stw	r2,8(sp)
 2002160:	8809883a 	mov	r4,r17
 2002164:	180b883a 	mov	r5,r3
 2002168:	01804034 	movhi	r6,256
 200216c:	31bfffc4 	addi	r6,r6,-1
 2002170:	000f883a 	mov	r7,zero
 2002174:	2008b400 	call	2008b40 <vid_print_string_alpha>
 2002178:	00009b06 	br	20023e8 <GUI_ROBINSUN_CompetitionChoice2_Draw+0x498>
		}
		else if (i == 2){
 200217c:	e0bff717 	ldw	r2,-36(fp)
 2002180:	10800098 	cmpnei	r2,r2,2
 2002184:	1000311e 	bne	r2,zero,200224c <GUI_ROBINSUN_CompetitionChoice2_Draw+0x2fc>
			vid_draw_box (rc.left, rc.top, rc.right, rc.bottom, BLACK_24, DO_FILL, pDisplay);
 2002188:	e13ff817 	ldw	r4,-32(fp)
 200218c:	e17ffa17 	ldw	r5,-24(fp)
 2002190:	e1bff917 	ldw	r6,-28(fp)
 2002194:	e0fffb17 	ldw	r3,-20(fp)
 2002198:	d8000015 	stw	zero,0(sp)
 200219c:	00800044 	movi	r2,1
 20021a0:	d8800115 	stw	r2,4(sp)
 20021a4:	e0bffc17 	ldw	r2,-16(fp)
 20021a8:	d8800215 	stw	r2,8(sp)
 20021ac:	180f883a 	mov	r7,r3
 20021b0:	2006d340 	call	2006d34 <vid_draw_box>
			vid_draw_box (rc.left, rc.top, rc.right, rc.bottom, WHITE_24, DO_NOT_FILL, pDisplay);
 20021b4:	e13ff817 	ldw	r4,-32(fp)
 20021b8:	e17ffa17 	ldw	r5,-24(fp)
 20021bc:	e1bff917 	ldw	r6,-28(fp)
 20021c0:	e0fffb17 	ldw	r3,-20(fp)
 20021c4:	00804034 	movhi	r2,256
 20021c8:	10bfffc4 	addi	r2,r2,-1
 20021cc:	d8800015 	stw	r2,0(sp)
 20021d0:	d8000115 	stw	zero,4(sp)
 20021d4:	e0bffc17 	ldw	r2,-16(fp)
 20021d8:	d8800215 	stw	r2,8(sp)
 20021dc:	180f883a 	mov	r7,r3
 20021e0:	2006d340 	call	2006d34 <vid_draw_box>
			vid_print_string_alpha(rc.left+8, rc.top+(RectHeight(&rc)-22)/2, WHITE_24, BLACK_24, tahomabold_20, pDisplay, "2");
 20021e4:	e0bff817 	ldw	r2,-32(fp)
 20021e8:	14400204 	addi	r17,r2,8
 20021ec:	e43ffa17 	ldw	r16,-24(fp)
 20021f0:	e0bff804 	addi	r2,fp,-32
 20021f4:	1009883a 	mov	r4,r2
 20021f8:	20063c00 	call	20063c0 <RectHeight>
 20021fc:	10bffa84 	addi	r2,r2,-22
 2002200:	1006d7fa 	srli	r3,r2,31
 2002204:	1885883a 	add	r2,r3,r2
 2002208:	1005d07a 	srai	r2,r2,1
 200220c:	8087883a 	add	r3,r16,r2
 2002210:	008080f4 	movhi	r2,515
 2002214:	10af9504 	addi	r2,r2,-16812
 2002218:	d8800015 	stw	r2,0(sp)
 200221c:	e0bffc17 	ldw	r2,-16(fp)
 2002220:	d8800115 	stw	r2,4(sp)
 2002224:	00808074 	movhi	r2,513
 2002228:	10876704 	addi	r2,r2,7580
 200222c:	d8800215 	stw	r2,8(sp)
 2002230:	8809883a 	mov	r4,r17
 2002234:	180b883a 	mov	r5,r3
 2002238:	01804034 	movhi	r6,256
 200223c:	31bfffc4 	addi	r6,r6,-1
 2002240:	000f883a 	mov	r7,zero
 2002244:	2008b400 	call	2008b40 <vid_print_string_alpha>
 2002248:	00006706 	br	20023e8 <GUI_ROBINSUN_CompetitionChoice2_Draw+0x498>
		}
		else if (i == 4){
 200224c:	e0bff717 	ldw	r2,-36(fp)
 2002250:	10800118 	cmpnei	r2,r2,4
 2002254:	1000311e 	bne	r2,zero,200231c <GUI_ROBINSUN_CompetitionChoice2_Draw+0x3cc>
			vid_draw_box (rc.left, rc.top, rc.right, rc.bottom, BLACK_24, DO_FILL, pDisplay);
 2002258:	e13ff817 	ldw	r4,-32(fp)
 200225c:	e17ffa17 	ldw	r5,-24(fp)
 2002260:	e1bff917 	ldw	r6,-28(fp)
 2002264:	e0fffb17 	ldw	r3,-20(fp)
 2002268:	d8000015 	stw	zero,0(sp)
 200226c:	00800044 	movi	r2,1
 2002270:	d8800115 	stw	r2,4(sp)
 2002274:	e0bffc17 	ldw	r2,-16(fp)
 2002278:	d8800215 	stw	r2,8(sp)
 200227c:	180f883a 	mov	r7,r3
 2002280:	2006d340 	call	2006d34 <vid_draw_box>
			vid_draw_box (rc.left, rc.top, rc.right, rc.bottom, WHITE_24, DO_NOT_FILL, pDisplay);
 2002284:	e13ff817 	ldw	r4,-32(fp)
 2002288:	e17ffa17 	ldw	r5,-24(fp)
 200228c:	e1bff917 	ldw	r6,-28(fp)
 2002290:	e0fffb17 	ldw	r3,-20(fp)
 2002294:	00804034 	movhi	r2,256
 2002298:	10bfffc4 	addi	r2,r2,-1
 200229c:	d8800015 	stw	r2,0(sp)
 20022a0:	d8000115 	stw	zero,4(sp)
 20022a4:	e0bffc17 	ldw	r2,-16(fp)
 20022a8:	d8800215 	stw	r2,8(sp)
 20022ac:	180f883a 	mov	r7,r3
 20022b0:	2006d340 	call	2006d34 <vid_draw_box>
			vid_print_string_alpha(rc.left+8, rc.top+(RectHeight(&rc)-22)/2, WHITE_24, BLACK_24, tahomabold_20, pDisplay, "Back");
 20022b4:	e0bff817 	ldw	r2,-32(fp)
 20022b8:	14400204 	addi	r17,r2,8
 20022bc:	e43ffa17 	ldw	r16,-24(fp)
 20022c0:	e0bff804 	addi	r2,fp,-32
 20022c4:	1009883a 	mov	r4,r2
 20022c8:	20063c00 	call	20063c0 <RectHeight>
 20022cc:	10bffa84 	addi	r2,r2,-22
 20022d0:	1006d7fa 	srli	r3,r2,31
 20022d4:	1885883a 	add	r2,r3,r2
 20022d8:	1005d07a 	srai	r2,r2,1
 20022dc:	8087883a 	add	r3,r16,r2
 20022e0:	008080f4 	movhi	r2,515
 20022e4:	10af9504 	addi	r2,r2,-16812
 20022e8:	d8800015 	stw	r2,0(sp)
 20022ec:	e0bffc17 	ldw	r2,-16(fp)
 20022f0:	d8800115 	stw	r2,4(sp)
 20022f4:	00808074 	movhi	r2,513
 20022f8:	10876a04 	addi	r2,r2,7592
 20022fc:	d8800215 	stw	r2,8(sp)
 2002300:	8809883a 	mov	r4,r17
 2002304:	180b883a 	mov	r5,r3
 2002308:	01804034 	movhi	r6,256
 200230c:	31bfffc4 	addi	r6,r6,-1
 2002310:	000f883a 	mov	r7,zero
 2002314:	2008b400 	call	2008b40 <vid_print_string_alpha>
 2002318:	00003306 	br	20023e8 <GUI_ROBINSUN_CompetitionChoice2_Draw+0x498>
		}
		else if (i == 5){
 200231c:	e0bff717 	ldw	r2,-36(fp)
 2002320:	10800158 	cmpnei	r2,r2,5
 2002324:	1000301e 	bne	r2,zero,20023e8 <GUI_ROBINSUN_CompetitionChoice2_Draw+0x498>
			vid_draw_box (rc.left, rc.top, rc.right, rc.bottom, BLACK_24, DO_FILL, pDisplay);
 2002328:	e13ff817 	ldw	r4,-32(fp)
 200232c:	e17ffa17 	ldw	r5,-24(fp)
 2002330:	e1bff917 	ldw	r6,-28(fp)
 2002334:	e0fffb17 	ldw	r3,-20(fp)
 2002338:	d8000015 	stw	zero,0(sp)
 200233c:	00800044 	movi	r2,1
 2002340:	d8800115 	stw	r2,4(sp)
 2002344:	e0bffc17 	ldw	r2,-16(fp)
 2002348:	d8800215 	stw	r2,8(sp)
 200234c:	180f883a 	mov	r7,r3
 2002350:	2006d340 	call	2006d34 <vid_draw_box>
			vid_draw_box (rc.left, rc.top, rc.right, rc.bottom, WHITE_24, DO_NOT_FILL, pDisplay);
 2002354:	e13ff817 	ldw	r4,-32(fp)
 2002358:	e17ffa17 	ldw	r5,-24(fp)
 200235c:	e1bff917 	ldw	r6,-28(fp)
 2002360:	e0fffb17 	ldw	r3,-20(fp)
 2002364:	00804034 	movhi	r2,256
 2002368:	10bfffc4 	addi	r2,r2,-1
 200236c:	d8800015 	stw	r2,0(sp)
 2002370:	d8000115 	stw	zero,4(sp)
 2002374:	e0bffc17 	ldw	r2,-16(fp)
 2002378:	d8800215 	stw	r2,8(sp)
 200237c:	180f883a 	mov	r7,r3
 2002380:	2006d340 	call	2006d34 <vid_draw_box>
			vid_print_string_alpha(rc.left+8, rc.top+(RectHeight(&rc)-22)/2, WHITE_24, BLACK_24, tahomabold_20, pDisplay, "Continue");
 2002384:	e0bff817 	ldw	r2,-32(fp)
 2002388:	14400204 	addi	r17,r2,8
 200238c:	e43ffa17 	ldw	r16,-24(fp)
 2002390:	e0bff804 	addi	r2,fp,-32
 2002394:	1009883a 	mov	r4,r2
 2002398:	20063c00 	call	20063c0 <RectHeight>
 200239c:	10bffa84 	addi	r2,r2,-22
 20023a0:	1006d7fa 	srli	r3,r2,31
 20023a4:	1885883a 	add	r2,r3,r2
 20023a8:	1005d07a 	srai	r2,r2,1
 20023ac:	8087883a 	add	r3,r16,r2
 20023b0:	008080f4 	movhi	r2,515
 20023b4:	10af9504 	addi	r2,r2,-16812
 20023b8:	d8800015 	stw	r2,0(sp)
 20023bc:	e0bffc17 	ldw	r2,-16(fp)
 20023c0:	d8800115 	stw	r2,4(sp)
 20023c4:	00808074 	movhi	r2,513
 20023c8:	10876c04 	addi	r2,r2,7600
 20023cc:	d8800215 	stw	r2,8(sp)
 20023d0:	8809883a 	mov	r4,r17
 20023d4:	180b883a 	mov	r5,r3
 20023d8:	01804034 	movhi	r6,256
 20023dc:	31bfffc4 	addi	r6,r6,-1
 20023e0:	000f883a 	mov	r7,zero
 20023e4:	2008b400 	call	2008b40 <vid_print_string_alpha>
	// draw border
	RectCopy(&rc, &pDeskInfo->rcDisp);
	vid_draw_box (rc.left, rc.top, rc.right, rc.bottom, WHITE_24, DO_NOT_FILL, pDisplay);

	// draw buttons
	for(i=0;i<6;i++){
 20023e8:	e0bff717 	ldw	r2,-36(fp)
 20023ec:	10800044 	addi	r2,r2,1
 20023f0:	e0bff715 	stw	r2,-36(fp)
 20023f4:	e0bff717 	ldw	r2,-36(fp)
 20023f8:	10800190 	cmplti	r2,r2,6
 20023fc:	103eef1e 	bne	r2,zero,2001fbc <__reset+0xfdffa7bc>
		else
		{

		}
	}
}
 2002400:	e6fffe04 	addi	sp,fp,-8
 2002404:	dfc00317 	ldw	ra,12(sp)
 2002408:	df000217 	ldw	fp,8(sp)
 200240c:	dc400117 	ldw	r17,4(sp)
 2002410:	dc000017 	ldw	r16,0(sp)
 2002414:	dec00404 	addi	sp,sp,16
 2002418:	f800283a 	ret

0200241c <GUI_ROBINSUN_CompetitionSummary_Init>:

void GUI_ROBINSUN_CompetitionSummary_Init(alt_video_display *pDisplay, DESK_INFO *pDeskInfo){
 200241c:	defff104 	addi	sp,sp,-60
 2002420:	dfc00e15 	stw	ra,56(sp)
 2002424:	df000d15 	stw	fp,52(sp)
 2002428:	df000d04 	addi	fp,sp,52
 200242c:	e13ffe15 	stw	r4,-8(fp)
 2002430:	e17fff15 	stw	r5,-4(fp)
	int i;
	RECT rc;
	const int BoxH = 30;
 2002434:	00800784 	movi	r2,30
 2002438:	e0bff515 	stw	r2,-44(fp)
	const int DistBorder = 2;
 200243c:	00800084 	movi	r2,2
 2002440:	e0bff615 	stw	r2,-40(fp)
	const int DistW = 10;
 2002444:	00800284 	movi	r2,10
 2002448:	e0bff715 	stw	r2,-36(fp)
	int GapH, BoxW;

	// Space to put between the buttons in order to be equally spaced
	GapH = (pDisplay->height - (8*BoxH) - 6 - 4)/(5+1);
 200244c:	e0bffe17 	ldw	r2,-8(fp)
 2002450:	10c00217 	ldw	r3,8(r2)
 2002454:	e0bff517 	ldw	r2,-44(fp)
 2002458:	10bffe24 	muli	r2,r2,-8
 200245c:	1885883a 	add	r2,r3,r2
 2002460:	10bffd84 	addi	r2,r2,-10
 2002464:	1009883a 	mov	r4,r2
 2002468:	01400184 	movi	r5,6
 200246c:	200a4d00 	call	200a4d0 <__divsi3>
 2002470:	e0bff815 	stw	r2,-32(fp)
	BoxW = (pDisplay->width - 2*DistW - 5)/2;
 2002474:	e0bffe17 	ldw	r2,-8(fp)
 2002478:	10c00117 	ldw	r3,4(r2)
 200247c:	e13ff717 	ldw	r4,-36(fp)
 2002480:	0005883a 	mov	r2,zero
 2002484:	1105c83a 	sub	r2,r2,r4
 2002488:	1085883a 	add	r2,r2,r2
 200248c:	1885883a 	add	r2,r3,r2
 2002490:	10bffec4 	addi	r2,r2,-5
 2002494:	1006d7fa 	srli	r3,r2,31
 2002498:	1885883a 	add	r2,r3,r2
 200249c:	1005d07a 	srai	r2,r2,1
 20024a0:	e0bff915 	stw	r2,-28(fp)

	// Desk border
	RectSet(&pDeskInfo->rcDisp, DistBorder, pDisplay->width-DistBorder, DistBorder, pDisplay->height-DistBorder);
 20024a4:	e13fff17 	ldw	r4,-4(fp)
 20024a8:	e0bffe17 	ldw	r2,-8(fp)
 20024ac:	10c00117 	ldw	r3,4(r2)
 20024b0:	e0bff617 	ldw	r2,-40(fp)
 20024b4:	188dc83a 	sub	r6,r3,r2
 20024b8:	e0bffe17 	ldw	r2,-8(fp)
 20024bc:	10c00217 	ldw	r3,8(r2)
 20024c0:	e0bff617 	ldw	r2,-40(fp)
 20024c4:	1885c83a 	sub	r2,r3,r2
 20024c8:	d8800015 	stw	r2,0(sp)
 20024cc:	e17ff617 	ldw	r5,-40(fp)
 20024d0:	e1fff617 	ldw	r7,-40(fp)
 20024d4:	20061bc0 	call	20061bc <RectSet>

	rc.top = DistBorder + GapH;
 20024d8:	e0fff617 	ldw	r3,-40(fp)
 20024dc:	e0bff817 	ldw	r2,-32(fp)
 20024e0:	1885883a 	add	r2,r3,r2
 20024e4:	e0bffc15 	stw	r2,-16(fp)
	rc.bottom = rc.top + BoxH;
 20024e8:	e0fffc17 	ldw	r3,-16(fp)
 20024ec:	e0bff517 	ldw	r2,-44(fp)
 20024f0:	1885883a 	add	r2,r3,r2
 20024f4:	e0bffd15 	stw	r2,-12(fp)
	rc.left = DistW + BoxW + 5;
 20024f8:	e0fff717 	ldw	r3,-36(fp)
 20024fc:	e0bff917 	ldw	r2,-28(fp)
 2002500:	1885883a 	add	r2,r3,r2
 2002504:	10800144 	addi	r2,r2,5
 2002508:	e0bffa15 	stw	r2,-24(fp)
	rc.right = rc.left + BoxW;
 200250c:	e0fffa17 	ldw	r3,-24(fp)
 2002510:	e0bff917 	ldw	r2,-28(fp)
 2002514:	1885883a 	add	r2,r3,r2
 2002518:	e0bffb15 	stw	r2,-20(fp)

	// Initialization of the rectangles for the buttons
	for(i=0;i<8;i++){
 200251c:	e03ff415 	stw	zero,-48(fp)
 2002520:	00007706 	br	2002700 <GUI_ROBINSUN_CompetitionSummary_Init+0x2e4>
		if (i==0){
 2002524:	e0bff417 	ldw	r2,-48(fp)
 2002528:	1000141e 	bne	r2,zero,200257c <GUI_ROBINSUN_CompetitionSummary_Init+0x160>
			RectCopy(&pDeskInfo->buttons_competitionsummary[i].rc, &rc);
 200252c:	e0bff417 	ldw	r2,-48(fp)
 2002530:	10800524 	muli	r2,r2,20
 2002534:	1080e004 	addi	r2,r2,896
 2002538:	e0ffff17 	ldw	r3,-4(fp)
 200253c:	1887883a 	add	r3,r3,r2
 2002540:	e0bffa04 	addi	r2,fp,-24
 2002544:	1809883a 	mov	r4,r3
 2002548:	100b883a 	mov	r5,r2
 200254c:	20063280 	call	2006328 <RectCopy>
			RectOffset(&rc, -BoxW-5, BoxH+GapH);
 2002550:	00fffec4 	movi	r3,-5
 2002554:	e0bff917 	ldw	r2,-28(fp)
 2002558:	188bc83a 	sub	r5,r3,r2
 200255c:	e0fff517 	ldw	r3,-44(fp)
 2002560:	e0bff817 	ldw	r2,-32(fp)
 2002564:	1885883a 	add	r2,r3,r2
 2002568:	e0fffa04 	addi	r3,fp,-24
 200256c:	1809883a 	mov	r4,r3
 2002570:	100d883a 	mov	r6,r2
 2002574:	20062a00 	call	20062a0 <RectOffset>
 2002578:	00005e06 	br	20026f4 <GUI_ROBINSUN_CompetitionSummary_Init+0x2d8>
		}
		else if(i==1 || i==3){
 200257c:	e0bff417 	ldw	r2,-48(fp)
 2002580:	10800060 	cmpeqi	r2,r2,1
 2002584:	1000031e 	bne	r2,zero,2002594 <GUI_ROBINSUN_CompetitionSummary_Init+0x178>
 2002588:	e0bff417 	ldw	r2,-48(fp)
 200258c:	108000d8 	cmpnei	r2,r2,3
 2002590:	1000111e 	bne	r2,zero,20025d8 <GUI_ROBINSUN_CompetitionSummary_Init+0x1bc>
			RectCopy(&pDeskInfo->buttons_competitionsummary[i].rc, &rc);
 2002594:	e0bff417 	ldw	r2,-48(fp)
 2002598:	10800524 	muli	r2,r2,20
 200259c:	1080e004 	addi	r2,r2,896
 20025a0:	e0ffff17 	ldw	r3,-4(fp)
 20025a4:	1887883a 	add	r3,r3,r2
 20025a8:	e0bffa04 	addi	r2,fp,-24
 20025ac:	1809883a 	mov	r4,r3
 20025b0:	100b883a 	mov	r5,r2
 20025b4:	20063280 	call	2006328 <RectCopy>
			RectOffset(&rc, 0, BoxH+2);
 20025b8:	e0bff517 	ldw	r2,-44(fp)
 20025bc:	10800084 	addi	r2,r2,2
 20025c0:	e0fffa04 	addi	r3,fp,-24
 20025c4:	1809883a 	mov	r4,r3
 20025c8:	000b883a 	mov	r5,zero
 20025cc:	100d883a 	mov	r6,r2
 20025d0:	20062a00 	call	20062a0 <RectOffset>
 20025d4:	00004706 	br	20026f4 <GUI_ROBINSUN_CompetitionSummary_Init+0x2d8>
		}
		else if(i==2){
 20025d8:	e0bff417 	ldw	r2,-48(fp)
 20025dc:	10800098 	cmpnei	r2,r2,2
 20025e0:	1000121e 	bne	r2,zero,200262c <GUI_ROBINSUN_CompetitionSummary_Init+0x210>
			RectCopy(&pDeskInfo->buttons_competitionsummary[i].rc, &rc);
 20025e4:	e0bff417 	ldw	r2,-48(fp)
 20025e8:	10800524 	muli	r2,r2,20
 20025ec:	1080e004 	addi	r2,r2,896
 20025f0:	e0ffff17 	ldw	r3,-4(fp)
 20025f4:	1887883a 	add	r3,r3,r2
 20025f8:	e0bffa04 	addi	r2,fp,-24
 20025fc:	1809883a 	mov	r4,r3
 2002600:	100b883a 	mov	r5,r2
 2002604:	20063280 	call	2006328 <RectCopy>
			RectOffset(&rc, 0, BoxH+GapH);
 2002608:	e0fff517 	ldw	r3,-44(fp)
 200260c:	e0bff817 	ldw	r2,-32(fp)
 2002610:	1885883a 	add	r2,r3,r2
 2002614:	e0fffa04 	addi	r3,fp,-24
 2002618:	1809883a 	mov	r4,r3
 200261c:	000b883a 	mov	r5,zero
 2002620:	100d883a 	mov	r6,r2
 2002624:	20062a00 	call	20062a0 <RectOffset>
 2002628:	00003206 	br	20026f4 <GUI_ROBINSUN_CompetitionSummary_Init+0x2d8>
		}
		else if(i==4 || i==6){
 200262c:	e0bff417 	ldw	r2,-48(fp)
 2002630:	10800120 	cmpeqi	r2,r2,4
 2002634:	1000031e 	bne	r2,zero,2002644 <GUI_ROBINSUN_CompetitionSummary_Init+0x228>
 2002638:	e0bff417 	ldw	r2,-48(fp)
 200263c:	10800198 	cmpnei	r2,r2,6
 2002640:	1000171e 	bne	r2,zero,20026a0 <GUI_ROBINSUN_CompetitionSummary_Init+0x284>
			RectCopy(&pDeskInfo->buttons_competitionsummary[i].rc, &rc);
 2002644:	e0bff417 	ldw	r2,-48(fp)
 2002648:	10800524 	muli	r2,r2,20
 200264c:	1080e004 	addi	r2,r2,896
 2002650:	e0ffff17 	ldw	r3,-4(fp)
 2002654:	1887883a 	add	r3,r3,r2
 2002658:	e0bffa04 	addi	r2,fp,-24
 200265c:	1809883a 	mov	r4,r3
 2002660:	100b883a 	mov	r5,r2
 2002664:	20063280 	call	2006328 <RectCopy>
			rc.right = rc.right + 5 + BoxW;
 2002668:	e0bffb17 	ldw	r2,-20(fp)
 200266c:	10c00144 	addi	r3,r2,5
 2002670:	e0bff917 	ldw	r2,-28(fp)
 2002674:	1885883a 	add	r2,r3,r2
 2002678:	e0bffb15 	stw	r2,-20(fp)
			RectOffset(&rc, 0, BoxH+GapH);
 200267c:	e0fff517 	ldw	r3,-44(fp)
 2002680:	e0bff817 	ldw	r2,-32(fp)
 2002684:	1885883a 	add	r2,r3,r2
 2002688:	e0fffa04 	addi	r3,fp,-24
 200268c:	1809883a 	mov	r4,r3
 2002690:	000b883a 	mov	r5,zero
 2002694:	100d883a 	mov	r6,r2
 2002698:	20062a00 	call	20062a0 <RectOffset>
 200269c:	00001506 	br	20026f4 <GUI_ROBINSUN_CompetitionSummary_Init+0x2d8>
		}
		else{
			RectCopy(&pDeskInfo->buttons_competitionsummary[i].rc, &rc);
 20026a0:	e0bff417 	ldw	r2,-48(fp)
 20026a4:	10800524 	muli	r2,r2,20
 20026a8:	1080e004 	addi	r2,r2,896
 20026ac:	e0ffff17 	ldw	r3,-4(fp)
 20026b0:	1887883a 	add	r3,r3,r2
 20026b4:	e0bffa04 	addi	r2,fp,-24
 20026b8:	1809883a 	mov	r4,r3
 20026bc:	100b883a 	mov	r5,r2
 20026c0:	20063280 	call	2006328 <RectCopy>
			rc.right = rc.right - 5 - BoxW;
 20026c4:	e0bffb17 	ldw	r2,-20(fp)
 20026c8:	10fffec4 	addi	r3,r2,-5
 20026cc:	e0bff917 	ldw	r2,-28(fp)
 20026d0:	1885c83a 	sub	r2,r3,r2
 20026d4:	e0bffb15 	stw	r2,-20(fp)
			RectOffset(&rc, 0, BoxH+2);
 20026d8:	e0bff517 	ldw	r2,-44(fp)
 20026dc:	10800084 	addi	r2,r2,2
 20026e0:	e0fffa04 	addi	r3,fp,-24
 20026e4:	1809883a 	mov	r4,r3
 20026e8:	000b883a 	mov	r5,zero
 20026ec:	100d883a 	mov	r6,r2
 20026f0:	20062a00 	call	20062a0 <RectOffset>
	rc.bottom = rc.top + BoxH;
	rc.left = DistW + BoxW + 5;
	rc.right = rc.left + BoxW;

	// Initialization of the rectangles for the buttons
	for(i=0;i<8;i++){
 20026f4:	e0bff417 	ldw	r2,-48(fp)
 20026f8:	10800044 	addi	r2,r2,1
 20026fc:	e0bff415 	stw	r2,-48(fp)
 2002700:	e0bff417 	ldw	r2,-48(fp)
 2002704:	10800210 	cmplti	r2,r2,8
 2002708:	103f861e 	bne	r2,zero,2002524 <__reset+0xfdffad24>
			RectCopy(&pDeskInfo->buttons_competitionsummary[i].rc, &rc);
			rc.right = rc.right - 5 - BoxW;
			RectOffset(&rc, 0, BoxH+2);
		}
	}
}
 200270c:	e037883a 	mov	sp,fp
 2002710:	dfc00117 	ldw	ra,4(sp)
 2002714:	df000017 	ldw	fp,0(sp)
 2002718:	dec00204 	addi	sp,sp,8
 200271c:	f800283a 	ret

02002720 <GUI_ROBINSUN_CompetitionSummary_Draw>:

void GUI_ROBINSUN_CompetitionSummary_Draw(alt_video_display *pDisplay, DESK_INFO *pDeskInfo, int color, int strategy, int opponent){
 2002720:	defff004 	addi	sp,sp,-64
 2002724:	dfc00f15 	stw	ra,60(sp)
 2002728:	df000e15 	stw	fp,56(sp)
 200272c:	dc400d15 	stw	r17,52(sp)
 2002730:	dc000c15 	stw	r16,48(sp)
 2002734:	df000e04 	addi	fp,sp,56
 2002738:	e13ffa15 	stw	r4,-24(fp)
 200273c:	e17ffb15 	stw	r5,-20(fp)
 2002740:	e1bffc15 	stw	r6,-16(fp)
 2002744:	e1fffd15 	stw	r7,-12(fp)
	int i;
	RECT rc;

	// draw border
	RectCopy(&rc, &pDeskInfo->rcDisp);
 2002748:	e0bffb17 	ldw	r2,-20(fp)
 200274c:	e0fff604 	addi	r3,fp,-40
 2002750:	1809883a 	mov	r4,r3
 2002754:	100b883a 	mov	r5,r2
 2002758:	20063280 	call	2006328 <RectCopy>
	vid_draw_box (rc.left, rc.top, rc.right, rc.bottom, WHITE_24, DO_NOT_FILL, pDisplay);
 200275c:	e13ff617 	ldw	r4,-40(fp)
 2002760:	e17ff817 	ldw	r5,-32(fp)
 2002764:	e1bff717 	ldw	r6,-36(fp)
 2002768:	e0fff917 	ldw	r3,-28(fp)
 200276c:	00804034 	movhi	r2,256
 2002770:	10bfffc4 	addi	r2,r2,-1
 2002774:	d8800015 	stw	r2,0(sp)
 2002778:	d8000115 	stw	zero,4(sp)
 200277c:	e0bffa17 	ldw	r2,-24(fp)
 2002780:	d8800215 	stw	r2,8(sp)
 2002784:	180f883a 	mov	r7,r3
 2002788:	2006d340 	call	2006d34 <vid_draw_box>

	// draw buttons
	for(i=0;i<8;i++){
 200278c:	e03ff515 	stw	zero,-44(fp)
 2002790:	00020806 	br	2002fb4 <GUI_ROBINSUN_CompetitionSummary_Draw+0x894>
		RectCopy(&rc, &pDeskInfo->buttons_competitionsummary[i].rc);
 2002794:	e0bff517 	ldw	r2,-44(fp)
 2002798:	10800524 	muli	r2,r2,20
 200279c:	1080e004 	addi	r2,r2,896
 20027a0:	e0fffb17 	ldw	r3,-20(fp)
 20027a4:	1885883a 	add	r2,r3,r2
 20027a8:	e0fff604 	addi	r3,fp,-40
 20027ac:	1809883a 	mov	r4,r3
 20027b0:	100b883a 	mov	r5,r2
 20027b4:	20063280 	call	2006328 <RectCopy>
		if (i == 0){
 20027b8:	e0bff517 	ldw	r2,-44(fp)
 20027bc:	1000311e 	bne	r2,zero,2002884 <GUI_ROBINSUN_CompetitionSummary_Draw+0x164>
			vid_draw_box (rc.left, rc.top, rc.right, rc.bottom, BLACK_24, DO_FILL, pDisplay);
 20027c0:	e13ff617 	ldw	r4,-40(fp)
 20027c4:	e17ff817 	ldw	r5,-32(fp)
 20027c8:	e1bff717 	ldw	r6,-36(fp)
 20027cc:	e0fff917 	ldw	r3,-28(fp)
 20027d0:	d8000015 	stw	zero,0(sp)
 20027d4:	00800044 	movi	r2,1
 20027d8:	d8800115 	stw	r2,4(sp)
 20027dc:	e0bffa17 	ldw	r2,-24(fp)
 20027e0:	d8800215 	stw	r2,8(sp)
 20027e4:	180f883a 	mov	r7,r3
 20027e8:	2006d340 	call	2006d34 <vid_draw_box>
			vid_draw_box (rc.left, rc.top, rc.right, rc.bottom, WHITE_24, DO_NOT_FILL, pDisplay);
 20027ec:	e13ff617 	ldw	r4,-40(fp)
 20027f0:	e17ff817 	ldw	r5,-32(fp)
 20027f4:	e1bff717 	ldw	r6,-36(fp)
 20027f8:	e0fff917 	ldw	r3,-28(fp)
 20027fc:	00804034 	movhi	r2,256
 2002800:	10bfffc4 	addi	r2,r2,-1
 2002804:	d8800015 	stw	r2,0(sp)
 2002808:	d8000115 	stw	zero,4(sp)
 200280c:	e0bffa17 	ldw	r2,-24(fp)
 2002810:	d8800215 	stw	r2,8(sp)
 2002814:	180f883a 	mov	r7,r3
 2002818:	2006d340 	call	2006d34 <vid_draw_box>
			vid_print_string_alpha(rc.left+8, rc.top+(RectHeight(&rc)-26)/2, WHITE_24, BLACK_24, tahomabold_20, pDisplay, "Back");
 200281c:	e0bff617 	ldw	r2,-40(fp)
 2002820:	14400204 	addi	r17,r2,8
 2002824:	e43ff817 	ldw	r16,-32(fp)
 2002828:	e0bff604 	addi	r2,fp,-40
 200282c:	1009883a 	mov	r4,r2
 2002830:	20063c00 	call	20063c0 <RectHeight>
 2002834:	10bff984 	addi	r2,r2,-26
 2002838:	1006d7fa 	srli	r3,r2,31
 200283c:	1885883a 	add	r2,r3,r2
 2002840:	1005d07a 	srai	r2,r2,1
 2002844:	8087883a 	add	r3,r16,r2
 2002848:	008080f4 	movhi	r2,515
 200284c:	10af9504 	addi	r2,r2,-16812
 2002850:	d8800015 	stw	r2,0(sp)
 2002854:	e0bffa17 	ldw	r2,-24(fp)
 2002858:	d8800115 	stw	r2,4(sp)
 200285c:	00808074 	movhi	r2,513
 2002860:	10876a04 	addi	r2,r2,7592
 2002864:	d8800215 	stw	r2,8(sp)
 2002868:	8809883a 	mov	r4,r17
 200286c:	180b883a 	mov	r5,r3
 2002870:	01804034 	movhi	r6,256
 2002874:	31bfffc4 	addi	r6,r6,-1
 2002878:	000f883a 	mov	r7,zero
 200287c:	2008b400 	call	2008b40 <vid_print_string_alpha>
 2002880:	0001c906 	br	2002fa8 <GUI_ROBINSUN_CompetitionSummary_Draw+0x888>
		}
		else if (i == 1){
 2002884:	e0bff517 	ldw	r2,-44(fp)
 2002888:	10800058 	cmpnei	r2,r2,1
 200288c:	1000311e 	bne	r2,zero,2002954 <GUI_ROBINSUN_CompetitionSummary_Draw+0x234>
			vid_draw_box (rc.left, rc.top, rc.right, rc.bottom, BLACK_24, DO_FILL, pDisplay);
 2002890:	e13ff617 	ldw	r4,-40(fp)
 2002894:	e17ff817 	ldw	r5,-32(fp)
 2002898:	e1bff717 	ldw	r6,-36(fp)
 200289c:	e0fff917 	ldw	r3,-28(fp)
 20028a0:	d8000015 	stw	zero,0(sp)
 20028a4:	00800044 	movi	r2,1
 20028a8:	d8800115 	stw	r2,4(sp)
 20028ac:	e0bffa17 	ldw	r2,-24(fp)
 20028b0:	d8800215 	stw	r2,8(sp)
 20028b4:	180f883a 	mov	r7,r3
 20028b8:	2006d340 	call	2006d34 <vid_draw_box>
			vid_draw_box (rc.left, rc.top, rc.right, rc.bottom, WHITE_24, DO_NOT_FILL, pDisplay);
 20028bc:	e13ff617 	ldw	r4,-40(fp)
 20028c0:	e17ff817 	ldw	r5,-32(fp)
 20028c4:	e1bff717 	ldw	r6,-36(fp)
 20028c8:	e0fff917 	ldw	r3,-28(fp)
 20028cc:	00804034 	movhi	r2,256
 20028d0:	10bfffc4 	addi	r2,r2,-1
 20028d4:	d8800015 	stw	r2,0(sp)
 20028d8:	d8000115 	stw	zero,4(sp)
 20028dc:	e0bffa17 	ldw	r2,-24(fp)
 20028e0:	d8800215 	stw	r2,8(sp)
 20028e4:	180f883a 	mov	r7,r3
 20028e8:	2006d340 	call	2006d34 <vid_draw_box>
			vid_print_string_alpha(rc.left+8, rc.top+(RectHeight(&rc)-26)/2, WHITE_24, BLACK_24, tahomabold_20, pDisplay, "Team");
 20028ec:	e0bff617 	ldw	r2,-40(fp)
 20028f0:	14400204 	addi	r17,r2,8
 20028f4:	e43ff817 	ldw	r16,-32(fp)
 20028f8:	e0bff604 	addi	r2,fp,-40
 20028fc:	1009883a 	mov	r4,r2
 2002900:	20063c00 	call	20063c0 <RectHeight>
 2002904:	10bff984 	addi	r2,r2,-26
 2002908:	1006d7fa 	srli	r3,r2,31
 200290c:	1885883a 	add	r2,r3,r2
 2002910:	1005d07a 	srai	r2,r2,1
 2002914:	8087883a 	add	r3,r16,r2
 2002918:	008080f4 	movhi	r2,515
 200291c:	10af9504 	addi	r2,r2,-16812
 2002920:	d8800015 	stw	r2,0(sp)
 2002924:	e0bffa17 	ldw	r2,-24(fp)
 2002928:	d8800115 	stw	r2,4(sp)
 200292c:	00808074 	movhi	r2,513
 2002930:	10876104 	addi	r2,r2,7556
 2002934:	d8800215 	stw	r2,8(sp)
 2002938:	8809883a 	mov	r4,r17
 200293c:	180b883a 	mov	r5,r3
 2002940:	01804034 	movhi	r6,256
 2002944:	31bfffc4 	addi	r6,r6,-1
 2002948:	000f883a 	mov	r7,zero
 200294c:	2008b400 	call	2008b40 <vid_print_string_alpha>
 2002950:	00019506 	br	2002fa8 <GUI_ROBINSUN_CompetitionSummary_Draw+0x888>
		}
		else if (i == 2){
 2002954:	e0bff517 	ldw	r2,-44(fp)
 2002958:	10800098 	cmpnei	r2,r2,2
 200295c:	10001e1e 	bne	r2,zero,20029d8 <GUI_ROBINSUN_CompetitionSummary_Draw+0x2b8>
			if(color==1)
 2002960:	e0bffc17 	ldw	r2,-16(fp)
 2002964:	10800058 	cmpnei	r2,r2,1
 2002968:	10000d1e 	bne	r2,zero,20029a0 <GUI_ROBINSUN_CompetitionSummary_Draw+0x280>
				vid_draw_box (rc.left, rc.top, rc.right, rc.bottom, GREEN_24, DO_FILL, pDisplay);
 200296c:	e13ff617 	ldw	r4,-40(fp)
 2002970:	e17ff817 	ldw	r5,-32(fp)
 2002974:	e1bff717 	ldw	r6,-36(fp)
 2002978:	e0fff917 	ldw	r3,-28(fp)
 200297c:	00a00014 	movui	r2,32768
 2002980:	d8800015 	stw	r2,0(sp)
 2002984:	00800044 	movi	r2,1
 2002988:	d8800115 	stw	r2,4(sp)
 200298c:	e0bffa17 	ldw	r2,-24(fp)
 2002990:	d8800215 	stw	r2,8(sp)
 2002994:	180f883a 	mov	r7,r3
 2002998:	2006d340 	call	2006d34 <vid_draw_box>
 200299c:	00018206 	br	2002fa8 <GUI_ROBINSUN_CompetitionSummary_Draw+0x888>
			else
				vid_draw_box (rc.left, rc.top, rc.right, rc.bottom, PURPLE_24, DO_FILL, pDisplay);
 20029a0:	e13ff617 	ldw	r4,-40(fp)
 20029a4:	e17ff817 	ldw	r5,-32(fp)
 20029a8:	e1bff717 	ldw	r6,-36(fp)
 20029ac:	e0fff917 	ldw	r3,-28(fp)
 20029b0:	00802034 	movhi	r2,128
 20029b4:	10802004 	addi	r2,r2,128
 20029b8:	d8800015 	stw	r2,0(sp)
 20029bc:	00800044 	movi	r2,1
 20029c0:	d8800115 	stw	r2,4(sp)
 20029c4:	e0bffa17 	ldw	r2,-24(fp)
 20029c8:	d8800215 	stw	r2,8(sp)
 20029cc:	180f883a 	mov	r7,r3
 20029d0:	2006d340 	call	2006d34 <vid_draw_box>
 20029d4:	00017406 	br	2002fa8 <GUI_ROBINSUN_CompetitionSummary_Draw+0x888>
		}
		else if (i == 3){
 20029d8:	e0bff517 	ldw	r2,-44(fp)
 20029dc:	108000d8 	cmpnei	r2,r2,3
 20029e0:	1000311e 	bne	r2,zero,2002aa8 <GUI_ROBINSUN_CompetitionSummary_Draw+0x388>
			vid_draw_box (rc.left, rc.top, rc.right, rc.bottom, BLACK_24, DO_FILL, pDisplay);
 20029e4:	e13ff617 	ldw	r4,-40(fp)
 20029e8:	e17ff817 	ldw	r5,-32(fp)
 20029ec:	e1bff717 	ldw	r6,-36(fp)
 20029f0:	e0fff917 	ldw	r3,-28(fp)
 20029f4:	d8000015 	stw	zero,0(sp)
 20029f8:	00800044 	movi	r2,1
 20029fc:	d8800115 	stw	r2,4(sp)
 2002a00:	e0bffa17 	ldw	r2,-24(fp)
 2002a04:	d8800215 	stw	r2,8(sp)
 2002a08:	180f883a 	mov	r7,r3
 2002a0c:	2006d340 	call	2006d34 <vid_draw_box>
			vid_draw_box (rc.left, rc.top, rc.right, rc.bottom, WHITE_24, DO_NOT_FILL, pDisplay);
 2002a10:	e13ff617 	ldw	r4,-40(fp)
 2002a14:	e17ff817 	ldw	r5,-32(fp)
 2002a18:	e1bff717 	ldw	r6,-36(fp)
 2002a1c:	e0fff917 	ldw	r3,-28(fp)
 2002a20:	00804034 	movhi	r2,256
 2002a24:	10bfffc4 	addi	r2,r2,-1
 2002a28:	d8800015 	stw	r2,0(sp)
 2002a2c:	d8000115 	stw	zero,4(sp)
 2002a30:	e0bffa17 	ldw	r2,-24(fp)
 2002a34:	d8800215 	stw	r2,8(sp)
 2002a38:	180f883a 	mov	r7,r3
 2002a3c:	2006d340 	call	2006d34 <vid_draw_box>
			vid_print_string_alpha(rc.left+8, rc.top+(RectHeight(&rc)-26)/2, WHITE_24, BLACK_24, tahomabold_20, pDisplay, "Strategy");
 2002a40:	e0bff617 	ldw	r2,-40(fp)
 2002a44:	14400204 	addi	r17,r2,8
 2002a48:	e43ff817 	ldw	r16,-32(fp)
 2002a4c:	e0bff604 	addi	r2,fp,-40
 2002a50:	1009883a 	mov	r4,r2
 2002a54:	20063c00 	call	20063c0 <RectHeight>
 2002a58:	10bff984 	addi	r2,r2,-26
 2002a5c:	1006d7fa 	srli	r3,r2,31
 2002a60:	1885883a 	add	r2,r3,r2
 2002a64:	1005d07a 	srai	r2,r2,1
 2002a68:	8087883a 	add	r3,r16,r2
 2002a6c:	008080f4 	movhi	r2,515
 2002a70:	10af9504 	addi	r2,r2,-16812
 2002a74:	d8800015 	stw	r2,0(sp)
 2002a78:	e0bffa17 	ldw	r2,-24(fp)
 2002a7c:	d8800115 	stw	r2,4(sp)
 2002a80:	00808074 	movhi	r2,513
 2002a84:	10876304 	addi	r2,r2,7564
 2002a88:	d8800215 	stw	r2,8(sp)
 2002a8c:	8809883a 	mov	r4,r17
 2002a90:	180b883a 	mov	r5,r3
 2002a94:	01804034 	movhi	r6,256
 2002a98:	31bfffc4 	addi	r6,r6,-1
 2002a9c:	000f883a 	mov	r7,zero
 2002aa0:	2008b400 	call	2008b40 <vid_print_string_alpha>
 2002aa4:	00014006 	br	2002fa8 <GUI_ROBINSUN_CompetitionSummary_Draw+0x888>
		}
		else if (i == 4){
 2002aa8:	e0bff517 	ldw	r2,-44(fp)
 2002aac:	10800118 	cmpnei	r2,r2,4
 2002ab0:	1000881e 	bne	r2,zero,2002cd4 <GUI_ROBINSUN_CompetitionSummary_Draw+0x5b4>
			vid_draw_box (rc.left, rc.top, rc.right, rc.bottom, BLACK_24, DO_FILL, pDisplay);
 2002ab4:	e13ff617 	ldw	r4,-40(fp)
 2002ab8:	e17ff817 	ldw	r5,-32(fp)
 2002abc:	e1bff717 	ldw	r6,-36(fp)
 2002ac0:	e0fff917 	ldw	r3,-28(fp)
 2002ac4:	d8000015 	stw	zero,0(sp)
 2002ac8:	00800044 	movi	r2,1
 2002acc:	d8800115 	stw	r2,4(sp)
 2002ad0:	e0bffa17 	ldw	r2,-24(fp)
 2002ad4:	d8800215 	stw	r2,8(sp)
 2002ad8:	180f883a 	mov	r7,r3
 2002adc:	2006d340 	call	2006d34 <vid_draw_box>
			vid_draw_box (rc.left, rc.top, rc.right, rc.bottom, WHITE_24, DO_NOT_FILL, pDisplay);
 2002ae0:	e13ff617 	ldw	r4,-40(fp)
 2002ae4:	e17ff817 	ldw	r5,-32(fp)
 2002ae8:	e1bff717 	ldw	r6,-36(fp)
 2002aec:	e0fff917 	ldw	r3,-28(fp)
 2002af0:	00804034 	movhi	r2,256
 2002af4:	10bfffc4 	addi	r2,r2,-1
 2002af8:	d8800015 	stw	r2,0(sp)
 2002afc:	d8000115 	stw	zero,4(sp)
 2002b00:	e0bffa17 	ldw	r2,-24(fp)
 2002b04:	d8800215 	stw	r2,8(sp)
 2002b08:	180f883a 	mov	r7,r3
 2002b0c:	2006d340 	call	2006d34 <vid_draw_box>
			if(strategy==1)
 2002b10:	e0bffd17 	ldw	r2,-12(fp)
 2002b14:	10800058 	cmpnei	r2,r2,1
 2002b18:	10001a1e 	bne	r2,zero,2002b84 <GUI_ROBINSUN_CompetitionSummary_Draw+0x464>
				vid_print_string_alpha(rc.left+8, rc.top+(RectHeight(&rc)-26)/2, WHITE_24, BLACK_24, tahomabold_20, pDisplay, "1");
 2002b1c:	e0bff617 	ldw	r2,-40(fp)
 2002b20:	14400204 	addi	r17,r2,8
 2002b24:	e43ff817 	ldw	r16,-32(fp)
 2002b28:	e0bff604 	addi	r2,fp,-40
 2002b2c:	1009883a 	mov	r4,r2
 2002b30:	20063c00 	call	20063c0 <RectHeight>
 2002b34:	10bff984 	addi	r2,r2,-26
 2002b38:	1006d7fa 	srli	r3,r2,31
 2002b3c:	1885883a 	add	r2,r3,r2
 2002b40:	1005d07a 	srai	r2,r2,1
 2002b44:	8087883a 	add	r3,r16,r2
 2002b48:	008080f4 	movhi	r2,515
 2002b4c:	10af9504 	addi	r2,r2,-16812
 2002b50:	d8800015 	stw	r2,0(sp)
 2002b54:	e0bffa17 	ldw	r2,-24(fp)
 2002b58:	d8800115 	stw	r2,4(sp)
 2002b5c:	00808074 	movhi	r2,513
 2002b60:	10876604 	addi	r2,r2,7576
 2002b64:	d8800215 	stw	r2,8(sp)
 2002b68:	8809883a 	mov	r4,r17
 2002b6c:	180b883a 	mov	r5,r3
 2002b70:	01804034 	movhi	r6,256
 2002b74:	31bfffc4 	addi	r6,r6,-1
 2002b78:	000f883a 	mov	r7,zero
 2002b7c:	2008b400 	call	2008b40 <vid_print_string_alpha>
 2002b80:	00010906 	br	2002fa8 <GUI_ROBINSUN_CompetitionSummary_Draw+0x888>
			else if(strategy==2)
 2002b84:	e0bffd17 	ldw	r2,-12(fp)
 2002b88:	10800098 	cmpnei	r2,r2,2
 2002b8c:	10001a1e 	bne	r2,zero,2002bf8 <GUI_ROBINSUN_CompetitionSummary_Draw+0x4d8>
				vid_print_string_alpha(rc.left+8, rc.top+(RectHeight(&rc)-26)/2, WHITE_24, BLACK_24, tahomabold_20, pDisplay, "2");
 2002b90:	e0bff617 	ldw	r2,-40(fp)
 2002b94:	14400204 	addi	r17,r2,8
 2002b98:	e43ff817 	ldw	r16,-32(fp)
 2002b9c:	e0bff604 	addi	r2,fp,-40
 2002ba0:	1009883a 	mov	r4,r2
 2002ba4:	20063c00 	call	20063c0 <RectHeight>
 2002ba8:	10bff984 	addi	r2,r2,-26
 2002bac:	1006d7fa 	srli	r3,r2,31
 2002bb0:	1885883a 	add	r2,r3,r2
 2002bb4:	1005d07a 	srai	r2,r2,1
 2002bb8:	8087883a 	add	r3,r16,r2
 2002bbc:	008080f4 	movhi	r2,515
 2002bc0:	10af9504 	addi	r2,r2,-16812
 2002bc4:	d8800015 	stw	r2,0(sp)
 2002bc8:	e0bffa17 	ldw	r2,-24(fp)
 2002bcc:	d8800115 	stw	r2,4(sp)
 2002bd0:	00808074 	movhi	r2,513
 2002bd4:	10876704 	addi	r2,r2,7580
 2002bd8:	d8800215 	stw	r2,8(sp)
 2002bdc:	8809883a 	mov	r4,r17
 2002be0:	180b883a 	mov	r5,r3
 2002be4:	01804034 	movhi	r6,256
 2002be8:	31bfffc4 	addi	r6,r6,-1
 2002bec:	000f883a 	mov	r7,zero
 2002bf0:	2008b400 	call	2008b40 <vid_print_string_alpha>
 2002bf4:	0000ec06 	br	2002fa8 <GUI_ROBINSUN_CompetitionSummary_Draw+0x888>
			else if(strategy==3)
 2002bf8:	e0bffd17 	ldw	r2,-12(fp)
 2002bfc:	108000d8 	cmpnei	r2,r2,3
 2002c00:	10001a1e 	bne	r2,zero,2002c6c <GUI_ROBINSUN_CompetitionSummary_Draw+0x54c>
				vid_print_string_alpha(rc.left+8, rc.top+(RectHeight(&rc)-26)/2, WHITE_24, BLACK_24, tahomabold_20, pDisplay, "3");
 2002c04:	e0bff617 	ldw	r2,-40(fp)
 2002c08:	14400204 	addi	r17,r2,8
 2002c0c:	e43ff817 	ldw	r16,-32(fp)
 2002c10:	e0bff604 	addi	r2,fp,-40
 2002c14:	1009883a 	mov	r4,r2
 2002c18:	20063c00 	call	20063c0 <RectHeight>
 2002c1c:	10bff984 	addi	r2,r2,-26
 2002c20:	1006d7fa 	srli	r3,r2,31
 2002c24:	1885883a 	add	r2,r3,r2
 2002c28:	1005d07a 	srai	r2,r2,1
 2002c2c:	8087883a 	add	r3,r16,r2
 2002c30:	008080f4 	movhi	r2,515
 2002c34:	10af9504 	addi	r2,r2,-16812
 2002c38:	d8800015 	stw	r2,0(sp)
 2002c3c:	e0bffa17 	ldw	r2,-24(fp)
 2002c40:	d8800115 	stw	r2,4(sp)
 2002c44:	00808074 	movhi	r2,513
 2002c48:	10876804 	addi	r2,r2,7584
 2002c4c:	d8800215 	stw	r2,8(sp)
 2002c50:	8809883a 	mov	r4,r17
 2002c54:	180b883a 	mov	r5,r3
 2002c58:	01804034 	movhi	r6,256
 2002c5c:	31bfffc4 	addi	r6,r6,-1
 2002c60:	000f883a 	mov	r7,zero
 2002c64:	2008b400 	call	2008b40 <vid_print_string_alpha>
 2002c68:	0000cf06 	br	2002fa8 <GUI_ROBINSUN_CompetitionSummary_Draw+0x888>
			else
				vid_print_string_alpha(rc.left+8, rc.top+(RectHeight(&rc)-26)/2, WHITE_24, BLACK_24, tahomabold_20, pDisplay, "4");
 2002c6c:	e0bff617 	ldw	r2,-40(fp)
 2002c70:	14400204 	addi	r17,r2,8
 2002c74:	e43ff817 	ldw	r16,-32(fp)
 2002c78:	e0bff604 	addi	r2,fp,-40
 2002c7c:	1009883a 	mov	r4,r2
 2002c80:	20063c00 	call	20063c0 <RectHeight>
 2002c84:	10bff984 	addi	r2,r2,-26
 2002c88:	1006d7fa 	srli	r3,r2,31
 2002c8c:	1885883a 	add	r2,r3,r2
 2002c90:	1005d07a 	srai	r2,r2,1
 2002c94:	8087883a 	add	r3,r16,r2
 2002c98:	008080f4 	movhi	r2,515
 2002c9c:	10af9504 	addi	r2,r2,-16812
 2002ca0:	d8800015 	stw	r2,0(sp)
 2002ca4:	e0bffa17 	ldw	r2,-24(fp)
 2002ca8:	d8800115 	stw	r2,4(sp)
 2002cac:	00808074 	movhi	r2,513
 2002cb0:	10876904 	addi	r2,r2,7588
 2002cb4:	d8800215 	stw	r2,8(sp)
 2002cb8:	8809883a 	mov	r4,r17
 2002cbc:	180b883a 	mov	r5,r3
 2002cc0:	01804034 	movhi	r6,256
 2002cc4:	31bfffc4 	addi	r6,r6,-1
 2002cc8:	000f883a 	mov	r7,zero
 2002ccc:	2008b400 	call	2008b40 <vid_print_string_alpha>
 2002cd0:	0000b506 	br	2002fa8 <GUI_ROBINSUN_CompetitionSummary_Draw+0x888>

		}
		else if (i == 5){
 2002cd4:	e0bff517 	ldw	r2,-44(fp)
 2002cd8:	10800158 	cmpnei	r2,r2,5
 2002cdc:	1000311e 	bne	r2,zero,2002da4 <GUI_ROBINSUN_CompetitionSummary_Draw+0x684>
			vid_draw_box (rc.left, rc.top, rc.right, rc.bottom, BLACK_24, DO_FILL, pDisplay);
 2002ce0:	e13ff617 	ldw	r4,-40(fp)
 2002ce4:	e17ff817 	ldw	r5,-32(fp)
 2002ce8:	e1bff717 	ldw	r6,-36(fp)
 2002cec:	e0fff917 	ldw	r3,-28(fp)
 2002cf0:	d8000015 	stw	zero,0(sp)
 2002cf4:	00800044 	movi	r2,1
 2002cf8:	d8800115 	stw	r2,4(sp)
 2002cfc:	e0bffa17 	ldw	r2,-24(fp)
 2002d00:	d8800215 	stw	r2,8(sp)
 2002d04:	180f883a 	mov	r7,r3
 2002d08:	2006d340 	call	2006d34 <vid_draw_box>
			vid_draw_box (rc.left, rc.top, rc.right, rc.bottom, WHITE_24, DO_NOT_FILL, pDisplay);
 2002d0c:	e13ff617 	ldw	r4,-40(fp)
 2002d10:	e17ff817 	ldw	r5,-32(fp)
 2002d14:	e1bff717 	ldw	r6,-36(fp)
 2002d18:	e0fff917 	ldw	r3,-28(fp)
 2002d1c:	00804034 	movhi	r2,256
 2002d20:	10bfffc4 	addi	r2,r2,-1
 2002d24:	d8800015 	stw	r2,0(sp)
 2002d28:	d8000115 	stw	zero,4(sp)
 2002d2c:	e0bffa17 	ldw	r2,-24(fp)
 2002d30:	d8800215 	stw	r2,8(sp)
 2002d34:	180f883a 	mov	r7,r3
 2002d38:	2006d340 	call	2006d34 <vid_draw_box>
			vid_print_string_alpha(rc.left+8, rc.top+(RectHeight(&rc)-26)/2, WHITE_24, BLACK_24, tahomabold_20, pDisplay, "Nb of opponents");
 2002d3c:	e0bff617 	ldw	r2,-40(fp)
 2002d40:	14400204 	addi	r17,r2,8
 2002d44:	e43ff817 	ldw	r16,-32(fp)
 2002d48:	e0bff604 	addi	r2,fp,-40
 2002d4c:	1009883a 	mov	r4,r2
 2002d50:	20063c00 	call	20063c0 <RectHeight>
 2002d54:	10bff984 	addi	r2,r2,-26
 2002d58:	1006d7fa 	srli	r3,r2,31
 2002d5c:	1885883a 	add	r2,r3,r2
 2002d60:	1005d07a 	srai	r2,r2,1
 2002d64:	8087883a 	add	r3,r16,r2
 2002d68:	008080f4 	movhi	r2,515
 2002d6c:	10af9504 	addi	r2,r2,-16812
 2002d70:	d8800015 	stw	r2,0(sp)
 2002d74:	e0bffa17 	ldw	r2,-24(fp)
 2002d78:	d8800115 	stw	r2,4(sp)
 2002d7c:	00808074 	movhi	r2,513
 2002d80:	10876f04 	addi	r2,r2,7612
 2002d84:	d8800215 	stw	r2,8(sp)
 2002d88:	8809883a 	mov	r4,r17
 2002d8c:	180b883a 	mov	r5,r3
 2002d90:	01804034 	movhi	r6,256
 2002d94:	31bfffc4 	addi	r6,r6,-1
 2002d98:	000f883a 	mov	r7,zero
 2002d9c:	2008b400 	call	2008b40 <vid_print_string_alpha>
 2002da0:	00008106 	br	2002fa8 <GUI_ROBINSUN_CompetitionSummary_Draw+0x888>
		}
		else if (i == 6){
 2002da4:	e0bff517 	ldw	r2,-44(fp)
 2002da8:	10800198 	cmpnei	r2,r2,6
 2002dac:	10004e1e 	bne	r2,zero,2002ee8 <GUI_ROBINSUN_CompetitionSummary_Draw+0x7c8>
			vid_draw_box (rc.left, rc.top, rc.right, rc.bottom, BLACK_24, DO_FILL, pDisplay);
 2002db0:	e13ff617 	ldw	r4,-40(fp)
 2002db4:	e17ff817 	ldw	r5,-32(fp)
 2002db8:	e1bff717 	ldw	r6,-36(fp)
 2002dbc:	e0fff917 	ldw	r3,-28(fp)
 2002dc0:	d8000015 	stw	zero,0(sp)
 2002dc4:	00800044 	movi	r2,1
 2002dc8:	d8800115 	stw	r2,4(sp)
 2002dcc:	e0bffa17 	ldw	r2,-24(fp)
 2002dd0:	d8800215 	stw	r2,8(sp)
 2002dd4:	180f883a 	mov	r7,r3
 2002dd8:	2006d340 	call	2006d34 <vid_draw_box>
			vid_draw_box (rc.left, rc.top, rc.right, rc.bottom, WHITE_24, DO_NOT_FILL, pDisplay);
 2002ddc:	e13ff617 	ldw	r4,-40(fp)
 2002de0:	e17ff817 	ldw	r5,-32(fp)
 2002de4:	e1bff717 	ldw	r6,-36(fp)
 2002de8:	e0fff917 	ldw	r3,-28(fp)
 2002dec:	00804034 	movhi	r2,256
 2002df0:	10bfffc4 	addi	r2,r2,-1
 2002df4:	d8800015 	stw	r2,0(sp)
 2002df8:	d8000115 	stw	zero,4(sp)
 2002dfc:	e0bffa17 	ldw	r2,-24(fp)
 2002e00:	d8800215 	stw	r2,8(sp)
 2002e04:	180f883a 	mov	r7,r3
 2002e08:	2006d340 	call	2006d34 <vid_draw_box>
			if(opponent==1)
 2002e0c:	e0800217 	ldw	r2,8(fp)
 2002e10:	10800058 	cmpnei	r2,r2,1
 2002e14:	10001a1e 	bne	r2,zero,2002e80 <GUI_ROBINSUN_CompetitionSummary_Draw+0x760>
				vid_print_string_alpha(rc.left+8, rc.top+(RectHeight(&rc)-26)/2, WHITE_24, BLACK_24, tahomabold_20, pDisplay, "1");
 2002e18:	e0bff617 	ldw	r2,-40(fp)
 2002e1c:	14400204 	addi	r17,r2,8
 2002e20:	e43ff817 	ldw	r16,-32(fp)
 2002e24:	e0bff604 	addi	r2,fp,-40
 2002e28:	1009883a 	mov	r4,r2
 2002e2c:	20063c00 	call	20063c0 <RectHeight>
 2002e30:	10bff984 	addi	r2,r2,-26
 2002e34:	1006d7fa 	srli	r3,r2,31
 2002e38:	1885883a 	add	r2,r3,r2
 2002e3c:	1005d07a 	srai	r2,r2,1
 2002e40:	8087883a 	add	r3,r16,r2
 2002e44:	008080f4 	movhi	r2,515
 2002e48:	10af9504 	addi	r2,r2,-16812
 2002e4c:	d8800015 	stw	r2,0(sp)
 2002e50:	e0bffa17 	ldw	r2,-24(fp)
 2002e54:	d8800115 	stw	r2,4(sp)
 2002e58:	00808074 	movhi	r2,513
 2002e5c:	10876604 	addi	r2,r2,7576
 2002e60:	d8800215 	stw	r2,8(sp)
 2002e64:	8809883a 	mov	r4,r17
 2002e68:	180b883a 	mov	r5,r3
 2002e6c:	01804034 	movhi	r6,256
 2002e70:	31bfffc4 	addi	r6,r6,-1
 2002e74:	000f883a 	mov	r7,zero
 2002e78:	2008b400 	call	2008b40 <vid_print_string_alpha>
 2002e7c:	00004a06 	br	2002fa8 <GUI_ROBINSUN_CompetitionSummary_Draw+0x888>
			else
				vid_print_string_alpha(rc.left+8, rc.top+(RectHeight(&rc)-26)/2, WHITE_24, BLACK_24, tahomabold_20, pDisplay, "2");
 2002e80:	e0bff617 	ldw	r2,-40(fp)
 2002e84:	14400204 	addi	r17,r2,8
 2002e88:	e43ff817 	ldw	r16,-32(fp)
 2002e8c:	e0bff604 	addi	r2,fp,-40
 2002e90:	1009883a 	mov	r4,r2
 2002e94:	20063c00 	call	20063c0 <RectHeight>
 2002e98:	10bff984 	addi	r2,r2,-26
 2002e9c:	1006d7fa 	srli	r3,r2,31
 2002ea0:	1885883a 	add	r2,r3,r2
 2002ea4:	1005d07a 	srai	r2,r2,1
 2002ea8:	8087883a 	add	r3,r16,r2
 2002eac:	008080f4 	movhi	r2,515
 2002eb0:	10af9504 	addi	r2,r2,-16812
 2002eb4:	d8800015 	stw	r2,0(sp)
 2002eb8:	e0bffa17 	ldw	r2,-24(fp)
 2002ebc:	d8800115 	stw	r2,4(sp)
 2002ec0:	00808074 	movhi	r2,513
 2002ec4:	10876704 	addi	r2,r2,7580
 2002ec8:	d8800215 	stw	r2,8(sp)
 2002ecc:	8809883a 	mov	r4,r17
 2002ed0:	180b883a 	mov	r5,r3
 2002ed4:	01804034 	movhi	r6,256
 2002ed8:	31bfffc4 	addi	r6,r6,-1
 2002edc:	000f883a 	mov	r7,zero
 2002ee0:	2008b400 	call	2008b40 <vid_print_string_alpha>
 2002ee4:	00003006 	br	2002fa8 <GUI_ROBINSUN_CompetitionSummary_Draw+0x888>
		}
		else{
			vid_draw_box (rc.left, rc.top, rc.right, rc.bottom, BLACK_24, DO_FILL, pDisplay);
 2002ee8:	e13ff617 	ldw	r4,-40(fp)
 2002eec:	e17ff817 	ldw	r5,-32(fp)
 2002ef0:	e1bff717 	ldw	r6,-36(fp)
 2002ef4:	e0fff917 	ldw	r3,-28(fp)
 2002ef8:	d8000015 	stw	zero,0(sp)
 2002efc:	00800044 	movi	r2,1
 2002f00:	d8800115 	stw	r2,4(sp)
 2002f04:	e0bffa17 	ldw	r2,-24(fp)
 2002f08:	d8800215 	stw	r2,8(sp)
 2002f0c:	180f883a 	mov	r7,r3
 2002f10:	2006d340 	call	2006d34 <vid_draw_box>
			vid_draw_box (rc.left, rc.top, rc.right, rc.bottom, WHITE_24, DO_NOT_FILL, pDisplay);
 2002f14:	e13ff617 	ldw	r4,-40(fp)
 2002f18:	e17ff817 	ldw	r5,-32(fp)
 2002f1c:	e1bff717 	ldw	r6,-36(fp)
 2002f20:	e0fff917 	ldw	r3,-28(fp)
 2002f24:	00804034 	movhi	r2,256
 2002f28:	10bfffc4 	addi	r2,r2,-1
 2002f2c:	d8800015 	stw	r2,0(sp)
 2002f30:	d8000115 	stw	zero,4(sp)
 2002f34:	e0bffa17 	ldw	r2,-24(fp)
 2002f38:	d8800215 	stw	r2,8(sp)
 2002f3c:	180f883a 	mov	r7,r3
 2002f40:	2006d340 	call	2006d34 <vid_draw_box>
			vid_print_string_alpha(rc.left+8, rc.top+(RectHeight(&rc)-26)/2, WHITE_24, BLACK_24, tahomabold_20, pDisplay, "Send to ROBINSUN");
 2002f44:	e0bff617 	ldw	r2,-40(fp)
 2002f48:	14400204 	addi	r17,r2,8
 2002f4c:	e43ff817 	ldw	r16,-32(fp)
 2002f50:	e0bff604 	addi	r2,fp,-40
 2002f54:	1009883a 	mov	r4,r2
 2002f58:	20063c00 	call	20063c0 <RectHeight>
 2002f5c:	10bff984 	addi	r2,r2,-26
 2002f60:	1006d7fa 	srli	r3,r2,31
 2002f64:	1885883a 	add	r2,r3,r2
 2002f68:	1005d07a 	srai	r2,r2,1
 2002f6c:	8087883a 	add	r3,r16,r2
 2002f70:	008080f4 	movhi	r2,515
 2002f74:	10af9504 	addi	r2,r2,-16812
 2002f78:	d8800015 	stw	r2,0(sp)
 2002f7c:	e0bffa17 	ldw	r2,-24(fp)
 2002f80:	d8800115 	stw	r2,4(sp)
 2002f84:	00808074 	movhi	r2,513
 2002f88:	10877304 	addi	r2,r2,7628
 2002f8c:	d8800215 	stw	r2,8(sp)
 2002f90:	8809883a 	mov	r4,r17
 2002f94:	180b883a 	mov	r5,r3
 2002f98:	01804034 	movhi	r6,256
 2002f9c:	31bfffc4 	addi	r6,r6,-1
 2002fa0:	000f883a 	mov	r7,zero
 2002fa4:	2008b400 	call	2008b40 <vid_print_string_alpha>
	// draw border
	RectCopy(&rc, &pDeskInfo->rcDisp);
	vid_draw_box (rc.left, rc.top, rc.right, rc.bottom, WHITE_24, DO_NOT_FILL, pDisplay);

	// draw buttons
	for(i=0;i<8;i++){
 2002fa8:	e0bff517 	ldw	r2,-44(fp)
 2002fac:	10800044 	addi	r2,r2,1
 2002fb0:	e0bff515 	stw	r2,-44(fp)
 2002fb4:	e0bff517 	ldw	r2,-44(fp)
 2002fb8:	10800210 	cmplti	r2,r2,8
 2002fbc:	103df51e 	bne	r2,zero,2002794 <__reset+0xfdffaf94>
			vid_draw_box (rc.left, rc.top, rc.right, rc.bottom, BLACK_24, DO_FILL, pDisplay);
			vid_draw_box (rc.left, rc.top, rc.right, rc.bottom, WHITE_24, DO_NOT_FILL, pDisplay);
			vid_print_string_alpha(rc.left+8, rc.top+(RectHeight(&rc)-26)/2, WHITE_24, BLACK_24, tahomabold_20, pDisplay, "Send to ROBINSUN");
		}
	}
}
 2002fc0:	e6fffe04 	addi	sp,fp,-8
 2002fc4:	dfc00317 	ldw	ra,12(sp)
 2002fc8:	df000217 	ldw	fp,8(sp)
 2002fcc:	dc400117 	ldw	r17,4(sp)
 2002fd0:	dc000017 	ldw	r16,0(sp)
 2002fd4:	dec00404 	addi	sp,sp,16
 2002fd8:	f800283a 	ret

02002fdc <GUI_ROBINSUN>:

// ------------------------------------------------------------------------------ //
// ------------------------------- MAIN FUNCTION -------------------------------- //
// ------------------------------------------------------------------------------ //

void GUI_ROBINSUN(alt_video_display *pDisplay, TOUCH_HANDLE *pTouch){
 2002fdc:	defe6504 	addi	sp,sp,-1644
 2002fe0:	dfc19a15 	stw	ra,1640(sp)
 2002fe4:	df019915 	stw	fp,1636(sp)
 2002fe8:	dc419815 	stw	r17,1632(sp)
 2002fec:	dc019715 	stw	r16,1628(sp)
 2002ff0:	df019904 	addi	fp,sp,1636
 2002ff4:	e13ffc15 	stw	r4,-16(fp)
 2002ff8:	e17ffd15 	stw	r5,-12(fp)
	DESK_INFO DeskInfo;
	int X, Y;
	int desk=1;
 2002ffc:	00800044 	movi	r2,1
 2003000:	e0be6d15 	stw	r2,-1612(fp)
	int tests_or_compet=1, tests_or_compet_loop=1;
 2003004:	00800044 	movi	r2,1
 2003008:	e0be6e15 	stw	r2,-1608(fp)
 200300c:	00800044 	movi	r2,1
 2003010:	e0be6f15 	stw	r2,-1604(fp)
	int compet2, compet2_loop, compet3, compet3_loop;
	int test=1;
 2003014:	00800044 	movi	r2,1
 2003018:	e0be7415 	stw	r2,-1584(fp)
	int color=0, strategy=0, opponent=0, start=0;
 200301c:	e03e7515 	stw	zero,-1580(fp)
 2003020:	e03e7615 	stw	zero,-1576(fp)
 2003024:	e03e7715 	stw	zero,-1572(fp)
 2003028:	e03e7815 	stw	zero,-1568(fp)

	int check_button_menu=0;
 200302c:	e03e7915 	stw	zero,-1564(fp)
	int check_button_tests=0, check_button_compet=0, check_button_compet2=0, check_button_compet3=0;
 2003030:	e03e7a15 	stw	zero,-1560(fp)
 2003034:	e03e7b15 	stw	zero,-1556(fp)
 2003038:	e03e7c15 	stw	zero,-1552(fp)
 200303c:	e03e7d15 	stw	zero,-1548(fp)
	int check_button_move=0, check_button_blocks=0, check_button_fish=0, check_button_cabins=0, check_button_parasol=0;
 2003040:	e03e7e15 	stw	zero,-1544(fp)
 2003044:	e03e7f15 	stw	zero,-1540(fp)
 2003048:	e03e8015 	stw	zero,-1536(fp)
 200304c:	e03e8115 	stw	zero,-1532(fp)
 2003050:	e03e8215 	stw	zero,-1528(fp)

	int * signal = (int*) SIGNAL_OUT_BASE;
 2003054:	00810074 	movhi	r2,1025
 2003058:	10a11004 	addi	r2,r2,-31680
 200305c:	e0be8315 	stw	r2,-1524(fp)
	*signal = 0;
 2003060:	e0be8317 	ldw	r2,-1524(fp)
 2003064:	10000015 	stw	zero,0(r2)
	RECT rcTouchCabinsGo, rcTouchCabinsStop;
	RECT rcTouchParasolTrigger, rcTouchParasolStop;
	RECT rcTouchCompet;

    // clean screen
    vid_clean_screen(pDisplay, BLACK_24);
 2003068:	e13ffc17 	ldw	r4,-16(fp)
 200306c:	000b883a 	mov	r5,zero
 2003070:	20064ec0 	call	20064ec <vid_clean_screen>

    // Welcome message for Robinsun Team's Member
    GUI_ROBINSUN_ShowWelcome(pDisplay);
 2003074:	e13ffc17 	ldw	r4,-16(fp)
 2003078:	2000a680 	call	2000a68 <GUI_ROBINSUN_ShowWelcome>
    usleep(2*1000*1000);
 200307c:	010007f4 	movhi	r4,31
 2003080:	21212004 	addi	r4,r4,-31616
 2003084:	200ec680 	call	200ec68 <usleep>
    vid_clean_screen(pDisplay, BLACK_24);
 2003088:	e13ffc17 	ldw	r4,-16(fp)
 200308c:	000b883a 	mov	r5,zero
 2003090:	20064ec0 	call	20064ec <vid_clean_screen>

    while(1){
    	vid_clean_screen(pDisplay, BLACK_24);
 2003094:	e13ffc17 	ldw	r4,-16(fp)
 2003098:	000b883a 	mov	r5,zero
 200309c:	20064ec0 	call	20064ec <vid_clean_screen>
    	GUI_ROBINSUN_Init(pDisplay, &DeskInfo, DeskInfo.buttons, BTN_NUM);
 20030a0:	e0fe8404 	addi	r3,fp,-1520
 20030a4:	e0be8404 	addi	r2,fp,-1520
 20030a8:	10800404 	addi	r2,r2,16
 20030ac:	e13ffc17 	ldw	r4,-16(fp)
 20030b0:	180b883a 	mov	r5,r3
 20030b4:	100d883a 	mov	r6,r2
 20030b8:	01c00084 	movi	r7,2
 20030bc:	2000b840 	call	2000b84 <GUI_ROBINSUN_Init>
    	GUI_ROBINSUN_Draw(pDisplay, &DeskInfo, DeskInfo.buttons, BTN_NUM, "Tests", "Competition", "", "", "", "");
 20030c0:	e17e8404 	addi	r5,fp,-1520
 20030c4:	e0be8404 	addi	r2,fp,-1520
 20030c8:	10c00404 	addi	r3,r2,16
 20030cc:	00808074 	movhi	r2,513
 20030d0:	10877804 	addi	r2,r2,7648
 20030d4:	d8800015 	stw	r2,0(sp)
 20030d8:	00808074 	movhi	r2,513
 20030dc:	10877a04 	addi	r2,r2,7656
 20030e0:	d8800115 	stw	r2,4(sp)
 20030e4:	00808074 	movhi	r2,513
 20030e8:	10877d04 	addi	r2,r2,7668
 20030ec:	d8800215 	stw	r2,8(sp)
 20030f0:	00808074 	movhi	r2,513
 20030f4:	10877d04 	addi	r2,r2,7668
 20030f8:	d8800315 	stw	r2,12(sp)
 20030fc:	00808074 	movhi	r2,513
 2003100:	10877d04 	addi	r2,r2,7668
 2003104:	d8800415 	stw	r2,16(sp)
 2003108:	00808074 	movhi	r2,513
 200310c:	10877d04 	addi	r2,r2,7668
 2003110:	d8800515 	stw	r2,20(sp)
 2003114:	e13ffc17 	ldw	r4,-16(fp)
 2003118:	180d883a 	mov	r6,r3
 200311c:	01c00084 	movi	r7,2
 2003120:	2000cd40 	call	2000cd4 <GUI_ROBINSUN_Draw>

    	RectCopy(&rcTouchTest, &DeskInfo.buttons[BTN_TEST].rc);
 2003124:	e0ff9404 	addi	r3,fp,-432
 2003128:	e0be8404 	addi	r2,fp,-1520
 200312c:	10800404 	addi	r2,r2,16
 2003130:	1809883a 	mov	r4,r3
 2003134:	100b883a 	mov	r5,r2
 2003138:	20063280 	call	2006328 <RectCopy>
    	RectCopy(&rcTouchCompet, &DeskInfo.buttons[BTN_COMPET].rc);
 200313c:	e0fff804 	addi	r3,fp,-32
 2003140:	e0be8404 	addi	r2,fp,-1520
 2003144:	10800904 	addi	r2,r2,36
 2003148:	1809883a 	mov	r4,r3
 200314c:	100b883a 	mov	r5,r2
 2003150:	20063280 	call	2006328 <RectCopy>

    	desk=1;
 2003154:	00800044 	movi	r2,1
 2003158:	e0be6d15 	stw	r2,-1612(fp)
    	Touch_EmptyFifo(pTouch);
 200315c:	e13ffd17 	ldw	r4,-12(fp)
 2003160:	20097c80 	call	20097c8 <Touch_EmptyFifo>

    	while(desk){
 2003164:	00092706 	br	2005604 <GUI_ROBINSUN+0x2628>
    		// touch
    		if (Touch_GetXY(pTouch, &X, &Y)){
 2003168:	e0ff8c04 	addi	r3,fp,-464
 200316c:	e0bf8d04 	addi	r2,fp,-460
 2003170:	e13ffd17 	ldw	r4,-12(fp)
 2003174:	180b883a 	mov	r5,r3
 2003178:	100d883a 	mov	r6,r2
 200317c:	20098000 	call	2009800 <Touch_GetXY>
 2003180:	10092026 	beq	r2,zero,2005604 <GUI_ROBINSUN+0x2628>
    			//printf("x=%d, y=%d\r\n", X,Y);
    			PtSet(&Pt, X, Y);
 2003184:	e0ff8c17 	ldw	r3,-464(fp)
 2003188:	e0bf8d17 	ldw	r2,-460(fp)
 200318c:	e13f8e04 	addi	r4,fp,-456
 2003190:	180b883a 	mov	r5,r3
 2003194:	100d883a 	mov	r6,r2
 2003198:	200617c0 	call	200617c <PtSet>

    			check_button_menu = GUI_ROBINSUN_CheckButton(&DeskInfo, &Pt,DeskInfo.buttons,BTN_NUM,BTN_NONE);
 200319c:	e13e8404 	addi	r4,fp,-1520
 20031a0:	e17f8e04 	addi	r5,fp,-456
 20031a4:	e0be8404 	addi	r2,fp,-1520
 20031a8:	10c00404 	addi	r3,r2,16
 20031ac:	008000c4 	movi	r2,3
 20031b0:	d8800015 	stw	r2,0(sp)
 20031b4:	180d883a 	mov	r6,r3
 20031b8:	01c00084 	movi	r7,2
 20031bc:	20009d40 	call	20009d4 <GUI_ROBINSUN_CheckButton>
 20031c0:	e0be7915 	stw	r2,-1564(fp)
    			if (check_button_menu == BTN_TEST){
 20031c4:	e0be7917 	ldw	r2,-1564(fp)
 20031c8:	10061b1e 	bne	r2,zero,2004a38 <GUI_ROBINSUN+0x1a5c>

    				tests_or_compet=1;
 20031cc:	00800044 	movi	r2,1
 20031d0:	e0be6e15 	stw	r2,-1608(fp)
    				while(tests_or_compet){
 20031d4:	00061506 	br	2004a2c <GUI_ROBINSUN+0x1a50>
    					vid_clean_screen(pDisplay, BLACK_24);
 20031d8:	e13ffc17 	ldw	r4,-16(fp)
 20031dc:	000b883a 	mov	r5,zero
 20031e0:	20064ec0 	call	20064ec <vid_clean_screen>
    					usleep(1000*1000);
 20031e4:	010003f4 	movhi	r4,15
 20031e8:	21109004 	addi	r4,r4,16960
 20031ec:	200ec680 	call	200ec68 <usleep>
    					Touch_EmptyFifo(pTouch);
 20031f0:	e13ffd17 	ldw	r4,-12(fp)
 20031f4:	20097c80 	call	20097c8 <Touch_EmptyFifo>

    					GUI_ROBINSUN_Init(pDisplay, &DeskInfo, DeskInfo.buttons_tests, BTN_NUM_TESTS);
 20031f8:	e0fe8404 	addi	r3,fp,-1520
 20031fc:	e0be8404 	addi	r2,fp,-1520
 2003200:	10800e04 	addi	r2,r2,56
 2003204:	e13ffc17 	ldw	r4,-16(fp)
 2003208:	180b883a 	mov	r5,r3
 200320c:	100d883a 	mov	r6,r2
 2003210:	01c00184 	movi	r7,6
 2003214:	2000b840 	call	2000b84 <GUI_ROBINSUN_Init>
    					GUI_ROBINSUN_Draw(pDisplay, &DeskInfo, DeskInfo.buttons_tests, BTN_NUM_TESTS, "Move", "Blocks", "Fish", "Cabins", "Parasol", "Back");
 2003218:	e17e8404 	addi	r5,fp,-1520
 200321c:	e0be8404 	addi	r2,fp,-1520
 2003220:	10c00e04 	addi	r3,r2,56
 2003224:	00808074 	movhi	r2,513
 2003228:	10877e04 	addi	r2,r2,7672
 200322c:	d8800015 	stw	r2,0(sp)
 2003230:	00808074 	movhi	r2,513
 2003234:	10878004 	addi	r2,r2,7680
 2003238:	d8800115 	stw	r2,4(sp)
 200323c:	00808074 	movhi	r2,513
 2003240:	10878204 	addi	r2,r2,7688
 2003244:	d8800215 	stw	r2,8(sp)
 2003248:	00808074 	movhi	r2,513
 200324c:	10878404 	addi	r2,r2,7696
 2003250:	d8800315 	stw	r2,12(sp)
 2003254:	00808074 	movhi	r2,513
 2003258:	10878604 	addi	r2,r2,7704
 200325c:	d8800415 	stw	r2,16(sp)
 2003260:	00808074 	movhi	r2,513
 2003264:	10876a04 	addi	r2,r2,7592
 2003268:	d8800515 	stw	r2,20(sp)
 200326c:	e13ffc17 	ldw	r4,-16(fp)
 2003270:	180d883a 	mov	r6,r3
 2003274:	01c00184 	movi	r7,6
 2003278:	2000cd40 	call	2000cd4 <GUI_ROBINSUN_Draw>

    					tests_or_compet_loop=1;
 200327c:	00800044 	movi	r2,1
 2003280:	e0be6f15 	stw	r2,-1604(fp)
    					while(tests_or_compet_loop){
 2003284:	0005e706 	br	2004a24 <GUI_ROBINSUN+0x1a48>

    						RectCopy(&rcTouchMove, &DeskInfo.buttons_tests[BTN_MOVE].rc);
 2003288:	e0ff9804 	addi	r3,fp,-416
 200328c:	e0be8404 	addi	r2,fp,-1520
 2003290:	10800e04 	addi	r2,r2,56
 2003294:	1809883a 	mov	r4,r3
 2003298:	100b883a 	mov	r5,r2
 200329c:	20063280 	call	2006328 <RectCopy>
    						RectCopy(&rcTouchBlocks, &DeskInfo.buttons_tests[BTN_BLOCKS].rc);
 20032a0:	e0ff9c04 	addi	r3,fp,-400
 20032a4:	e0be8404 	addi	r2,fp,-1520
 20032a8:	10801304 	addi	r2,r2,76
 20032ac:	1809883a 	mov	r4,r3
 20032b0:	100b883a 	mov	r5,r2
 20032b4:	20063280 	call	2006328 <RectCopy>
    						RectCopy(&rcTouchFish, &DeskInfo.buttons_tests[BTN_FISH].rc);
 20032b8:	e0ffa004 	addi	r3,fp,-384
 20032bc:	e0be8404 	addi	r2,fp,-1520
 20032c0:	10801804 	addi	r2,r2,96
 20032c4:	1809883a 	mov	r4,r3
 20032c8:	100b883a 	mov	r5,r2
 20032cc:	20063280 	call	2006328 <RectCopy>
    						RectCopy(&rcTouchCabins, &DeskInfo.buttons_tests[BTN_CABINS].rc);
 20032d0:	e0ffa404 	addi	r3,fp,-368
 20032d4:	e0be8404 	addi	r2,fp,-1520
 20032d8:	10801d04 	addi	r2,r2,116
 20032dc:	1809883a 	mov	r4,r3
 20032e0:	100b883a 	mov	r5,r2
 20032e4:	20063280 	call	2006328 <RectCopy>
    						RectCopy(&rcTouchParasol, &DeskInfo.buttons_tests[BTN_PARASOL].rc);
 20032e8:	e0ffa804 	addi	r3,fp,-352
 20032ec:	e0be8404 	addi	r2,fp,-1520
 20032f0:	10802204 	addi	r2,r2,136
 20032f4:	1809883a 	mov	r4,r3
 20032f8:	100b883a 	mov	r5,r2
 20032fc:	20063280 	call	2006328 <RectCopy>
    						RectCopy(&rcTouchTestBack, &DeskInfo.buttons_tests[BTN_BACK_TESTS].rc);
 2003300:	e0ffac04 	addi	r3,fp,-336
 2003304:	e0be8404 	addi	r2,fp,-1520
 2003308:	10802704 	addi	r2,r2,156
 200330c:	1809883a 	mov	r4,r3
 2003310:	100b883a 	mov	r5,r2
 2003314:	20063280 	call	2006328 <RectCopy>

    						//touch
    						if (Touch_GetXY(pTouch, &X, &Y)){
 2003318:	e0ff8c04 	addi	r3,fp,-464
 200331c:	e0bf8d04 	addi	r2,fp,-460
 2003320:	e13ffd17 	ldw	r4,-12(fp)
 2003324:	180b883a 	mov	r5,r3
 2003328:	100d883a 	mov	r6,r2
 200332c:	20098000 	call	2009800 <Touch_GetXY>
 2003330:	1005bc26 	beq	r2,zero,2004a24 <GUI_ROBINSUN+0x1a48>
    							PtSet(&Pt, X, Y);
 2003334:	e0ff8c17 	ldw	r3,-464(fp)
 2003338:	e0bf8d17 	ldw	r2,-460(fp)
 200333c:	e13f8e04 	addi	r4,fp,-456
 2003340:	180b883a 	mov	r5,r3
 2003344:	100d883a 	mov	r6,r2
 2003348:	200617c0 	call	200617c <PtSet>
    							check_button_tests = GUI_ROBINSUN_CheckButton(&DeskInfo, &Pt,DeskInfo.buttons_tests,BTN_NUM_TESTS,BTN_NONE_TESTS);
 200334c:	e13e8404 	addi	r4,fp,-1520
 2003350:	e17f8e04 	addi	r5,fp,-456
 2003354:	e0be8404 	addi	r2,fp,-1520
 2003358:	10c00e04 	addi	r3,r2,56
 200335c:	008001c4 	movi	r2,7
 2003360:	d8800015 	stw	r2,0(sp)
 2003364:	180d883a 	mov	r6,r3
 2003368:	01c00184 	movi	r7,6
 200336c:	20009d40 	call	20009d4 <GUI_ROBINSUN_CheckButton>
 2003370:	e0be7a15 	stw	r2,-1560(fp)

    							if(check_button_tests == BTN_MOVE){
 2003374:	e0be7a17 	ldw	r2,-1560(fp)
 2003378:	1001ad1e 	bne	r2,zero,2003a30 <GUI_ROBINSUN+0xa54>
    								test=1;
 200337c:	00800044 	movi	r2,1
 2003380:	e0be7415 	stw	r2,-1584(fp)

    								vid_clean_screen(pDisplay, BLACK_24);
 2003384:	e13ffc17 	ldw	r4,-16(fp)
 2003388:	000b883a 	mov	r5,zero
 200338c:	20064ec0 	call	20064ec <vid_clean_screen>
    								usleep(1000*1000);
 2003390:	010003f4 	movhi	r4,15
 2003394:	21109004 	addi	r4,r4,16960
 2003398:	200ec680 	call	200ec68 <usleep>

    								GUI_ROBINSUN_Init(pDisplay, &DeskInfo, DeskInfo.buttons_move, BTN_NUM_MOVE);
 200339c:	e0fe8404 	addi	r3,fp,-1520
 20033a0:	e0be8404 	addi	r2,fp,-1520
 20033a4:	10802c04 	addi	r2,r2,176
 20033a8:	e13ffc17 	ldw	r4,-16(fp)
 20033ac:	180b883a 	mov	r5,r3
 20033b0:	100d883a 	mov	r6,r2
 20033b4:	01c00184 	movi	r7,6
 20033b8:	2000b840 	call	2000b84 <GUI_ROBINSUN_Init>
    								GUI_ROBINSUN_Draw(pDisplay, &DeskInfo, DeskInfo.buttons_move, BTN_NUM_MOVE, "Go forward", "Go backward", "Turn to the left", "Turn to the right", "STOP", "Back");
 20033bc:	e17e8404 	addi	r5,fp,-1520
 20033c0:	e0be8404 	addi	r2,fp,-1520
 20033c4:	10c02c04 	addi	r3,r2,176
 20033c8:	00808074 	movhi	r2,513
 20033cc:	10878804 	addi	r2,r2,7712
 20033d0:	d8800015 	stw	r2,0(sp)
 20033d4:	00808074 	movhi	r2,513
 20033d8:	10878b04 	addi	r2,r2,7724
 20033dc:	d8800115 	stw	r2,4(sp)
 20033e0:	00808074 	movhi	r2,513
 20033e4:	10878e04 	addi	r2,r2,7736
 20033e8:	d8800215 	stw	r2,8(sp)
 20033ec:	00808074 	movhi	r2,513
 20033f0:	10879304 	addi	r2,r2,7756
 20033f4:	d8800315 	stw	r2,12(sp)
 20033f8:	00808074 	movhi	r2,513
 20033fc:	10879804 	addi	r2,r2,7776
 2003400:	d8800415 	stw	r2,16(sp)
 2003404:	00808074 	movhi	r2,513
 2003408:	10876a04 	addi	r2,r2,7592
 200340c:	d8800515 	stw	r2,20(sp)
 2003410:	e13ffc17 	ldw	r4,-16(fp)
 2003414:	180d883a 	mov	r6,r3
 2003418:	01c00184 	movi	r7,6
 200341c:	2000cd40 	call	2000cd4 <GUI_ROBINSUN_Draw>

    								RectCopy(&rcTouchMoveForward, &DeskInfo.buttons_move[BTN_MOVE_FORWARD].rc);
 2003420:	e0ffb004 	addi	r3,fp,-320
 2003424:	e0be8404 	addi	r2,fp,-1520
 2003428:	10802c04 	addi	r2,r2,176
 200342c:	1809883a 	mov	r4,r3
 2003430:	100b883a 	mov	r5,r2
 2003434:	20063280 	call	2006328 <RectCopy>
    								RectCopy(&rcTouchMoveBackward, &DeskInfo.buttons_move[BTN_MOVE_BACKWARD].rc);
 2003438:	e0ffb404 	addi	r3,fp,-304
 200343c:	e0be8404 	addi	r2,fp,-1520
 2003440:	10803104 	addi	r2,r2,196
 2003444:	1809883a 	mov	r4,r3
 2003448:	100b883a 	mov	r5,r2
 200344c:	20063280 	call	2006328 <RectCopy>
    								RectCopy(&rcTouchMoveLeft, &DeskInfo.buttons_move[BTN_MOVE_LEFT].rc);
 2003450:	e0ffb804 	addi	r3,fp,-288
 2003454:	e0be8404 	addi	r2,fp,-1520
 2003458:	10803604 	addi	r2,r2,216
 200345c:	1809883a 	mov	r4,r3
 2003460:	100b883a 	mov	r5,r2
 2003464:	20063280 	call	2006328 <RectCopy>
    								RectCopy(&rcTouchMoveRight, &DeskInfo.buttons_move[BTN_MOVE_RIGHT].rc);
 2003468:	e0ffbc04 	addi	r3,fp,-272
 200346c:	e0be8404 	addi	r2,fp,-1520
 2003470:	10803b04 	addi	r2,r2,236
 2003474:	1809883a 	mov	r4,r3
 2003478:	100b883a 	mov	r5,r2
 200347c:	20063280 	call	2006328 <RectCopy>
    								RectCopy(&rcTouchMoveStop, &DeskInfo.buttons_move[BTN_MOVE_STOP].rc);
 2003480:	e0ffc004 	addi	r3,fp,-256
 2003484:	e0be8404 	addi	r2,fp,-1520
 2003488:	10804004 	addi	r2,r2,256
 200348c:	1809883a 	mov	r4,r3
 2003490:	100b883a 	mov	r5,r2
 2003494:	20063280 	call	2006328 <RectCopy>
    								RectCopy(&rcTouchMoveBack, &DeskInfo.buttons_move[BTN_MOVE_BACK].rc);
 2003498:	e0ffc404 	addi	r3,fp,-240
 200349c:	e0be8404 	addi	r2,fp,-1520
 20034a0:	10804504 	addi	r2,r2,276
 20034a4:	1809883a 	mov	r4,r3
 20034a8:	100b883a 	mov	r5,r2
 20034ac:	20063280 	call	2006328 <RectCopy>

    								Touch_EmptyFifo(pTouch);
 20034b0:	e13ffd17 	ldw	r4,-12(fp)
 20034b4:	20097c80 	call	20097c8 <Touch_EmptyFifo>

    								while(test){
 20034b8:	00015a06 	br	2003a24 <GUI_ROBINSUN+0xa48>
    									// touch
    									if (Touch_GetXY(pTouch, &X, &Y)){
 20034bc:	e0ff8c04 	addi	r3,fp,-464
 20034c0:	e0bf8d04 	addi	r2,fp,-460
 20034c4:	e13ffd17 	ldw	r4,-12(fp)
 20034c8:	180b883a 	mov	r5,r3
 20034cc:	100d883a 	mov	r6,r2
 20034d0:	20098000 	call	2009800 <Touch_GetXY>
 20034d4:	10015326 	beq	r2,zero,2003a24 <GUI_ROBINSUN+0xa48>
    										PtSet(&Pt, X, Y);
 20034d8:	e0ff8c17 	ldw	r3,-464(fp)
 20034dc:	e0bf8d17 	ldw	r2,-460(fp)
 20034e0:	e13f8e04 	addi	r4,fp,-456
 20034e4:	180b883a 	mov	r5,r3
 20034e8:	100d883a 	mov	r6,r2
 20034ec:	200617c0 	call	200617c <PtSet>
    										check_button_move = GUI_ROBINSUN_CheckButton(&DeskInfo, &Pt,DeskInfo.buttons_move,BTN_NUM_MOVE,BTN_NONE_MOVE);
 20034f0:	e13e8404 	addi	r4,fp,-1520
 20034f4:	e17f8e04 	addi	r5,fp,-456
 20034f8:	e0be8404 	addi	r2,fp,-1520
 20034fc:	10c02c04 	addi	r3,r2,176
 2003500:	008001c4 	movi	r2,7
 2003504:	d8800015 	stw	r2,0(sp)
 2003508:	180d883a 	mov	r6,r3
 200350c:	01c00184 	movi	r7,6
 2003510:	20009d40 	call	20009d4 <GUI_ROBINSUN_CheckButton>
 2003514:	e0be7e15 	stw	r2,-1544(fp)
    										//printf("signal vaut: %d\n",*signal);
    										if (check_button_move == BTN_MOVE_FORWARD){
 2003518:	e0be7e17 	ldw	r2,-1544(fp)
 200351c:	10003d1e 	bne	r2,zero,2003614 <GUI_ROBINSUN+0x638>

    											vid_draw_box (rcTouchMoveForward.left, rcTouchMoveForward.top, rcTouchMoveForward.right, rcTouchMoveForward.bottom, BLACK_24, DO_FILL, pDisplay);
 2003520:	e13fb017 	ldw	r4,-320(fp)
 2003524:	e17fb217 	ldw	r5,-312(fp)
 2003528:	e1bfb117 	ldw	r6,-316(fp)
 200352c:	e0ffb317 	ldw	r3,-308(fp)
 2003530:	d8000015 	stw	zero,0(sp)
 2003534:	00800044 	movi	r2,1
 2003538:	d8800115 	stw	r2,4(sp)
 200353c:	e0bffc17 	ldw	r2,-16(fp)
 2003540:	d8800215 	stw	r2,8(sp)
 2003544:	180f883a 	mov	r7,r3
 2003548:	2006d340 	call	2006d34 <vid_draw_box>
    											vid_draw_box (rcTouchMoveForward.left, rcTouchMoveForward.top, rcTouchMoveForward.right, rcTouchMoveForward.bottom, WHITE_24, DO_NOT_FILL, pDisplay);
 200354c:	e13fb017 	ldw	r4,-320(fp)
 2003550:	e17fb217 	ldw	r5,-312(fp)
 2003554:	e1bfb117 	ldw	r6,-316(fp)
 2003558:	e0ffb317 	ldw	r3,-308(fp)
 200355c:	00804034 	movhi	r2,256
 2003560:	10bfffc4 	addi	r2,r2,-1
 2003564:	d8800015 	stw	r2,0(sp)
 2003568:	d8000115 	stw	zero,4(sp)
 200356c:	e0bffc17 	ldw	r2,-16(fp)
 2003570:	d8800215 	stw	r2,8(sp)
 2003574:	180f883a 	mov	r7,r3
 2003578:	2006d340 	call	2006d34 <vid_draw_box>
    											vid_print_string_alpha(rcTouchMoveForward.left+8, rcTouchMoveForward.top+(RectHeight(&rcTouchMoveForward)-22)/2, WHITE_24, BLACK_24, tahomabold_20, pDisplay, "Go forward");
 200357c:	e0bfb017 	ldw	r2,-320(fp)
 2003580:	14400204 	addi	r17,r2,8
 2003584:	e43fb217 	ldw	r16,-312(fp)
 2003588:	e0bfb004 	addi	r2,fp,-320
 200358c:	1009883a 	mov	r4,r2
 2003590:	20063c00 	call	20063c0 <RectHeight>
 2003594:	10bffa84 	addi	r2,r2,-22
 2003598:	1006d7fa 	srli	r3,r2,31
 200359c:	1885883a 	add	r2,r3,r2
 20035a0:	1005d07a 	srai	r2,r2,1
 20035a4:	8087883a 	add	r3,r16,r2
 20035a8:	008080f4 	movhi	r2,515
 20035ac:	10af9504 	addi	r2,r2,-16812
 20035b0:	d8800015 	stw	r2,0(sp)
 20035b4:	e0bffc17 	ldw	r2,-16(fp)
 20035b8:	d8800115 	stw	r2,4(sp)
 20035bc:	00808074 	movhi	r2,513
 20035c0:	10878804 	addi	r2,r2,7712
 20035c4:	d8800215 	stw	r2,8(sp)
 20035c8:	8809883a 	mov	r4,r17
 20035cc:	180b883a 	mov	r5,r3
 20035d0:	01804034 	movhi	r6,256
 20035d4:	31bfffc4 	addi	r6,r6,-1
 20035d8:	000f883a 	mov	r7,zero
 20035dc:	2008b400 	call	2008b40 <vid_print_string_alpha>

    											if(*signal == 1){
 20035e0:	e0be8317 	ldw	r2,-1524(fp)
 20035e4:	10800017 	ldw	r2,0(r2)
 20035e8:	10800058 	cmpnei	r2,r2,1
 20035ec:	1000031e 	bne	r2,zero,20035fc <GUI_ROBINSUN+0x620>
    												*signal = 0;
 20035f0:	e0be8317 	ldw	r2,-1524(fp)
 20035f4:	10000015 	stw	zero,0(r2)
 20035f8:	00000306 	br	2003608 <GUI_ROBINSUN+0x62c>
    											}
    											else{
    												*signal = 1;
 20035fc:	e0be8317 	ldw	r2,-1524(fp)
 2003600:	00c00044 	movi	r3,1
 2003604:	10c00015 	stw	r3,0(r2)
    											}

    											Touch_EmptyFifo(pTouch);
 2003608:	e13ffd17 	ldw	r4,-12(fp)
 200360c:	20097c80 	call	20097c8 <Touch_EmptyFifo>
 2003610:	00010406 	br	2003a24 <GUI_ROBINSUN+0xa48>
    										}
    										else if (check_button_move == BTN_MOVE_BACKWARD){
 2003614:	e0be7e17 	ldw	r2,-1544(fp)
 2003618:	10800058 	cmpnei	r2,r2,1
 200361c:	10003d1e 	bne	r2,zero,2003714 <GUI_ROBINSUN+0x738>

    											vid_draw_box (rcTouchMoveBackward.left, rcTouchMoveBackward.top, rcTouchMoveBackward.right, rcTouchMoveBackward.bottom, BLACK_24, DO_FILL, pDisplay);
 2003620:	e13fb417 	ldw	r4,-304(fp)
 2003624:	e17fb617 	ldw	r5,-296(fp)
 2003628:	e1bfb517 	ldw	r6,-300(fp)
 200362c:	e0ffb717 	ldw	r3,-292(fp)
 2003630:	d8000015 	stw	zero,0(sp)
 2003634:	00800044 	movi	r2,1
 2003638:	d8800115 	stw	r2,4(sp)
 200363c:	e0bffc17 	ldw	r2,-16(fp)
 2003640:	d8800215 	stw	r2,8(sp)
 2003644:	180f883a 	mov	r7,r3
 2003648:	2006d340 	call	2006d34 <vid_draw_box>
    											vid_draw_box (rcTouchMoveBackward.left, rcTouchMoveBackward.top, rcTouchMoveBackward.right, rcTouchMoveBackward.bottom, WHITE_24, DO_NOT_FILL, pDisplay);
 200364c:	e13fb417 	ldw	r4,-304(fp)
 2003650:	e17fb617 	ldw	r5,-296(fp)
 2003654:	e1bfb517 	ldw	r6,-300(fp)
 2003658:	e0ffb717 	ldw	r3,-292(fp)
 200365c:	00804034 	movhi	r2,256
 2003660:	10bfffc4 	addi	r2,r2,-1
 2003664:	d8800015 	stw	r2,0(sp)
 2003668:	d8000115 	stw	zero,4(sp)
 200366c:	e0bffc17 	ldw	r2,-16(fp)
 2003670:	d8800215 	stw	r2,8(sp)
 2003674:	180f883a 	mov	r7,r3
 2003678:	2006d340 	call	2006d34 <vid_draw_box>
    											vid_print_string_alpha(rcTouchMoveBackward.left+8, rcTouchMoveBackward.top+(RectHeight(&rcTouchMoveBackward)-22)/2, WHITE_24, BLACK_24, tahomabold_20, pDisplay, "Go backward");
 200367c:	e0bfb417 	ldw	r2,-304(fp)
 2003680:	14400204 	addi	r17,r2,8
 2003684:	e43fb617 	ldw	r16,-296(fp)
 2003688:	e0bfb404 	addi	r2,fp,-304
 200368c:	1009883a 	mov	r4,r2
 2003690:	20063c00 	call	20063c0 <RectHeight>
 2003694:	10bffa84 	addi	r2,r2,-22
 2003698:	1006d7fa 	srli	r3,r2,31
 200369c:	1885883a 	add	r2,r3,r2
 20036a0:	1005d07a 	srai	r2,r2,1
 20036a4:	8087883a 	add	r3,r16,r2
 20036a8:	008080f4 	movhi	r2,515
 20036ac:	10af9504 	addi	r2,r2,-16812
 20036b0:	d8800015 	stw	r2,0(sp)
 20036b4:	e0bffc17 	ldw	r2,-16(fp)
 20036b8:	d8800115 	stw	r2,4(sp)
 20036bc:	00808074 	movhi	r2,513
 20036c0:	10878b04 	addi	r2,r2,7724
 20036c4:	d8800215 	stw	r2,8(sp)
 20036c8:	8809883a 	mov	r4,r17
 20036cc:	180b883a 	mov	r5,r3
 20036d0:	01804034 	movhi	r6,256
 20036d4:	31bfffc4 	addi	r6,r6,-1
 20036d8:	000f883a 	mov	r7,zero
 20036dc:	2008b400 	call	2008b40 <vid_print_string_alpha>

    											if(*signal == 2){
 20036e0:	e0be8317 	ldw	r2,-1524(fp)
 20036e4:	10800017 	ldw	r2,0(r2)
 20036e8:	10800098 	cmpnei	r2,r2,2
 20036ec:	1000031e 	bne	r2,zero,20036fc <GUI_ROBINSUN+0x720>
    												*signal = 0;
 20036f0:	e0be8317 	ldw	r2,-1524(fp)
 20036f4:	10000015 	stw	zero,0(r2)
 20036f8:	00000306 	br	2003708 <GUI_ROBINSUN+0x72c>
    											}
    											else{
    												*signal = 2;
 20036fc:	e0be8317 	ldw	r2,-1524(fp)
 2003700:	00c00084 	movi	r3,2
 2003704:	10c00015 	stw	r3,0(r2)
    											}

    											Touch_EmptyFifo(pTouch);
 2003708:	e13ffd17 	ldw	r4,-12(fp)
 200370c:	20097c80 	call	20097c8 <Touch_EmptyFifo>
 2003710:	0000c406 	br	2003a24 <GUI_ROBINSUN+0xa48>
    										}
    										else if (check_button_move == BTN_MOVE_LEFT){
 2003714:	e0be7e17 	ldw	r2,-1544(fp)
 2003718:	10800098 	cmpnei	r2,r2,2
 200371c:	10003d1e 	bne	r2,zero,2003814 <GUI_ROBINSUN+0x838>

    											vid_draw_box (rcTouchMoveLeft.left, rcTouchMoveLeft.top, rcTouchMoveLeft.right, rcTouchMoveLeft.bottom, BLACK_24, DO_FILL, pDisplay);
 2003720:	e13fb817 	ldw	r4,-288(fp)
 2003724:	e17fba17 	ldw	r5,-280(fp)
 2003728:	e1bfb917 	ldw	r6,-284(fp)
 200372c:	e0ffbb17 	ldw	r3,-276(fp)
 2003730:	d8000015 	stw	zero,0(sp)
 2003734:	00800044 	movi	r2,1
 2003738:	d8800115 	stw	r2,4(sp)
 200373c:	e0bffc17 	ldw	r2,-16(fp)
 2003740:	d8800215 	stw	r2,8(sp)
 2003744:	180f883a 	mov	r7,r3
 2003748:	2006d340 	call	2006d34 <vid_draw_box>
    											vid_draw_box (rcTouchMoveLeft.left, rcTouchMoveLeft.top, rcTouchMoveLeft.right, rcTouchMoveLeft.bottom, WHITE_24, DO_NOT_FILL, pDisplay);
 200374c:	e13fb817 	ldw	r4,-288(fp)
 2003750:	e17fba17 	ldw	r5,-280(fp)
 2003754:	e1bfb917 	ldw	r6,-284(fp)
 2003758:	e0ffbb17 	ldw	r3,-276(fp)
 200375c:	00804034 	movhi	r2,256
 2003760:	10bfffc4 	addi	r2,r2,-1
 2003764:	d8800015 	stw	r2,0(sp)
 2003768:	d8000115 	stw	zero,4(sp)
 200376c:	e0bffc17 	ldw	r2,-16(fp)
 2003770:	d8800215 	stw	r2,8(sp)
 2003774:	180f883a 	mov	r7,r3
 2003778:	2006d340 	call	2006d34 <vid_draw_box>
    											vid_print_string_alpha(rcTouchMoveLeft.left+8, rcTouchMoveLeft.top+(RectHeight(&rcTouchMoveLeft)-22)/2, WHITE_24, BLACK_24, tahomabold_20, pDisplay, "Turn to the left");
 200377c:	e0bfb817 	ldw	r2,-288(fp)
 2003780:	14400204 	addi	r17,r2,8
 2003784:	e43fba17 	ldw	r16,-280(fp)
 2003788:	e0bfb804 	addi	r2,fp,-288
 200378c:	1009883a 	mov	r4,r2
 2003790:	20063c00 	call	20063c0 <RectHeight>
 2003794:	10bffa84 	addi	r2,r2,-22
 2003798:	1006d7fa 	srli	r3,r2,31
 200379c:	1885883a 	add	r2,r3,r2
 20037a0:	1005d07a 	srai	r2,r2,1
 20037a4:	8087883a 	add	r3,r16,r2
 20037a8:	008080f4 	movhi	r2,515
 20037ac:	10af9504 	addi	r2,r2,-16812
 20037b0:	d8800015 	stw	r2,0(sp)
 20037b4:	e0bffc17 	ldw	r2,-16(fp)
 20037b8:	d8800115 	stw	r2,4(sp)
 20037bc:	00808074 	movhi	r2,513
 20037c0:	10878e04 	addi	r2,r2,7736
 20037c4:	d8800215 	stw	r2,8(sp)
 20037c8:	8809883a 	mov	r4,r17
 20037cc:	180b883a 	mov	r5,r3
 20037d0:	01804034 	movhi	r6,256
 20037d4:	31bfffc4 	addi	r6,r6,-1
 20037d8:	000f883a 	mov	r7,zero
 20037dc:	2008b400 	call	2008b40 <vid_print_string_alpha>

    											if(*signal == 3){
 20037e0:	e0be8317 	ldw	r2,-1524(fp)
 20037e4:	10800017 	ldw	r2,0(r2)
 20037e8:	108000d8 	cmpnei	r2,r2,3
 20037ec:	1000031e 	bne	r2,zero,20037fc <GUI_ROBINSUN+0x820>
    												*signal = 0;
 20037f0:	e0be8317 	ldw	r2,-1524(fp)
 20037f4:	10000015 	stw	zero,0(r2)
 20037f8:	00000306 	br	2003808 <GUI_ROBINSUN+0x82c>
    											}
    											else{
    												*signal = 3;
 20037fc:	e0be8317 	ldw	r2,-1524(fp)
 2003800:	00c000c4 	movi	r3,3
 2003804:	10c00015 	stw	r3,0(r2)
    											}

    											Touch_EmptyFifo(pTouch);
 2003808:	e13ffd17 	ldw	r4,-12(fp)
 200380c:	20097c80 	call	20097c8 <Touch_EmptyFifo>
 2003810:	00008406 	br	2003a24 <GUI_ROBINSUN+0xa48>
    										}
    										else if (check_button_move == BTN_MOVE_RIGHT){
 2003814:	e0be7e17 	ldw	r2,-1544(fp)
 2003818:	108000d8 	cmpnei	r2,r2,3
 200381c:	10003d1e 	bne	r2,zero,2003914 <GUI_ROBINSUN+0x938>

    											vid_draw_box (rcTouchMoveRight.left, rcTouchMoveRight.top, rcTouchMoveRight.right, rcTouchMoveRight.bottom, BLACK_24, DO_FILL, pDisplay);
 2003820:	e13fbc17 	ldw	r4,-272(fp)
 2003824:	e17fbe17 	ldw	r5,-264(fp)
 2003828:	e1bfbd17 	ldw	r6,-268(fp)
 200382c:	e0ffbf17 	ldw	r3,-260(fp)
 2003830:	d8000015 	stw	zero,0(sp)
 2003834:	00800044 	movi	r2,1
 2003838:	d8800115 	stw	r2,4(sp)
 200383c:	e0bffc17 	ldw	r2,-16(fp)
 2003840:	d8800215 	stw	r2,8(sp)
 2003844:	180f883a 	mov	r7,r3
 2003848:	2006d340 	call	2006d34 <vid_draw_box>
    											vid_draw_box (rcTouchMoveRight.left, rcTouchMoveRight.top, rcTouchMoveRight.right, rcTouchMoveRight.bottom, WHITE_24, DO_NOT_FILL, pDisplay);
 200384c:	e13fbc17 	ldw	r4,-272(fp)
 2003850:	e17fbe17 	ldw	r5,-264(fp)
 2003854:	e1bfbd17 	ldw	r6,-268(fp)
 2003858:	e0ffbf17 	ldw	r3,-260(fp)
 200385c:	00804034 	movhi	r2,256
 2003860:	10bfffc4 	addi	r2,r2,-1
 2003864:	d8800015 	stw	r2,0(sp)
 2003868:	d8000115 	stw	zero,4(sp)
 200386c:	e0bffc17 	ldw	r2,-16(fp)
 2003870:	d8800215 	stw	r2,8(sp)
 2003874:	180f883a 	mov	r7,r3
 2003878:	2006d340 	call	2006d34 <vid_draw_box>
    											vid_print_string_alpha(rcTouchMoveRight.left+8, rcTouchMoveRight.top+(RectHeight(&rcTouchMoveRight)-22)/2, WHITE_24, BLACK_24, tahomabold_20, pDisplay, "Turn to the right");
 200387c:	e0bfbc17 	ldw	r2,-272(fp)
 2003880:	14400204 	addi	r17,r2,8
 2003884:	e43fbe17 	ldw	r16,-264(fp)
 2003888:	e0bfbc04 	addi	r2,fp,-272
 200388c:	1009883a 	mov	r4,r2
 2003890:	20063c00 	call	20063c0 <RectHeight>
 2003894:	10bffa84 	addi	r2,r2,-22
 2003898:	1006d7fa 	srli	r3,r2,31
 200389c:	1885883a 	add	r2,r3,r2
 20038a0:	1005d07a 	srai	r2,r2,1
 20038a4:	8087883a 	add	r3,r16,r2
 20038a8:	008080f4 	movhi	r2,515
 20038ac:	10af9504 	addi	r2,r2,-16812
 20038b0:	d8800015 	stw	r2,0(sp)
 20038b4:	e0bffc17 	ldw	r2,-16(fp)
 20038b8:	d8800115 	stw	r2,4(sp)
 20038bc:	00808074 	movhi	r2,513
 20038c0:	10879304 	addi	r2,r2,7756
 20038c4:	d8800215 	stw	r2,8(sp)
 20038c8:	8809883a 	mov	r4,r17
 20038cc:	180b883a 	mov	r5,r3
 20038d0:	01804034 	movhi	r6,256
 20038d4:	31bfffc4 	addi	r6,r6,-1
 20038d8:	000f883a 	mov	r7,zero
 20038dc:	2008b400 	call	2008b40 <vid_print_string_alpha>

    											if(*signal == 4){
 20038e0:	e0be8317 	ldw	r2,-1524(fp)
 20038e4:	10800017 	ldw	r2,0(r2)
 20038e8:	10800118 	cmpnei	r2,r2,4
 20038ec:	1000031e 	bne	r2,zero,20038fc <GUI_ROBINSUN+0x920>
    												*signal = 0;
 20038f0:	e0be8317 	ldw	r2,-1524(fp)
 20038f4:	10000015 	stw	zero,0(r2)
 20038f8:	00000306 	br	2003908 <GUI_ROBINSUN+0x92c>
    											}
    											else{
    												*signal = 4;
 20038fc:	e0be8317 	ldw	r2,-1524(fp)
 2003900:	00c00104 	movi	r3,4
 2003904:	10c00015 	stw	r3,0(r2)
    											}

    											Touch_EmptyFifo(pTouch);
 2003908:	e13ffd17 	ldw	r4,-12(fp)
 200390c:	20097c80 	call	20097c8 <Touch_EmptyFifo>
 2003910:	00004406 	br	2003a24 <GUI_ROBINSUN+0xa48>
    										}
    										else if (check_button_move == BTN_MOVE_STOP){
 2003914:	e0be7e17 	ldw	r2,-1544(fp)
 2003918:	10800118 	cmpnei	r2,r2,4
 200391c:	1000351e 	bne	r2,zero,20039f4 <GUI_ROBINSUN+0xa18>

    											vid_draw_box (rcTouchMoveStop.left, rcTouchMoveStop.top, rcTouchMoveStop.right, rcTouchMoveStop.bottom, BLACK_24, DO_FILL, pDisplay);
 2003920:	e13fc017 	ldw	r4,-256(fp)
 2003924:	e17fc217 	ldw	r5,-248(fp)
 2003928:	e1bfc117 	ldw	r6,-252(fp)
 200392c:	e0ffc317 	ldw	r3,-244(fp)
 2003930:	d8000015 	stw	zero,0(sp)
 2003934:	00800044 	movi	r2,1
 2003938:	d8800115 	stw	r2,4(sp)
 200393c:	e0bffc17 	ldw	r2,-16(fp)
 2003940:	d8800215 	stw	r2,8(sp)
 2003944:	180f883a 	mov	r7,r3
 2003948:	2006d340 	call	2006d34 <vid_draw_box>
    											vid_draw_box (rcTouchMoveStop.left, rcTouchMoveStop.top, rcTouchMoveStop.right, rcTouchMoveStop.bottom, WHITE_24, DO_NOT_FILL, pDisplay);
 200394c:	e13fc017 	ldw	r4,-256(fp)
 2003950:	e17fc217 	ldw	r5,-248(fp)
 2003954:	e1bfc117 	ldw	r6,-252(fp)
 2003958:	e0ffc317 	ldw	r3,-244(fp)
 200395c:	00804034 	movhi	r2,256
 2003960:	10bfffc4 	addi	r2,r2,-1
 2003964:	d8800015 	stw	r2,0(sp)
 2003968:	d8000115 	stw	zero,4(sp)
 200396c:	e0bffc17 	ldw	r2,-16(fp)
 2003970:	d8800215 	stw	r2,8(sp)
 2003974:	180f883a 	mov	r7,r3
 2003978:	2006d340 	call	2006d34 <vid_draw_box>
    											vid_print_string_alpha(rcTouchMoveStop.left+8, rcTouchMoveStop.top+(RectHeight(&rcTouchMoveStop)-22)/2, WHITE_24, BLACK_24, tahomabold_20, pDisplay, "STOP");
 200397c:	e0bfc017 	ldw	r2,-256(fp)
 2003980:	14400204 	addi	r17,r2,8
 2003984:	e43fc217 	ldw	r16,-248(fp)
 2003988:	e0bfc004 	addi	r2,fp,-256
 200398c:	1009883a 	mov	r4,r2
 2003990:	20063c00 	call	20063c0 <RectHeight>
 2003994:	10bffa84 	addi	r2,r2,-22
 2003998:	1006d7fa 	srli	r3,r2,31
 200399c:	1885883a 	add	r2,r3,r2
 20039a0:	1005d07a 	srai	r2,r2,1
 20039a4:	8087883a 	add	r3,r16,r2
 20039a8:	008080f4 	movhi	r2,515
 20039ac:	10af9504 	addi	r2,r2,-16812
 20039b0:	d8800015 	stw	r2,0(sp)
 20039b4:	e0bffc17 	ldw	r2,-16(fp)
 20039b8:	d8800115 	stw	r2,4(sp)
 20039bc:	00808074 	movhi	r2,513
 20039c0:	10879804 	addi	r2,r2,7776
 20039c4:	d8800215 	stw	r2,8(sp)
 20039c8:	8809883a 	mov	r4,r17
 20039cc:	180b883a 	mov	r5,r3
 20039d0:	01804034 	movhi	r6,256
 20039d4:	31bfffc4 	addi	r6,r6,-1
 20039d8:	000f883a 	mov	r7,zero
 20039dc:	2008b400 	call	2008b40 <vid_print_string_alpha>

    											*signal = 0;
 20039e0:	e0be8317 	ldw	r2,-1524(fp)
 20039e4:	10000015 	stw	zero,0(r2)

    											Touch_EmptyFifo(pTouch);
 20039e8:	e13ffd17 	ldw	r4,-12(fp)
 20039ec:	20097c80 	call	20097c8 <Touch_EmptyFifo>
 20039f0:	00000c06 	br	2003a24 <GUI_ROBINSUN+0xa48>
    										}
    										else if (check_button_move == BTN_MOVE_BACK){
 20039f4:	e0be7e17 	ldw	r2,-1544(fp)
 20039f8:	10800158 	cmpnei	r2,r2,5
 20039fc:	1000071e 	bne	r2,zero,2003a1c <GUI_ROBINSUN+0xa40>

    											*signal=0;
 2003a00:	e0be8317 	ldw	r2,-1524(fp)
 2003a04:	10000015 	stw	zero,0(r2)
    											tests_or_compet_loop=0;
 2003a08:	e03e6f15 	stw	zero,-1604(fp)
    											test=0;
 2003a0c:	e03e7415 	stw	zero,-1584(fp)

    											Touch_EmptyFifo(pTouch);
 2003a10:	e13ffd17 	ldw	r4,-12(fp)
 2003a14:	20097c80 	call	20097c8 <Touch_EmptyFifo>
 2003a18:	00000206 	br	2003a24 <GUI_ROBINSUN+0xa48>
    										}
    										else{
    											Touch_EmptyFifo(pTouch);
 2003a1c:	e13ffd17 	ldw	r4,-12(fp)
 2003a20:	20097c80 	call	20097c8 <Touch_EmptyFifo>
    								RectCopy(&rcTouchMoveStop, &DeskInfo.buttons_move[BTN_MOVE_STOP].rc);
    								RectCopy(&rcTouchMoveBack, &DeskInfo.buttons_move[BTN_MOVE_BACK].rc);

    								Touch_EmptyFifo(pTouch);

    								while(test){
 2003a24:	e0be7417 	ldw	r2,-1584(fp)
 2003a28:	103ea41e 	bne	r2,zero,20034bc <__reset+0xfdffbcbc>
 2003a2c:	0003fd06 	br	2004a24 <GUI_ROBINSUN+0x1a48>
    										}
    										//printf("signal vaut: %d\n",*signal);
    									}
    								}
    							}//end if(check_button_tests == BTN_MOVE)
    							else if(check_button_tests == BTN_BLOCKS){
 2003a30:	e0be7a17 	ldw	r2,-1560(fp)
 2003a34:	10800058 	cmpnei	r2,r2,1
 2003a38:	1001211e 	bne	r2,zero,2003ec0 <GUI_ROBINSUN+0xee4>
    								test=1;
 2003a3c:	00800044 	movi	r2,1
 2003a40:	e0be7415 	stw	r2,-1584(fp)

    								vid_clean_screen(pDisplay, BLACK_24);
 2003a44:	e13ffc17 	ldw	r4,-16(fp)
 2003a48:	000b883a 	mov	r5,zero
 2003a4c:	20064ec0 	call	20064ec <vid_clean_screen>
    								usleep(1000*1000);
 2003a50:	010003f4 	movhi	r4,15
 2003a54:	21109004 	addi	r4,r4,16960
 2003a58:	200ec680 	call	200ec68 <usleep>

    								GUI_ROBINSUN_Init(pDisplay, &DeskInfo, DeskInfo.buttons_blocks, BTN_NUM_BLOCKS);
 2003a5c:	e0fe8404 	addi	r3,fp,-1520
 2003a60:	e0be8404 	addi	r2,fp,-1520
 2003a64:	10804a04 	addi	r2,r2,296
 2003a68:	e13ffc17 	ldw	r4,-16(fp)
 2003a6c:	180b883a 	mov	r5,r3
 2003a70:	100d883a 	mov	r6,r2
 2003a74:	01c00104 	movi	r7,4
 2003a78:	2000b840 	call	2000b84 <GUI_ROBINSUN_Init>
    								GUI_ROBINSUN_Draw(pDisplay, &DeskInfo, DeskInfo.buttons_blocks, BTN_NUM_BLOCKS, "Open", "Close", "STOP", "Back", "", "");
 2003a7c:	e17e8404 	addi	r5,fp,-1520
 2003a80:	e0be8404 	addi	r2,fp,-1520
 2003a84:	10c04a04 	addi	r3,r2,296
 2003a88:	00808074 	movhi	r2,513
 2003a8c:	10879a04 	addi	r2,r2,7784
 2003a90:	d8800015 	stw	r2,0(sp)
 2003a94:	00808074 	movhi	r2,513
 2003a98:	10879c04 	addi	r2,r2,7792
 2003a9c:	d8800115 	stw	r2,4(sp)
 2003aa0:	00808074 	movhi	r2,513
 2003aa4:	10879804 	addi	r2,r2,7776
 2003aa8:	d8800215 	stw	r2,8(sp)
 2003aac:	00808074 	movhi	r2,513
 2003ab0:	10876a04 	addi	r2,r2,7592
 2003ab4:	d8800315 	stw	r2,12(sp)
 2003ab8:	00808074 	movhi	r2,513
 2003abc:	10877d04 	addi	r2,r2,7668
 2003ac0:	d8800415 	stw	r2,16(sp)
 2003ac4:	00808074 	movhi	r2,513
 2003ac8:	10877d04 	addi	r2,r2,7668
 2003acc:	d8800515 	stw	r2,20(sp)
 2003ad0:	e13ffc17 	ldw	r4,-16(fp)
 2003ad4:	180d883a 	mov	r6,r3
 2003ad8:	01c00104 	movi	r7,4
 2003adc:	2000cd40 	call	2000cd4 <GUI_ROBINSUN_Draw>

    								RectCopy(&rcTouchBlocksOpen, &DeskInfo.buttons_blocks[BTN_BLOCKS_OPEN].rc);
 2003ae0:	e0ffc804 	addi	r3,fp,-224
 2003ae4:	e0be8404 	addi	r2,fp,-1520
 2003ae8:	10804a04 	addi	r2,r2,296
 2003aec:	1809883a 	mov	r4,r3
 2003af0:	100b883a 	mov	r5,r2
 2003af4:	20063280 	call	2006328 <RectCopy>
    								RectCopy(&rcTouchBlocksClose, &DeskInfo.buttons_blocks[BTN_BLOCKS_CLOSE].rc);
 2003af8:	e0ffcc04 	addi	r3,fp,-208
 2003afc:	e0be8404 	addi	r2,fp,-1520
 2003b00:	10804f04 	addi	r2,r2,316
 2003b04:	1809883a 	mov	r4,r3
 2003b08:	100b883a 	mov	r5,r2
 2003b0c:	20063280 	call	2006328 <RectCopy>
    								RectCopy(&rcTouchBlocksStop, &DeskInfo.buttons_blocks[BTN_BLOCKS_STOP].rc);
 2003b10:	e0ffd004 	addi	r3,fp,-192
 2003b14:	e0be8404 	addi	r2,fp,-1520
 2003b18:	10805404 	addi	r2,r2,336
 2003b1c:	1809883a 	mov	r4,r3
 2003b20:	100b883a 	mov	r5,r2
 2003b24:	20063280 	call	2006328 <RectCopy>
    								RectCopy(&rcTouchBlocksBack, &DeskInfo.buttons_blocks[BTN_BLOCKS_BACK].rc);
 2003b28:	e0ffd404 	addi	r3,fp,-176
 2003b2c:	e0be8404 	addi	r2,fp,-1520
 2003b30:	10805904 	addi	r2,r2,356
 2003b34:	1809883a 	mov	r4,r3
 2003b38:	100b883a 	mov	r5,r2
 2003b3c:	20063280 	call	2006328 <RectCopy>

    								Touch_EmptyFifo(pTouch);
 2003b40:	e13ffd17 	ldw	r4,-12(fp)
 2003b44:	20097c80 	call	20097c8 <Touch_EmptyFifo>

    								while(test){
 2003b48:	0000da06 	br	2003eb4 <GUI_ROBINSUN+0xed8>
    									// touch
    									if (Touch_GetXY(pTouch, &X, &Y)){
 2003b4c:	e0ff8c04 	addi	r3,fp,-464
 2003b50:	e0bf8d04 	addi	r2,fp,-460
 2003b54:	e13ffd17 	ldw	r4,-12(fp)
 2003b58:	180b883a 	mov	r5,r3
 2003b5c:	100d883a 	mov	r6,r2
 2003b60:	20098000 	call	2009800 <Touch_GetXY>
 2003b64:	1000d326 	beq	r2,zero,2003eb4 <GUI_ROBINSUN+0xed8>
    										PtSet(&Pt, X, Y);
 2003b68:	e0ff8c17 	ldw	r3,-464(fp)
 2003b6c:	e0bf8d17 	ldw	r2,-460(fp)
 2003b70:	e13f8e04 	addi	r4,fp,-456
 2003b74:	180b883a 	mov	r5,r3
 2003b78:	100d883a 	mov	r6,r2
 2003b7c:	200617c0 	call	200617c <PtSet>
    										check_button_blocks = GUI_ROBINSUN_CheckButton(&DeskInfo, &Pt,DeskInfo.buttons_blocks,BTN_NUM_BLOCKS,BTN_NONE_BLOCKS);
 2003b80:	e13e8404 	addi	r4,fp,-1520
 2003b84:	e17f8e04 	addi	r5,fp,-456
 2003b88:	e0be8404 	addi	r2,fp,-1520
 2003b8c:	10c04a04 	addi	r3,r2,296
 2003b90:	00800144 	movi	r2,5
 2003b94:	d8800015 	stw	r2,0(sp)
 2003b98:	180d883a 	mov	r6,r3
 2003b9c:	01c00104 	movi	r7,4
 2003ba0:	20009d40 	call	20009d4 <GUI_ROBINSUN_CheckButton>
 2003ba4:	e0be7f15 	stw	r2,-1540(fp)
    										//printf("signal vaut: %d\n",*signal);
    										if (check_button_blocks == BTN_BLOCKS_OPEN){
 2003ba8:	e0be7f17 	ldw	r2,-1540(fp)
 2003bac:	10003d1e 	bne	r2,zero,2003ca4 <GUI_ROBINSUN+0xcc8>

    											vid_draw_box (rcTouchBlocksOpen.left, rcTouchBlocksOpen.top, rcTouchBlocksOpen.right, rcTouchBlocksOpen.bottom, BLACK_24, DO_FILL, pDisplay);
 2003bb0:	e13fc817 	ldw	r4,-224(fp)
 2003bb4:	e17fca17 	ldw	r5,-216(fp)
 2003bb8:	e1bfc917 	ldw	r6,-220(fp)
 2003bbc:	e0ffcb17 	ldw	r3,-212(fp)
 2003bc0:	d8000015 	stw	zero,0(sp)
 2003bc4:	00800044 	movi	r2,1
 2003bc8:	d8800115 	stw	r2,4(sp)
 2003bcc:	e0bffc17 	ldw	r2,-16(fp)
 2003bd0:	d8800215 	stw	r2,8(sp)
 2003bd4:	180f883a 	mov	r7,r3
 2003bd8:	2006d340 	call	2006d34 <vid_draw_box>
    											vid_draw_box (rcTouchBlocksOpen.left, rcTouchBlocksOpen.top, rcTouchBlocksOpen.right, rcTouchBlocksOpen.bottom, WHITE_24, DO_NOT_FILL, pDisplay);
 2003bdc:	e13fc817 	ldw	r4,-224(fp)
 2003be0:	e17fca17 	ldw	r5,-216(fp)
 2003be4:	e1bfc917 	ldw	r6,-220(fp)
 2003be8:	e0ffcb17 	ldw	r3,-212(fp)
 2003bec:	00804034 	movhi	r2,256
 2003bf0:	10bfffc4 	addi	r2,r2,-1
 2003bf4:	d8800015 	stw	r2,0(sp)
 2003bf8:	d8000115 	stw	zero,4(sp)
 2003bfc:	e0bffc17 	ldw	r2,-16(fp)
 2003c00:	d8800215 	stw	r2,8(sp)
 2003c04:	180f883a 	mov	r7,r3
 2003c08:	2006d340 	call	2006d34 <vid_draw_box>
    											vid_print_string_alpha(rcTouchBlocksOpen.left+8, rcTouchBlocksOpen.top+(RectHeight(&rcTouchBlocksOpen)-22)/2, WHITE_24, BLACK_24, tahomabold_20, pDisplay, "Open");
 2003c0c:	e0bfc817 	ldw	r2,-224(fp)
 2003c10:	14400204 	addi	r17,r2,8
 2003c14:	e43fca17 	ldw	r16,-216(fp)
 2003c18:	e0bfc804 	addi	r2,fp,-224
 2003c1c:	1009883a 	mov	r4,r2
 2003c20:	20063c00 	call	20063c0 <RectHeight>
 2003c24:	10bffa84 	addi	r2,r2,-22
 2003c28:	1006d7fa 	srli	r3,r2,31
 2003c2c:	1885883a 	add	r2,r3,r2
 2003c30:	1005d07a 	srai	r2,r2,1
 2003c34:	8087883a 	add	r3,r16,r2
 2003c38:	008080f4 	movhi	r2,515
 2003c3c:	10af9504 	addi	r2,r2,-16812
 2003c40:	d8800015 	stw	r2,0(sp)
 2003c44:	e0bffc17 	ldw	r2,-16(fp)
 2003c48:	d8800115 	stw	r2,4(sp)
 2003c4c:	00808074 	movhi	r2,513
 2003c50:	10879a04 	addi	r2,r2,7784
 2003c54:	d8800215 	stw	r2,8(sp)
 2003c58:	8809883a 	mov	r4,r17
 2003c5c:	180b883a 	mov	r5,r3
 2003c60:	01804034 	movhi	r6,256
 2003c64:	31bfffc4 	addi	r6,r6,-1
 2003c68:	000f883a 	mov	r7,zero
 2003c6c:	2008b400 	call	2008b40 <vid_print_string_alpha>

    											if(*signal == 11){
 2003c70:	e0be8317 	ldw	r2,-1524(fp)
 2003c74:	10800017 	ldw	r2,0(r2)
 2003c78:	108002d8 	cmpnei	r2,r2,11
 2003c7c:	1000031e 	bne	r2,zero,2003c8c <GUI_ROBINSUN+0xcb0>
    												*signal = 0;
 2003c80:	e0be8317 	ldw	r2,-1524(fp)
 2003c84:	10000015 	stw	zero,0(r2)
 2003c88:	00000306 	br	2003c98 <GUI_ROBINSUN+0xcbc>
    											}
    											else{
    												*signal = 11;
 2003c8c:	e0be8317 	ldw	r2,-1524(fp)
 2003c90:	00c002c4 	movi	r3,11
 2003c94:	10c00015 	stw	r3,0(r2)
    											}

    											Touch_EmptyFifo(pTouch);
 2003c98:	e13ffd17 	ldw	r4,-12(fp)
 2003c9c:	20097c80 	call	20097c8 <Touch_EmptyFifo>
 2003ca0:	00008406 	br	2003eb4 <GUI_ROBINSUN+0xed8>
    										}
    										else if (check_button_blocks == BTN_BLOCKS_CLOSE){
 2003ca4:	e0be7f17 	ldw	r2,-1540(fp)
 2003ca8:	10800058 	cmpnei	r2,r2,1
 2003cac:	10003d1e 	bne	r2,zero,2003da4 <GUI_ROBINSUN+0xdc8>

    											vid_draw_box (rcTouchBlocksClose.left, rcTouchBlocksClose.top, rcTouchBlocksClose.right, rcTouchBlocksClose.bottom, BLACK_24, DO_FILL, pDisplay);
 2003cb0:	e13fcc17 	ldw	r4,-208(fp)
 2003cb4:	e17fce17 	ldw	r5,-200(fp)
 2003cb8:	e1bfcd17 	ldw	r6,-204(fp)
 2003cbc:	e0ffcf17 	ldw	r3,-196(fp)
 2003cc0:	d8000015 	stw	zero,0(sp)
 2003cc4:	00800044 	movi	r2,1
 2003cc8:	d8800115 	stw	r2,4(sp)
 2003ccc:	e0bffc17 	ldw	r2,-16(fp)
 2003cd0:	d8800215 	stw	r2,8(sp)
 2003cd4:	180f883a 	mov	r7,r3
 2003cd8:	2006d340 	call	2006d34 <vid_draw_box>
    											vid_draw_box (rcTouchBlocksClose.left, rcTouchBlocksClose.top, rcTouchBlocksClose.right, rcTouchBlocksClose.bottom, WHITE_24, DO_NOT_FILL, pDisplay);
 2003cdc:	e13fcc17 	ldw	r4,-208(fp)
 2003ce0:	e17fce17 	ldw	r5,-200(fp)
 2003ce4:	e1bfcd17 	ldw	r6,-204(fp)
 2003ce8:	e0ffcf17 	ldw	r3,-196(fp)
 2003cec:	00804034 	movhi	r2,256
 2003cf0:	10bfffc4 	addi	r2,r2,-1
 2003cf4:	d8800015 	stw	r2,0(sp)
 2003cf8:	d8000115 	stw	zero,4(sp)
 2003cfc:	e0bffc17 	ldw	r2,-16(fp)
 2003d00:	d8800215 	stw	r2,8(sp)
 2003d04:	180f883a 	mov	r7,r3
 2003d08:	2006d340 	call	2006d34 <vid_draw_box>
    											vid_print_string_alpha(rcTouchBlocksClose.left+8, rcTouchBlocksClose.top+(RectHeight(&rcTouchBlocksClose)-22)/2, WHITE_24, BLACK_24, tahomabold_20, pDisplay, "Close");
 2003d0c:	e0bfcc17 	ldw	r2,-208(fp)
 2003d10:	14400204 	addi	r17,r2,8
 2003d14:	e43fce17 	ldw	r16,-200(fp)
 2003d18:	e0bfcc04 	addi	r2,fp,-208
 2003d1c:	1009883a 	mov	r4,r2
 2003d20:	20063c00 	call	20063c0 <RectHeight>
 2003d24:	10bffa84 	addi	r2,r2,-22
 2003d28:	1006d7fa 	srli	r3,r2,31
 2003d2c:	1885883a 	add	r2,r3,r2
 2003d30:	1005d07a 	srai	r2,r2,1
 2003d34:	8087883a 	add	r3,r16,r2
 2003d38:	008080f4 	movhi	r2,515
 2003d3c:	10af9504 	addi	r2,r2,-16812
 2003d40:	d8800015 	stw	r2,0(sp)
 2003d44:	e0bffc17 	ldw	r2,-16(fp)
 2003d48:	d8800115 	stw	r2,4(sp)
 2003d4c:	00808074 	movhi	r2,513
 2003d50:	10879c04 	addi	r2,r2,7792
 2003d54:	d8800215 	stw	r2,8(sp)
 2003d58:	8809883a 	mov	r4,r17
 2003d5c:	180b883a 	mov	r5,r3
 2003d60:	01804034 	movhi	r6,256
 2003d64:	31bfffc4 	addi	r6,r6,-1
 2003d68:	000f883a 	mov	r7,zero
 2003d6c:	2008b400 	call	2008b40 <vid_print_string_alpha>

    											if(*signal == 12){
 2003d70:	e0be8317 	ldw	r2,-1524(fp)
 2003d74:	10800017 	ldw	r2,0(r2)
 2003d78:	10800318 	cmpnei	r2,r2,12
 2003d7c:	1000031e 	bne	r2,zero,2003d8c <GUI_ROBINSUN+0xdb0>
    												*signal = 0;
 2003d80:	e0be8317 	ldw	r2,-1524(fp)
 2003d84:	10000015 	stw	zero,0(r2)
 2003d88:	00000306 	br	2003d98 <GUI_ROBINSUN+0xdbc>
    											}
    											else{
    												*signal = 12;
 2003d8c:	e0be8317 	ldw	r2,-1524(fp)
 2003d90:	00c00304 	movi	r3,12
 2003d94:	10c00015 	stw	r3,0(r2)
    											}

    											Touch_EmptyFifo(pTouch);
 2003d98:	e13ffd17 	ldw	r4,-12(fp)
 2003d9c:	20097c80 	call	20097c8 <Touch_EmptyFifo>
 2003da0:	00004406 	br	2003eb4 <GUI_ROBINSUN+0xed8>
    										}
    										else if (check_button_blocks == BTN_BLOCKS_STOP){
 2003da4:	e0be7f17 	ldw	r2,-1540(fp)
 2003da8:	10800098 	cmpnei	r2,r2,2
 2003dac:	1000351e 	bne	r2,zero,2003e84 <GUI_ROBINSUN+0xea8>

    											vid_draw_box (rcTouchBlocksStop.left, rcTouchBlocksStop.top, rcTouchBlocksStop.right, rcTouchBlocksStop.bottom, BLACK_24, DO_FILL, pDisplay);
 2003db0:	e13fd017 	ldw	r4,-192(fp)
 2003db4:	e17fd217 	ldw	r5,-184(fp)
 2003db8:	e1bfd117 	ldw	r6,-188(fp)
 2003dbc:	e0ffd317 	ldw	r3,-180(fp)
 2003dc0:	d8000015 	stw	zero,0(sp)
 2003dc4:	00800044 	movi	r2,1
 2003dc8:	d8800115 	stw	r2,4(sp)
 2003dcc:	e0bffc17 	ldw	r2,-16(fp)
 2003dd0:	d8800215 	stw	r2,8(sp)
 2003dd4:	180f883a 	mov	r7,r3
 2003dd8:	2006d340 	call	2006d34 <vid_draw_box>
    											vid_draw_box (rcTouchBlocksStop.left, rcTouchBlocksStop.top, rcTouchBlocksStop.right, rcTouchBlocksStop.bottom, WHITE_24, DO_NOT_FILL, pDisplay);
 2003ddc:	e13fd017 	ldw	r4,-192(fp)
 2003de0:	e17fd217 	ldw	r5,-184(fp)
 2003de4:	e1bfd117 	ldw	r6,-188(fp)
 2003de8:	e0ffd317 	ldw	r3,-180(fp)
 2003dec:	00804034 	movhi	r2,256
 2003df0:	10bfffc4 	addi	r2,r2,-1
 2003df4:	d8800015 	stw	r2,0(sp)
 2003df8:	d8000115 	stw	zero,4(sp)
 2003dfc:	e0bffc17 	ldw	r2,-16(fp)
 2003e00:	d8800215 	stw	r2,8(sp)
 2003e04:	180f883a 	mov	r7,r3
 2003e08:	2006d340 	call	2006d34 <vid_draw_box>
    											vid_print_string_alpha(rcTouchBlocksStop.left+8, rcTouchBlocksStop.top+(RectHeight(&rcTouchBlocksStop)-22)/2, WHITE_24, BLACK_24, tahomabold_20, pDisplay, "STOP");
 2003e0c:	e0bfd017 	ldw	r2,-192(fp)
 2003e10:	14400204 	addi	r17,r2,8
 2003e14:	e43fd217 	ldw	r16,-184(fp)
 2003e18:	e0bfd004 	addi	r2,fp,-192
 2003e1c:	1009883a 	mov	r4,r2
 2003e20:	20063c00 	call	20063c0 <RectHeight>
 2003e24:	10bffa84 	addi	r2,r2,-22
 2003e28:	1006d7fa 	srli	r3,r2,31
 2003e2c:	1885883a 	add	r2,r3,r2
 2003e30:	1005d07a 	srai	r2,r2,1
 2003e34:	8087883a 	add	r3,r16,r2
 2003e38:	008080f4 	movhi	r2,515
 2003e3c:	10af9504 	addi	r2,r2,-16812
 2003e40:	d8800015 	stw	r2,0(sp)
 2003e44:	e0bffc17 	ldw	r2,-16(fp)
 2003e48:	d8800115 	stw	r2,4(sp)
 2003e4c:	00808074 	movhi	r2,513
 2003e50:	10879804 	addi	r2,r2,7776
 2003e54:	d8800215 	stw	r2,8(sp)
 2003e58:	8809883a 	mov	r4,r17
 2003e5c:	180b883a 	mov	r5,r3
 2003e60:	01804034 	movhi	r6,256
 2003e64:	31bfffc4 	addi	r6,r6,-1
 2003e68:	000f883a 	mov	r7,zero
 2003e6c:	2008b400 	call	2008b40 <vid_print_string_alpha>

    											*signal = 0;
 2003e70:	e0be8317 	ldw	r2,-1524(fp)
 2003e74:	10000015 	stw	zero,0(r2)

    											Touch_EmptyFifo(pTouch);
 2003e78:	e13ffd17 	ldw	r4,-12(fp)
 2003e7c:	20097c80 	call	20097c8 <Touch_EmptyFifo>
 2003e80:	00000c06 	br	2003eb4 <GUI_ROBINSUN+0xed8>
    										}
    										else if (check_button_blocks == BTN_BLOCKS_BACK){
 2003e84:	e0be7f17 	ldw	r2,-1540(fp)
 2003e88:	108000d8 	cmpnei	r2,r2,3
 2003e8c:	1000071e 	bne	r2,zero,2003eac <GUI_ROBINSUN+0xed0>

    											*signal=0;
 2003e90:	e0be8317 	ldw	r2,-1524(fp)
 2003e94:	10000015 	stw	zero,0(r2)
    											tests_or_compet_loop=0;
 2003e98:	e03e6f15 	stw	zero,-1604(fp)
    											test=0;
 2003e9c:	e03e7415 	stw	zero,-1584(fp)

    											Touch_EmptyFifo(pTouch);
 2003ea0:	e13ffd17 	ldw	r4,-12(fp)
 2003ea4:	20097c80 	call	20097c8 <Touch_EmptyFifo>
 2003ea8:	00000206 	br	2003eb4 <GUI_ROBINSUN+0xed8>
    										}
    										else{
    											Touch_EmptyFifo(pTouch);
 2003eac:	e13ffd17 	ldw	r4,-12(fp)
 2003eb0:	20097c80 	call	20097c8 <Touch_EmptyFifo>
    								RectCopy(&rcTouchBlocksStop, &DeskInfo.buttons_blocks[BTN_BLOCKS_STOP].rc);
    								RectCopy(&rcTouchBlocksBack, &DeskInfo.buttons_blocks[BTN_BLOCKS_BACK].rc);

    								Touch_EmptyFifo(pTouch);

    								while(test){
 2003eb4:	e0be7417 	ldw	r2,-1584(fp)
 2003eb8:	103f241e 	bne	r2,zero,2003b4c <__reset+0xfdffc34c>
 2003ebc:	0002d906 	br	2004a24 <GUI_ROBINSUN+0x1a48>
    										}
    										//printf("signal vaut: %d\n",*signal);
    									}
    								}
    							}//end if(check_button_tests == BTN_BLOCKS)
    							else if(check_button_tests == BTN_FISH){
 2003ec0:	e0be7a17 	ldw	r2,-1560(fp)
 2003ec4:	10800098 	cmpnei	r2,r2,2
 2003ec8:	1001211e 	bne	r2,zero,2004350 <GUI_ROBINSUN+0x1374>
    								test=1;
 2003ecc:	00800044 	movi	r2,1
 2003ed0:	e0be7415 	stw	r2,-1584(fp)

    								vid_clean_screen(pDisplay, BLACK_24);
 2003ed4:	e13ffc17 	ldw	r4,-16(fp)
 2003ed8:	000b883a 	mov	r5,zero
 2003edc:	20064ec0 	call	20064ec <vid_clean_screen>
    								usleep(1000*1000);
 2003ee0:	010003f4 	movhi	r4,15
 2003ee4:	21109004 	addi	r4,r4,16960
 2003ee8:	200ec680 	call	200ec68 <usleep>

    								GUI_ROBINSUN_Init(pDisplay, &DeskInfo, DeskInfo.buttons_fish, BTN_NUM_FISH);
 2003eec:	e0fe8404 	addi	r3,fp,-1520
 2003ef0:	e0be8404 	addi	r2,fp,-1520
 2003ef4:	10805e04 	addi	r2,r2,376
 2003ef8:	e13ffc17 	ldw	r4,-16(fp)
 2003efc:	180b883a 	mov	r5,r3
 2003f00:	100d883a 	mov	r6,r2
 2003f04:	01c00104 	movi	r7,4
 2003f08:	2000b840 	call	2000b84 <GUI_ROBINSUN_Init>
    								GUI_ROBINSUN_Draw(pDisplay, &DeskInfo, DeskInfo.buttons_fish, BTN_NUM_FISH, "Lift", "Drop", "STOP", "Back", "", "");
 2003f0c:	e17e8404 	addi	r5,fp,-1520
 2003f10:	e0be8404 	addi	r2,fp,-1520
 2003f14:	10c05e04 	addi	r3,r2,376
 2003f18:	00808074 	movhi	r2,513
 2003f1c:	10879e04 	addi	r2,r2,7800
 2003f20:	d8800015 	stw	r2,0(sp)
 2003f24:	00808074 	movhi	r2,513
 2003f28:	1087a004 	addi	r2,r2,7808
 2003f2c:	d8800115 	stw	r2,4(sp)
 2003f30:	00808074 	movhi	r2,513
 2003f34:	10879804 	addi	r2,r2,7776
 2003f38:	d8800215 	stw	r2,8(sp)
 2003f3c:	00808074 	movhi	r2,513
 2003f40:	10876a04 	addi	r2,r2,7592
 2003f44:	d8800315 	stw	r2,12(sp)
 2003f48:	00808074 	movhi	r2,513
 2003f4c:	10877d04 	addi	r2,r2,7668
 2003f50:	d8800415 	stw	r2,16(sp)
 2003f54:	00808074 	movhi	r2,513
 2003f58:	10877d04 	addi	r2,r2,7668
 2003f5c:	d8800515 	stw	r2,20(sp)
 2003f60:	e13ffc17 	ldw	r4,-16(fp)
 2003f64:	180d883a 	mov	r6,r3
 2003f68:	01c00104 	movi	r7,4
 2003f6c:	2000cd40 	call	2000cd4 <GUI_ROBINSUN_Draw>

    								RectCopy(&rcTouchFishLift, &DeskInfo.buttons_fish[BTN_FISH_LIFT].rc);
 2003f70:	e0ffd804 	addi	r3,fp,-160
 2003f74:	e0be8404 	addi	r2,fp,-1520
 2003f78:	10805e04 	addi	r2,r2,376
 2003f7c:	1809883a 	mov	r4,r3
 2003f80:	100b883a 	mov	r5,r2
 2003f84:	20063280 	call	2006328 <RectCopy>
    								RectCopy(&rcTouchFishDrop, &DeskInfo.buttons_fish[BTN_FISH_DROP].rc);
 2003f88:	e0ffdc04 	addi	r3,fp,-144
 2003f8c:	e0be8404 	addi	r2,fp,-1520
 2003f90:	10806304 	addi	r2,r2,396
 2003f94:	1809883a 	mov	r4,r3
 2003f98:	100b883a 	mov	r5,r2
 2003f9c:	20063280 	call	2006328 <RectCopy>
    								RectCopy(&rcTouchFishStop, &DeskInfo.buttons_fish[BTN_FISH_STOP].rc);
 2003fa0:	e0ffe004 	addi	r3,fp,-128
 2003fa4:	e0be8404 	addi	r2,fp,-1520
 2003fa8:	10806804 	addi	r2,r2,416
 2003fac:	1809883a 	mov	r4,r3
 2003fb0:	100b883a 	mov	r5,r2
 2003fb4:	20063280 	call	2006328 <RectCopy>
    								RectCopy(&rcTouchFishBack, &DeskInfo.buttons_fish[BTN_FISH_BACK].rc);
 2003fb8:	e0ffe404 	addi	r3,fp,-112
 2003fbc:	e0be8404 	addi	r2,fp,-1520
 2003fc0:	10806d04 	addi	r2,r2,436
 2003fc4:	1809883a 	mov	r4,r3
 2003fc8:	100b883a 	mov	r5,r2
 2003fcc:	20063280 	call	2006328 <RectCopy>

    								Touch_EmptyFifo(pTouch);
 2003fd0:	e13ffd17 	ldw	r4,-12(fp)
 2003fd4:	20097c80 	call	20097c8 <Touch_EmptyFifo>

    								while(test){
 2003fd8:	0000da06 	br	2004344 <GUI_ROBINSUN+0x1368>
    									// touch
    									if (Touch_GetXY(pTouch, &X, &Y)){
 2003fdc:	e0ff8c04 	addi	r3,fp,-464
 2003fe0:	e0bf8d04 	addi	r2,fp,-460
 2003fe4:	e13ffd17 	ldw	r4,-12(fp)
 2003fe8:	180b883a 	mov	r5,r3
 2003fec:	100d883a 	mov	r6,r2
 2003ff0:	20098000 	call	2009800 <Touch_GetXY>
 2003ff4:	1000d326 	beq	r2,zero,2004344 <GUI_ROBINSUN+0x1368>
    										PtSet(&Pt, X, Y);
 2003ff8:	e0ff8c17 	ldw	r3,-464(fp)
 2003ffc:	e0bf8d17 	ldw	r2,-460(fp)
 2004000:	e13f8e04 	addi	r4,fp,-456
 2004004:	180b883a 	mov	r5,r3
 2004008:	100d883a 	mov	r6,r2
 200400c:	200617c0 	call	200617c <PtSet>
    										check_button_fish = GUI_ROBINSUN_CheckButton(&DeskInfo, &Pt,DeskInfo.buttons_fish,BTN_NUM_FISH,BTN_NONE_FISH);
 2004010:	e13e8404 	addi	r4,fp,-1520
 2004014:	e17f8e04 	addi	r5,fp,-456
 2004018:	e0be8404 	addi	r2,fp,-1520
 200401c:	10c05e04 	addi	r3,r2,376
 2004020:	00800144 	movi	r2,5
 2004024:	d8800015 	stw	r2,0(sp)
 2004028:	180d883a 	mov	r6,r3
 200402c:	01c00104 	movi	r7,4
 2004030:	20009d40 	call	20009d4 <GUI_ROBINSUN_CheckButton>
 2004034:	e0be8015 	stw	r2,-1536(fp)
    										//printf("signal vaut: %d\n",*signal);
    										if (check_button_fish == BTN_FISH_LIFT){
 2004038:	e0be8017 	ldw	r2,-1536(fp)
 200403c:	10003d1e 	bne	r2,zero,2004134 <GUI_ROBINSUN+0x1158>

    											vid_draw_box (rcTouchFishLift.left, rcTouchFishLift.top, rcTouchFishLift.right, rcTouchFishLift.bottom, BLACK_24, DO_FILL, pDisplay);
 2004040:	e13fd817 	ldw	r4,-160(fp)
 2004044:	e17fda17 	ldw	r5,-152(fp)
 2004048:	e1bfd917 	ldw	r6,-156(fp)
 200404c:	e0ffdb17 	ldw	r3,-148(fp)
 2004050:	d8000015 	stw	zero,0(sp)
 2004054:	00800044 	movi	r2,1
 2004058:	d8800115 	stw	r2,4(sp)
 200405c:	e0bffc17 	ldw	r2,-16(fp)
 2004060:	d8800215 	stw	r2,8(sp)
 2004064:	180f883a 	mov	r7,r3
 2004068:	2006d340 	call	2006d34 <vid_draw_box>
    											vid_draw_box (rcTouchFishLift.left, rcTouchFishLift.top, rcTouchFishLift.right, rcTouchFishLift.bottom, WHITE_24, DO_NOT_FILL, pDisplay);
 200406c:	e13fd817 	ldw	r4,-160(fp)
 2004070:	e17fda17 	ldw	r5,-152(fp)
 2004074:	e1bfd917 	ldw	r6,-156(fp)
 2004078:	e0ffdb17 	ldw	r3,-148(fp)
 200407c:	00804034 	movhi	r2,256
 2004080:	10bfffc4 	addi	r2,r2,-1
 2004084:	d8800015 	stw	r2,0(sp)
 2004088:	d8000115 	stw	zero,4(sp)
 200408c:	e0bffc17 	ldw	r2,-16(fp)
 2004090:	d8800215 	stw	r2,8(sp)
 2004094:	180f883a 	mov	r7,r3
 2004098:	2006d340 	call	2006d34 <vid_draw_box>
    											vid_print_string_alpha(rcTouchFishLift.left+8, rcTouchFishLift.top+(RectHeight(&rcTouchFishLift)-22)/2, WHITE_24, BLACK_24, tahomabold_20, pDisplay, "Lift");
 200409c:	e0bfd817 	ldw	r2,-160(fp)
 20040a0:	14400204 	addi	r17,r2,8
 20040a4:	e43fda17 	ldw	r16,-152(fp)
 20040a8:	e0bfd804 	addi	r2,fp,-160
 20040ac:	1009883a 	mov	r4,r2
 20040b0:	20063c00 	call	20063c0 <RectHeight>
 20040b4:	10bffa84 	addi	r2,r2,-22
 20040b8:	1006d7fa 	srli	r3,r2,31
 20040bc:	1885883a 	add	r2,r3,r2
 20040c0:	1005d07a 	srai	r2,r2,1
 20040c4:	8087883a 	add	r3,r16,r2
 20040c8:	008080f4 	movhi	r2,515
 20040cc:	10af9504 	addi	r2,r2,-16812
 20040d0:	d8800015 	stw	r2,0(sp)
 20040d4:	e0bffc17 	ldw	r2,-16(fp)
 20040d8:	d8800115 	stw	r2,4(sp)
 20040dc:	00808074 	movhi	r2,513
 20040e0:	10879e04 	addi	r2,r2,7800
 20040e4:	d8800215 	stw	r2,8(sp)
 20040e8:	8809883a 	mov	r4,r17
 20040ec:	180b883a 	mov	r5,r3
 20040f0:	01804034 	movhi	r6,256
 20040f4:	31bfffc4 	addi	r6,r6,-1
 20040f8:	000f883a 	mov	r7,zero
 20040fc:	2008b400 	call	2008b40 <vid_print_string_alpha>

    											if(*signal == 21){
 2004100:	e0be8317 	ldw	r2,-1524(fp)
 2004104:	10800017 	ldw	r2,0(r2)
 2004108:	10800558 	cmpnei	r2,r2,21
 200410c:	1000031e 	bne	r2,zero,200411c <GUI_ROBINSUN+0x1140>
    												*signal = 0;
 2004110:	e0be8317 	ldw	r2,-1524(fp)
 2004114:	10000015 	stw	zero,0(r2)
 2004118:	00000306 	br	2004128 <GUI_ROBINSUN+0x114c>
    											}
    											else{
    												*signal = 21;
 200411c:	e0be8317 	ldw	r2,-1524(fp)
 2004120:	00c00544 	movi	r3,21
 2004124:	10c00015 	stw	r3,0(r2)
    											}

    											Touch_EmptyFifo(pTouch);
 2004128:	e13ffd17 	ldw	r4,-12(fp)
 200412c:	20097c80 	call	20097c8 <Touch_EmptyFifo>
 2004130:	00008406 	br	2004344 <GUI_ROBINSUN+0x1368>
    										}
    										else if (check_button_fish == BTN_FISH_DROP){
 2004134:	e0be8017 	ldw	r2,-1536(fp)
 2004138:	10800058 	cmpnei	r2,r2,1
 200413c:	10003d1e 	bne	r2,zero,2004234 <GUI_ROBINSUN+0x1258>

    											vid_draw_box (rcTouchFishDrop.left, rcTouchFishDrop.top, rcTouchFishDrop.right, rcTouchFishDrop.bottom, BLACK_24, DO_FILL, pDisplay);
 2004140:	e13fdc17 	ldw	r4,-144(fp)
 2004144:	e17fde17 	ldw	r5,-136(fp)
 2004148:	e1bfdd17 	ldw	r6,-140(fp)
 200414c:	e0ffdf17 	ldw	r3,-132(fp)
 2004150:	d8000015 	stw	zero,0(sp)
 2004154:	00800044 	movi	r2,1
 2004158:	d8800115 	stw	r2,4(sp)
 200415c:	e0bffc17 	ldw	r2,-16(fp)
 2004160:	d8800215 	stw	r2,8(sp)
 2004164:	180f883a 	mov	r7,r3
 2004168:	2006d340 	call	2006d34 <vid_draw_box>
    											vid_draw_box (rcTouchFishDrop.left, rcTouchFishDrop.top, rcTouchFishDrop.right, rcTouchFishDrop.bottom, WHITE_24, DO_NOT_FILL, pDisplay);
 200416c:	e13fdc17 	ldw	r4,-144(fp)
 2004170:	e17fde17 	ldw	r5,-136(fp)
 2004174:	e1bfdd17 	ldw	r6,-140(fp)
 2004178:	e0ffdf17 	ldw	r3,-132(fp)
 200417c:	00804034 	movhi	r2,256
 2004180:	10bfffc4 	addi	r2,r2,-1
 2004184:	d8800015 	stw	r2,0(sp)
 2004188:	d8000115 	stw	zero,4(sp)
 200418c:	e0bffc17 	ldw	r2,-16(fp)
 2004190:	d8800215 	stw	r2,8(sp)
 2004194:	180f883a 	mov	r7,r3
 2004198:	2006d340 	call	2006d34 <vid_draw_box>
    											vid_print_string_alpha(rcTouchFishDrop.left+8, rcTouchFishDrop.top+(RectHeight(&rcTouchFishDrop)-22)/2, WHITE_24, BLACK_24, tahomabold_20, pDisplay, "Drop");
 200419c:	e0bfdc17 	ldw	r2,-144(fp)
 20041a0:	14400204 	addi	r17,r2,8
 20041a4:	e43fde17 	ldw	r16,-136(fp)
 20041a8:	e0bfdc04 	addi	r2,fp,-144
 20041ac:	1009883a 	mov	r4,r2
 20041b0:	20063c00 	call	20063c0 <RectHeight>
 20041b4:	10bffa84 	addi	r2,r2,-22
 20041b8:	1006d7fa 	srli	r3,r2,31
 20041bc:	1885883a 	add	r2,r3,r2
 20041c0:	1005d07a 	srai	r2,r2,1
 20041c4:	8087883a 	add	r3,r16,r2
 20041c8:	008080f4 	movhi	r2,515
 20041cc:	10af9504 	addi	r2,r2,-16812
 20041d0:	d8800015 	stw	r2,0(sp)
 20041d4:	e0bffc17 	ldw	r2,-16(fp)
 20041d8:	d8800115 	stw	r2,4(sp)
 20041dc:	00808074 	movhi	r2,513
 20041e0:	1087a004 	addi	r2,r2,7808
 20041e4:	d8800215 	stw	r2,8(sp)
 20041e8:	8809883a 	mov	r4,r17
 20041ec:	180b883a 	mov	r5,r3
 20041f0:	01804034 	movhi	r6,256
 20041f4:	31bfffc4 	addi	r6,r6,-1
 20041f8:	000f883a 	mov	r7,zero
 20041fc:	2008b400 	call	2008b40 <vid_print_string_alpha>

    											if(*signal == 22){
 2004200:	e0be8317 	ldw	r2,-1524(fp)
 2004204:	10800017 	ldw	r2,0(r2)
 2004208:	10800598 	cmpnei	r2,r2,22
 200420c:	1000031e 	bne	r2,zero,200421c <GUI_ROBINSUN+0x1240>
    												*signal = 0;
 2004210:	e0be8317 	ldw	r2,-1524(fp)
 2004214:	10000015 	stw	zero,0(r2)
 2004218:	00000306 	br	2004228 <GUI_ROBINSUN+0x124c>
    											}
    											else{
    												*signal = 22;
 200421c:	e0be8317 	ldw	r2,-1524(fp)
 2004220:	00c00584 	movi	r3,22
 2004224:	10c00015 	stw	r3,0(r2)
    											}

												Touch_EmptyFifo(pTouch);
 2004228:	e13ffd17 	ldw	r4,-12(fp)
 200422c:	20097c80 	call	20097c8 <Touch_EmptyFifo>
 2004230:	00004406 	br	2004344 <GUI_ROBINSUN+0x1368>
    										}
    										else if (check_button_fish == BTN_FISH_STOP){
 2004234:	e0be8017 	ldw	r2,-1536(fp)
 2004238:	10800098 	cmpnei	r2,r2,2
 200423c:	1000351e 	bne	r2,zero,2004314 <GUI_ROBINSUN+0x1338>

    											vid_draw_box (rcTouchFishStop.left, rcTouchFishStop.top, rcTouchFishStop.right, rcTouchFishStop.bottom, BLACK_24, DO_FILL, pDisplay);
 2004240:	e13fe017 	ldw	r4,-128(fp)
 2004244:	e17fe217 	ldw	r5,-120(fp)
 2004248:	e1bfe117 	ldw	r6,-124(fp)
 200424c:	e0ffe317 	ldw	r3,-116(fp)
 2004250:	d8000015 	stw	zero,0(sp)
 2004254:	00800044 	movi	r2,1
 2004258:	d8800115 	stw	r2,4(sp)
 200425c:	e0bffc17 	ldw	r2,-16(fp)
 2004260:	d8800215 	stw	r2,8(sp)
 2004264:	180f883a 	mov	r7,r3
 2004268:	2006d340 	call	2006d34 <vid_draw_box>
    											vid_draw_box (rcTouchFishStop.left, rcTouchFishStop.top, rcTouchFishStop.right, rcTouchFishStop.bottom, WHITE_24, DO_NOT_FILL, pDisplay);
 200426c:	e13fe017 	ldw	r4,-128(fp)
 2004270:	e17fe217 	ldw	r5,-120(fp)
 2004274:	e1bfe117 	ldw	r6,-124(fp)
 2004278:	e0ffe317 	ldw	r3,-116(fp)
 200427c:	00804034 	movhi	r2,256
 2004280:	10bfffc4 	addi	r2,r2,-1
 2004284:	d8800015 	stw	r2,0(sp)
 2004288:	d8000115 	stw	zero,4(sp)
 200428c:	e0bffc17 	ldw	r2,-16(fp)
 2004290:	d8800215 	stw	r2,8(sp)
 2004294:	180f883a 	mov	r7,r3
 2004298:	2006d340 	call	2006d34 <vid_draw_box>
    											vid_print_string_alpha(rcTouchFishStop.left+8, rcTouchFishStop.top+(RectHeight(&rcTouchFishStop)-22)/2, WHITE_24, BLACK_24, tahomabold_20, pDisplay, "STOP");
 200429c:	e0bfe017 	ldw	r2,-128(fp)
 20042a0:	14400204 	addi	r17,r2,8
 20042a4:	e43fe217 	ldw	r16,-120(fp)
 20042a8:	e0bfe004 	addi	r2,fp,-128
 20042ac:	1009883a 	mov	r4,r2
 20042b0:	20063c00 	call	20063c0 <RectHeight>
 20042b4:	10bffa84 	addi	r2,r2,-22
 20042b8:	1006d7fa 	srli	r3,r2,31
 20042bc:	1885883a 	add	r2,r3,r2
 20042c0:	1005d07a 	srai	r2,r2,1
 20042c4:	8087883a 	add	r3,r16,r2
 20042c8:	008080f4 	movhi	r2,515
 20042cc:	10af9504 	addi	r2,r2,-16812
 20042d0:	d8800015 	stw	r2,0(sp)
 20042d4:	e0bffc17 	ldw	r2,-16(fp)
 20042d8:	d8800115 	stw	r2,4(sp)
 20042dc:	00808074 	movhi	r2,513
 20042e0:	10879804 	addi	r2,r2,7776
 20042e4:	d8800215 	stw	r2,8(sp)
 20042e8:	8809883a 	mov	r4,r17
 20042ec:	180b883a 	mov	r5,r3
 20042f0:	01804034 	movhi	r6,256
 20042f4:	31bfffc4 	addi	r6,r6,-1
 20042f8:	000f883a 	mov	r7,zero
 20042fc:	2008b400 	call	2008b40 <vid_print_string_alpha>

    											*signal = 0;
 2004300:	e0be8317 	ldw	r2,-1524(fp)
 2004304:	10000015 	stw	zero,0(r2)

    											Touch_EmptyFifo(pTouch);
 2004308:	e13ffd17 	ldw	r4,-12(fp)
 200430c:	20097c80 	call	20097c8 <Touch_EmptyFifo>
 2004310:	00000c06 	br	2004344 <GUI_ROBINSUN+0x1368>

    										}
    										else if (check_button_fish == BTN_FISH_BACK){
 2004314:	e0be8017 	ldw	r2,-1536(fp)
 2004318:	108000d8 	cmpnei	r2,r2,3
 200431c:	1000071e 	bne	r2,zero,200433c <GUI_ROBINSUN+0x1360>

    											*signal=0;
 2004320:	e0be8317 	ldw	r2,-1524(fp)
 2004324:	10000015 	stw	zero,0(r2)
    											tests_or_compet_loop=0;
 2004328:	e03e6f15 	stw	zero,-1604(fp)
    											test=0;
 200432c:	e03e7415 	stw	zero,-1584(fp)

    											Touch_EmptyFifo(pTouch);
 2004330:	e13ffd17 	ldw	r4,-12(fp)
 2004334:	20097c80 	call	20097c8 <Touch_EmptyFifo>
 2004338:	00000206 	br	2004344 <GUI_ROBINSUN+0x1368>
    										}
    										else{
    											Touch_EmptyFifo(pTouch);
 200433c:	e13ffd17 	ldw	r4,-12(fp)
 2004340:	20097c80 	call	20097c8 <Touch_EmptyFifo>
    								RectCopy(&rcTouchFishStop, &DeskInfo.buttons_fish[BTN_FISH_STOP].rc);
    								RectCopy(&rcTouchFishBack, &DeskInfo.buttons_fish[BTN_FISH_BACK].rc);

    								Touch_EmptyFifo(pTouch);

    								while(test){
 2004344:	e0be7417 	ldw	r2,-1584(fp)
 2004348:	103f241e 	bne	r2,zero,2003fdc <__reset+0xfdffc7dc>
 200434c:	0001b506 	br	2004a24 <GUI_ROBINSUN+0x1a48>
    										}
    										//printf("signal vaut: %d\n",*signal);
    									}
    								}
    							}//end if(check_button_tests == BTN_FISH)
    							else if(check_button_tests == BTN_CABINS){
 2004350:	e0be7a17 	ldw	r2,-1560(fp)
 2004354:	108000d8 	cmpnei	r2,r2,3
 2004358:	1000d51e 	bne	r2,zero,20046b0 <GUI_ROBINSUN+0x16d4>
    								test=1;
 200435c:	00800044 	movi	r2,1
 2004360:	e0be7415 	stw	r2,-1584(fp)

    								vid_clean_screen(pDisplay, BLACK_24);
 2004364:	e13ffc17 	ldw	r4,-16(fp)
 2004368:	000b883a 	mov	r5,zero
 200436c:	20064ec0 	call	20064ec <vid_clean_screen>
    								usleep(1000*1000);
 2004370:	010003f4 	movhi	r4,15
 2004374:	21109004 	addi	r4,r4,16960
 2004378:	200ec680 	call	200ec68 <usleep>

    								GUI_ROBINSUN_Init(pDisplay, &DeskInfo, DeskInfo.buttons_cabins, BTN_NUM_CABINS);
 200437c:	e0fe8404 	addi	r3,fp,-1520
 2004380:	e0be8404 	addi	r2,fp,-1520
 2004384:	10807204 	addi	r2,r2,456
 2004388:	e13ffc17 	ldw	r4,-16(fp)
 200438c:	180b883a 	mov	r5,r3
 2004390:	100d883a 	mov	r6,r2
 2004394:	01c000c4 	movi	r7,3
 2004398:	2000b840 	call	2000b84 <GUI_ROBINSUN_Init>
    								GUI_ROBINSUN_Draw(pDisplay, &DeskInfo, DeskInfo.buttons_cabins, BTN_NUM_CABINS, "Go to the cabins", "STOP", "Back", "", "", "");
 200439c:	e17e8404 	addi	r5,fp,-1520
 20043a0:	e0be8404 	addi	r2,fp,-1520
 20043a4:	10c07204 	addi	r3,r2,456
 20043a8:	00808074 	movhi	r2,513
 20043ac:	1087a204 	addi	r2,r2,7816
 20043b0:	d8800015 	stw	r2,0(sp)
 20043b4:	00808074 	movhi	r2,513
 20043b8:	10879804 	addi	r2,r2,7776
 20043bc:	d8800115 	stw	r2,4(sp)
 20043c0:	00808074 	movhi	r2,513
 20043c4:	10876a04 	addi	r2,r2,7592
 20043c8:	d8800215 	stw	r2,8(sp)
 20043cc:	00808074 	movhi	r2,513
 20043d0:	10877d04 	addi	r2,r2,7668
 20043d4:	d8800315 	stw	r2,12(sp)
 20043d8:	00808074 	movhi	r2,513
 20043dc:	10877d04 	addi	r2,r2,7668
 20043e0:	d8800415 	stw	r2,16(sp)
 20043e4:	00808074 	movhi	r2,513
 20043e8:	10877d04 	addi	r2,r2,7668
 20043ec:	d8800515 	stw	r2,20(sp)
 20043f0:	e13ffc17 	ldw	r4,-16(fp)
 20043f4:	180d883a 	mov	r6,r3
 20043f8:	01c000c4 	movi	r7,3
 20043fc:	2000cd40 	call	2000cd4 <GUI_ROBINSUN_Draw>

    								RectCopy(&rcTouchCabinsGo, &DeskInfo.buttons_cabins[BTN_CABINS_GO].rc);
 2004400:	e0ffe804 	addi	r3,fp,-96
 2004404:	e0be8404 	addi	r2,fp,-1520
 2004408:	10807204 	addi	r2,r2,456
 200440c:	1809883a 	mov	r4,r3
 2004410:	100b883a 	mov	r5,r2
 2004414:	20063280 	call	2006328 <RectCopy>
    								RectCopy(&rcTouchCabinsStop, &DeskInfo.buttons_cabins[BTN_CABINS_STOP].rc);
 2004418:	e0ffec04 	addi	r3,fp,-80
 200441c:	e0be8404 	addi	r2,fp,-1520
 2004420:	10807704 	addi	r2,r2,476
 2004424:	1809883a 	mov	r4,r3
 2004428:	100b883a 	mov	r5,r2
 200442c:	20063280 	call	2006328 <RectCopy>

    								Touch_EmptyFifo(pTouch);
 2004430:	e13ffd17 	ldw	r4,-12(fp)
 2004434:	20097c80 	call	20097c8 <Touch_EmptyFifo>

    								while(test){
 2004438:	00009a06 	br	20046a4 <GUI_ROBINSUN+0x16c8>
    									// touch
    									if (Touch_GetXY(pTouch, &X, &Y)){
 200443c:	e0ff8c04 	addi	r3,fp,-464
 2004440:	e0bf8d04 	addi	r2,fp,-460
 2004444:	e13ffd17 	ldw	r4,-12(fp)
 2004448:	180b883a 	mov	r5,r3
 200444c:	100d883a 	mov	r6,r2
 2004450:	20098000 	call	2009800 <Touch_GetXY>
 2004454:	10009326 	beq	r2,zero,20046a4 <GUI_ROBINSUN+0x16c8>
    										PtSet(&Pt, X, Y);
 2004458:	e0ff8c17 	ldw	r3,-464(fp)
 200445c:	e0bf8d17 	ldw	r2,-460(fp)
 2004460:	e13f8e04 	addi	r4,fp,-456
 2004464:	180b883a 	mov	r5,r3
 2004468:	100d883a 	mov	r6,r2
 200446c:	200617c0 	call	200617c <PtSet>
    										check_button_cabins = GUI_ROBINSUN_CheckButton(&DeskInfo, &Pt,DeskInfo.buttons_cabins,BTN_NUM_CABINS,BTN_NONE_CABINS);
 2004470:	e13e8404 	addi	r4,fp,-1520
 2004474:	e17f8e04 	addi	r5,fp,-456
 2004478:	e0be8404 	addi	r2,fp,-1520
 200447c:	10c07204 	addi	r3,r2,456
 2004480:	00800104 	movi	r2,4
 2004484:	d8800015 	stw	r2,0(sp)
 2004488:	180d883a 	mov	r6,r3
 200448c:	01c000c4 	movi	r7,3
 2004490:	20009d40 	call	20009d4 <GUI_ROBINSUN_CheckButton>
 2004494:	e0be8115 	stw	r2,-1532(fp)
    										//printf("signal vaut: %d\n",*signal);
    										if (check_button_cabins == BTN_CABINS_GO){
 2004498:	e0be8117 	ldw	r2,-1532(fp)
 200449c:	10003d1e 	bne	r2,zero,2004594 <GUI_ROBINSUN+0x15b8>

    											vid_draw_box (rcTouchCabinsGo.left, rcTouchCabinsGo.top, rcTouchCabinsGo.right, rcTouchCabinsGo.bottom, BLACK_24, DO_FILL, pDisplay);
 20044a0:	e13fe817 	ldw	r4,-96(fp)
 20044a4:	e17fea17 	ldw	r5,-88(fp)
 20044a8:	e1bfe917 	ldw	r6,-92(fp)
 20044ac:	e0ffeb17 	ldw	r3,-84(fp)
 20044b0:	d8000015 	stw	zero,0(sp)
 20044b4:	00800044 	movi	r2,1
 20044b8:	d8800115 	stw	r2,4(sp)
 20044bc:	e0bffc17 	ldw	r2,-16(fp)
 20044c0:	d8800215 	stw	r2,8(sp)
 20044c4:	180f883a 	mov	r7,r3
 20044c8:	2006d340 	call	2006d34 <vid_draw_box>
    											vid_draw_box (rcTouchCabinsGo.left, rcTouchCabinsGo.top, rcTouchCabinsGo.right, rcTouchCabinsGo.bottom, WHITE_24, DO_NOT_FILL, pDisplay);
 20044cc:	e13fe817 	ldw	r4,-96(fp)
 20044d0:	e17fea17 	ldw	r5,-88(fp)
 20044d4:	e1bfe917 	ldw	r6,-92(fp)
 20044d8:	e0ffeb17 	ldw	r3,-84(fp)
 20044dc:	00804034 	movhi	r2,256
 20044e0:	10bfffc4 	addi	r2,r2,-1
 20044e4:	d8800015 	stw	r2,0(sp)
 20044e8:	d8000115 	stw	zero,4(sp)
 20044ec:	e0bffc17 	ldw	r2,-16(fp)
 20044f0:	d8800215 	stw	r2,8(sp)
 20044f4:	180f883a 	mov	r7,r3
 20044f8:	2006d340 	call	2006d34 <vid_draw_box>
    											vid_print_string_alpha(rcTouchCabinsGo.left+8, rcTouchCabinsGo.top+(RectHeight(&rcTouchCabinsGo)-22)/2, WHITE_24, BLACK_24, tahomabold_20, pDisplay, "Go to the cabins");
 20044fc:	e0bfe817 	ldw	r2,-96(fp)
 2004500:	14400204 	addi	r17,r2,8
 2004504:	e43fea17 	ldw	r16,-88(fp)
 2004508:	e0bfe804 	addi	r2,fp,-96
 200450c:	1009883a 	mov	r4,r2
 2004510:	20063c00 	call	20063c0 <RectHeight>
 2004514:	10bffa84 	addi	r2,r2,-22
 2004518:	1006d7fa 	srli	r3,r2,31
 200451c:	1885883a 	add	r2,r3,r2
 2004520:	1005d07a 	srai	r2,r2,1
 2004524:	8087883a 	add	r3,r16,r2
 2004528:	008080f4 	movhi	r2,515
 200452c:	10af9504 	addi	r2,r2,-16812
 2004530:	d8800015 	stw	r2,0(sp)
 2004534:	e0bffc17 	ldw	r2,-16(fp)
 2004538:	d8800115 	stw	r2,4(sp)
 200453c:	00808074 	movhi	r2,513
 2004540:	1087a204 	addi	r2,r2,7816
 2004544:	d8800215 	stw	r2,8(sp)
 2004548:	8809883a 	mov	r4,r17
 200454c:	180b883a 	mov	r5,r3
 2004550:	01804034 	movhi	r6,256
 2004554:	31bfffc4 	addi	r6,r6,-1
 2004558:	000f883a 	mov	r7,zero
 200455c:	2008b400 	call	2008b40 <vid_print_string_alpha>

    											if(*signal == 31){
 2004560:	e0be8317 	ldw	r2,-1524(fp)
 2004564:	10800017 	ldw	r2,0(r2)
 2004568:	108007d8 	cmpnei	r2,r2,31
 200456c:	1000031e 	bne	r2,zero,200457c <GUI_ROBINSUN+0x15a0>
    												*signal = 0;
 2004570:	e0be8317 	ldw	r2,-1524(fp)
 2004574:	10000015 	stw	zero,0(r2)
 2004578:	00000306 	br	2004588 <GUI_ROBINSUN+0x15ac>
    											}
    											else{
    												*signal = 31;
 200457c:	e0be8317 	ldw	r2,-1524(fp)
 2004580:	00c007c4 	movi	r3,31
 2004584:	10c00015 	stw	r3,0(r2)
    											}

    											Touch_EmptyFifo(pTouch);
 2004588:	e13ffd17 	ldw	r4,-12(fp)
 200458c:	20097c80 	call	20097c8 <Touch_EmptyFifo>
 2004590:	00004406 	br	20046a4 <GUI_ROBINSUN+0x16c8>
    										}
    										else if (check_button_cabins == BTN_CABINS_STOP){
 2004594:	e0be8117 	ldw	r2,-1532(fp)
 2004598:	10800058 	cmpnei	r2,r2,1
 200459c:	1000351e 	bne	r2,zero,2004674 <GUI_ROBINSUN+0x1698>

    											vid_draw_box (rcTouchCabinsStop.left, rcTouchCabinsStop.top, rcTouchCabinsStop.right, rcTouchCabinsStop.bottom, BLACK_24, DO_FILL, pDisplay);
 20045a0:	e13fec17 	ldw	r4,-80(fp)
 20045a4:	e17fee17 	ldw	r5,-72(fp)
 20045a8:	e1bfed17 	ldw	r6,-76(fp)
 20045ac:	e0ffef17 	ldw	r3,-68(fp)
 20045b0:	d8000015 	stw	zero,0(sp)
 20045b4:	00800044 	movi	r2,1
 20045b8:	d8800115 	stw	r2,4(sp)
 20045bc:	e0bffc17 	ldw	r2,-16(fp)
 20045c0:	d8800215 	stw	r2,8(sp)
 20045c4:	180f883a 	mov	r7,r3
 20045c8:	2006d340 	call	2006d34 <vid_draw_box>
    											vid_draw_box (rcTouchCabinsStop.left, rcTouchCabinsStop.top, rcTouchCabinsStop.right, rcTouchCabinsStop.bottom, WHITE_24, DO_NOT_FILL, pDisplay);
 20045cc:	e13fec17 	ldw	r4,-80(fp)
 20045d0:	e17fee17 	ldw	r5,-72(fp)
 20045d4:	e1bfed17 	ldw	r6,-76(fp)
 20045d8:	e0ffef17 	ldw	r3,-68(fp)
 20045dc:	00804034 	movhi	r2,256
 20045e0:	10bfffc4 	addi	r2,r2,-1
 20045e4:	d8800015 	stw	r2,0(sp)
 20045e8:	d8000115 	stw	zero,4(sp)
 20045ec:	e0bffc17 	ldw	r2,-16(fp)
 20045f0:	d8800215 	stw	r2,8(sp)
 20045f4:	180f883a 	mov	r7,r3
 20045f8:	2006d340 	call	2006d34 <vid_draw_box>
    											vid_print_string_alpha(rcTouchCabinsStop.left+8, rcTouchCabinsStop.top+(RectHeight(&rcTouchCabinsStop)-22)/2, WHITE_24, BLACK_24, tahomabold_20, pDisplay, "STOP");
 20045fc:	e0bfec17 	ldw	r2,-80(fp)
 2004600:	14400204 	addi	r17,r2,8
 2004604:	e43fee17 	ldw	r16,-72(fp)
 2004608:	e0bfec04 	addi	r2,fp,-80
 200460c:	1009883a 	mov	r4,r2
 2004610:	20063c00 	call	20063c0 <RectHeight>
 2004614:	10bffa84 	addi	r2,r2,-22
 2004618:	1006d7fa 	srli	r3,r2,31
 200461c:	1885883a 	add	r2,r3,r2
 2004620:	1005d07a 	srai	r2,r2,1
 2004624:	8087883a 	add	r3,r16,r2
 2004628:	008080f4 	movhi	r2,515
 200462c:	10af9504 	addi	r2,r2,-16812
 2004630:	d8800015 	stw	r2,0(sp)
 2004634:	e0bffc17 	ldw	r2,-16(fp)
 2004638:	d8800115 	stw	r2,4(sp)
 200463c:	00808074 	movhi	r2,513
 2004640:	10879804 	addi	r2,r2,7776
 2004644:	d8800215 	stw	r2,8(sp)
 2004648:	8809883a 	mov	r4,r17
 200464c:	180b883a 	mov	r5,r3
 2004650:	01804034 	movhi	r6,256
 2004654:	31bfffc4 	addi	r6,r6,-1
 2004658:	000f883a 	mov	r7,zero
 200465c:	2008b400 	call	2008b40 <vid_print_string_alpha>

    											*signal = 0;
 2004660:	e0be8317 	ldw	r2,-1524(fp)
 2004664:	10000015 	stw	zero,0(r2)

    											Touch_EmptyFifo(pTouch);
 2004668:	e13ffd17 	ldw	r4,-12(fp)
 200466c:	20097c80 	call	20097c8 <Touch_EmptyFifo>
 2004670:	00000c06 	br	20046a4 <GUI_ROBINSUN+0x16c8>

    										}
    										else if (check_button_cabins == BTN_CABINS_BACK){
 2004674:	e0be8117 	ldw	r2,-1532(fp)
 2004678:	10800098 	cmpnei	r2,r2,2
 200467c:	1000071e 	bne	r2,zero,200469c <GUI_ROBINSUN+0x16c0>

    											*signal=0;
 2004680:	e0be8317 	ldw	r2,-1524(fp)
 2004684:	10000015 	stw	zero,0(r2)
    											tests_or_compet_loop=0;
 2004688:	e03e6f15 	stw	zero,-1604(fp)
    											test=0;
 200468c:	e03e7415 	stw	zero,-1584(fp)

    											Touch_EmptyFifo(pTouch);
 2004690:	e13ffd17 	ldw	r4,-12(fp)
 2004694:	20097c80 	call	20097c8 <Touch_EmptyFifo>
 2004698:	00000206 	br	20046a4 <GUI_ROBINSUN+0x16c8>
    										}
    										else{
    											Touch_EmptyFifo(pTouch);
 200469c:	e13ffd17 	ldw	r4,-12(fp)
 20046a0:	20097c80 	call	20097c8 <Touch_EmptyFifo>
    								RectCopy(&rcTouchCabinsGo, &DeskInfo.buttons_cabins[BTN_CABINS_GO].rc);
    								RectCopy(&rcTouchCabinsStop, &DeskInfo.buttons_cabins[BTN_CABINS_STOP].rc);

    								Touch_EmptyFifo(pTouch);

    								while(test){
 20046a4:	e0be7417 	ldw	r2,-1584(fp)
 20046a8:	103f641e 	bne	r2,zero,200443c <__reset+0xfdffcc3c>
 20046ac:	0000dd06 	br	2004a24 <GUI_ROBINSUN+0x1a48>
    										}
    										//printf("signal vaut: %d\n",*signal);
    									}
    								}
    							}//end if(check_button_tests == BTN_CABINS)
    							else if (check_button_tests == BTN_PARASOL){
 20046b0:	e0be7a17 	ldw	r2,-1560(fp)
 20046b4:	10800118 	cmpnei	r2,r2,4
 20046b8:	1000d41e 	bne	r2,zero,2004a0c <GUI_ROBINSUN+0x1a30>
    								test=1;
 20046bc:	00800044 	movi	r2,1
 20046c0:	e0be7415 	stw	r2,-1584(fp)

    								//vid_print_string_alpha(rcTouchPurple.left+8, rcTouchPurple.top+(RectHeight(&rcTouchPurple)-22)/2, WHITE_24, BLACK_24, tahomabold_20, pDisplay, "Purple OK");
    								vid_clean_screen(pDisplay, BLACK_24);
 20046c4:	e13ffc17 	ldw	r4,-16(fp)
 20046c8:	000b883a 	mov	r5,zero
 20046cc:	20064ec0 	call	20064ec <vid_clean_screen>
    								usleep(1000*1000);
 20046d0:	010003f4 	movhi	r4,15
 20046d4:	21109004 	addi	r4,r4,16960
 20046d8:	200ec680 	call	200ec68 <usleep>

    								GUI_ROBINSUN_Init(pDisplay, &DeskInfo, DeskInfo.buttons_parasol, BTN_NUM_PARASOL);
 20046dc:	e0fe8404 	addi	r3,fp,-1520
 20046e0:	e0be8404 	addi	r2,fp,-1520
 20046e4:	10808104 	addi	r2,r2,516
 20046e8:	e13ffc17 	ldw	r4,-16(fp)
 20046ec:	180b883a 	mov	r5,r3
 20046f0:	100d883a 	mov	r6,r2
 20046f4:	01c000c4 	movi	r7,3
 20046f8:	2000b840 	call	2000b84 <GUI_ROBINSUN_Init>
    								GUI_ROBINSUN_Draw(pDisplay, &DeskInfo, DeskInfo.buttons_parasol, BTN_NUM_PARASOL, "Trigger", "STOP", "Back", "", "", "");
 20046fc:	e17e8404 	addi	r5,fp,-1520
 2004700:	e0be8404 	addi	r2,fp,-1520
 2004704:	10c08104 	addi	r3,r2,516
 2004708:	00808074 	movhi	r2,513
 200470c:	1087a704 	addi	r2,r2,7836
 2004710:	d8800015 	stw	r2,0(sp)
 2004714:	00808074 	movhi	r2,513
 2004718:	10879804 	addi	r2,r2,7776
 200471c:	d8800115 	stw	r2,4(sp)
 2004720:	00808074 	movhi	r2,513
 2004724:	10876a04 	addi	r2,r2,7592
 2004728:	d8800215 	stw	r2,8(sp)
 200472c:	00808074 	movhi	r2,513
 2004730:	10877d04 	addi	r2,r2,7668
 2004734:	d8800315 	stw	r2,12(sp)
 2004738:	00808074 	movhi	r2,513
 200473c:	10877d04 	addi	r2,r2,7668
 2004740:	d8800415 	stw	r2,16(sp)
 2004744:	00808074 	movhi	r2,513
 2004748:	10877d04 	addi	r2,r2,7668
 200474c:	d8800515 	stw	r2,20(sp)
 2004750:	e13ffc17 	ldw	r4,-16(fp)
 2004754:	180d883a 	mov	r6,r3
 2004758:	01c000c4 	movi	r7,3
 200475c:	2000cd40 	call	2000cd4 <GUI_ROBINSUN_Draw>

    								RectCopy(&rcTouchParasolTrigger, &DeskInfo.buttons_parasol[BTN_PARASOL_TRIGGER].rc);
 2004760:	e0fff004 	addi	r3,fp,-64
 2004764:	e0be8404 	addi	r2,fp,-1520
 2004768:	10808104 	addi	r2,r2,516
 200476c:	1809883a 	mov	r4,r3
 2004770:	100b883a 	mov	r5,r2
 2004774:	20063280 	call	2006328 <RectCopy>
    								RectCopy(&rcTouchParasolStop, &DeskInfo.buttons_parasol[BTN_PARASOL_STOP].rc);
 2004778:	e0fff404 	addi	r3,fp,-48
 200477c:	e0be8404 	addi	r2,fp,-1520
 2004780:	10808604 	addi	r2,r2,536
 2004784:	1809883a 	mov	r4,r3
 2004788:	100b883a 	mov	r5,r2
 200478c:	20063280 	call	2006328 <RectCopy>

    								Touch_EmptyFifo(pTouch);
 2004790:	e13ffd17 	ldw	r4,-12(fp)
 2004794:	20097c80 	call	20097c8 <Touch_EmptyFifo>

    								while(test){
 2004798:	00009906 	br	2004a00 <GUI_ROBINSUN+0x1a24>
    									// touch
    									if (Touch_GetXY(pTouch, &X, &Y)){
 200479c:	e0ff8c04 	addi	r3,fp,-464
 20047a0:	e0bf8d04 	addi	r2,fp,-460
 20047a4:	e13ffd17 	ldw	r4,-12(fp)
 20047a8:	180b883a 	mov	r5,r3
 20047ac:	100d883a 	mov	r6,r2
 20047b0:	20098000 	call	2009800 <Touch_GetXY>
 20047b4:	10009226 	beq	r2,zero,2004a00 <GUI_ROBINSUN+0x1a24>
    										PtSet(&Pt, X, Y);
 20047b8:	e0ff8c17 	ldw	r3,-464(fp)
 20047bc:	e0bf8d17 	ldw	r2,-460(fp)
 20047c0:	e13f8e04 	addi	r4,fp,-456
 20047c4:	180b883a 	mov	r5,r3
 20047c8:	100d883a 	mov	r6,r2
 20047cc:	200617c0 	call	200617c <PtSet>
    										check_button_parasol = GUI_ROBINSUN_CheckButton(&DeskInfo, &Pt,DeskInfo.buttons_parasol,BTN_NUM_PARASOL,BTN_NONE_PARASOL);
 20047d0:	e13e8404 	addi	r4,fp,-1520
 20047d4:	e17f8e04 	addi	r5,fp,-456
 20047d8:	e0be8404 	addi	r2,fp,-1520
 20047dc:	10c08104 	addi	r3,r2,516
 20047e0:	00800104 	movi	r2,4
 20047e4:	d8800015 	stw	r2,0(sp)
 20047e8:	180d883a 	mov	r6,r3
 20047ec:	01c000c4 	movi	r7,3
 20047f0:	20009d40 	call	20009d4 <GUI_ROBINSUN_CheckButton>
 20047f4:	e0be8215 	stw	r2,-1528(fp)
    										//printf("signal vaut: %d\n",*signal);
    										if (check_button_parasol == BTN_PARASOL_TRIGGER){
 20047f8:	e0be8217 	ldw	r2,-1528(fp)
 20047fc:	10003c1e 	bne	r2,zero,20048f0 <GUI_ROBINSUN+0x1914>

    											vid_draw_box (rcTouchParasolTrigger.left, rcTouchParasolTrigger.top, rcTouchParasolTrigger.right, rcTouchParasolTrigger.bottom, BLACK_24, DO_FILL, pDisplay);
 2004800:	e13ff017 	ldw	r4,-64(fp)
 2004804:	e17ff217 	ldw	r5,-56(fp)
 2004808:	e1bff117 	ldw	r6,-60(fp)
 200480c:	e0fff317 	ldw	r3,-52(fp)
 2004810:	d8000015 	stw	zero,0(sp)
 2004814:	00800044 	movi	r2,1
 2004818:	d8800115 	stw	r2,4(sp)
 200481c:	e0bffc17 	ldw	r2,-16(fp)
 2004820:	d8800215 	stw	r2,8(sp)
 2004824:	180f883a 	mov	r7,r3
 2004828:	2006d340 	call	2006d34 <vid_draw_box>
    											vid_draw_box (rcTouchParasolTrigger.left, rcTouchParasolTrigger.top, rcTouchParasolTrigger.right, rcTouchParasolTrigger.bottom, WHITE_24, DO_NOT_FILL, pDisplay);
 200482c:	e13ff017 	ldw	r4,-64(fp)
 2004830:	e17ff217 	ldw	r5,-56(fp)
 2004834:	e1bff117 	ldw	r6,-60(fp)
 2004838:	e0fff317 	ldw	r3,-52(fp)
 200483c:	00804034 	movhi	r2,256
 2004840:	10bfffc4 	addi	r2,r2,-1
 2004844:	d8800015 	stw	r2,0(sp)
 2004848:	d8000115 	stw	zero,4(sp)
 200484c:	e0bffc17 	ldw	r2,-16(fp)
 2004850:	d8800215 	stw	r2,8(sp)
 2004854:	180f883a 	mov	r7,r3
 2004858:	2006d340 	call	2006d34 <vid_draw_box>
    											vid_print_string_alpha(rcTouchParasolTrigger.left+8, rcTouchParasolTrigger.top+(RectHeight(&rcTouchParasolTrigger)-22)/2, WHITE_24, BLACK_24, tahomabold_20, pDisplay, "Trigger");
 200485c:	e0bff017 	ldw	r2,-64(fp)
 2004860:	14400204 	addi	r17,r2,8
 2004864:	e43ff217 	ldw	r16,-56(fp)
 2004868:	e0bff004 	addi	r2,fp,-64
 200486c:	1009883a 	mov	r4,r2
 2004870:	20063c00 	call	20063c0 <RectHeight>
 2004874:	10bffa84 	addi	r2,r2,-22
 2004878:	1006d7fa 	srli	r3,r2,31
 200487c:	1885883a 	add	r2,r3,r2
 2004880:	1005d07a 	srai	r2,r2,1
 2004884:	8087883a 	add	r3,r16,r2
 2004888:	008080f4 	movhi	r2,515
 200488c:	10af9504 	addi	r2,r2,-16812
 2004890:	d8800015 	stw	r2,0(sp)
 2004894:	e0bffc17 	ldw	r2,-16(fp)
 2004898:	d8800115 	stw	r2,4(sp)
 200489c:	00808074 	movhi	r2,513
 20048a0:	1087a704 	addi	r2,r2,7836
 20048a4:	d8800215 	stw	r2,8(sp)
 20048a8:	8809883a 	mov	r4,r17
 20048ac:	180b883a 	mov	r5,r3
 20048b0:	01804034 	movhi	r6,256
 20048b4:	31bfffc4 	addi	r6,r6,-1
 20048b8:	000f883a 	mov	r7,zero
 20048bc:	2008b400 	call	2008b40 <vid_print_string_alpha>

    											if(*signal == 41){
 20048c0:	e0be8317 	ldw	r2,-1524(fp)
 20048c4:	10800017 	ldw	r2,0(r2)
 20048c8:	10800a58 	cmpnei	r2,r2,41
 20048cc:	1000031e 	bne	r2,zero,20048dc <GUI_ROBINSUN+0x1900>
    												*signal = 0;
 20048d0:	e0be8317 	ldw	r2,-1524(fp)
 20048d4:	10000015 	stw	zero,0(r2)
 20048d8:	00000306 	br	20048e8 <GUI_ROBINSUN+0x190c>
    											}
    											else{
    												*signal = 41;
 20048dc:	e0be8317 	ldw	r2,-1524(fp)
 20048e0:	00c00a44 	movi	r3,41
 20048e4:	10c00015 	stw	r3,0(r2)
    											}

    											Touch_EmptyFifo(pTouch);
 20048e8:	e13ffd17 	ldw	r4,-12(fp)
 20048ec:	20097c80 	call	20097c8 <Touch_EmptyFifo>
    										}
    										if (check_button_parasol == BTN_PARASOL_STOP){
 20048f0:	e0be8217 	ldw	r2,-1528(fp)
 20048f4:	10800058 	cmpnei	r2,r2,1
 20048f8:	1000351e 	bne	r2,zero,20049d0 <GUI_ROBINSUN+0x19f4>

    											vid_draw_box (rcTouchParasolStop.left, rcTouchParasolStop.top, rcTouchParasolStop.right, rcTouchParasolStop.bottom, BLACK_24, DO_FILL, pDisplay);
 20048fc:	e13ff417 	ldw	r4,-48(fp)
 2004900:	e17ff617 	ldw	r5,-40(fp)
 2004904:	e1bff517 	ldw	r6,-44(fp)
 2004908:	e0fff717 	ldw	r3,-36(fp)
 200490c:	d8000015 	stw	zero,0(sp)
 2004910:	00800044 	movi	r2,1
 2004914:	d8800115 	stw	r2,4(sp)
 2004918:	e0bffc17 	ldw	r2,-16(fp)
 200491c:	d8800215 	stw	r2,8(sp)
 2004920:	180f883a 	mov	r7,r3
 2004924:	2006d340 	call	2006d34 <vid_draw_box>
    											vid_draw_box (rcTouchParasolStop.left, rcTouchParasolStop.top, rcTouchParasolStop.right, rcTouchParasolStop.bottom, WHITE_24, DO_NOT_FILL, pDisplay);
 2004928:	e13ff417 	ldw	r4,-48(fp)
 200492c:	e17ff617 	ldw	r5,-40(fp)
 2004930:	e1bff517 	ldw	r6,-44(fp)
 2004934:	e0fff717 	ldw	r3,-36(fp)
 2004938:	00804034 	movhi	r2,256
 200493c:	10bfffc4 	addi	r2,r2,-1
 2004940:	d8800015 	stw	r2,0(sp)
 2004944:	d8000115 	stw	zero,4(sp)
 2004948:	e0bffc17 	ldw	r2,-16(fp)
 200494c:	d8800215 	stw	r2,8(sp)
 2004950:	180f883a 	mov	r7,r3
 2004954:	2006d340 	call	2006d34 <vid_draw_box>
    											vid_print_string_alpha(rcTouchParasolStop.left+8, rcTouchParasolStop.top+(RectHeight(&rcTouchParasolStop)-22)/2, WHITE_24, BLACK_24, tahomabold_20, pDisplay, "STOP");
 2004958:	e0bff417 	ldw	r2,-48(fp)
 200495c:	14400204 	addi	r17,r2,8
 2004960:	e43ff617 	ldw	r16,-40(fp)
 2004964:	e0bff404 	addi	r2,fp,-48
 2004968:	1009883a 	mov	r4,r2
 200496c:	20063c00 	call	20063c0 <RectHeight>
 2004970:	10bffa84 	addi	r2,r2,-22
 2004974:	1006d7fa 	srli	r3,r2,31
 2004978:	1885883a 	add	r2,r3,r2
 200497c:	1005d07a 	srai	r2,r2,1
 2004980:	8087883a 	add	r3,r16,r2
 2004984:	008080f4 	movhi	r2,515
 2004988:	10af9504 	addi	r2,r2,-16812
 200498c:	d8800015 	stw	r2,0(sp)
 2004990:	e0bffc17 	ldw	r2,-16(fp)
 2004994:	d8800115 	stw	r2,4(sp)
 2004998:	00808074 	movhi	r2,513
 200499c:	10879804 	addi	r2,r2,7776
 20049a0:	d8800215 	stw	r2,8(sp)
 20049a4:	8809883a 	mov	r4,r17
 20049a8:	180b883a 	mov	r5,r3
 20049ac:	01804034 	movhi	r6,256
 20049b0:	31bfffc4 	addi	r6,r6,-1
 20049b4:	000f883a 	mov	r7,zero
 20049b8:	2008b400 	call	2008b40 <vid_print_string_alpha>

    											*signal=0;
 20049bc:	e0be8317 	ldw	r2,-1524(fp)
 20049c0:	10000015 	stw	zero,0(r2)

    											Touch_EmptyFifo(pTouch);
 20049c4:	e13ffd17 	ldw	r4,-12(fp)
 20049c8:	20097c80 	call	20097c8 <Touch_EmptyFifo>
 20049cc:	00000c06 	br	2004a00 <GUI_ROBINSUN+0x1a24>
    										}
    										else if (check_button_parasol == BTN_PARASOL_BACK){
 20049d0:	e0be8217 	ldw	r2,-1528(fp)
 20049d4:	10800098 	cmpnei	r2,r2,2
 20049d8:	1000071e 	bne	r2,zero,20049f8 <GUI_ROBINSUN+0x1a1c>
    											*signal=0;
 20049dc:	e0be8317 	ldw	r2,-1524(fp)
 20049e0:	10000015 	stw	zero,0(r2)
    											tests_or_compet_loop=0;
 20049e4:	e03e6f15 	stw	zero,-1604(fp)
    											test=0;
 20049e8:	e03e7415 	stw	zero,-1584(fp)

    											Touch_EmptyFifo(pTouch);
 20049ec:	e13ffd17 	ldw	r4,-12(fp)
 20049f0:	20097c80 	call	20097c8 <Touch_EmptyFifo>
 20049f4:	00000206 	br	2004a00 <GUI_ROBINSUN+0x1a24>
    										}
    										else{
    											Touch_EmptyFifo(pTouch);
 20049f8:	e13ffd17 	ldw	r4,-12(fp)
 20049fc:	20097c80 	call	20097c8 <Touch_EmptyFifo>
    								RectCopy(&rcTouchParasolTrigger, &DeskInfo.buttons_parasol[BTN_PARASOL_TRIGGER].rc);
    								RectCopy(&rcTouchParasolStop, &DeskInfo.buttons_parasol[BTN_PARASOL_STOP].rc);

    								Touch_EmptyFifo(pTouch);

    								while(test){
 2004a00:	e0be7417 	ldw	r2,-1584(fp)
 2004a04:	103f651e 	bne	r2,zero,200479c <__reset+0xfdffcf9c>
 2004a08:	00000606 	br	2004a24 <GUI_ROBINSUN+0x1a48>
    										//printf("signal vaut: %d\n",*signal);
    									}
    								}
    							}

    							else if (check_button_tests == BTN_BACK_TESTS){
 2004a0c:	e0be7a17 	ldw	r2,-1560(fp)
 2004a10:	10800158 	cmpnei	r2,r2,5
 2004a14:	1000031e 	bne	r2,zero,2004a24 <GUI_ROBINSUN+0x1a48>
    								desk=0;
 2004a18:	e03e6d15 	stw	zero,-1612(fp)
    								tests_or_compet=0;
 2004a1c:	e03e6e15 	stw	zero,-1608(fp)
    								tests_or_compet_loop=0;
 2004a20:	e03e6f15 	stw	zero,-1604(fp)

    					GUI_ROBINSUN_Init(pDisplay, &DeskInfo, DeskInfo.buttons_tests, BTN_NUM_TESTS);
    					GUI_ROBINSUN_Draw(pDisplay, &DeskInfo, DeskInfo.buttons_tests, BTN_NUM_TESTS, "Move", "Blocks", "Fish", "Cabins", "Parasol", "Back");

    					tests_or_compet_loop=1;
    					while(tests_or_compet_loop){
 2004a24:	e0be6f17 	ldw	r2,-1604(fp)
 2004a28:	103a171e 	bne	r2,zero,2003288 <__reset+0xfdffba88>

    			check_button_menu = GUI_ROBINSUN_CheckButton(&DeskInfo, &Pt,DeskInfo.buttons,BTN_NUM,BTN_NONE);
    			if (check_button_menu == BTN_TEST){

    				tests_or_compet=1;
    				while(tests_or_compet){
 2004a2c:	e0be6e17 	ldw	r2,-1608(fp)
 2004a30:	1039e91e 	bne	r2,zero,20031d8 <__reset+0xfdffb9d8>
 2004a34:	0002f306 	br	2005604 <GUI_ROBINSUN+0x2628>
    							}
    						}
    					}//end while(tests_loop)
    				}//end while(tests)
    			}//end if (check_button_menu == BTN_TEST)
    			else if (check_button_menu == BTN_COMPET){
 2004a38:	e0be7917 	ldw	r2,-1564(fp)
 2004a3c:	10800058 	cmpnei	r2,r2,1
 2004a40:	1002f01e 	bne	r2,zero,2005604 <GUI_ROBINSUN+0x2628>
    				//vid_print_string_alpha(rcTouchCompet.left+8, rcTouchCompet.top+(RectHeight(&rcTouchCompet)-22)/2, BLACK_24, WHITE_24, tahomabold_20, pDisplay, "Competition OK");
    				*signal = 0;
 2004a44:	e0be8317 	ldw	r2,-1524(fp)
 2004a48:	10000015 	stw	zero,0(r2)
    				tests_or_compet=1;
 2004a4c:	00800044 	movi	r2,1
 2004a50:	e0be6e15 	stw	r2,-1608(fp)

    				while(tests_or_compet){
 2004a54:	0002e906 	br	20055fc <GUI_ROBINSUN+0x2620>
    					vid_clean_screen(pDisplay, BLACK_24);
 2004a58:	e13ffc17 	ldw	r4,-16(fp)
 2004a5c:	000b883a 	mov	r5,zero
 2004a60:	20064ec0 	call	20064ec <vid_clean_screen>
    					usleep(1000*1000);
 2004a64:	010003f4 	movhi	r4,15
 2004a68:	21109004 	addi	r4,r4,16960
 2004a6c:	200ec680 	call	200ec68 <usleep>
    					Touch_EmptyFifo(pTouch);
 2004a70:	e13ffd17 	ldw	r4,-12(fp)
 2004a74:	20097c80 	call	20097c8 <Touch_EmptyFifo>

    					GUI_ROBINSUN_CompetitionChoice1_Init(pDisplay, &DeskInfo);
 2004a78:	e0be8404 	addi	r2,fp,-1520
 2004a7c:	e13ffc17 	ldw	r4,-16(fp)
 2004a80:	100b883a 	mov	r5,r2
 2004a84:	20012600 	call	2001260 <GUI_ROBINSUN_CompetitionChoice1_Init>
    					GUI_ROBINSUN_CompetitionChoice1_Draw(pDisplay, &DeskInfo);
 2004a88:	e0be8404 	addi	r2,fp,-1520
 2004a8c:	e13ffc17 	ldw	r4,-16(fp)
 2004a90:	100b883a 	mov	r5,r2
 2004a94:	20014f80 	call	20014f8 <GUI_ROBINSUN_CompetitionChoice1_Draw>

    					color=0;
 2004a98:	e03e7515 	stw	zero,-1580(fp)
    					strategy=0;
 2004a9c:	e03e7615 	stw	zero,-1576(fp)
    					opponent=0;
 2004aa0:	e03e7715 	stw	zero,-1572(fp)
    					start=0;
 2004aa4:	e03e7815 	stw	zero,-1568(fp)

    					tests_or_compet_loop=1;
 2004aa8:	00800044 	movi	r2,1
 2004aac:	e0be6f15 	stw	r2,-1604(fp)
    					while(tests_or_compet_loop){
 2004ab0:	0002d006 	br	20055f4 <GUI_ROBINSUN+0x2618>
    						//touch
    						if (Touch_GetXY(pTouch, &X, &Y)){
 2004ab4:	e0ff8c04 	addi	r3,fp,-464
 2004ab8:	e0bf8d04 	addi	r2,fp,-460
 2004abc:	e13ffd17 	ldw	r4,-12(fp)
 2004ac0:	180b883a 	mov	r5,r3
 2004ac4:	100d883a 	mov	r6,r2
 2004ac8:	20098000 	call	2009800 <Touch_GetXY>
 2004acc:	1002c926 	beq	r2,zero,20055f4 <GUI_ROBINSUN+0x2618>
    							PtSet(&Pt, X, Y);
 2004ad0:	e0ff8c17 	ldw	r3,-464(fp)
 2004ad4:	e0bf8d17 	ldw	r2,-460(fp)
 2004ad8:	e13f8e04 	addi	r4,fp,-456
 2004adc:	180b883a 	mov	r5,r3
 2004ae0:	100d883a 	mov	r6,r2
 2004ae4:	200617c0 	call	200617c <PtSet>
    							check_button_compet = GUI_ROBINSUN_CheckButton(&DeskInfo, &Pt,DeskInfo.buttons_competitionchoice1,10,11);
 2004ae8:	e13e8404 	addi	r4,fp,-1520
 2004aec:	e17f8e04 	addi	r5,fp,-456
 2004af0:	e0be8404 	addi	r2,fp,-1520
 2004af4:	10c09004 	addi	r3,r2,576
 2004af8:	008002c4 	movi	r2,11
 2004afc:	d8800015 	stw	r2,0(sp)
 2004b00:	180d883a 	mov	r6,r3
 2004b04:	01c00284 	movi	r7,10
 2004b08:	20009d40 	call	20009d4 <GUI_ROBINSUN_CheckButton>
 2004b0c:	e0be7b15 	stw	r2,-1556(fp)

    							if(check_button_compet == 1 || check_button_compet == 2){
 2004b10:	e0be7b17 	ldw	r2,-1556(fp)
 2004b14:	10800060 	cmpeqi	r2,r2,1
 2004b18:	1000031e 	bne	r2,zero,2004b28 <GUI_ROBINSUN+0x1b4c>
 2004b1c:	e0be7b17 	ldw	r2,-1556(fp)
 2004b20:	10800098 	cmpnei	r2,r2,2
 2004b24:	1000081e 	bne	r2,zero,2004b48 <GUI_ROBINSUN+0x1b6c>
    								color = check_button_compet;
 2004b28:	e0be7b17 	ldw	r2,-1556(fp)
 2004b2c:	e0be7515 	stw	r2,-1580(fp)

    								usleep(100*1000);
 2004b30:	010000b4 	movhi	r4,2
 2004b34:	2121a804 	addi	r4,r4,-31072
 2004b38:	200ec680 	call	200ec68 <usleep>
    								Touch_EmptyFifo(pTouch);
 2004b3c:	e13ffd17 	ldw	r4,-12(fp)
 2004b40:	20097c80 	call	20097c8 <Touch_EmptyFifo>
 2004b44:	0002ab06 	br	20055f4 <GUI_ROBINSUN+0x2618>
    							}
    							else if(check_button_compet == 4 || check_button_compet == 5 || check_button_compet == 6 || check_button_compet == 7){
 2004b48:	e0be7b17 	ldw	r2,-1556(fp)
 2004b4c:	10800120 	cmpeqi	r2,r2,4
 2004b50:	1000091e 	bne	r2,zero,2004b78 <GUI_ROBINSUN+0x1b9c>
 2004b54:	e0be7b17 	ldw	r2,-1556(fp)
 2004b58:	10800160 	cmpeqi	r2,r2,5
 2004b5c:	1000061e 	bne	r2,zero,2004b78 <GUI_ROBINSUN+0x1b9c>
 2004b60:	e0be7b17 	ldw	r2,-1556(fp)
 2004b64:	108001a0 	cmpeqi	r2,r2,6
 2004b68:	1000031e 	bne	r2,zero,2004b78 <GUI_ROBINSUN+0x1b9c>
 2004b6c:	e0be7b17 	ldw	r2,-1556(fp)
 2004b70:	108001d8 	cmpnei	r2,r2,7
 2004b74:	1000091e 	bne	r2,zero,2004b9c <GUI_ROBINSUN+0x1bc0>
    								strategy = check_button_compet - 3;
 2004b78:	e0be7b17 	ldw	r2,-1556(fp)
 2004b7c:	10bfff44 	addi	r2,r2,-3
 2004b80:	e0be7615 	stw	r2,-1576(fp)

    								usleep(100*1000);
 2004b84:	010000b4 	movhi	r4,2
 2004b88:	2121a804 	addi	r4,r4,-31072
 2004b8c:	200ec680 	call	200ec68 <usleep>
    								Touch_EmptyFifo(pTouch);
 2004b90:	e13ffd17 	ldw	r4,-12(fp)
 2004b94:	20097c80 	call	20097c8 <Touch_EmptyFifo>
 2004b98:	00029606 	br	20055f4 <GUI_ROBINSUN+0x2618>
    							}
    							else if(check_button_compet == 8){
 2004b9c:	e0be7b17 	ldw	r2,-1556(fp)
 2004ba0:	10800218 	cmpnei	r2,r2,8
 2004ba4:	1000041e 	bne	r2,zero,2004bb8 <GUI_ROBINSUN+0x1bdc>
    								desk=0;
 2004ba8:	e03e6d15 	stw	zero,-1612(fp)
    								tests_or_compet=0;
 2004bac:	e03e6e15 	stw	zero,-1608(fp)
    								tests_or_compet_loop=0;
 2004bb0:	e03e6f15 	stw	zero,-1604(fp)
 2004bb4:	00028f06 	br	20055f4 <GUI_ROBINSUN+0x2618>
    							}
    							else if(check_button_compet == 9){
 2004bb8:	e0be7b17 	ldw	r2,-1556(fp)
 2004bbc:	10800258 	cmpnei	r2,r2,9
 2004bc0:	10028c1e 	bne	r2,zero,20055f4 <GUI_ROBINSUN+0x2618>
    								if(color==0){
 2004bc4:	e0be7517 	ldw	r2,-1580(fp)
 2004bc8:	1000731e 	bne	r2,zero,2004d98 <GUI_ROBINSUN+0x1dbc>
    									vid_clean_screen(pDisplay, BLACK_24);
 2004bcc:	e13ffc17 	ldw	r4,-16(fp)
 2004bd0:	000b883a 	mov	r5,zero
 2004bd4:	20064ec0 	call	20064ec <vid_clean_screen>
    									usleep(1000*1000);
 2004bd8:	010003f4 	movhi	r4,15
 2004bdc:	21109004 	addi	r4,r4,16960
 2004be0:	200ec680 	call	200ec68 <usleep>
    									Touch_EmptyFifo(pTouch);
 2004be4:	e13ffd17 	ldw	r4,-12(fp)
 2004be8:	20097c80 	call	20097c8 <Touch_EmptyFifo>

    									RectSet(&DeskInfo.rcDisp, 2, pDisplay->width-2, 2, pDisplay->height-2);
 2004bec:	e0bffc17 	ldw	r2,-16(fp)
 2004bf0:	10800117 	ldw	r2,4(r2)
 2004bf4:	10ffff84 	addi	r3,r2,-2
 2004bf8:	e0bffc17 	ldw	r2,-16(fp)
 2004bfc:	10800217 	ldw	r2,8(r2)
 2004c00:	10bfff84 	addi	r2,r2,-2
 2004c04:	e13e8404 	addi	r4,fp,-1520
 2004c08:	d8800015 	stw	r2,0(sp)
 2004c0c:	01400084 	movi	r5,2
 2004c10:	180d883a 	mov	r6,r3
 2004c14:	01c00084 	movi	r7,2
 2004c18:	20061bc0 	call	20061bc <RectSet>

    									rc.top = 2 + (pDisplay->height-87)/2;
 2004c1c:	e0bffc17 	ldw	r2,-16(fp)
 2004c20:	10800217 	ldw	r2,8(r2)
 2004c24:	10bfea44 	addi	r2,r2,-87
 2004c28:	1006d7fa 	srli	r3,r2,31
 2004c2c:	1885883a 	add	r2,r3,r2
 2004c30:	1005d07a 	srai	r2,r2,1
 2004c34:	10800084 	addi	r2,r2,2
 2004c38:	e0bf9215 	stw	r2,-440(fp)
    									rc.bottom = rc.top + 85;
 2004c3c:	e0bf9217 	ldw	r2,-440(fp)
 2004c40:	10801544 	addi	r2,r2,85
 2004c44:	e0bf9315 	stw	r2,-436(fp)
    									rc.left = 20;
 2004c48:	00800504 	movi	r2,20
 2004c4c:	e0bf9015 	stw	r2,-448(fp)
    									rc.right = pDisplay->width-20;
 2004c50:	e0bffc17 	ldw	r2,-16(fp)
 2004c54:	10800117 	ldw	r2,4(r2)
 2004c58:	10bffb04 	addi	r2,r2,-20
 2004c5c:	e0bf9115 	stw	r2,-444(fp)

    									vid_draw_box (rc.left, rc.top, rc.right, rc.bottom, BLACK_24, DO_FILL, pDisplay);
 2004c60:	e13f9017 	ldw	r4,-448(fp)
 2004c64:	e17f9217 	ldw	r5,-440(fp)
 2004c68:	e1bf9117 	ldw	r6,-444(fp)
 2004c6c:	e0ff9317 	ldw	r3,-436(fp)
 2004c70:	d8000015 	stw	zero,0(sp)
 2004c74:	00800044 	movi	r2,1
 2004c78:	d8800115 	stw	r2,4(sp)
 2004c7c:	e0bffc17 	ldw	r2,-16(fp)
 2004c80:	d8800215 	stw	r2,8(sp)
 2004c84:	180f883a 	mov	r7,r3
 2004c88:	2006d340 	call	2006d34 <vid_draw_box>
    									vid_draw_box (rc.left, rc.top, rc.right, rc.bottom, WHITE_24, DO_NOT_FILL, pDisplay);
 2004c8c:	e13f9017 	ldw	r4,-448(fp)
 2004c90:	e17f9217 	ldw	r5,-440(fp)
 2004c94:	e1bf9117 	ldw	r6,-444(fp)
 2004c98:	e0ff9317 	ldw	r3,-436(fp)
 2004c9c:	00804034 	movhi	r2,256
 2004ca0:	10bfffc4 	addi	r2,r2,-1
 2004ca4:	d8800015 	stw	r2,0(sp)
 2004ca8:	d8000115 	stw	zero,4(sp)
 2004cac:	e0bffc17 	ldw	r2,-16(fp)
 2004cb0:	d8800215 	stw	r2,8(sp)
 2004cb4:	180f883a 	mov	r7,r3
 2004cb8:	2006d340 	call	2006d34 <vid_draw_box>
    									vid_print_string_alpha(rc.left+8, rc.top+(RectHeight(&rc)-44)/2, WHITE_24, BLACK_24, tahomabold_20, pDisplay, "Please, select");
 2004cbc:	e0bf9017 	ldw	r2,-448(fp)
 2004cc0:	14400204 	addi	r17,r2,8
 2004cc4:	e43f9217 	ldw	r16,-440(fp)
 2004cc8:	e0bf9004 	addi	r2,fp,-448
 2004ccc:	1009883a 	mov	r4,r2
 2004cd0:	20063c00 	call	20063c0 <RectHeight>
 2004cd4:	10bff504 	addi	r2,r2,-44
 2004cd8:	1006d7fa 	srli	r3,r2,31
 2004cdc:	1885883a 	add	r2,r3,r2
 2004ce0:	1005d07a 	srai	r2,r2,1
 2004ce4:	8087883a 	add	r3,r16,r2
 2004ce8:	008080f4 	movhi	r2,515
 2004cec:	10af9504 	addi	r2,r2,-16812
 2004cf0:	d8800015 	stw	r2,0(sp)
 2004cf4:	e0bffc17 	ldw	r2,-16(fp)
 2004cf8:	d8800115 	stw	r2,4(sp)
 2004cfc:	00808074 	movhi	r2,513
 2004d00:	1087a904 	addi	r2,r2,7844
 2004d04:	d8800215 	stw	r2,8(sp)
 2004d08:	8809883a 	mov	r4,r17
 2004d0c:	180b883a 	mov	r5,r3
 2004d10:	01804034 	movhi	r6,256
 2004d14:	31bfffc4 	addi	r6,r6,-1
 2004d18:	000f883a 	mov	r7,zero
 2004d1c:	2008b400 	call	2008b40 <vid_print_string_alpha>
    									vid_print_string_alpha(rc.left+8, rc.top+(RectHeight(&rc)-44)+5, WHITE_24, BLACK_24, tahomabold_20, pDisplay, "a team before.");
 2004d20:	e0bf9017 	ldw	r2,-448(fp)
 2004d24:	14400204 	addi	r17,r2,8
 2004d28:	e43f9217 	ldw	r16,-440(fp)
 2004d2c:	e0bf9004 	addi	r2,fp,-448
 2004d30:	1009883a 	mov	r4,r2
 2004d34:	20063c00 	call	20063c0 <RectHeight>
 2004d38:	10bff504 	addi	r2,r2,-44
 2004d3c:	8085883a 	add	r2,r16,r2
 2004d40:	10c00144 	addi	r3,r2,5
 2004d44:	008080f4 	movhi	r2,515
 2004d48:	10af9504 	addi	r2,r2,-16812
 2004d4c:	d8800015 	stw	r2,0(sp)
 2004d50:	e0bffc17 	ldw	r2,-16(fp)
 2004d54:	d8800115 	stw	r2,4(sp)
 2004d58:	00808074 	movhi	r2,513
 2004d5c:	1087ad04 	addi	r2,r2,7860
 2004d60:	d8800215 	stw	r2,8(sp)
 2004d64:	8809883a 	mov	r4,r17
 2004d68:	180b883a 	mov	r5,r3
 2004d6c:	01804034 	movhi	r6,256
 2004d70:	31bfffc4 	addi	r6,r6,-1
 2004d74:	000f883a 	mov	r7,zero
 2004d78:	2008b400 	call	2008b40 <vid_print_string_alpha>
    									usleep(2*1000*1000);
 2004d7c:	010007f4 	movhi	r4,31
 2004d80:	21212004 	addi	r4,r4,-31616
 2004d84:	200ec680 	call	200ec68 <usleep>

    									tests_or_compet_loop=0;
 2004d88:	e03e6f15 	stw	zero,-1604(fp)
    									Touch_EmptyFifo(pTouch);
 2004d8c:	e13ffd17 	ldw	r4,-12(fp)
 2004d90:	20097c80 	call	20097c8 <Touch_EmptyFifo>
 2004d94:	00021706 	br	20055f4 <GUI_ROBINSUN+0x2618>
    								}
    								else if(strategy==0){
 2004d98:	e0be7617 	ldw	r2,-1576(fp)
 2004d9c:	1000731e 	bne	r2,zero,2004f6c <GUI_ROBINSUN+0x1f90>
    									vid_clean_screen(pDisplay, BLACK_24);
 2004da0:	e13ffc17 	ldw	r4,-16(fp)
 2004da4:	000b883a 	mov	r5,zero
 2004da8:	20064ec0 	call	20064ec <vid_clean_screen>
    									usleep(1000*1000);
 2004dac:	010003f4 	movhi	r4,15
 2004db0:	21109004 	addi	r4,r4,16960
 2004db4:	200ec680 	call	200ec68 <usleep>
    									Touch_EmptyFifo(pTouch);
 2004db8:	e13ffd17 	ldw	r4,-12(fp)
 2004dbc:	20097c80 	call	20097c8 <Touch_EmptyFifo>

    									RectSet(&DeskInfo.rcDisp, 2, pDisplay->width-2, 2, pDisplay->height-2);
 2004dc0:	e0bffc17 	ldw	r2,-16(fp)
 2004dc4:	10800117 	ldw	r2,4(r2)
 2004dc8:	10ffff84 	addi	r3,r2,-2
 2004dcc:	e0bffc17 	ldw	r2,-16(fp)
 2004dd0:	10800217 	ldw	r2,8(r2)
 2004dd4:	10bfff84 	addi	r2,r2,-2
 2004dd8:	e13e8404 	addi	r4,fp,-1520
 2004ddc:	d8800015 	stw	r2,0(sp)
 2004de0:	01400084 	movi	r5,2
 2004de4:	180d883a 	mov	r6,r3
 2004de8:	01c00084 	movi	r7,2
 2004dec:	20061bc0 	call	20061bc <RectSet>

    									rc.top = 2 + (pDisplay->height-87)/2;
 2004df0:	e0bffc17 	ldw	r2,-16(fp)
 2004df4:	10800217 	ldw	r2,8(r2)
 2004df8:	10bfea44 	addi	r2,r2,-87
 2004dfc:	1006d7fa 	srli	r3,r2,31
 2004e00:	1885883a 	add	r2,r3,r2
 2004e04:	1005d07a 	srai	r2,r2,1
 2004e08:	10800084 	addi	r2,r2,2
 2004e0c:	e0bf9215 	stw	r2,-440(fp)
    									rc.bottom = rc.top + 85;
 2004e10:	e0bf9217 	ldw	r2,-440(fp)
 2004e14:	10801544 	addi	r2,r2,85
 2004e18:	e0bf9315 	stw	r2,-436(fp)
    									rc.left = 20;
 2004e1c:	00800504 	movi	r2,20
 2004e20:	e0bf9015 	stw	r2,-448(fp)
    									rc.right = pDisplay->width-20;
 2004e24:	e0bffc17 	ldw	r2,-16(fp)
 2004e28:	10800117 	ldw	r2,4(r2)
 2004e2c:	10bffb04 	addi	r2,r2,-20
 2004e30:	e0bf9115 	stw	r2,-444(fp)

    									vid_draw_box (rc.left, rc.top, rc.right, rc.bottom, BLACK_24, DO_FILL, pDisplay);
 2004e34:	e13f9017 	ldw	r4,-448(fp)
 2004e38:	e17f9217 	ldw	r5,-440(fp)
 2004e3c:	e1bf9117 	ldw	r6,-444(fp)
 2004e40:	e0ff9317 	ldw	r3,-436(fp)
 2004e44:	d8000015 	stw	zero,0(sp)
 2004e48:	00800044 	movi	r2,1
 2004e4c:	d8800115 	stw	r2,4(sp)
 2004e50:	e0bffc17 	ldw	r2,-16(fp)
 2004e54:	d8800215 	stw	r2,8(sp)
 2004e58:	180f883a 	mov	r7,r3
 2004e5c:	2006d340 	call	2006d34 <vid_draw_box>
    									vid_draw_box (rc.left, rc.top, rc.right, rc.bottom, WHITE_24, DO_NOT_FILL, pDisplay);
 2004e60:	e13f9017 	ldw	r4,-448(fp)
 2004e64:	e17f9217 	ldw	r5,-440(fp)
 2004e68:	e1bf9117 	ldw	r6,-444(fp)
 2004e6c:	e0ff9317 	ldw	r3,-436(fp)
 2004e70:	00804034 	movhi	r2,256
 2004e74:	10bfffc4 	addi	r2,r2,-1
 2004e78:	d8800015 	stw	r2,0(sp)
 2004e7c:	d8000115 	stw	zero,4(sp)
 2004e80:	e0bffc17 	ldw	r2,-16(fp)
 2004e84:	d8800215 	stw	r2,8(sp)
 2004e88:	180f883a 	mov	r7,r3
 2004e8c:	2006d340 	call	2006d34 <vid_draw_box>
    									vid_print_string_alpha(rc.left+8, rc.top+(RectHeight(&rc)-44)/2, WHITE_24, BLACK_24, tahomabold_20, pDisplay, "Please, select");
 2004e90:	e0bf9017 	ldw	r2,-448(fp)
 2004e94:	14400204 	addi	r17,r2,8
 2004e98:	e43f9217 	ldw	r16,-440(fp)
 2004e9c:	e0bf9004 	addi	r2,fp,-448
 2004ea0:	1009883a 	mov	r4,r2
 2004ea4:	20063c00 	call	20063c0 <RectHeight>
 2004ea8:	10bff504 	addi	r2,r2,-44
 2004eac:	1006d7fa 	srli	r3,r2,31
 2004eb0:	1885883a 	add	r2,r3,r2
 2004eb4:	1005d07a 	srai	r2,r2,1
 2004eb8:	8087883a 	add	r3,r16,r2
 2004ebc:	008080f4 	movhi	r2,515
 2004ec0:	10af9504 	addi	r2,r2,-16812
 2004ec4:	d8800015 	stw	r2,0(sp)
 2004ec8:	e0bffc17 	ldw	r2,-16(fp)
 2004ecc:	d8800115 	stw	r2,4(sp)
 2004ed0:	00808074 	movhi	r2,513
 2004ed4:	1087a904 	addi	r2,r2,7844
 2004ed8:	d8800215 	stw	r2,8(sp)
 2004edc:	8809883a 	mov	r4,r17
 2004ee0:	180b883a 	mov	r5,r3
 2004ee4:	01804034 	movhi	r6,256
 2004ee8:	31bfffc4 	addi	r6,r6,-1
 2004eec:	000f883a 	mov	r7,zero
 2004ef0:	2008b400 	call	2008b40 <vid_print_string_alpha>
    									vid_print_string_alpha(rc.left+8, rc.top+(RectHeight(&rc)-44)+5, WHITE_24, BLACK_24, tahomabold_20, pDisplay, "a strategy before.");
 2004ef4:	e0bf9017 	ldw	r2,-448(fp)
 2004ef8:	14400204 	addi	r17,r2,8
 2004efc:	e43f9217 	ldw	r16,-440(fp)
 2004f00:	e0bf9004 	addi	r2,fp,-448
 2004f04:	1009883a 	mov	r4,r2
 2004f08:	20063c00 	call	20063c0 <RectHeight>
 2004f0c:	10bff504 	addi	r2,r2,-44
 2004f10:	8085883a 	add	r2,r16,r2
 2004f14:	10c00144 	addi	r3,r2,5
 2004f18:	008080f4 	movhi	r2,515
 2004f1c:	10af9504 	addi	r2,r2,-16812
 2004f20:	d8800015 	stw	r2,0(sp)
 2004f24:	e0bffc17 	ldw	r2,-16(fp)
 2004f28:	d8800115 	stw	r2,4(sp)
 2004f2c:	00808074 	movhi	r2,513
 2004f30:	1087b104 	addi	r2,r2,7876
 2004f34:	d8800215 	stw	r2,8(sp)
 2004f38:	8809883a 	mov	r4,r17
 2004f3c:	180b883a 	mov	r5,r3
 2004f40:	01804034 	movhi	r6,256
 2004f44:	31bfffc4 	addi	r6,r6,-1
 2004f48:	000f883a 	mov	r7,zero
 2004f4c:	2008b400 	call	2008b40 <vid_print_string_alpha>
    									usleep(2*1000*1000);
 2004f50:	010007f4 	movhi	r4,31
 2004f54:	21212004 	addi	r4,r4,-31616
 2004f58:	200ec680 	call	200ec68 <usleep>

    									tests_or_compet_loop=0;
 2004f5c:	e03e6f15 	stw	zero,-1604(fp)
    									Touch_EmptyFifo(pTouch);
 2004f60:	e13ffd17 	ldw	r4,-12(fp)
 2004f64:	20097c80 	call	20097c8 <Touch_EmptyFifo>
 2004f68:	0001a206 	br	20055f4 <GUI_ROBINSUN+0x2618>
    								}
    								else{
    									// Team defined
    									*signal = *signal + color;
 2004f6c:	e0be8317 	ldw	r2,-1524(fp)
 2004f70:	10c00017 	ldw	r3,0(r2)
 2004f74:	e0be7517 	ldw	r2,-1580(fp)
 2004f78:	1887883a 	add	r3,r3,r2
 2004f7c:	e0be8317 	ldw	r2,-1524(fp)
 2004f80:	10c00015 	stw	r3,0(r2)

    									// Strategy defined
    									if(strategy==1)
 2004f84:	e0be7617 	ldw	r2,-1576(fp)
 2004f88:	10800058 	cmpnei	r2,r2,1
 2004f8c:	1000061e 	bne	r2,zero,2004fa8 <GUI_ROBINSUN+0x1fcc>
    										*signal = *signal + 4;
 2004f90:	e0be8317 	ldw	r2,-1524(fp)
 2004f94:	10800017 	ldw	r2,0(r2)
 2004f98:	10c00104 	addi	r3,r2,4
 2004f9c:	e0be8317 	ldw	r2,-1524(fp)
 2004fa0:	10c00015 	stw	r3,0(r2)
 2004fa4:	00001a06 	br	2005010 <GUI_ROBINSUN+0x2034>
    									else if(strategy==2)
 2004fa8:	e0be7617 	ldw	r2,-1576(fp)
 2004fac:	10800098 	cmpnei	r2,r2,2
 2004fb0:	1000061e 	bne	r2,zero,2004fcc <GUI_ROBINSUN+0x1ff0>
    										*signal = *signal + 8;
 2004fb4:	e0be8317 	ldw	r2,-1524(fp)
 2004fb8:	10800017 	ldw	r2,0(r2)
 2004fbc:	10c00204 	addi	r3,r2,8
 2004fc0:	e0be8317 	ldw	r2,-1524(fp)
 2004fc4:	10c00015 	stw	r3,0(r2)
 2004fc8:	00001106 	br	2005010 <GUI_ROBINSUN+0x2034>
    									else if(strategy==3)
 2004fcc:	e0be7617 	ldw	r2,-1576(fp)
 2004fd0:	108000d8 	cmpnei	r2,r2,3
 2004fd4:	1000061e 	bne	r2,zero,2004ff0 <GUI_ROBINSUN+0x2014>
    										*signal = *signal + 16;
 2004fd8:	e0be8317 	ldw	r2,-1524(fp)
 2004fdc:	10800017 	ldw	r2,0(r2)
 2004fe0:	10c00404 	addi	r3,r2,16
 2004fe4:	e0be8317 	ldw	r2,-1524(fp)
 2004fe8:	10c00015 	stw	r3,0(r2)
 2004fec:	00000806 	br	2005010 <GUI_ROBINSUN+0x2034>
    									else if(strategy==4)
 2004ff0:	e0be7617 	ldw	r2,-1576(fp)
 2004ff4:	10800118 	cmpnei	r2,r2,4
 2004ff8:	1000051e 	bne	r2,zero,2005010 <GUI_ROBINSUN+0x2034>
    										*signal = *signal + 32;
 2004ffc:	e0be8317 	ldw	r2,-1524(fp)
 2005000:	10800017 	ldw	r2,0(r2)
 2005004:	10c00804 	addi	r3,r2,32
 2005008:	e0be8317 	ldw	r2,-1524(fp)
 200500c:	10c00015 	stw	r3,0(r2)

    									// Let's continue...
    									compet2=1;
 2005010:	00800044 	movi	r2,1
 2005014:	e0be7015 	stw	r2,-1600(fp)
    									while(compet2){
 2005018:	00017406 	br	20055ec <GUI_ROBINSUN+0x2610>
    										vid_clean_screen(pDisplay, BLACK_24);
 200501c:	e13ffc17 	ldw	r4,-16(fp)
 2005020:	000b883a 	mov	r5,zero
 2005024:	20064ec0 	call	20064ec <vid_clean_screen>
    										usleep(1000*1000);
 2005028:	010003f4 	movhi	r4,15
 200502c:	21109004 	addi	r4,r4,16960
 2005030:	200ec680 	call	200ec68 <usleep>
											Touch_EmptyFifo(pTouch);
 2005034:	e13ffd17 	ldw	r4,-12(fp)
 2005038:	20097c80 	call	20097c8 <Touch_EmptyFifo>

											GUI_ROBINSUN_CompetitionChoice2_Init(pDisplay, &DeskInfo);
 200503c:	e0be8404 	addi	r2,fp,-1520
 2005040:	e13ffc17 	ldw	r4,-16(fp)
 2005044:	100b883a 	mov	r5,r2
 2005048:	2001cb80 	call	2001cb8 <GUI_ROBINSUN_CompetitionChoice2_Init>
											GUI_ROBINSUN_CompetitionChoice2_Draw(pDisplay, &DeskInfo);
 200504c:	e0be8404 	addi	r2,fp,-1520
 2005050:	e13ffc17 	ldw	r4,-16(fp)
 2005054:	100b883a 	mov	r5,r2
 2005058:	2001f500 	call	2001f50 <GUI_ROBINSUN_CompetitionChoice2_Draw>

											compet2_loop=1;
 200505c:	00800044 	movi	r2,1
 2005060:	e0be7115 	stw	r2,-1596(fp)
											while(compet2_loop){
 2005064:	00015f06 	br	20055e4 <GUI_ROBINSUN+0x2608>
												//touch
												if (Touch_GetXY(pTouch, &X, &Y)){
 2005068:	e0ff8c04 	addi	r3,fp,-464
 200506c:	e0bf8d04 	addi	r2,fp,-460
 2005070:	e13ffd17 	ldw	r4,-12(fp)
 2005074:	180b883a 	mov	r5,r3
 2005078:	100d883a 	mov	r6,r2
 200507c:	20098000 	call	2009800 <Touch_GetXY>
 2005080:	10015826 	beq	r2,zero,20055e4 <GUI_ROBINSUN+0x2608>
													PtSet(&Pt, X, Y);
 2005084:	e0ff8c17 	ldw	r3,-464(fp)
 2005088:	e0bf8d17 	ldw	r2,-460(fp)
 200508c:	e13f8e04 	addi	r4,fp,-456
 2005090:	180b883a 	mov	r5,r3
 2005094:	100d883a 	mov	r6,r2
 2005098:	200617c0 	call	200617c <PtSet>
													check_button_compet2 = GUI_ROBINSUN_CheckButton(&DeskInfo, &Pt,DeskInfo.buttons_competitionchoice2,6,7);
 200509c:	e13e8404 	addi	r4,fp,-1520
 20050a0:	e17f8e04 	addi	r5,fp,-456
 20050a4:	e0be8404 	addi	r2,fp,-1520
 20050a8:	10c0c204 	addi	r3,r2,776
 20050ac:	008001c4 	movi	r2,7
 20050b0:	d8800015 	stw	r2,0(sp)
 20050b4:	180d883a 	mov	r6,r3
 20050b8:	01c00184 	movi	r7,6
 20050bc:	20009d40 	call	20009d4 <GUI_ROBINSUN_CheckButton>
 20050c0:	e0be7c15 	stw	r2,-1552(fp)

													if(check_button_compet2 == 1){
 20050c4:	e0be7c17 	ldw	r2,-1552(fp)
 20050c8:	10800058 	cmpnei	r2,r2,1
 20050cc:	1000081e 	bne	r2,zero,20050f0 <GUI_ROBINSUN+0x2114>
														opponent = 1;
 20050d0:	00800044 	movi	r2,1
 20050d4:	e0be7715 	stw	r2,-1572(fp)

														usleep(100*1000);
 20050d8:	010000b4 	movhi	r4,2
 20050dc:	2121a804 	addi	r4,r4,-31072
 20050e0:	200ec680 	call	200ec68 <usleep>
														Touch_EmptyFifo(pTouch);
 20050e4:	e13ffd17 	ldw	r4,-12(fp)
 20050e8:	20097c80 	call	20097c8 <Touch_EmptyFifo>
 20050ec:	00013d06 	br	20055e4 <GUI_ROBINSUN+0x2608>
													}
													else if(check_button_compet2 == 2){
 20050f0:	e0be7c17 	ldw	r2,-1552(fp)
 20050f4:	10800098 	cmpnei	r2,r2,2
 20050f8:	1000081e 	bne	r2,zero,200511c <GUI_ROBINSUN+0x2140>
														opponent = 2;
 20050fc:	00800084 	movi	r2,2
 2005100:	e0be7715 	stw	r2,-1572(fp)

														usleep(100*1000);
 2005104:	010000b4 	movhi	r4,2
 2005108:	2121a804 	addi	r4,r4,-31072
 200510c:	200ec680 	call	200ec68 <usleep>
														Touch_EmptyFifo(pTouch);
 2005110:	e13ffd17 	ldw	r4,-12(fp)
 2005114:	20097c80 	call	20097c8 <Touch_EmptyFifo>
 2005118:	00013206 	br	20055e4 <GUI_ROBINSUN+0x2608>
													}
													else if(check_button_compet2 == 4){
 200511c:	e0be7c17 	ldw	r2,-1552(fp)
 2005120:	10800118 	cmpnei	r2,r2,4
 2005124:	1000061e 	bne	r2,zero,2005140 <GUI_ROBINSUN+0x2164>
														*signal=0;
 2005128:	e0be8317 	ldw	r2,-1524(fp)
 200512c:	10000015 	stw	zero,0(r2)

														tests_or_compet_loop=0;
 2005130:	e03e6f15 	stw	zero,-1604(fp)
														compet2=0;
 2005134:	e03e7015 	stw	zero,-1600(fp)
														compet2_loop=0;
 2005138:	e03e7115 	stw	zero,-1596(fp)
 200513c:	00012906 	br	20055e4 <GUI_ROBINSUN+0x2608>
													}
													else if(check_button_compet2 == 5){
 2005140:	e0be7c17 	ldw	r2,-1552(fp)
 2005144:	10800158 	cmpnei	r2,r2,5
 2005148:	1001261e 	bne	r2,zero,20055e4 <GUI_ROBINSUN+0x2608>
														if(opponent==0){
 200514c:	e0be7717 	ldw	r2,-1572(fp)
 2005150:	1000731e 	bne	r2,zero,2005320 <GUI_ROBINSUN+0x2344>
															vid_clean_screen(pDisplay, BLACK_24);
 2005154:	e13ffc17 	ldw	r4,-16(fp)
 2005158:	000b883a 	mov	r5,zero
 200515c:	20064ec0 	call	20064ec <vid_clean_screen>
															usleep(1000*1000);
 2005160:	010003f4 	movhi	r4,15
 2005164:	21109004 	addi	r4,r4,16960
 2005168:	200ec680 	call	200ec68 <usleep>
															Touch_EmptyFifo(pTouch);
 200516c:	e13ffd17 	ldw	r4,-12(fp)
 2005170:	20097c80 	call	20097c8 <Touch_EmptyFifo>

															RectSet(&DeskInfo.rcDisp, 2, pDisplay->width-2, 2, pDisplay->height-2);
 2005174:	e0bffc17 	ldw	r2,-16(fp)
 2005178:	10800117 	ldw	r2,4(r2)
 200517c:	10ffff84 	addi	r3,r2,-2
 2005180:	e0bffc17 	ldw	r2,-16(fp)
 2005184:	10800217 	ldw	r2,8(r2)
 2005188:	10bfff84 	addi	r2,r2,-2
 200518c:	e13e8404 	addi	r4,fp,-1520
 2005190:	d8800015 	stw	r2,0(sp)
 2005194:	01400084 	movi	r5,2
 2005198:	180d883a 	mov	r6,r3
 200519c:	01c00084 	movi	r7,2
 20051a0:	20061bc0 	call	20061bc <RectSet>

															rc.top = 2 + (pDisplay->height-87)/2;
 20051a4:	e0bffc17 	ldw	r2,-16(fp)
 20051a8:	10800217 	ldw	r2,8(r2)
 20051ac:	10bfea44 	addi	r2,r2,-87
 20051b0:	1006d7fa 	srli	r3,r2,31
 20051b4:	1885883a 	add	r2,r3,r2
 20051b8:	1005d07a 	srai	r2,r2,1
 20051bc:	10800084 	addi	r2,r2,2
 20051c0:	e0bf9215 	stw	r2,-440(fp)
															rc.bottom = rc.top + 85;
 20051c4:	e0bf9217 	ldw	r2,-440(fp)
 20051c8:	10801544 	addi	r2,r2,85
 20051cc:	e0bf9315 	stw	r2,-436(fp)
															rc.left = 20;
 20051d0:	00800504 	movi	r2,20
 20051d4:	e0bf9015 	stw	r2,-448(fp)
															rc.right = pDisplay->width-20;
 20051d8:	e0bffc17 	ldw	r2,-16(fp)
 20051dc:	10800117 	ldw	r2,4(r2)
 20051e0:	10bffb04 	addi	r2,r2,-20
 20051e4:	e0bf9115 	stw	r2,-444(fp)

															vid_draw_box (rc.left, rc.top, rc.right, rc.bottom, BLACK_24, DO_FILL, pDisplay);
 20051e8:	e13f9017 	ldw	r4,-448(fp)
 20051ec:	e17f9217 	ldw	r5,-440(fp)
 20051f0:	e1bf9117 	ldw	r6,-444(fp)
 20051f4:	e0ff9317 	ldw	r3,-436(fp)
 20051f8:	d8000015 	stw	zero,0(sp)
 20051fc:	00800044 	movi	r2,1
 2005200:	d8800115 	stw	r2,4(sp)
 2005204:	e0bffc17 	ldw	r2,-16(fp)
 2005208:	d8800215 	stw	r2,8(sp)
 200520c:	180f883a 	mov	r7,r3
 2005210:	2006d340 	call	2006d34 <vid_draw_box>
															vid_draw_box (rc.left, rc.top, rc.right, rc.bottom, WHITE_24, DO_NOT_FILL, pDisplay);
 2005214:	e13f9017 	ldw	r4,-448(fp)
 2005218:	e17f9217 	ldw	r5,-440(fp)
 200521c:	e1bf9117 	ldw	r6,-444(fp)
 2005220:	e0ff9317 	ldw	r3,-436(fp)
 2005224:	00804034 	movhi	r2,256
 2005228:	10bfffc4 	addi	r2,r2,-1
 200522c:	d8800015 	stw	r2,0(sp)
 2005230:	d8000115 	stw	zero,4(sp)
 2005234:	e0bffc17 	ldw	r2,-16(fp)
 2005238:	d8800215 	stw	r2,8(sp)
 200523c:	180f883a 	mov	r7,r3
 2005240:	2006d340 	call	2006d34 <vid_draw_box>
															vid_print_string_alpha(rc.left+8, rc.top+(RectHeight(&rc)-44)/2, WHITE_24, BLACK_24, tahomabold_20, pDisplay, "Please, select the");
 2005244:	e0bf9017 	ldw	r2,-448(fp)
 2005248:	14400204 	addi	r17,r2,8
 200524c:	e43f9217 	ldw	r16,-440(fp)
 2005250:	e0bf9004 	addi	r2,fp,-448
 2005254:	1009883a 	mov	r4,r2
 2005258:	20063c00 	call	20063c0 <RectHeight>
 200525c:	10bff504 	addi	r2,r2,-44
 2005260:	1006d7fa 	srli	r3,r2,31
 2005264:	1885883a 	add	r2,r3,r2
 2005268:	1005d07a 	srai	r2,r2,1
 200526c:	8087883a 	add	r3,r16,r2
 2005270:	008080f4 	movhi	r2,515
 2005274:	10af9504 	addi	r2,r2,-16812
 2005278:	d8800015 	stw	r2,0(sp)
 200527c:	e0bffc17 	ldw	r2,-16(fp)
 2005280:	d8800115 	stw	r2,4(sp)
 2005284:	00808074 	movhi	r2,513
 2005288:	1087b604 	addi	r2,r2,7896
 200528c:	d8800215 	stw	r2,8(sp)
 2005290:	8809883a 	mov	r4,r17
 2005294:	180b883a 	mov	r5,r3
 2005298:	01804034 	movhi	r6,256
 200529c:	31bfffc4 	addi	r6,r6,-1
 20052a0:	000f883a 	mov	r7,zero
 20052a4:	2008b400 	call	2008b40 <vid_print_string_alpha>
															vid_print_string_alpha(rc.left+8, rc.top+(RectHeight(&rc)-44)+5, WHITE_24, BLACK_24, tahomabold_20, pDisplay, "nb of opponents.");
 20052a8:	e0bf9017 	ldw	r2,-448(fp)
 20052ac:	14400204 	addi	r17,r2,8
 20052b0:	e43f9217 	ldw	r16,-440(fp)
 20052b4:	e0bf9004 	addi	r2,fp,-448
 20052b8:	1009883a 	mov	r4,r2
 20052bc:	20063c00 	call	20063c0 <RectHeight>
 20052c0:	10bff504 	addi	r2,r2,-44
 20052c4:	8085883a 	add	r2,r16,r2
 20052c8:	10c00144 	addi	r3,r2,5
 20052cc:	008080f4 	movhi	r2,515
 20052d0:	10af9504 	addi	r2,r2,-16812
 20052d4:	d8800015 	stw	r2,0(sp)
 20052d8:	e0bffc17 	ldw	r2,-16(fp)
 20052dc:	d8800115 	stw	r2,4(sp)
 20052e0:	00808074 	movhi	r2,513
 20052e4:	1087bb04 	addi	r2,r2,7916
 20052e8:	d8800215 	stw	r2,8(sp)
 20052ec:	8809883a 	mov	r4,r17
 20052f0:	180b883a 	mov	r5,r3
 20052f4:	01804034 	movhi	r6,256
 20052f8:	31bfffc4 	addi	r6,r6,-1
 20052fc:	000f883a 	mov	r7,zero
 2005300:	2008b400 	call	2008b40 <vid_print_string_alpha>
															usleep(2*1000*1000);
 2005304:	010007f4 	movhi	r4,31
 2005308:	21212004 	addi	r4,r4,-31616
 200530c:	200ec680 	call	200ec68 <usleep>

															compet2_loop=0;
 2005310:	e03e7115 	stw	zero,-1596(fp)
															Touch_EmptyFifo(pTouch);
 2005314:	e13ffd17 	ldw	r4,-12(fp)
 2005318:	20097c80 	call	20097c8 <Touch_EmptyFifo>
 200531c:	0000b106 	br	20055e4 <GUI_ROBINSUN+0x2608>
														}
														else{
															*signal = *signal + opponent*64;
 2005320:	e0be8317 	ldw	r2,-1524(fp)
 2005324:	10c00017 	ldw	r3,0(r2)
 2005328:	e0be7717 	ldw	r2,-1572(fp)
 200532c:	100491ba 	slli	r2,r2,6
 2005330:	1887883a 	add	r3,r3,r2
 2005334:	e0be8317 	ldw	r2,-1524(fp)
 2005338:	10c00015 	stw	r3,0(r2)

															printf("signal vaut : %d \n",*signal);
 200533c:	e0be8317 	ldw	r2,-1524(fp)
 2005340:	10800017 	ldw	r2,0(r2)
 2005344:	01008074 	movhi	r4,513
 2005348:	2107c004 	addi	r4,r4,7936
 200534c:	100b883a 	mov	r5,r2
 2005350:	200d0c80 	call	200d0c8 <printf>
															Touch_EmptyFifo(pTouch);
 2005354:	e13ffd17 	ldw	r4,-12(fp)
 2005358:	20097c80 	call	20097c8 <Touch_EmptyFifo>

															compet3=1;
 200535c:	00800044 	movi	r2,1
 2005360:	e0be7215 	stw	r2,-1592(fp)
															while(compet3){
 2005364:	00009d06 	br	20055dc <GUI_ROBINSUN+0x2600>
																vid_clean_screen(pDisplay, BLACK_24);
 2005368:	e13ffc17 	ldw	r4,-16(fp)
 200536c:	000b883a 	mov	r5,zero
 2005370:	20064ec0 	call	20064ec <vid_clean_screen>
																usleep(1000*1000);
 2005374:	010003f4 	movhi	r4,15
 2005378:	21109004 	addi	r4,r4,16960
 200537c:	200ec680 	call	200ec68 <usleep>
																Touch_EmptyFifo(pTouch);
 2005380:	e13ffd17 	ldw	r4,-12(fp)
 2005384:	20097c80 	call	20097c8 <Touch_EmptyFifo>

																GUI_ROBINSUN_CompetitionSummary_Init(pDisplay, &DeskInfo);
 2005388:	e0be8404 	addi	r2,fp,-1520
 200538c:	e13ffc17 	ldw	r4,-16(fp)
 2005390:	100b883a 	mov	r5,r2
 2005394:	200241c0 	call	200241c <GUI_ROBINSUN_CompetitionSummary_Init>
																GUI_ROBINSUN_CompetitionSummary_Draw(pDisplay, &DeskInfo, color, strategy, opponent);
 2005398:	e0fe8404 	addi	r3,fp,-1520
 200539c:	e0be7717 	ldw	r2,-1572(fp)
 20053a0:	d8800015 	stw	r2,0(sp)
 20053a4:	e13ffc17 	ldw	r4,-16(fp)
 20053a8:	180b883a 	mov	r5,r3
 20053ac:	e1be7517 	ldw	r6,-1580(fp)
 20053b0:	e1fe7617 	ldw	r7,-1576(fp)
 20053b4:	20027200 	call	2002720 <GUI_ROBINSUN_CompetitionSummary_Draw>

																compet3_loop=1;
 20053b8:	00800044 	movi	r2,1
 20053bc:	e0be7315 	stw	r2,-1588(fp)
																while(compet3_loop){
 20053c0:	00008406 	br	20055d4 <GUI_ROBINSUN+0x25f8>
																	//touch
																	if (Touch_GetXY(pTouch, &X, &Y)){
 20053c4:	e0ff8c04 	addi	r3,fp,-464
 20053c8:	e0bf8d04 	addi	r2,fp,-460
 20053cc:	e13ffd17 	ldw	r4,-12(fp)
 20053d0:	180b883a 	mov	r5,r3
 20053d4:	100d883a 	mov	r6,r2
 20053d8:	20098000 	call	2009800 <Touch_GetXY>
 20053dc:	10007d26 	beq	r2,zero,20055d4 <GUI_ROBINSUN+0x25f8>
																		PtSet(&Pt, X, Y);
 20053e0:	e0ff8c17 	ldw	r3,-464(fp)
 20053e4:	e0bf8d17 	ldw	r2,-460(fp)
 20053e8:	e13f8e04 	addi	r4,fp,-456
 20053ec:	180b883a 	mov	r5,r3
 20053f0:	100d883a 	mov	r6,r2
 20053f4:	200617c0 	call	200617c <PtSet>
																		check_button_compet3 = GUI_ROBINSUN_CheckButton(&DeskInfo, &Pt,DeskInfo.buttons_competitionsummary,8,9);
 20053f8:	e13e8404 	addi	r4,fp,-1520
 20053fc:	e17f8e04 	addi	r5,fp,-456
 2005400:	e0be8404 	addi	r2,fp,-1520
 2005404:	10c0e004 	addi	r3,r2,896
 2005408:	00800244 	movi	r2,9
 200540c:	d8800015 	stw	r2,0(sp)
 2005410:	180d883a 	mov	r6,r3
 2005414:	01c00204 	movi	r7,8
 2005418:	20009d40 	call	20009d4 <GUI_ROBINSUN_CheckButton>
 200541c:	e0be7d15 	stw	r2,-1548(fp)

																		if(check_button_compet3 == 0){
 2005420:	e0be7d17 	ldw	r2,-1548(fp)
 2005424:	10000b1e 	bne	r2,zero,2005454 <GUI_ROBINSUN+0x2478>
																			*signal = *signal - opponent*64;
 2005428:	e0be8317 	ldw	r2,-1524(fp)
 200542c:	10c00017 	ldw	r3,0(r2)
 2005430:	e0be7717 	ldw	r2,-1572(fp)
 2005434:	10bff024 	muli	r2,r2,-64
 2005438:	1887883a 	add	r3,r3,r2
 200543c:	e0be8317 	ldw	r2,-1524(fp)
 2005440:	10c00015 	stw	r3,0(r2)

																			compet2_loop=0;
 2005444:	e03e7115 	stw	zero,-1596(fp)
																			compet3=0;
 2005448:	e03e7215 	stw	zero,-1592(fp)
																			compet3_loop=0;
 200544c:	e03e7315 	stw	zero,-1588(fp)
 2005450:	00006006 	br	20055d4 <GUI_ROBINSUN+0x25f8>
																		}
																		else if(check_button_compet3 == 7){
 2005454:	e0be7d17 	ldw	r2,-1548(fp)
 2005458:	108001d8 	cmpnei	r2,r2,7
 200545c:	10005d1e 	bne	r2,zero,20055d4 <GUI_ROBINSUN+0x25f8>
																			start=1;
 2005460:	00800044 	movi	r2,1
 2005464:	e0be7815 	stw	r2,-1568(fp)
																			*signal = *signal + 256;
 2005468:	e0be8317 	ldw	r2,-1524(fp)
 200546c:	10800017 	ldw	r2,0(r2)
 2005470:	10c04004 	addi	r3,r2,256
 2005474:	e0be8317 	ldw	r2,-1524(fp)
 2005478:	10c00015 	stw	r3,0(r2)

																			vid_clean_screen(pDisplay, BLACK_24);
 200547c:	e13ffc17 	ldw	r4,-16(fp)
 2005480:	000b883a 	mov	r5,zero
 2005484:	20064ec0 	call	20064ec <vid_clean_screen>
																			usleep(1000*1000);
 2005488:	010003f4 	movhi	r4,15
 200548c:	21109004 	addi	r4,r4,16960
 2005490:	200ec680 	call	200ec68 <usleep>
																			Touch_EmptyFifo(pTouch);
 2005494:	e13ffd17 	ldw	r4,-12(fp)
 2005498:	20097c80 	call	20097c8 <Touch_EmptyFifo>

																			RectSet(&DeskInfo.rcDisp, 2, pDisplay->width-2, 2, pDisplay->height-2);
 200549c:	e0bffc17 	ldw	r2,-16(fp)
 20054a0:	10800117 	ldw	r2,4(r2)
 20054a4:	10ffff84 	addi	r3,r2,-2
 20054a8:	e0bffc17 	ldw	r2,-16(fp)
 20054ac:	10800217 	ldw	r2,8(r2)
 20054b0:	10bfff84 	addi	r2,r2,-2
 20054b4:	e13e8404 	addi	r4,fp,-1520
 20054b8:	d8800015 	stw	r2,0(sp)
 20054bc:	01400084 	movi	r5,2
 20054c0:	180d883a 	mov	r6,r3
 20054c4:	01c00084 	movi	r7,2
 20054c8:	20061bc0 	call	20061bc <RectSet>

																			rc.top = 2 + (pDisplay->height-40)/2;
 20054cc:	e0bffc17 	ldw	r2,-16(fp)
 20054d0:	10800217 	ldw	r2,8(r2)
 20054d4:	10bff604 	addi	r2,r2,-40
 20054d8:	1006d7fa 	srli	r3,r2,31
 20054dc:	1885883a 	add	r2,r3,r2
 20054e0:	1005d07a 	srai	r2,r2,1
 20054e4:	10800084 	addi	r2,r2,2
 20054e8:	e0bf9215 	stw	r2,-440(fp)
																			rc.bottom = rc.top + 40;
 20054ec:	e0bf9217 	ldw	r2,-440(fp)
 20054f0:	10800a04 	addi	r2,r2,40
 20054f4:	e0bf9315 	stw	r2,-436(fp)
																			rc.left = 80;
 20054f8:	00801404 	movi	r2,80
 20054fc:	e0bf9015 	stw	r2,-448(fp)
																			rc.right = pDisplay->width-80;
 2005500:	e0bffc17 	ldw	r2,-16(fp)
 2005504:	10800117 	ldw	r2,4(r2)
 2005508:	10bfec04 	addi	r2,r2,-80
 200550c:	e0bf9115 	stw	r2,-444(fp)

																			vid_draw_box (rc.left, rc.top, rc.right, rc.bottom, BLACK_24, DO_FILL, pDisplay);
 2005510:	e13f9017 	ldw	r4,-448(fp)
 2005514:	e17f9217 	ldw	r5,-440(fp)
 2005518:	e1bf9117 	ldw	r6,-444(fp)
 200551c:	e0ff9317 	ldw	r3,-436(fp)
 2005520:	d8000015 	stw	zero,0(sp)
 2005524:	00800044 	movi	r2,1
 2005528:	d8800115 	stw	r2,4(sp)
 200552c:	e0bffc17 	ldw	r2,-16(fp)
 2005530:	d8800215 	stw	r2,8(sp)
 2005534:	180f883a 	mov	r7,r3
 2005538:	2006d340 	call	2006d34 <vid_draw_box>
																			vid_draw_box (rc.left, rc.top, rc.right, rc.bottom, WHITE_24, DO_NOT_FILL, pDisplay);
 200553c:	e13f9017 	ldw	r4,-448(fp)
 2005540:	e17f9217 	ldw	r5,-440(fp)
 2005544:	e1bf9117 	ldw	r6,-444(fp)
 2005548:	e0ff9317 	ldw	r3,-436(fp)
 200554c:	00804034 	movhi	r2,256
 2005550:	10bfffc4 	addi	r2,r2,-1
 2005554:	d8800015 	stw	r2,0(sp)
 2005558:	d8000115 	stw	zero,4(sp)
 200555c:	e0bffc17 	ldw	r2,-16(fp)
 2005560:	d8800215 	stw	r2,8(sp)
 2005564:	180f883a 	mov	r7,r3
 2005568:	2006d340 	call	2006d34 <vid_draw_box>
																			vid_print_string_alpha(rc.left+8, rc.top+(RectHeight(&rc)-22)/2, WHITE_24, BLACK_24, tahomabold_20, pDisplay, "Done");
 200556c:	e0bf9017 	ldw	r2,-448(fp)
 2005570:	14400204 	addi	r17,r2,8
 2005574:	e43f9217 	ldw	r16,-440(fp)
 2005578:	e0bf9004 	addi	r2,fp,-448
 200557c:	1009883a 	mov	r4,r2
 2005580:	20063c00 	call	20063c0 <RectHeight>
 2005584:	10bffa84 	addi	r2,r2,-22
 2005588:	1006d7fa 	srli	r3,r2,31
 200558c:	1885883a 	add	r2,r3,r2
 2005590:	1005d07a 	srai	r2,r2,1
 2005594:	8087883a 	add	r3,r16,r2
 2005598:	008080f4 	movhi	r2,515
 200559c:	10af9504 	addi	r2,r2,-16812
 20055a0:	d8800015 	stw	r2,0(sp)
 20055a4:	e0bffc17 	ldw	r2,-16(fp)
 20055a8:	d8800115 	stw	r2,4(sp)
 20055ac:	00808074 	movhi	r2,513
 20055b0:	1087c504 	addi	r2,r2,7956
 20055b4:	d8800215 	stw	r2,8(sp)
 20055b8:	8809883a 	mov	r4,r17
 20055bc:	180b883a 	mov	r5,r3
 20055c0:	01804034 	movhi	r6,256
 20055c4:	31bfffc4 	addi	r6,r6,-1
 20055c8:	000f883a 	mov	r7,zero
 20055cc:	2008b400 	call	2008b40 <vid_print_string_alpha>

																			while(1){
																			}
 20055d0:	003fff06 	br	20055d0 <__reset+0xfdffddd0>

																GUI_ROBINSUN_CompetitionSummary_Init(pDisplay, &DeskInfo);
																GUI_ROBINSUN_CompetitionSummary_Draw(pDisplay, &DeskInfo, color, strategy, opponent);

																compet3_loop=1;
																while(compet3_loop){
 20055d4:	e0be7317 	ldw	r2,-1588(fp)
 20055d8:	103f7a1e 	bne	r2,zero,20053c4 <__reset+0xfdffdbc4>

															printf("signal vaut : %d \n",*signal);
															Touch_EmptyFifo(pTouch);

															compet3=1;
															while(compet3){
 20055dc:	e0be7217 	ldw	r2,-1592(fp)
 20055e0:	103f611e 	bne	r2,zero,2005368 <__reset+0xfdffdb68>

											GUI_ROBINSUN_CompetitionChoice2_Init(pDisplay, &DeskInfo);
											GUI_ROBINSUN_CompetitionChoice2_Draw(pDisplay, &DeskInfo);

											compet2_loop=1;
											while(compet2_loop){
 20055e4:	e0be7117 	ldw	r2,-1596(fp)
 20055e8:	103e9f1e 	bne	r2,zero,2005068 <__reset+0xfdffd868>
    									else if(strategy==4)
    										*signal = *signal + 32;

    									// Let's continue...
    									compet2=1;
    									while(compet2){
 20055ec:	e0be7017 	ldw	r2,-1600(fp)
 20055f0:	103e8a1e 	bne	r2,zero,200501c <__reset+0xfdffd81c>
    					strategy=0;
    					opponent=0;
    					start=0;

    					tests_or_compet_loop=1;
    					while(tests_or_compet_loop){
 20055f4:	e0be6f17 	ldw	r2,-1604(fp)
 20055f8:	103d2e1e 	bne	r2,zero,2004ab4 <__reset+0xfdffd2b4>
    			else if (check_button_menu == BTN_COMPET){
    				//vid_print_string_alpha(rcTouchCompet.left+8, rcTouchCompet.top+(RectHeight(&rcTouchCompet)-22)/2, BLACK_24, WHITE_24, tahomabold_20, pDisplay, "Competition OK");
    				*signal = 0;
    				tests_or_compet=1;

    				while(tests_or_compet){
 20055fc:	e0be6e17 	ldw	r2,-1608(fp)
 2005600:	103d151e 	bne	r2,zero,2004a58 <__reset+0xfdffd258>
    	RectCopy(&rcTouchCompet, &DeskInfo.buttons[BTN_COMPET].rc);

    	desk=1;
    	Touch_EmptyFifo(pTouch);

    	while(desk){
 2005604:	e0be6d17 	ldw	r2,-1612(fp)
 2005608:	1036d71e 	bne	r2,zero,2003168 <__reset+0xfdffb968>
    					}
    				}
   				}
   			}
  		}//end while(desk)
	}//end while(1)
 200560c:	0036a106 	br	2003094 <__reset+0xfdffb894>

02005610 <Delay_Ms>:
When  D/CX=0,  D [17:0] bits are commands.
*/


void Delay_Ms(alt_u16 count_ms)
{
 2005610:	defffd04 	addi	sp,sp,-12
 2005614:	dfc00215 	stw	ra,8(sp)
 2005618:	df000115 	stw	fp,4(sp)
 200561c:	df000104 	addi	fp,sp,4
 2005620:	2005883a 	mov	r2,r4
 2005624:	e0bfff0d 	sth	r2,-4(fp)
    while(count_ms--)
 2005628:	00000206 	br	2005634 <Delay_Ms+0x24>
    {
        usleep(1000);
 200562c:	0100fa04 	movi	r4,1000
 2005630:	200ec680 	call	200ec68 <usleep>
*/


void Delay_Ms(alt_u16 count_ms)
{
    while(count_ms--)
 2005634:	e0bfff0b 	ldhu	r2,-4(fp)
 2005638:	10ffffc4 	addi	r3,r2,-1
 200563c:	e0ffff0d 	sth	r3,-4(fp)
 2005640:	10bfffcc 	andi	r2,r2,65535
 2005644:	103ff91e 	bne	r2,zero,200562c <__reset+0xfdffde2c>
    {
        usleep(1000);
    }
}
 2005648:	e037883a 	mov	sp,fp
 200564c:	dfc00117 	ldw	ra,4(sp)
 2005650:	df000017 	ldw	fp,0(sp)
 2005654:	dec00204 	addi	sp,sp,8
 2005658:	f800283a 	ret

0200565c <LCD_SetCursor>:

//-------------------------------------------------------------

void LCD_SetCursor(alt_u16 Xpos, alt_u16 Ypos)
{
 200565c:	defffd04 	addi	sp,sp,-12
 2005660:	df000215 	stw	fp,8(sp)
 2005664:	df000204 	addi	fp,sp,8
 2005668:	2007883a 	mov	r3,r4
 200566c:	2805883a 	mov	r2,r5
 2005670:	e0fffe0d 	sth	r3,-8(fp)
 2005674:	e0bfff0d 	sth	r2,-4(fp)
	 LCD_WR_REG(0x002A);
 2005678:	00c00a84 	movi	r3,42
 200567c:	00810074 	movhi	r2,1025
 2005680:	10a12c04 	addi	r2,r2,-31568
 2005684:	10c00035 	stwio	r3,0(r2)
		 LCD_WR_DATA(Xpos>>8);
 2005688:	e0bffe0b 	ldhu	r2,-8(fp)
 200568c:	1004d23a 	srli	r2,r2,8
 2005690:	10ffffcc 	andi	r3,r2,65535
 2005694:	00810074 	movhi	r2,1025
 2005698:	10a12d04 	addi	r2,r2,-31564
 200569c:	10c00035 	stwio	r3,0(r2)
		 LCD_WR_DATA(Xpos&0XFF);
 20056a0:	e0bffe0b 	ldhu	r2,-8(fp)
 20056a4:	10c03fcc 	andi	r3,r2,255
 20056a8:	00810074 	movhi	r2,1025
 20056ac:	10a12d04 	addi	r2,r2,-31564
 20056b0:	10c00035 	stwio	r3,0(r2)
	 LCD_WR_REG(0x002B);
 20056b4:	00c00ac4 	movi	r3,43
 20056b8:	00810074 	movhi	r2,1025
 20056bc:	10a12c04 	addi	r2,r2,-31568
 20056c0:	10c00035 	stwio	r3,0(r2)
		 LCD_WR_DATA(Ypos>>8);
 20056c4:	e0bfff0b 	ldhu	r2,-4(fp)
 20056c8:	1004d23a 	srli	r2,r2,8
 20056cc:	10ffffcc 	andi	r3,r2,65535
 20056d0:	00810074 	movhi	r2,1025
 20056d4:	10a12d04 	addi	r2,r2,-31564
 20056d8:	10c00035 	stwio	r3,0(r2)
		 LCD_WR_DATA(Ypos&0XFF);
 20056dc:	e0bfff0b 	ldhu	r2,-4(fp)
 20056e0:	10c03fcc 	andi	r3,r2,255
 20056e4:	00810074 	movhi	r2,1025
 20056e8:	10a12d04 	addi	r2,r2,-31564
 20056ec:	10c00035 	stwio	r3,0(r2)
	 LCD_WR_REG(0x002C);
 20056f0:	00c00b04 	movi	r3,44
 20056f4:	00810074 	movhi	r2,1025
 20056f8:	10a12c04 	addi	r2,r2,-31568
 20056fc:	10c00035 	stwio	r3,0(r2)
}
 2005700:	e037883a 	mov	sp,fp
 2005704:	df000017 	ldw	fp,0(sp)
 2005708:	dec00104 	addi	sp,sp,4
 200570c:	f800283a 	ret

02005710 <LCD_Clear>:

//-------------------------------------------------------------

void LCD_Clear(alt_u16 Color)
{
 2005710:	defffc04 	addi	sp,sp,-16
 2005714:	dfc00315 	stw	ra,12(sp)
 2005718:	df000215 	stw	fp,8(sp)
 200571c:	df000204 	addi	fp,sp,8
 2005720:	2005883a 	mov	r2,r4
 2005724:	e0bfff0d 	sth	r2,-4(fp)
        alt_u32 index=0;
 2005728:	e03ffe15 	stw	zero,-8(fp)
        LCD_SetCursor(0x00,0x0000);
 200572c:	0009883a 	mov	r4,zero
 2005730:	000b883a 	mov	r5,zero
 2005734:	200565c0 	call	200565c <LCD_SetCursor>
        LCD_WR_REG(0x002C);
 2005738:	00c00b04 	movi	r3,44
 200573c:	00810074 	movhi	r2,1025
 2005740:	10a12c04 	addi	r2,r2,-31568
 2005744:	10c00035 	stwio	r3,0(r2)
        for(index=0;index<76800;index++)
 2005748:	e03ffe15 	stw	zero,-8(fp)
 200574c:	00000706 	br	200576c <LCD_Clear+0x5c>
        {
        	LCD_WR_DATA(Color);
 2005750:	e0ffff0b 	ldhu	r3,-4(fp)
 2005754:	00810074 	movhi	r2,1025
 2005758:	10a12d04 	addi	r2,r2,-31564
 200575c:	10c00035 	stwio	r3,0(r2)
void LCD_Clear(alt_u16 Color)
{
        alt_u32 index=0;
        LCD_SetCursor(0x00,0x0000);
        LCD_WR_REG(0x002C);
        for(index=0;index<76800;index++)
 2005760:	e0bffe17 	ldw	r2,-8(fp)
 2005764:	10800044 	addi	r2,r2,1
 2005768:	e0bffe15 	stw	r2,-8(fp)
 200576c:	e0fffe17 	ldw	r3,-8(fp)
 2005770:	00800074 	movhi	r2,1
 2005774:	108affc4 	addi	r2,r2,11263
 2005778:	10fff52e 	bgeu	r2,r3,2005750 <__reset+0xfdffdf50>
        {
        	LCD_WR_DATA(Color);
        }
}
 200577c:	e037883a 	mov	sp,fp
 2005780:	dfc00117 	ldw	ra,4(sp)
 2005784:	df000017 	ldw	fp,0(sp)
 2005788:	dec00204 	addi	sp,sp,8
 200578c:	f800283a 	ret

02005790 <LCD_DrawPoint>:

//-------------------------------------------------------------

void LCD_DrawPoint(alt_u16 x,alt_u16 y,alt_u16 color )
{
 2005790:	defffb04 	addi	sp,sp,-20
 2005794:	dfc00415 	stw	ra,16(sp)
 2005798:	df000315 	stw	fp,12(sp)
 200579c:	df000304 	addi	fp,sp,12
 20057a0:	2807883a 	mov	r3,r5
 20057a4:	3005883a 	mov	r2,r6
 20057a8:	e13ffd0d 	sth	r4,-12(fp)
 20057ac:	e0fffe0d 	sth	r3,-8(fp)
 20057b0:	e0bfff0d 	sth	r2,-4(fp)
        LCD_SetCursor(x,y);
 20057b4:	e0fffd0b 	ldhu	r3,-12(fp)
 20057b8:	e0bffe0b 	ldhu	r2,-8(fp)
 20057bc:	1809883a 	mov	r4,r3
 20057c0:	100b883a 	mov	r5,r2
 20057c4:	200565c0 	call	200565c <LCD_SetCursor>
        LCD_WR_REG(0x002C);
 20057c8:	00c00b04 	movi	r3,44
 20057cc:	00810074 	movhi	r2,1025
 20057d0:	10a12c04 	addi	r2,r2,-31568
 20057d4:	10c00035 	stwio	r3,0(r2)
        LCD_WR_DATA(color);
 20057d8:	e0ffff0b 	ldhu	r3,-4(fp)
 20057dc:	00810074 	movhi	r2,1025
 20057e0:	10a12d04 	addi	r2,r2,-31564
 20057e4:	10c00035 	stwio	r3,0(r2)
}
 20057e8:	e037883a 	mov	sp,fp
 20057ec:	dfc00117 	ldw	ra,4(sp)
 20057f0:	df000017 	ldw	fp,0(sp)
 20057f4:	dec00204 	addi	sp,sp,8
 20057f8:	f800283a 	ret

020057fc <LCD_Init>:

//-------------------------------------------------------------

void LCD_Init()
{
 20057fc:	defffe04 	addi	sp,sp,-8
 2005800:	dfc00115 	stw	ra,4(sp)
 2005804:	df000015 	stw	fp,0(sp)
 2005808:	d839883a 	mov	fp,sp
	Set_LCD_RST;
 200580c:	00c00044 	movi	r3,1
 2005810:	00810074 	movhi	r2,1025
 2005814:	10a12004 	addi	r2,r2,-31616
 2005818:	10c00035 	stwio	r3,0(r2)
	Delay_Ms(1);
 200581c:	01000044 	movi	r4,1
 2005820:	20056100 	call	2005610 <Delay_Ms>
	Clr_LCD_RST;
 2005824:	0007883a 	mov	r3,zero
 2005828:	00810074 	movhi	r2,1025
 200582c:	10a12004 	addi	r2,r2,-31616
 2005830:	10c00035 	stwio	r3,0(r2)
	Delay_Ms(10);       // Delay 10ms // This delay time is necessary
 2005834:	01000284 	movi	r4,10
 2005838:	20056100 	call	2005610 <Delay_Ms>
	Set_LCD_RST;
 200583c:	00c00044 	movi	r3,1
 2005840:	00810074 	movhi	r2,1025
 2005844:	10a12004 	addi	r2,r2,-31616
 2005848:	10c00035 	stwio	r3,0(r2)
	Delay_Ms(120);       // Delay 120 ms
 200584c:	01001e04 	movi	r4,120
 2005850:	20056100 	call	2005610 <Delay_Ms>
//	Clr_LCD_CS;

	LCD_WR_REG(0x0011); //Exit Sleep
 2005854:	00c00444 	movi	r3,17
 2005858:	00810074 	movhi	r2,1025
 200585c:	10a12c04 	addi	r2,r2,-31568
 2005860:	10c00035 	stwio	r3,0(r2)
	LCD_WR_REG(0x00CF);
 2005864:	00c033c4 	movi	r3,207
 2005868:	00810074 	movhi	r2,1025
 200586c:	10a12c04 	addi	r2,r2,-31568
 2005870:	10c00035 	stwio	r3,0(r2)
		LCD_WR_DATA(0x0000);
 2005874:	0007883a 	mov	r3,zero
 2005878:	00810074 	movhi	r2,1025
 200587c:	10a12d04 	addi	r2,r2,-31564
 2005880:	10c00035 	stwio	r3,0(r2)
		LCD_WR_DATA(0x0081);
 2005884:	00c02044 	movi	r3,129
 2005888:	00810074 	movhi	r2,1025
 200588c:	10a12d04 	addi	r2,r2,-31564
 2005890:	10c00035 	stwio	r3,0(r2)
		LCD_WR_DATA(0X00c0);
 2005894:	00c03004 	movi	r3,192
 2005898:	00810074 	movhi	r2,1025
 200589c:	10a12d04 	addi	r2,r2,-31564
 20058a0:	10c00035 	stwio	r3,0(r2)

	LCD_WR_REG(0x00ED);
 20058a4:	00c03b44 	movi	r3,237
 20058a8:	00810074 	movhi	r2,1025
 20058ac:	10a12c04 	addi	r2,r2,-31568
 20058b0:	10c00035 	stwio	r3,0(r2)
		LCD_WR_DATA(0x0064);
 20058b4:	00c01904 	movi	r3,100
 20058b8:	00810074 	movhi	r2,1025
 20058bc:	10a12d04 	addi	r2,r2,-31564
 20058c0:	10c00035 	stwio	r3,0(r2)
		LCD_WR_DATA(0x0003);
 20058c4:	00c000c4 	movi	r3,3
 20058c8:	00810074 	movhi	r2,1025
 20058cc:	10a12d04 	addi	r2,r2,-31564
 20058d0:	10c00035 	stwio	r3,0(r2)
		LCD_WR_DATA(0X0012);
 20058d4:	00c00484 	movi	r3,18
 20058d8:	00810074 	movhi	r2,1025
 20058dc:	10a12d04 	addi	r2,r2,-31564
 20058e0:	10c00035 	stwio	r3,0(r2)
		LCD_WR_DATA(0X0081);
 20058e4:	00c02044 	movi	r3,129
 20058e8:	00810074 	movhi	r2,1025
 20058ec:	10a12d04 	addi	r2,r2,-31564
 20058f0:	10c00035 	stwio	r3,0(r2)

	LCD_WR_REG(0x00E8);
 20058f4:	00c03a04 	movi	r3,232
 20058f8:	00810074 	movhi	r2,1025
 20058fc:	10a12c04 	addi	r2,r2,-31568
 2005900:	10c00035 	stwio	r3,0(r2)
		LCD_WR_DATA(0x0085);
 2005904:	00c02144 	movi	r3,133
 2005908:	00810074 	movhi	r2,1025
 200590c:	10a12d04 	addi	r2,r2,-31564
 2005910:	10c00035 	stwio	r3,0(r2)
		LCD_WR_DATA(0x0001);
 2005914:	00c00044 	movi	r3,1
 2005918:	00810074 	movhi	r2,1025
 200591c:	10a12d04 	addi	r2,r2,-31564
 2005920:	10c00035 	stwio	r3,0(r2)
		LCD_WR_DATA(0x00798);
 2005924:	00c1e604 	movi	r3,1944
 2005928:	00810074 	movhi	r2,1025
 200592c:	10a12d04 	addi	r2,r2,-31564
 2005930:	10c00035 	stwio	r3,0(r2)

	LCD_WR_REG(0x00CB);
 2005934:	00c032c4 	movi	r3,203
 2005938:	00810074 	movhi	r2,1025
 200593c:	10a12c04 	addi	r2,r2,-31568
 2005940:	10c00035 	stwio	r3,0(r2)
		LCD_WR_DATA(0x0039);
 2005944:	00c00e44 	movi	r3,57
 2005948:	00810074 	movhi	r2,1025
 200594c:	10a12d04 	addi	r2,r2,-31564
 2005950:	10c00035 	stwio	r3,0(r2)
		LCD_WR_DATA(0x002C);
 2005954:	00c00b04 	movi	r3,44
 2005958:	00810074 	movhi	r2,1025
 200595c:	10a12d04 	addi	r2,r2,-31564
 2005960:	10c00035 	stwio	r3,0(r2)
		LCD_WR_DATA(0x0000);
 2005964:	0007883a 	mov	r3,zero
 2005968:	00810074 	movhi	r2,1025
 200596c:	10a12d04 	addi	r2,r2,-31564
 2005970:	10c00035 	stwio	r3,0(r2)
		LCD_WR_DATA(0x0034);
 2005974:	00c00d04 	movi	r3,52
 2005978:	00810074 	movhi	r2,1025
 200597c:	10a12d04 	addi	r2,r2,-31564
 2005980:	10c00035 	stwio	r3,0(r2)
		LCD_WR_DATA(0x0002);
 2005984:	00c00084 	movi	r3,2
 2005988:	00810074 	movhi	r2,1025
 200598c:	10a12d04 	addi	r2,r2,-31564
 2005990:	10c00035 	stwio	r3,0(r2)

	LCD_WR_REG(0x00F7);
 2005994:	00c03dc4 	movi	r3,247
 2005998:	00810074 	movhi	r2,1025
 200599c:	10a12c04 	addi	r2,r2,-31568
 20059a0:	10c00035 	stwio	r3,0(r2)
		LCD_WR_DATA(0x0020);
 20059a4:	00c00804 	movi	r3,32
 20059a8:	00810074 	movhi	r2,1025
 20059ac:	10a12d04 	addi	r2,r2,-31564
 20059b0:	10c00035 	stwio	r3,0(r2)

	LCD_WR_REG(0x00EA);
 20059b4:	00c03a84 	movi	r3,234
 20059b8:	00810074 	movhi	r2,1025
 20059bc:	10a12c04 	addi	r2,r2,-31568
 20059c0:	10c00035 	stwio	r3,0(r2)
		LCD_WR_DATA(0x0000);
 20059c4:	0007883a 	mov	r3,zero
 20059c8:	00810074 	movhi	r2,1025
 20059cc:	10a12d04 	addi	r2,r2,-31564
 20059d0:	10c00035 	stwio	r3,0(r2)
		LCD_WR_DATA(0x0000);
 20059d4:	0007883a 	mov	r3,zero
 20059d8:	00810074 	movhi	r2,1025
 20059dc:	10a12d04 	addi	r2,r2,-31564
 20059e0:	10c00035 	stwio	r3,0(r2)

	LCD_WR_REG(0x00B1);
 20059e4:	00c02c44 	movi	r3,177
 20059e8:	00810074 	movhi	r2,1025
 20059ec:	10a12c04 	addi	r2,r2,-31568
 20059f0:	10c00035 	stwio	r3,0(r2)
		LCD_WR_DATA(0x0000);
 20059f4:	0007883a 	mov	r3,zero
 20059f8:	00810074 	movhi	r2,1025
 20059fc:	10a12d04 	addi	r2,r2,-31564
 2005a00:	10c00035 	stwio	r3,0(r2)
		LCD_WR_DATA(0x001b);
 2005a04:	00c006c4 	movi	r3,27
 2005a08:	00810074 	movhi	r2,1025
 2005a0c:	10a12d04 	addi	r2,r2,-31564
 2005a10:	10c00035 	stwio	r3,0(r2)

	LCD_WR_REG(0x00B6);
 2005a14:	00c02d84 	movi	r3,182
 2005a18:	00810074 	movhi	r2,1025
 2005a1c:	10a12c04 	addi	r2,r2,-31568
 2005a20:	10c00035 	stwio	r3,0(r2)
		LCD_WR_DATA(0x000A);
 2005a24:	00c00284 	movi	r3,10
 2005a28:	00810074 	movhi	r2,1025
 2005a2c:	10a12d04 	addi	r2,r2,-31564
 2005a30:	10c00035 	stwio	r3,0(r2)
		LCD_WR_DATA(0x00A2);
 2005a34:	00c02884 	movi	r3,162
 2005a38:	00810074 	movhi	r2,1025
 2005a3c:	10a12d04 	addi	r2,r2,-31564
 2005a40:	10c00035 	stwio	r3,0(r2)

	LCD_WR_REG(0x00C0);    //Power control
 2005a44:	00c03004 	movi	r3,192
 2005a48:	00810074 	movhi	r2,1025
 2005a4c:	10a12c04 	addi	r2,r2,-31568
 2005a50:	10c00035 	stwio	r3,0(r2)
		LCD_WR_DATA(0x0005);   //VRH[5:0]
 2005a54:	00c00144 	movi	r3,5
 2005a58:	00810074 	movhi	r2,1025
 2005a5c:	10a12d04 	addi	r2,r2,-31564
 2005a60:	10c00035 	stwio	r3,0(r2)

	LCD_WR_REG(0x00C1);    //Power control
 2005a64:	00c03044 	movi	r3,193
 2005a68:	00810074 	movhi	r2,1025
 2005a6c:	10a12c04 	addi	r2,r2,-31568
 2005a70:	10c00035 	stwio	r3,0(r2)
		LCD_WR_DATA(0x0011);   //SAP[2:0];BT[3:0]
 2005a74:	00c00444 	movi	r3,17
 2005a78:	00810074 	movhi	r2,1025
 2005a7c:	10a12d04 	addi	r2,r2,-31564
 2005a80:	10c00035 	stwio	r3,0(r2)

	LCD_WR_REG(0x00C5);    //VCM control
 2005a84:	00c03144 	movi	r3,197
 2005a88:	00810074 	movhi	r2,1025
 2005a8c:	10a12c04 	addi	r2,r2,-31568
 2005a90:	10c00035 	stwio	r3,0(r2)
		LCD_WR_DATA(0x0045);       //3F
 2005a94:	00c01144 	movi	r3,69
 2005a98:	00810074 	movhi	r2,1025
 2005a9c:	10a12d04 	addi	r2,r2,-31564
 2005aa0:	10c00035 	stwio	r3,0(r2)
		LCD_WR_DATA(0x0045);       //3C
 2005aa4:	00c01144 	movi	r3,69
 2005aa8:	00810074 	movhi	r2,1025
 2005aac:	10a12d04 	addi	r2,r2,-31564
 2005ab0:	10c00035 	stwio	r3,0(r2)

	 LCD_WR_REG(0x00C7);    //VCM control2
 2005ab4:	00c031c4 	movi	r3,199
 2005ab8:	00810074 	movhi	r2,1025
 2005abc:	10a12c04 	addi	r2,r2,-31568
 2005ac0:	10c00035 	stwio	r3,0(r2)
		 LCD_WR_DATA(0X00a2);
 2005ac4:	00c02884 	movi	r3,162
 2005ac8:	00810074 	movhi	r2,1025
 2005acc:	10a12d04 	addi	r2,r2,-31564
 2005ad0:	10c00035 	stwio	r3,0(r2)

	LCD_WR_REG(0x0036);    // Memory Access Control
 2005ad4:	00c00d84 	movi	r3,54
 2005ad8:	00810074 	movhi	r2,1025
 2005adc:	10a12c04 	addi	r2,r2,-31568
 2005ae0:	10c00035 	stwio	r3,0(r2)
		LCD_WR_DATA(0x0008);//48
 2005ae4:	00c00204 	movi	r3,8
 2005ae8:	00810074 	movhi	r2,1025
 2005aec:	10a12d04 	addi	r2,r2,-31564
 2005af0:	10c00035 	stwio	r3,0(r2)

	LCD_WR_REG(0x00F2);    // 3Gamma Function Disable
 2005af4:	00c03c84 	movi	r3,242
 2005af8:	00810074 	movhi	r2,1025
 2005afc:	10a12c04 	addi	r2,r2,-31568
 2005b00:	10c00035 	stwio	r3,0(r2)
		LCD_WR_DATA(0x0000);
 2005b04:	0007883a 	mov	r3,zero
 2005b08:	00810074 	movhi	r2,1025
 2005b0c:	10a12d04 	addi	r2,r2,-31564
 2005b10:	10c00035 	stwio	r3,0(r2)

	LCD_WR_REG(0x0026);    //Gamma curve selected
 2005b14:	00c00984 	movi	r3,38
 2005b18:	00810074 	movhi	r2,1025
 2005b1c:	10a12c04 	addi	r2,r2,-31568
 2005b20:	10c00035 	stwio	r3,0(r2)
		LCD_WR_DATA(0x0001);
 2005b24:	00c00044 	movi	r3,1
 2005b28:	00810074 	movhi	r2,1025
 2005b2c:	10a12d04 	addi	r2,r2,-31564
 2005b30:	10c00035 	stwio	r3,0(r2)

	LCD_WR_REG(0x00E0);    //Set Gamma
 2005b34:	00c03804 	movi	r3,224
 2005b38:	00810074 	movhi	r2,1025
 2005b3c:	10a12c04 	addi	r2,r2,-31568
 2005b40:	10c00035 	stwio	r3,0(r2)
		LCD_WR_DATA(0x000F);
 2005b44:	00c003c4 	movi	r3,15
 2005b48:	00810074 	movhi	r2,1025
 2005b4c:	10a12d04 	addi	r2,r2,-31564
 2005b50:	10c00035 	stwio	r3,0(r2)
		LCD_WR_DATA(0x0026);
 2005b54:	00c00984 	movi	r3,38
 2005b58:	00810074 	movhi	r2,1025
 2005b5c:	10a12d04 	addi	r2,r2,-31564
 2005b60:	10c00035 	stwio	r3,0(r2)
		LCD_WR_DATA(0x0024);
 2005b64:	00c00904 	movi	r3,36
 2005b68:	00810074 	movhi	r2,1025
 2005b6c:	10a12d04 	addi	r2,r2,-31564
 2005b70:	10c00035 	stwio	r3,0(r2)
		LCD_WR_DATA(0x000b);
 2005b74:	00c002c4 	movi	r3,11
 2005b78:	00810074 	movhi	r2,1025
 2005b7c:	10a12d04 	addi	r2,r2,-31564
 2005b80:	10c00035 	stwio	r3,0(r2)
		LCD_WR_DATA(0x000E);
 2005b84:	00c00384 	movi	r3,14
 2005b88:	00810074 	movhi	r2,1025
 2005b8c:	10a12d04 	addi	r2,r2,-31564
 2005b90:	10c00035 	stwio	r3,0(r2)
		LCD_WR_DATA(0x0008);
 2005b94:	00c00204 	movi	r3,8
 2005b98:	00810074 	movhi	r2,1025
 2005b9c:	10a12d04 	addi	r2,r2,-31564
 2005ba0:	10c00035 	stwio	r3,0(r2)
		LCD_WR_DATA(0x004b);
 2005ba4:	00c012c4 	movi	r3,75
 2005ba8:	00810074 	movhi	r2,1025
 2005bac:	10a12d04 	addi	r2,r2,-31564
 2005bb0:	10c00035 	stwio	r3,0(r2)
		LCD_WR_DATA(0X00a8);
 2005bb4:	00c02a04 	movi	r3,168
 2005bb8:	00810074 	movhi	r2,1025
 2005bbc:	10a12d04 	addi	r2,r2,-31564
 2005bc0:	10c00035 	stwio	r3,0(r2)
		LCD_WR_DATA(0x003b);
 2005bc4:	00c00ec4 	movi	r3,59
 2005bc8:	00810074 	movhi	r2,1025
 2005bcc:	10a12d04 	addi	r2,r2,-31564
 2005bd0:	10c00035 	stwio	r3,0(r2)
		LCD_WR_DATA(0x000a);
 2005bd4:	00c00284 	movi	r3,10
 2005bd8:	00810074 	movhi	r2,1025
 2005bdc:	10a12d04 	addi	r2,r2,-31564
 2005be0:	10c00035 	stwio	r3,0(r2)
		LCD_WR_DATA(0x0014);
 2005be4:	00c00504 	movi	r3,20
 2005be8:	00810074 	movhi	r2,1025
 2005bec:	10a12d04 	addi	r2,r2,-31564
 2005bf0:	10c00035 	stwio	r3,0(r2)
		LCD_WR_DATA(0x0006);
 2005bf4:	00c00184 	movi	r3,6
 2005bf8:	00810074 	movhi	r2,1025
 2005bfc:	10a12d04 	addi	r2,r2,-31564
 2005c00:	10c00035 	stwio	r3,0(r2)
		LCD_WR_DATA(0x0010);
 2005c04:	00c00404 	movi	r3,16
 2005c08:	00810074 	movhi	r2,1025
 2005c0c:	10a12d04 	addi	r2,r2,-31564
 2005c10:	10c00035 	stwio	r3,0(r2)
		LCD_WR_DATA(0x0009);
 2005c14:	00c00244 	movi	r3,9
 2005c18:	00810074 	movhi	r2,1025
 2005c1c:	10a12d04 	addi	r2,r2,-31564
 2005c20:	10c00035 	stwio	r3,0(r2)
		LCD_WR_DATA(0x0000);
 2005c24:	0007883a 	mov	r3,zero
 2005c28:	00810074 	movhi	r2,1025
 2005c2c:	10a12d04 	addi	r2,r2,-31564
 2005c30:	10c00035 	stwio	r3,0(r2)

	LCD_WR_REG(0X00E1);    //Set Gamma
 2005c34:	00c03844 	movi	r3,225
 2005c38:	00810074 	movhi	r2,1025
 2005c3c:	10a12c04 	addi	r2,r2,-31568
 2005c40:	10c00035 	stwio	r3,0(r2)
		LCD_WR_DATA(0x0000);
 2005c44:	0007883a 	mov	r3,zero
 2005c48:	00810074 	movhi	r2,1025
 2005c4c:	10a12d04 	addi	r2,r2,-31564
 2005c50:	10c00035 	stwio	r3,0(r2)
		LCD_WR_DATA(0x001c);
 2005c54:	00c00704 	movi	r3,28
 2005c58:	00810074 	movhi	r2,1025
 2005c5c:	10a12d04 	addi	r2,r2,-31564
 2005c60:	10c00035 	stwio	r3,0(r2)
		LCD_WR_DATA(0x0020);
 2005c64:	00c00804 	movi	r3,32
 2005c68:	00810074 	movhi	r2,1025
 2005c6c:	10a12d04 	addi	r2,r2,-31564
 2005c70:	10c00035 	stwio	r3,0(r2)
		LCD_WR_DATA(0x0004);
 2005c74:	00c00104 	movi	r3,4
 2005c78:	00810074 	movhi	r2,1025
 2005c7c:	10a12d04 	addi	r2,r2,-31564
 2005c80:	10c00035 	stwio	r3,0(r2)
		LCD_WR_DATA(0x0010);
 2005c84:	00c00404 	movi	r3,16
 2005c88:	00810074 	movhi	r2,1025
 2005c8c:	10a12d04 	addi	r2,r2,-31564
 2005c90:	10c00035 	stwio	r3,0(r2)
		LCD_WR_DATA(0x0008);
 2005c94:	00c00204 	movi	r3,8
 2005c98:	00810074 	movhi	r2,1025
 2005c9c:	10a12d04 	addi	r2,r2,-31564
 2005ca0:	10c00035 	stwio	r3,0(r2)
		LCD_WR_DATA(0x0034);
 2005ca4:	00c00d04 	movi	r3,52
 2005ca8:	00810074 	movhi	r2,1025
 2005cac:	10a12d04 	addi	r2,r2,-31564
 2005cb0:	10c00035 	stwio	r3,0(r2)
		LCD_WR_DATA(0x0047);
 2005cb4:	00c011c4 	movi	r3,71
 2005cb8:	00810074 	movhi	r2,1025
 2005cbc:	10a12d04 	addi	r2,r2,-31564
 2005cc0:	10c00035 	stwio	r3,0(r2)
		LCD_WR_DATA(0x0044);
 2005cc4:	00c01104 	movi	r3,68
 2005cc8:	00810074 	movhi	r2,1025
 2005ccc:	10a12d04 	addi	r2,r2,-31564
 2005cd0:	10c00035 	stwio	r3,0(r2)
		LCD_WR_DATA(0x0005);
 2005cd4:	00c00144 	movi	r3,5
 2005cd8:	00810074 	movhi	r2,1025
 2005cdc:	10a12d04 	addi	r2,r2,-31564
 2005ce0:	10c00035 	stwio	r3,0(r2)
		LCD_WR_DATA(0x000b);
 2005ce4:	00c002c4 	movi	r3,11
 2005ce8:	00810074 	movhi	r2,1025
 2005cec:	10a12d04 	addi	r2,r2,-31564
 2005cf0:	10c00035 	stwio	r3,0(r2)
		LCD_WR_DATA(0x0009);
 2005cf4:	00c00244 	movi	r3,9
 2005cf8:	00810074 	movhi	r2,1025
 2005cfc:	10a12d04 	addi	r2,r2,-31564
 2005d00:	10c00035 	stwio	r3,0(r2)
		LCD_WR_DATA(0x002f);
 2005d04:	00c00bc4 	movi	r3,47
 2005d08:	00810074 	movhi	r2,1025
 2005d0c:	10a12d04 	addi	r2,r2,-31564
 2005d10:	10c00035 	stwio	r3,0(r2)
		LCD_WR_DATA(0x0036);
 2005d14:	00c00d84 	movi	r3,54
 2005d18:	00810074 	movhi	r2,1025
 2005d1c:	10a12d04 	addi	r2,r2,-31564
 2005d20:	10c00035 	stwio	r3,0(r2)
		LCD_WR_DATA(0x000f);
 2005d24:	00c003c4 	movi	r3,15
 2005d28:	00810074 	movhi	r2,1025
 2005d2c:	10a12d04 	addi	r2,r2,-31564
 2005d30:	10c00035 	stwio	r3,0(r2)

	LCD_WR_REG(0x002A);
 2005d34:	00c00a84 	movi	r3,42
 2005d38:	00810074 	movhi	r2,1025
 2005d3c:	10a12c04 	addi	r2,r2,-31568
 2005d40:	10c00035 	stwio	r3,0(r2)
		LCD_WR_DATA(0x0000);
 2005d44:	0007883a 	mov	r3,zero
 2005d48:	00810074 	movhi	r2,1025
 2005d4c:	10a12d04 	addi	r2,r2,-31564
 2005d50:	10c00035 	stwio	r3,0(r2)
		LCD_WR_DATA(0x0000);
 2005d54:	0007883a 	mov	r3,zero
 2005d58:	00810074 	movhi	r2,1025
 2005d5c:	10a12d04 	addi	r2,r2,-31564
 2005d60:	10c00035 	stwio	r3,0(r2)
		LCD_WR_DATA(0x0000);
 2005d64:	0007883a 	mov	r3,zero
 2005d68:	00810074 	movhi	r2,1025
 2005d6c:	10a12d04 	addi	r2,r2,-31564
 2005d70:	10c00035 	stwio	r3,0(r2)
		LCD_WR_DATA(0x00ef);
 2005d74:	00c03bc4 	movi	r3,239
 2005d78:	00810074 	movhi	r2,1025
 2005d7c:	10a12d04 	addi	r2,r2,-31564
 2005d80:	10c00035 	stwio	r3,0(r2)

	 LCD_WR_REG(0x002B);
 2005d84:	00c00ac4 	movi	r3,43
 2005d88:	00810074 	movhi	r2,1025
 2005d8c:	10a12c04 	addi	r2,r2,-31568
 2005d90:	10c00035 	stwio	r3,0(r2)
		LCD_WR_DATA(0x0000);
 2005d94:	0007883a 	mov	r3,zero
 2005d98:	00810074 	movhi	r2,1025
 2005d9c:	10a12d04 	addi	r2,r2,-31564
 2005da0:	10c00035 	stwio	r3,0(r2)
		LCD_WR_DATA(0x0000);
 2005da4:	0007883a 	mov	r3,zero
 2005da8:	00810074 	movhi	r2,1025
 2005dac:	10a12d04 	addi	r2,r2,-31564
 2005db0:	10c00035 	stwio	r3,0(r2)
		LCD_WR_DATA(0x0001);
 2005db4:	00c00044 	movi	r3,1
 2005db8:	00810074 	movhi	r2,1025
 2005dbc:	10a12d04 	addi	r2,r2,-31564
 2005dc0:	10c00035 	stwio	r3,0(r2)
		LCD_WR_DATA(0x003f);
 2005dc4:	00c00fc4 	movi	r3,63
 2005dc8:	00810074 	movhi	r2,1025
 2005dcc:	10a12d04 	addi	r2,r2,-31564
 2005dd0:	10c00035 	stwio	r3,0(r2)

	LCD_WR_REG(0x003A);
 2005dd4:	00c00e84 	movi	r3,58
 2005dd8:	00810074 	movhi	r2,1025
 2005ddc:	10a12c04 	addi	r2,r2,-31568
 2005de0:	10c00035 	stwio	r3,0(r2)
		LCD_WR_DATA(0x0055);
 2005de4:	00c01544 	movi	r3,85
 2005de8:	00810074 	movhi	r2,1025
 2005dec:	10a12d04 	addi	r2,r2,-31564
 2005df0:	10c00035 	stwio	r3,0(r2)

	LCD_WR_REG(0x00f6);
 2005df4:	00c03d84 	movi	r3,246
 2005df8:	00810074 	movhi	r2,1025
 2005dfc:	10a12c04 	addi	r2,r2,-31568
 2005e00:	10c00035 	stwio	r3,0(r2)
		LCD_WR_DATA(0x0001);
 2005e04:	00c00044 	movi	r3,1
 2005e08:	00810074 	movhi	r2,1025
 2005e0c:	10a12d04 	addi	r2,r2,-31564
 2005e10:	10c00035 	stwio	r3,0(r2)
		LCD_WR_DATA(0x0030);
 2005e14:	00c00c04 	movi	r3,48
 2005e18:	00810074 	movhi	r2,1025
 2005e1c:	10a12d04 	addi	r2,r2,-31564
 2005e20:	10c00035 	stwio	r3,0(r2)
		LCD_WR_DATA(0x0000);
 2005e24:	0007883a 	mov	r3,zero
 2005e28:	00810074 	movhi	r2,1025
 2005e2c:	10a12d04 	addi	r2,r2,-31564
 2005e30:	10c00035 	stwio	r3,0(r2)

	LCD_WR_REG(0x0029); //display on
 2005e34:	00c00a44 	movi	r3,41
 2005e38:	00810074 	movhi	r2,1025
 2005e3c:	10a12c04 	addi	r2,r2,-31568
 2005e40:	10c00035 	stwio	r3,0(r2)


	LCD_WR_REG(0x002c);    // 0x2C
 2005e44:	00c00b04 	movi	r3,44
 2005e48:	00810074 	movhi	r2,1025
 2005e4c:	10a12c04 	addi	r2,r2,-31568
 2005e50:	10c00035 	stwio	r3,0(r2)
}
 2005e54:	e037883a 	mov	sp,fp
 2005e58:	dfc00117 	ldw	ra,4(sp)
 2005e5c:	df000017 	ldw	fp,0(sp)
 2005e60:	dec00204 	addi	sp,sp,8
 2005e64:	f800283a 	ret

02005e68 <LCD_Pattern_Horizon>:


//-------------------------------------------------------------

void LCD_Pattern_Horizon(void)
{
 2005e68:	defffc04 	addi	sp,sp,-16
 2005e6c:	dfc00315 	stw	ra,12(sp)
 2005e70:	df000215 	stw	fp,8(sp)
 2005e74:	df000204 	addi	fp,sp,8
        alt_u32 index=0;
 2005e78:	e03ffe15 	stw	zero,-8(fp)
        alt_u16  data=0;
 2005e7c:	e03fff0d 	sth	zero,-4(fp)
        LCD_SetCursor(0x00,0x0000);
 2005e80:	0009883a 	mov	r4,zero
 2005e84:	000b883a 	mov	r5,zero
 2005e88:	200565c0 	call	200565c <LCD_SetCursor>
        data=0x0000;
 2005e8c:	e03fff0d 	sth	zero,-4(fp)
        for(index=0;index<240*80;index++)
 2005e90:	e03ffe15 	stw	zero,-8(fp)
 2005e94:	00000706 	br	2005eb4 <LCD_Pattern_Horizon+0x4c>
        {
        	LCD_WR_DATA(data);
 2005e98:	e0ffff0b 	ldhu	r3,-4(fp)
 2005e9c:	00810074 	movhi	r2,1025
 2005ea0:	10a12d04 	addi	r2,r2,-31564
 2005ea4:	10c00035 	stwio	r3,0(r2)
{
        alt_u32 index=0;
        alt_u16  data=0;
        LCD_SetCursor(0x00,0x0000);
        data=0x0000;
        for(index=0;index<240*80;index++)
 2005ea8:	e0bffe17 	ldw	r2,-8(fp)
 2005eac:	10800044 	addi	r2,r2,1
 2005eb0:	e0bffe15 	stw	r2,-8(fp)
 2005eb4:	e0bffe17 	ldw	r2,-8(fp)
 2005eb8:	1092c030 	cmpltui	r2,r2,19200
 2005ebc:	103ff61e 	bne	r2,zero,2005e98 <__reset+0xfdffe698>
        {
        	LCD_WR_DATA(data);
        }
        LCD_SetCursor(0x00,80);
 2005ec0:	0009883a 	mov	r4,zero
 2005ec4:	01401404 	movi	r5,80
 2005ec8:	200565c0 	call	200565c <LCD_SetCursor>
        data=RED;
 2005ecc:	00be0004 	movi	r2,-2048
 2005ed0:	e0bfff0d 	sth	r2,-4(fp)
		for(index=0;index<240*80;index++)
 2005ed4:	e03ffe15 	stw	zero,-8(fp)
 2005ed8:	00000706 	br	2005ef8 <LCD_Pattern_Horizon+0x90>
		{
			LCD_WR_DATA(data);
 2005edc:	e0ffff0b 	ldhu	r3,-4(fp)
 2005ee0:	00810074 	movhi	r2,1025
 2005ee4:	10a12d04 	addi	r2,r2,-31564
 2005ee8:	10c00035 	stwio	r3,0(r2)
        {
        	LCD_WR_DATA(data);
        }
        LCD_SetCursor(0x00,80);
        data=RED;
		for(index=0;index<240*80;index++)
 2005eec:	e0bffe17 	ldw	r2,-8(fp)
 2005ef0:	10800044 	addi	r2,r2,1
 2005ef4:	e0bffe15 	stw	r2,-8(fp)
 2005ef8:	e0bffe17 	ldw	r2,-8(fp)
 2005efc:	1092c030 	cmpltui	r2,r2,19200
 2005f00:	103ff61e 	bne	r2,zero,2005edc <__reset+0xfdffe6dc>
		{
			LCD_WR_DATA(data);
		}
	    LCD_SetCursor(0x00,160);
 2005f04:	0009883a 	mov	r4,zero
 2005f08:	01402804 	movi	r5,160
 2005f0c:	200565c0 	call	200565c <LCD_SetCursor>
		data=GREEN;
 2005f10:	0081f804 	movi	r2,2016
 2005f14:	e0bfff0d 	sth	r2,-4(fp)
		for(index=0;index<240*80;index++)
 2005f18:	e03ffe15 	stw	zero,-8(fp)
 2005f1c:	00000706 	br	2005f3c <LCD_Pattern_Horizon+0xd4>
		{
			LCD_WR_DATA(data);
 2005f20:	e0ffff0b 	ldhu	r3,-4(fp)
 2005f24:	00810074 	movhi	r2,1025
 2005f28:	10a12d04 	addi	r2,r2,-31564
 2005f2c:	10c00035 	stwio	r3,0(r2)
		{
			LCD_WR_DATA(data);
		}
	    LCD_SetCursor(0x00,160);
		data=GREEN;
		for(index=0;index<240*80;index++)
 2005f30:	e0bffe17 	ldw	r2,-8(fp)
 2005f34:	10800044 	addi	r2,r2,1
 2005f38:	e0bffe15 	stw	r2,-8(fp)
 2005f3c:	e0bffe17 	ldw	r2,-8(fp)
 2005f40:	1092c030 	cmpltui	r2,r2,19200
 2005f44:	103ff61e 	bne	r2,zero,2005f20 <__reset+0xfdffe720>
		{
			LCD_WR_DATA(data);
		}
		LCD_SetCursor(0x00,240);
 2005f48:	0009883a 	mov	r4,zero
 2005f4c:	01403c04 	movi	r5,240
 2005f50:	200565c0 	call	200565c <LCD_SetCursor>
		data=BLUE;
 2005f54:	008007c4 	movi	r2,31
 2005f58:	e0bfff0d 	sth	r2,-4(fp)
		for(index=0;index<240*80;index++)
 2005f5c:	e03ffe15 	stw	zero,-8(fp)
 2005f60:	00000706 	br	2005f80 <LCD_Pattern_Horizon+0x118>
		{
			LCD_WR_DATA(data);
 2005f64:	e0ffff0b 	ldhu	r3,-4(fp)
 2005f68:	00810074 	movhi	r2,1025
 2005f6c:	10a12d04 	addi	r2,r2,-31564
 2005f70:	10c00035 	stwio	r3,0(r2)
		{
			LCD_WR_DATA(data);
		}
		LCD_SetCursor(0x00,240);
		data=BLUE;
		for(index=0;index<240*80;index++)
 2005f74:	e0bffe17 	ldw	r2,-8(fp)
 2005f78:	10800044 	addi	r2,r2,1
 2005f7c:	e0bffe15 	stw	r2,-8(fp)
 2005f80:	e0bffe17 	ldw	r2,-8(fp)
 2005f84:	1092c030 	cmpltui	r2,r2,19200
 2005f88:	103ff61e 	bne	r2,zero,2005f64 <__reset+0xfdffe764>
		{
			LCD_WR_DATA(data);
		}
}
 2005f8c:	e037883a 	mov	sp,fp
 2005f90:	dfc00117 	ldw	ra,4(sp)
 2005f94:	df000017 	ldw	fp,0(sp)
 2005f98:	dec00204 	addi	sp,sp,8
 2005f9c:	f800283a 	ret

02005fa0 <LCD_Pattern_Vertical>:

//-------------------------------------------------------------

void LCD_Pattern_Vertical(void)
{
 2005fa0:	defff804 	addi	sp,sp,-32
 2005fa4:	dfc00715 	stw	ra,28(sp)
 2005fa8:	df000615 	stw	fp,24(sp)
 2005fac:	df000604 	addi	fp,sp,24
        int i,j,m;
        alt_u16  data=0;
 2005fb0:	e03ffd0d 	sth	zero,-12(fp)
        alt_u16  color[4]={WHITE,BLUE,GREEN,RED};
 2005fb4:	00bfffc4 	movi	r2,-1
 2005fb8:	e0bffd8d 	sth	r2,-10(fp)
 2005fbc:	008007c4 	movi	r2,31
 2005fc0:	e0bffe0d 	sth	r2,-8(fp)
 2005fc4:	0081f804 	movi	r2,2016
 2005fc8:	e0bffe8d 	sth	r2,-6(fp)
 2005fcc:	00be0004 	movi	r2,-2048
 2005fd0:	e0bfff0d 	sth	r2,-4(fp)
        LCD_SetCursor(0x00,0x0000);
 2005fd4:	0009883a 	mov	r4,zero
 2005fd8:	000b883a 	mov	r5,zero
 2005fdc:	200565c0 	call	200565c <LCD_SetCursor>
        for(m=0;m<320;m++)
 2005fe0:	e03ffc15 	stw	zero,-16(fp)
 2005fe4:	00001e06 	br	2006060 <LCD_Pattern_Vertical+0xc0>
        {
			for(i=0;i<4;i++)
 2005fe8:	e03ffa15 	stw	zero,-24(fp)
 2005fec:	00001606 	br	2006048 <LCD_Pattern_Vertical+0xa8>
			{
				data=color[i];
 2005ff0:	e0bffa17 	ldw	r2,-24(fp)
 2005ff4:	1085883a 	add	r2,r2,r2
 2005ff8:	e0fffa04 	addi	r3,fp,-24
 2005ffc:	1885883a 	add	r2,r3,r2
 2006000:	10800384 	addi	r2,r2,14
 2006004:	1080000b 	ldhu	r2,0(r2)
 2006008:	e0bffd0d 	sth	r2,-12(fp)
				for(j=0;j<60;j++)
 200600c:	e03ffb15 	stw	zero,-20(fp)
 2006010:	00000706 	br	2006030 <LCD_Pattern_Vertical+0x90>
				{
					LCD_WR_DATA(data);
 2006014:	e0fffd0b 	ldhu	r3,-12(fp)
 2006018:	00810074 	movhi	r2,1025
 200601c:	10a12d04 	addi	r2,r2,-31564
 2006020:	10c00035 	stwio	r3,0(r2)
        for(m=0;m<320;m++)
        {
			for(i=0;i<4;i++)
			{
				data=color[i];
				for(j=0;j<60;j++)
 2006024:	e0bffb17 	ldw	r2,-20(fp)
 2006028:	10800044 	addi	r2,r2,1
 200602c:	e0bffb15 	stw	r2,-20(fp)
 2006030:	e0bffb17 	ldw	r2,-20(fp)
 2006034:	10800f10 	cmplti	r2,r2,60
 2006038:	103ff61e 	bne	r2,zero,2006014 <__reset+0xfdffe814>
        alt_u16  data=0;
        alt_u16  color[4]={WHITE,BLUE,GREEN,RED};
        LCD_SetCursor(0x00,0x0000);
        for(m=0;m<320;m++)
        {
			for(i=0;i<4;i++)
 200603c:	e0bffa17 	ldw	r2,-24(fp)
 2006040:	10800044 	addi	r2,r2,1
 2006044:	e0bffa15 	stw	r2,-24(fp)
 2006048:	e0bffa17 	ldw	r2,-24(fp)
 200604c:	10800110 	cmplti	r2,r2,4
 2006050:	103fe71e 	bne	r2,zero,2005ff0 <__reset+0xfdffe7f0>
{
        int i,j,m;
        alt_u16  data=0;
        alt_u16  color[4]={WHITE,BLUE,GREEN,RED};
        LCD_SetCursor(0x00,0x0000);
        for(m=0;m<320;m++)
 2006054:	e0bffc17 	ldw	r2,-16(fp)
 2006058:	10800044 	addi	r2,r2,1
 200605c:	e0bffc15 	stw	r2,-16(fp)
 2006060:	e0bffc17 	ldw	r2,-16(fp)
 2006064:	10805010 	cmplti	r2,r2,320
 2006068:	103fdf1e 	bne	r2,zero,2005fe8 <__reset+0xfdffe7e8>
				{
					LCD_WR_DATA(data);
				}
			}
        }
}
 200606c:	e037883a 	mov	sp,fp
 2006070:	dfc00117 	ldw	ra,4(sp)
 2006074:	df000017 	ldw	fp,0(sp)
 2006078:	dec00204 	addi	sp,sp,8
 200607c:	f800283a 	ret

02006080 <Set_BUFFER_FLAG>:

void Set_BUFFER_FLAG(){
 2006080:	deffff04 	addi	sp,sp,-4
 2006084:	df000015 	stw	fp,0(sp)
 2006088:	d839883a 	mov	fp,sp
	IOWR_ALTERA_AVALON_PIO_DATA(LT24_BUFFER_FLAG_BASE,0x01);
 200608c:	00c00044 	movi	r3,1
 2006090:	00810074 	movhi	r2,1025
 2006094:	10a11404 	addi	r2,r2,-31664
 2006098:	10c00035 	stwio	r3,0(r2)
	LCD_WR_REG(0x002c);
 200609c:	00c00b04 	movi	r3,44
 20060a0:	00810074 	movhi	r2,1025
 20060a4:	10a12c04 	addi	r2,r2,-31568
 20060a8:	10c00035 	stwio	r3,0(r2)
}
 20060ac:	e037883a 	mov	sp,fp
 20060b0:	df000017 	ldw	fp,0(sp)
 20060b4:	dec00104 	addi	sp,sp,4
 20060b8:	f800283a 	ret

020060bc <Clr_BUFFER_FLAG>:

void Clr_BUFFER_FLAG(){
 20060bc:	deffff04 	addi	sp,sp,-4
 20060c0:	df000015 	stw	fp,0(sp)
 20060c4:	d839883a 	mov	fp,sp
	IOWR_ALTERA_AVALON_PIO_DATA(LT24_BUFFER_FLAG_BASE,0x00);
 20060c8:	0007883a 	mov	r3,zero
 20060cc:	00810074 	movhi	r2,1025
 20060d0:	10a11404 	addi	r2,r2,-31664
 20060d4:	10c00035 	stwio	r3,0(r2)
	LCD_WR_REG(0x002c);
 20060d8:	00c00b04 	movi	r3,44
 20060dc:	00810074 	movhi	r2,1025
 20060e0:	10a12c04 	addi	r2,r2,-31568
 20060e4:	10c00035 	stwio	r3,0(r2)
}
 20060e8:	e037883a 	mov	sp,fp
 20060ec:	df000017 	ldw	fp,0(sp)
 20060f0:	dec00104 	addi	sp,sp,4
 20060f4:	f800283a 	ret

020060f8 <IsPtInRect>:

//#define BOUND(x, mini, maxi) ((x<(mini)?(mini):( (x>(maxi))?(maxi):(x) )))

//#define COPY_POINT(pt_des, pt_src)  memcpy(&pt_des, &pt_src,sizeof(POINT))

bool IsPtInRect(POINT *pt, RECT *rc){
 20060f8:	defffc04 	addi	sp,sp,-16
 20060fc:	df000315 	stw	fp,12(sp)
 2006100:	df000304 	addi	fp,sp,12
 2006104:	e13ffe15 	stw	r4,-8(fp)
 2006108:	e17fff15 	stw	r5,-4(fp)
    bool bYes = FALSE;
 200610c:	e03ffd15 	stw	zero,-12(fp)
    
    if (pt->x >= rc->left && pt->x <= rc->right && pt->y >= rc->top && pt->y <= rc->bottom)
 2006110:	e0bffe17 	ldw	r2,-8(fp)
 2006114:	10c00017 	ldw	r3,0(r2)
 2006118:	e0bfff17 	ldw	r2,-4(fp)
 200611c:	10800017 	ldw	r2,0(r2)
 2006120:	18801116 	blt	r3,r2,2006168 <IsPtInRect+0x70>
 2006124:	e0bffe17 	ldw	r2,-8(fp)
 2006128:	10800017 	ldw	r2,0(r2)
 200612c:	e0ffff17 	ldw	r3,-4(fp)
 2006130:	18c00117 	ldw	r3,4(r3)
 2006134:	18800c16 	blt	r3,r2,2006168 <IsPtInRect+0x70>
 2006138:	e0bffe17 	ldw	r2,-8(fp)
 200613c:	10c00117 	ldw	r3,4(r2)
 2006140:	e0bfff17 	ldw	r2,-4(fp)
 2006144:	10800217 	ldw	r2,8(r2)
 2006148:	18800716 	blt	r3,r2,2006168 <IsPtInRect+0x70>
 200614c:	e0bffe17 	ldw	r2,-8(fp)
 2006150:	10800117 	ldw	r2,4(r2)
 2006154:	e0ffff17 	ldw	r3,-4(fp)
 2006158:	18c00317 	ldw	r3,12(r3)
 200615c:	18800216 	blt	r3,r2,2006168 <IsPtInRect+0x70>
        bYes = TRUE;
 2006160:	00800044 	movi	r2,1
 2006164:	e0bffd15 	stw	r2,-12(fp)
    
    return bYes;
 2006168:	e0bffd17 	ldw	r2,-12(fp)
}
 200616c:	e037883a 	mov	sp,fp
 2006170:	df000017 	ldw	fp,0(sp)
 2006174:	dec00104 	addi	sp,sp,4
 2006178:	f800283a 	ret

0200617c <PtSet>:

void PtSet(POINT *pt, int x, int y){
 200617c:	defffc04 	addi	sp,sp,-16
 2006180:	df000315 	stw	fp,12(sp)
 2006184:	df000304 	addi	fp,sp,12
 2006188:	e13ffd15 	stw	r4,-12(fp)
 200618c:	e17ffe15 	stw	r5,-8(fp)
 2006190:	e1bfff15 	stw	r6,-4(fp)
    pt->x = x;
 2006194:	e0bffd17 	ldw	r2,-12(fp)
 2006198:	e0fffe17 	ldw	r3,-8(fp)
 200619c:	10c00015 	stw	r3,0(r2)
    pt->y = y;
 20061a0:	e0bffd17 	ldw	r2,-12(fp)
 20061a4:	e0ffff17 	ldw	r3,-4(fp)
 20061a8:	10c00115 	stw	r3,4(r2)
}
 20061ac:	e037883a 	mov	sp,fp
 20061b0:	df000017 	ldw	fp,0(sp)
 20061b4:	dec00104 	addi	sp,sp,4
 20061b8:	f800283a 	ret

020061bc <RectSet>:

void RectSet(RECT *rc, int left, int right, int top, int bottom){
 20061bc:	defffb04 	addi	sp,sp,-20
 20061c0:	df000415 	stw	fp,16(sp)
 20061c4:	df000404 	addi	fp,sp,16
 20061c8:	e13ffc15 	stw	r4,-16(fp)
 20061cc:	e17ffd15 	stw	r5,-12(fp)
 20061d0:	e1bffe15 	stw	r6,-8(fp)
 20061d4:	e1ffff15 	stw	r7,-4(fp)
    rc->left = left;
 20061d8:	e0bffc17 	ldw	r2,-16(fp)
 20061dc:	e0fffd17 	ldw	r3,-12(fp)
 20061e0:	10c00015 	stw	r3,0(r2)
    rc->right = right;
 20061e4:	e0bffc17 	ldw	r2,-16(fp)
 20061e8:	e0fffe17 	ldw	r3,-8(fp)
 20061ec:	10c00115 	stw	r3,4(r2)
    rc->top = top;
 20061f0:	e0bffc17 	ldw	r2,-16(fp)
 20061f4:	e0ffff17 	ldw	r3,-4(fp)
 20061f8:	10c00215 	stw	r3,8(r2)
    rc->bottom = bottom;
 20061fc:	e0bffc17 	ldw	r2,-16(fp)
 2006200:	e0c00117 	ldw	r3,4(fp)
 2006204:	10c00315 	stw	r3,12(r2)
}
 2006208:	e037883a 	mov	sp,fp
 200620c:	df000017 	ldw	fp,0(sp)
 2006210:	dec00104 	addi	sp,sp,4
 2006214:	f800283a 	ret

02006218 <RectInflate>:

void RectInflate(RECT *rc, int x, int y){
 2006218:	defffc04 	addi	sp,sp,-16
 200621c:	df000315 	stw	fp,12(sp)
 2006220:	df000304 	addi	fp,sp,12
 2006224:	e13ffd15 	stw	r4,-12(fp)
 2006228:	e17ffe15 	stw	r5,-8(fp)
 200622c:	e1bfff15 	stw	r6,-4(fp)
    rc->left -= x;
 2006230:	e0bffd17 	ldw	r2,-12(fp)
 2006234:	10c00017 	ldw	r3,0(r2)
 2006238:	e0bffe17 	ldw	r2,-8(fp)
 200623c:	1887c83a 	sub	r3,r3,r2
 2006240:	e0bffd17 	ldw	r2,-12(fp)
 2006244:	10c00015 	stw	r3,0(r2)
    rc->right += x;
 2006248:	e0bffd17 	ldw	r2,-12(fp)
 200624c:	10c00117 	ldw	r3,4(r2)
 2006250:	e0bffe17 	ldw	r2,-8(fp)
 2006254:	1887883a 	add	r3,r3,r2
 2006258:	e0bffd17 	ldw	r2,-12(fp)
 200625c:	10c00115 	stw	r3,4(r2)
    rc->top -= y;
 2006260:	e0bffd17 	ldw	r2,-12(fp)
 2006264:	10c00217 	ldw	r3,8(r2)
 2006268:	e0bfff17 	ldw	r2,-4(fp)
 200626c:	1887c83a 	sub	r3,r3,r2
 2006270:	e0bffd17 	ldw	r2,-12(fp)
 2006274:	10c00215 	stw	r3,8(r2)
    rc->bottom += y;
 2006278:	e0bffd17 	ldw	r2,-12(fp)
 200627c:	10c00317 	ldw	r3,12(r2)
 2006280:	e0bfff17 	ldw	r2,-4(fp)
 2006284:	1887883a 	add	r3,r3,r2
 2006288:	e0bffd17 	ldw	r2,-12(fp)
 200628c:	10c00315 	stw	r3,12(r2)
}
 2006290:	e037883a 	mov	sp,fp
 2006294:	df000017 	ldw	fp,0(sp)
 2006298:	dec00104 	addi	sp,sp,4
 200629c:	f800283a 	ret

020062a0 <RectOffset>:

void RectOffset(RECT *rc, int x, int y){
 20062a0:	defffc04 	addi	sp,sp,-16
 20062a4:	df000315 	stw	fp,12(sp)
 20062a8:	df000304 	addi	fp,sp,12
 20062ac:	e13ffd15 	stw	r4,-12(fp)
 20062b0:	e17ffe15 	stw	r5,-8(fp)
 20062b4:	e1bfff15 	stw	r6,-4(fp)
    rc->left += x;
 20062b8:	e0bffd17 	ldw	r2,-12(fp)
 20062bc:	10c00017 	ldw	r3,0(r2)
 20062c0:	e0bffe17 	ldw	r2,-8(fp)
 20062c4:	1887883a 	add	r3,r3,r2
 20062c8:	e0bffd17 	ldw	r2,-12(fp)
 20062cc:	10c00015 	stw	r3,0(r2)
    rc->right += x;
 20062d0:	e0bffd17 	ldw	r2,-12(fp)
 20062d4:	10c00117 	ldw	r3,4(r2)
 20062d8:	e0bffe17 	ldw	r2,-8(fp)
 20062dc:	1887883a 	add	r3,r3,r2
 20062e0:	e0bffd17 	ldw	r2,-12(fp)
 20062e4:	10c00115 	stw	r3,4(r2)
    rc->top += y;
 20062e8:	e0bffd17 	ldw	r2,-12(fp)
 20062ec:	10c00217 	ldw	r3,8(r2)
 20062f0:	e0bfff17 	ldw	r2,-4(fp)
 20062f4:	1887883a 	add	r3,r3,r2
 20062f8:	e0bffd17 	ldw	r2,-12(fp)
 20062fc:	10c00215 	stw	r3,8(r2)
    rc->bottom += y;
 2006300:	e0bffd17 	ldw	r2,-12(fp)
 2006304:	10c00317 	ldw	r3,12(r2)
 2006308:	e0bfff17 	ldw	r2,-4(fp)
 200630c:	1887883a 	add	r3,r3,r2
 2006310:	e0bffd17 	ldw	r2,-12(fp)
 2006314:	10c00315 	stw	r3,12(r2)
}
 2006318:	e037883a 	mov	sp,fp
 200631c:	df000017 	ldw	fp,0(sp)
 2006320:	dec00104 	addi	sp,sp,4
 2006324:	f800283a 	ret

02006328 <RectCopy>:

void RectCopy(RECT *rcDes, RECT *rcSrc){
 2006328:	defffd04 	addi	sp,sp,-12
 200632c:	df000215 	stw	fp,8(sp)
 2006330:	df000204 	addi	fp,sp,8
 2006334:	e13ffe15 	stw	r4,-8(fp)
 2006338:	e17fff15 	stw	r5,-4(fp)
    rcDes->left = rcSrc->left;
 200633c:	e0bfff17 	ldw	r2,-4(fp)
 2006340:	10c00017 	ldw	r3,0(r2)
 2006344:	e0bffe17 	ldw	r2,-8(fp)
 2006348:	10c00015 	stw	r3,0(r2)
    rcDes->right = rcSrc->right;
 200634c:	e0bfff17 	ldw	r2,-4(fp)
 2006350:	10c00117 	ldw	r3,4(r2)
 2006354:	e0bffe17 	ldw	r2,-8(fp)
 2006358:	10c00115 	stw	r3,4(r2)
    rcDes->top = rcSrc->top;
 200635c:	e0bfff17 	ldw	r2,-4(fp)
 2006360:	10c00217 	ldw	r3,8(r2)
 2006364:	e0bffe17 	ldw	r2,-8(fp)
 2006368:	10c00215 	stw	r3,8(r2)
    rcDes->bottom = rcSrc->bottom;
 200636c:	e0bfff17 	ldw	r2,-4(fp)
 2006370:	10c00317 	ldw	r3,12(r2)
 2006374:	e0bffe17 	ldw	r2,-8(fp)
 2006378:	10c00315 	stw	r3,12(r2)
}
 200637c:	e037883a 	mov	sp,fp
 2006380:	df000017 	ldw	fp,0(sp)
 2006384:	dec00104 	addi	sp,sp,4
 2006388:	f800283a 	ret

0200638c <RectWidth>:

int RectWidth(RECT *rc){
 200638c:	defffe04 	addi	sp,sp,-8
 2006390:	df000115 	stw	fp,4(sp)
 2006394:	df000104 	addi	fp,sp,4
 2006398:	e13fff15 	stw	r4,-4(fp)
    return (rc->right-rc->left);
 200639c:	e0bfff17 	ldw	r2,-4(fp)
 20063a0:	10c00117 	ldw	r3,4(r2)
 20063a4:	e0bfff17 	ldw	r2,-4(fp)
 20063a8:	10800017 	ldw	r2,0(r2)
 20063ac:	1885c83a 	sub	r2,r3,r2
}
 20063b0:	e037883a 	mov	sp,fp
 20063b4:	df000017 	ldw	fp,0(sp)
 20063b8:	dec00104 	addi	sp,sp,4
 20063bc:	f800283a 	ret

020063c0 <RectHeight>:

int RectHeight(RECT *rc){
 20063c0:	defffe04 	addi	sp,sp,-8
 20063c4:	df000115 	stw	fp,4(sp)
 20063c8:	df000104 	addi	fp,sp,4
 20063cc:	e13fff15 	stw	r4,-4(fp)
    return (rc->bottom-rc->top);
 20063d0:	e0bfff17 	ldw	r2,-4(fp)
 20063d4:	10c00317 	ldw	r3,12(r2)
 20063d8:	e0bfff17 	ldw	r2,-4(fp)
 20063dc:	10800217 	ldw	r2,8(r2)
 20063e0:	1885c83a 	sub	r2,r3,r2
}
 20063e4:	e037883a 	mov	sp,fp
 20063e8:	df000017 	ldw	fp,0(sp)
 20063ec:	dec00104 	addi	sp,sp,4
 20063f0:	f800283a 	ret

020063f4 <PtDistance>:

int PtDistance(POINT *pt1, POINT *pt2){
 20063f4:	defff904 	addi	sp,sp,-28
 20063f8:	dfc00615 	stw	ra,24(sp)
 20063fc:	df000515 	stw	fp,20(sp)
 2006400:	df000504 	addi	fp,sp,20
 2006404:	e13ffe15 	stw	r4,-8(fp)
 2006408:	e17fff15 	stw	r5,-4(fp)
    int nDistance;
    int a, b;
    a = pt1->x - pt2->x;
 200640c:	e0bffe17 	ldw	r2,-8(fp)
 2006410:	10c00017 	ldw	r3,0(r2)
 2006414:	e0bfff17 	ldw	r2,-4(fp)
 2006418:	10800017 	ldw	r2,0(r2)
 200641c:	1885c83a 	sub	r2,r3,r2
 2006420:	e0bffb15 	stw	r2,-20(fp)
    b = pt1->y - pt2->y;
 2006424:	e0bffe17 	ldw	r2,-8(fp)
 2006428:	10c00117 	ldw	r3,4(r2)
 200642c:	e0bfff17 	ldw	r2,-4(fp)
 2006430:	10800117 	ldw	r2,4(r2)
 2006434:	1885c83a 	sub	r2,r3,r2
 2006438:	e0bffc15 	stw	r2,-16(fp)
    nDistance = a*a + b*b;
 200643c:	e0fffb17 	ldw	r3,-20(fp)
 2006440:	e0bffb17 	ldw	r2,-20(fp)
 2006444:	1887383a 	mul	r3,r3,r2
 2006448:	e13ffc17 	ldw	r4,-16(fp)
 200644c:	e0bffc17 	ldw	r2,-16(fp)
 2006450:	2085383a 	mul	r2,r4,r2
 2006454:	1885883a 	add	r2,r3,r2
 2006458:	e0bffd15 	stw	r2,-12(fp)
    nDistance = sqrt(nDistance);
 200645c:	e13ffd17 	ldw	r4,-12(fp)
 2006460:	200c8540 	call	200c854 <__floatsidf>
 2006464:	100b883a 	mov	r5,r2
 2006468:	180d883a 	mov	r6,r3
 200646c:	2809883a 	mov	r4,r5
 2006470:	300b883a 	mov	r5,r6
 2006474:	200a0240 	call	200a024 <sqrt>
 2006478:	100b883a 	mov	r5,r2
 200647c:	180d883a 	mov	r6,r3
 2006480:	2809883a 	mov	r4,r5
 2006484:	300b883a 	mov	r5,r6
 2006488:	200c7cc0 	call	200c7cc <__fixdfsi>
 200648c:	e0bffd15 	stw	r2,-12(fp)
    
    return nDistance;
 2006490:	e0bffd17 	ldw	r2,-12(fp)
}
 2006494:	e037883a 	mov	sp,fp
 2006498:	dfc00117 	ldw	ra,4(sp)
 200649c:	df000017 	ldw	fp,0(sp)
 20064a0:	dec00204 	addi	sp,sp,8
 20064a4:	f800283a 	ret

020064a8 <PtCopy>:

void PtCopy(POINT *ptDes, POINT *ptSrc){
 20064a8:	defffd04 	addi	sp,sp,-12
 20064ac:	df000215 	stw	fp,8(sp)
 20064b0:	df000204 	addi	fp,sp,8
 20064b4:	e13ffe15 	stw	r4,-8(fp)
 20064b8:	e17fff15 	stw	r5,-4(fp)
    ptDes->x = ptSrc->x;
 20064bc:	e0bfff17 	ldw	r2,-4(fp)
 20064c0:	10c00017 	ldw	r3,0(r2)
 20064c4:	e0bffe17 	ldw	r2,-8(fp)
 20064c8:	10c00015 	stw	r3,0(r2)
    ptDes->y = ptSrc->y;
 20064cc:	e0bfff17 	ldw	r2,-4(fp)
 20064d0:	10c00117 	ldw	r3,4(r2)
 20064d4:	e0bffe17 	ldw	r2,-8(fp)
 20064d8:	10c00115 	stw	r3,4(r2)
}
 20064dc:	e037883a 	mov	sp,fp
 20064e0:	df000017 	ldw	fp,0(sp)
 20064e4:	dec00104 	addi	sp,sp,4
 20064e8:	f800283a 	ret

020064ec <vid_clean_screen>:
#include "ILI9341.h"
#endif


// richard add
void vid_clean_screen(alt_video_display* display, int color){
 20064ec:	defffa04 	addi	sp,sp,-24
 20064f0:	dfc00515 	stw	ra,20(sp)
 20064f4:	df000415 	stw	fp,16(sp)
 20064f8:	df000404 	addi	fp,sp,16
 20064fc:	e13ffe15 	stw	r4,-8(fp)
 2006500:	e17fff15 	stw	r5,-4(fp)
    vid_paint_block(0 , 0,display->width, display->height, color, display);
 2006504:	e0bffe17 	ldw	r2,-8(fp)
 2006508:	11800117 	ldw	r6,4(r2)
 200650c:	e0bffe17 	ldw	r2,-8(fp)
 2006510:	10c00217 	ldw	r3,8(r2)
 2006514:	e0bfff17 	ldw	r2,-4(fp)
 2006518:	d8800015 	stw	r2,0(sp)
 200651c:	e0bffe17 	ldw	r2,-8(fp)
 2006520:	d8800115 	stw	r2,4(sp)
 2006524:	0009883a 	mov	r4,zero
 2006528:	000b883a 	mov	r5,zero
 200652c:	180f883a 	mov	r7,r3
 2006530:	20070480 	call	2007048 <vid_paint_block>
}
 2006534:	e037883a 	mov	sp,fp
 2006538:	dfc00117 	ldw	ra,4(sp)
 200653c:	df000017 	ldw	fp,0(sp)
 2006540:	dec00204 	addi	sp,sp,8
 2006544:	f800283a 	ret

02006548 <vid_draw_line>:
*           vid_draw_horiz_line(), which is much faster than 
*           vid_draw_sloped_line.
*
******************************************************************/
__inline__ void vid_draw_line(int horiz_start, int vert_start, int horiz_end, int vert_end, int width, int color, alt_video_display* display)
{
 2006548:	defff704 	addi	sp,sp,-36
 200654c:	dfc00815 	stw	ra,32(sp)
 2006550:	df000715 	stw	fp,28(sp)
 2006554:	df000704 	addi	fp,sp,28
 2006558:	e13ffc15 	stw	r4,-16(fp)
 200655c:	e17ffd15 	stw	r5,-12(fp)
 2006560:	e1bffe15 	stw	r6,-8(fp)
 2006564:	e1ffff15 	stw	r7,-4(fp)
 
  if( vert_start == vert_end )
 2006568:	e0fffd17 	ldw	r3,-12(fp)
 200656c:	e0bfff17 	ldw	r2,-4(fp)
 2006570:	1880101e 	bne	r3,r2,20065b4 <vid_draw_line+0x6c>
//                         (unsigned short)horiz_end,  
//                         (unsigned short)vert_start,
//                         color,
//                         display->buffer_ptrs[display->buffer_being_written]->buffer);

    vid_draw_horiz_line( (unsigned short)horiz_start, 
 2006574:	e0bffc17 	ldw	r2,-16(fp)
 2006578:	113fffcc 	andi	r4,r2,65535
 200657c:	2120001c 	xori	r4,r4,32768
 2006580:	21200004 	addi	r4,r4,-32768
 2006584:	e0bffe17 	ldw	r2,-8(fp)
 2006588:	117fffcc 	andi	r5,r2,65535
 200658c:	2960001c 	xori	r5,r5,32768
 2006590:	29600004 	addi	r5,r5,-32768
                         (unsigned short)horiz_end, 
                         (unsigned short)vert_start,
 2006594:	e0bffd17 	ldw	r2,-12(fp)
//                         (unsigned short)horiz_end,  
//                         (unsigned short)vert_start,
//                         color,
//                         display->buffer_ptrs[display->buffer_being_written]->buffer);

    vid_draw_horiz_line( (unsigned short)horiz_start, 
 2006598:	10ffffcc 	andi	r3,r2,65535
 200659c:	e0800417 	ldw	r2,16(fp)
 20065a0:	d8800015 	stw	r2,0(sp)
 20065a4:	180d883a 	mov	r6,r3
 20065a8:	e1c00317 	ldw	r7,12(fp)
 20065ac:	20070dc0 	call	20070dc <vid_draw_horiz_line>
 20065b0:	00001106 	br	20065f8 <vid_draw_line+0xb0>
                         color,
                         display );
  }
  else
  {
    vid_draw_sloped_line( (unsigned short)horiz_start, 
 20065b4:	e0bffc17 	ldw	r2,-16(fp)
 20065b8:	113fffcc 	andi	r4,r2,65535
                          (unsigned short)vert_start, 
 20065bc:	e0bffd17 	ldw	r2,-12(fp)
                         color,
                         display );
  }
  else
  {
    vid_draw_sloped_line( (unsigned short)horiz_start, 
 20065c0:	117fffcc 	andi	r5,r2,65535
                          (unsigned short)vert_start, 
                          (unsigned short)horiz_end, 
 20065c4:	e0bffe17 	ldw	r2,-8(fp)
                         color,
                         display );
  }
  else
  {
    vid_draw_sloped_line( (unsigned short)horiz_start, 
 20065c8:	11bfffcc 	andi	r6,r2,65535
                          (unsigned short)vert_start, 
                          (unsigned short)horiz_end, 
                          (unsigned short)vert_end, 
 20065cc:	e0bfff17 	ldw	r2,-4(fp)
                         color,
                         display );
  }
  else
  {
    vid_draw_sloped_line( (unsigned short)horiz_start, 
 20065d0:	10ffffcc 	andi	r3,r2,65535
                          (unsigned short)vert_start, 
                          (unsigned short)horiz_end, 
                          (unsigned short)vert_end, 
                          (unsigned short)width, 
 20065d4:	e0800217 	ldw	r2,8(fp)
                         color,
                         display );
  }
  else
  {
    vid_draw_sloped_line( (unsigned short)horiz_start, 
 20065d8:	10bfffcc 	andi	r2,r2,65535
 20065dc:	d8800015 	stw	r2,0(sp)
 20065e0:	e0800317 	ldw	r2,12(fp)
 20065e4:	d8800115 	stw	r2,4(sp)
 20065e8:	e0800417 	ldw	r2,16(fp)
 20065ec:	d8800215 	stw	r2,8(sp)
 20065f0:	180f883a 	mov	r7,r3
 20065f4:	20072f00 	call	20072f0 <vid_draw_sloped_line>
                          (unsigned short)vert_end, 
                          (unsigned short)width, 
                          color,
                          display );
  }
}
 20065f8:	e037883a 	mov	sp,fp
 20065fc:	dfc00117 	ldw	ra,4(sp)
 2006600:	df000017 	ldw	fp,0(sp)
 2006604:	dec00204 	addi	sp,sp,8
 2006608:	f800283a 	ret

0200660c <vid_scroll_string_quit>:



void vid_scroll_string_quit(vid_text_scroll_struct* scroll)
{
 200660c:	defffd04 	addi	sp,sp,-12
 2006610:	dfc00215 	stw	ra,8(sp)
 2006614:	df000115 	stw	fp,4(sp)
 2006618:	df000104 	addi	fp,sp,4
 200661c:	e13fff15 	stw	r4,-4(fp)
  free(scroll->string);
 2006620:	e0bfff17 	ldw	r2,-4(fp)
 2006624:	10800517 	ldw	r2,20(r2)
 2006628:	1009883a 	mov	r4,r2
 200662c:	200c9ac0 	call	200c9ac <free>
  free(scroll);
 2006630:	e13fff17 	ldw	r4,-4(fp)
 2006634:	200c9ac0 	call	200c9ac <free>
}
 2006638:	e037883a 	mov	sp,fp
 200663c:	dfc00117 	ldw	ra,4(sp)
 2006640:	df000017 	ldw	fp,0(sp)
 2006644:	dec00204 	addi	sp,sp,8
 2006648:	f800283a 	ret

0200664c <vid_scroll_string_init>:

vid_text_scroll_struct* vid_scroll_string_init(int hbegin, int vbegin, int hend, int f_color, int b_color, char* font, int ms_delay, char *string)
{
 200664c:	defff904 	addi	sp,sp,-28
 2006650:	dfc00615 	stw	ra,24(sp)
 2006654:	df000515 	stw	fp,20(sp)
 2006658:	df000504 	addi	fp,sp,20
 200665c:	e13ffc15 	stw	r4,-16(fp)
 2006660:	e17ffd15 	stw	r5,-12(fp)
 2006664:	e1bffe15 	stw	r6,-8(fp)
 2006668:	e1ffff15 	stw	r7,-4(fp)
  vid_text_scroll_struct* scroll;
  scroll = malloc(sizeof (vid_text_scroll_struct));
 200666c:	01000f04 	movi	r4,60
 2006670:	200c9980 	call	200c998 <malloc>
 2006674:	e0bffb15 	stw	r2,-20(fp)
  
  scroll->hbegin = hbegin;
 2006678:	e0bffb17 	ldw	r2,-20(fp)
 200667c:	e0fffc17 	ldw	r3,-16(fp)
 2006680:	10c00015 	stw	r3,0(r2)
  scroll->vbegin = vbegin;
 2006684:	e0bffb17 	ldw	r2,-20(fp)
 2006688:	e0fffd17 	ldw	r3,-12(fp)
 200668c:	10c00115 	stw	r3,4(r2)
  scroll->hend = hend;
 2006690:	e0bffb17 	ldw	r2,-20(fp)
 2006694:	e0fffe17 	ldw	r3,-8(fp)
 2006698:	10c00215 	stw	r3,8(r2)
  scroll->f_color = f_color;
 200669c:	e0bffb17 	ldw	r2,-20(fp)
 20066a0:	e0ffff17 	ldw	r3,-4(fp)
 20066a4:	10c00315 	stw	r3,12(r2)
  scroll->b_color = b_color;
 20066a8:	e0bffb17 	ldw	r2,-20(fp)
 20066ac:	e0c00217 	ldw	r3,8(fp)
 20066b0:	10c00415 	stw	r3,16(r2)
  scroll->string = malloc(strlen(string)+2);
 20066b4:	e1000517 	ldw	r4,20(fp)
 20066b8:	200d3000 	call	200d300 <strlen>
 20066bc:	10800084 	addi	r2,r2,2
 20066c0:	1009883a 	mov	r4,r2
 20066c4:	200c9980 	call	200c998 <malloc>
 20066c8:	1007883a 	mov	r3,r2
 20066cc:	e0bffb17 	ldw	r2,-20(fp)
 20066d0:	10c00515 	stw	r3,20(r2)
  strcpy(scroll->string, string);
 20066d4:	e0bffb17 	ldw	r2,-20(fp)
 20066d8:	10800517 	ldw	r2,20(r2)
 20066dc:	1009883a 	mov	r4,r2
 20066e0:	e1400517 	ldw	r5,20(fp)
 20066e4:	200d2d40 	call	200d2d4 <strcpy>
  scroll->font = font;
 20066e8:	e0bffb17 	ldw	r2,-20(fp)
 20066ec:	e0c00317 	ldw	r3,12(fp)
 20066f0:	10c00615 	stw	r3,24(r2)
  scroll->ms_delay = ms_delay;
 20066f4:	e0bffb17 	ldw	r2,-20(fp)
 20066f8:	e0c00417 	ldw	r3,16(fp)
 20066fc:	10c00715 	stw	r3,28(r2)
 * alt_nticks() returns the elapsed number of system clock ticks since reset.
 */

static ALT_INLINE alt_u32 ALT_ALWAYS_INLINE alt_nticks (void)
{
  return _alt_nticks;
 2006700:	008080f4 	movhi	r2,515
 2006704:	10896f04 	addi	r2,r2,9660
 2006708:	10800017 	ldw	r2,0(r2)
  scroll->ticks_at_last_move = alt_nticks();
 200670c:	1007883a 	mov	r3,r2
 2006710:	e0bffb17 	ldw	r2,-20(fp)
 2006714:	10c00815 	stw	r3,32(r2)
  scroll->text_scroll_index = 0;
 2006718:	e0bffb17 	ldw	r2,-20(fp)
 200671c:	10000915 	stw	zero,36(r2)
  scroll->text_scroll_started = 0;
 2006720:	e0bffb17 	ldw	r2,-20(fp)
 2006724:	10000a05 	stb	zero,40(r2)
  scroll->window_width = scroll->hend - scroll->hbegin;
 2006728:	e0bffb17 	ldw	r2,-20(fp)
 200672c:	10c00217 	ldw	r3,8(r2)
 2006730:	e0bffb17 	ldw	r2,-20(fp)
 2006734:	10800017 	ldw	r2,0(r2)
 2006738:	1887c83a 	sub	r3,r3,r2
 200673c:	e0bffb17 	ldw	r2,-20(fp)
 2006740:	10c00b15 	stw	r3,44(r2)
  scroll->length_of_string = strlen(string);
 2006744:	e1000517 	ldw	r4,20(fp)
 2006748:	200d3000 	call	200d300 <strlen>
 200674c:	1007883a 	mov	r3,r2
 2006750:	e0bffb17 	ldw	r2,-20(fp)
 2006754:	10c00c15 	stw	r3,48(r2)
  scroll->string_points = scroll->length_of_string * 8;
 2006758:	e0bffb17 	ldw	r2,-20(fp)
 200675c:	10800c17 	ldw	r2,48(r2)
 2006760:	100690fa 	slli	r3,r2,3
 2006764:	e0bffb17 	ldw	r2,-20(fp)
 2006768:	10c00e15 	stw	r3,56(r2)
  scroll->scroll_points = (scroll->window_width + scroll->string_points);
 200676c:	e0bffb17 	ldw	r2,-20(fp)
 2006770:	10c00b17 	ldw	r3,44(r2)
 2006774:	e0bffb17 	ldw	r2,-20(fp)
 2006778:	10800e17 	ldw	r2,56(r2)
 200677c:	1887883a 	add	r3,r3,r2
 2006780:	e0bffb17 	ldw	r2,-20(fp)
 2006784:	10c00d15 	stw	r3,52(r2)
 
  return(scroll);
 2006788:	e0bffb17 	ldw	r2,-20(fp)
  
}
 200678c:	e037883a 	mov	sp,fp
 2006790:	dfc00117 	ldw	ra,4(sp)
 2006794:	df000017 	ldw	fp,0(sp)
 2006798:	dec00204 	addi	sp,sp,8
 200679c:	f800283a 	ret

020067a0 <vid_scroll_string>:


int vid_scroll_string(vid_text_scroll_struct* scroll, alt_video_display* display)
{
 20067a0:	deffec04 	addi	sp,sp,-80
 20067a4:	dfc01315 	stw	ra,76(sp)
 20067a8:	df001215 	stw	fp,72(sp)
 20067ac:	dc401115 	stw	r17,68(sp)
 20067b0:	dc001015 	stw	r16,64(sp)
 20067b4:	df001204 	addi	fp,sp,72
 20067b8:	e13ffc15 	stw	r4,-16(fp)
 20067bc:	e17ffd15 	stw	r5,-12(fp)

  int x_start, x_end, x_index, string_x_index, string_char_index, char_row, char_column;
  char character, column_mask;
  char* font_char_ptr;
  char pixels_to_move_by = 1;
 20067c0:	00800044 	movi	r2,1
 20067c4:	e0bff605 	stb	r2,-40(fp)
 20067c8:	008080f4 	movhi	r2,515
 20067cc:	10896f04 	addi	r2,r2,9660
 20067d0:	14000017 	ldw	r16,0(r2)

  // If it's time to move the scroll..
  if (alt_nticks() >= (scroll->ticks_at_last_move + ((alt_ticks_per_second() * (scroll->ms_delay)) / 1000))) {
 20067d4:	e0bffc17 	ldw	r2,-16(fp)
 20067d8:	10800817 	ldw	r2,32(r2)
 20067dc:	1023883a 	mov	r17,r2
 * Obtain the system clock rate in ticks/s. 
 */

static ALT_INLINE alt_u32 ALT_ALWAYS_INLINE alt_ticks_per_second (void)
{
  return _alt_tick_rate;
 20067e0:	008080f4 	movhi	r2,515
 20067e4:	10896e04 	addi	r2,r2,9656
 20067e8:	10800017 	ldw	r2,0(r2)
 20067ec:	e0fffc17 	ldw	r3,-16(fp)
 20067f0:	18c00717 	ldw	r3,28(r3)
 20067f4:	10c5383a 	mul	r2,r2,r3
 20067f8:	1009883a 	mov	r4,r2
 20067fc:	0140fa04 	movi	r5,1000
 2006800:	200a5800 	call	200a580 <__udivsi3>
 2006804:	8885883a 	add	r2,r17,r2
 2006808:	8080b936 	bltu	r16,r2,2006af0 <vid_scroll_string+0x350>
 * alt_nticks() returns the elapsed number of system clock ticks since reset.
 */

static ALT_INLINE alt_u32 ALT_ALWAYS_INLINE alt_nticks (void)
{
  return _alt_nticks;
 200680c:	008080f4 	movhi	r2,515
 2006810:	10896f04 	addi	r2,r2,9660
 2006814:	10800017 	ldw	r2,0(r2)
    scroll->ticks_at_last_move = alt_nticks();
 2006818:	1007883a 	mov	r3,r2
 200681c:	e0bffc17 	ldw	r2,-16(fp)
 2006820:	10c00815 	stw	r3,32(r2)
    
    // Track where we are in the scroll.
    if(scroll->text_scroll_started == 0) {
 2006824:	e0bffc17 	ldw	r2,-16(fp)
 2006828:	10800a03 	ldbu	r2,40(r2)
 200682c:	10803fcc 	andi	r2,r2,255
 2006830:	1080201c 	xori	r2,r2,128
 2006834:	10bfe004 	addi	r2,r2,-128
 2006838:	1000061e 	bne	r2,zero,2006854 <vid_scroll_string+0xb4>
      scroll->text_scroll_index = 0;
 200683c:	e0bffc17 	ldw	r2,-16(fp)
 2006840:	10000915 	stw	zero,36(r2)
      scroll->text_scroll_started = 1;
 2006844:	e0bffc17 	ldw	r2,-16(fp)
 2006848:	00c00044 	movi	r3,1
 200684c:	10c00a05 	stb	r3,40(r2)
 2006850:	00000e06 	br	200688c <vid_scroll_string+0xec>
    } else if(scroll->text_scroll_index >= scroll->scroll_points)  {
 2006854:	e0bffc17 	ldw	r2,-16(fp)
 2006858:	10c00917 	ldw	r3,36(r2)
 200685c:	e0bffc17 	ldw	r2,-16(fp)
 2006860:	10800d17 	ldw	r2,52(r2)
 2006864:	18800316 	blt	r3,r2,2006874 <vid_scroll_string+0xd4>
      scroll->text_scroll_started = 0;
 2006868:	e0bffc17 	ldw	r2,-16(fp)
 200686c:	10000a05 	stb	zero,40(r2)
 2006870:	00000606 	br	200688c <vid_scroll_string+0xec>
    } else {
      scroll->text_scroll_index += pixels_to_move_by;
 2006874:	e0bffc17 	ldw	r2,-16(fp)
 2006878:	10c00917 	ldw	r3,36(r2)
 200687c:	e0bff607 	ldb	r2,-40(fp)
 2006880:	1887883a 	add	r3,r3,r2
 2006884:	e0bffc17 	ldw	r2,-16(fp)
 2006888:	10c00915 	stw	r3,36(r2)
    }
    
    //Find out where we start
    if (scroll->text_scroll_index < scroll->window_width) {
 200688c:	e0bffc17 	ldw	r2,-16(fp)
 2006890:	10c00917 	ldw	r3,36(r2)
 2006894:	e0bffc17 	ldw	r2,-16(fp)
 2006898:	10800b17 	ldw	r2,44(r2)
 200689c:	18800a0e 	bge	r3,r2,20068c8 <vid_scroll_string+0x128>
      x_start = scroll->hbegin + scroll->window_width - scroll->text_scroll_index;
 20068a0:	e0bffc17 	ldw	r2,-16(fp)
 20068a4:	10c00017 	ldw	r3,0(r2)
 20068a8:	e0bffc17 	ldw	r2,-16(fp)
 20068ac:	10800b17 	ldw	r2,44(r2)
 20068b0:	1887883a 	add	r3,r3,r2
 20068b4:	e0bffc17 	ldw	r2,-16(fp)
 20068b8:	10800917 	ldw	r2,36(r2)
 20068bc:	1885c83a 	sub	r2,r3,r2
 20068c0:	e0bff115 	stw	r2,-60(fp)
 20068c4:	00000306 	br	20068d4 <vid_scroll_string+0x134>
    } else {
      x_start = scroll->hbegin;
 20068c8:	e0bffc17 	ldw	r2,-16(fp)
 20068cc:	10800017 	ldw	r2,0(r2)
 20068d0:	e0bff115 	stw	r2,-60(fp)
    }
    //Find out where we end
    if (scroll->string_points > scroll->text_scroll_index) {
 20068d4:	e0bffc17 	ldw	r2,-16(fp)
 20068d8:	10800e17 	ldw	r2,56(r2)
 20068dc:	e0fffc17 	ldw	r3,-16(fp)
 20068e0:	18c00917 	ldw	r3,36(r3)
 20068e4:	1880040e 	bge	r3,r2,20068f8 <vid_scroll_string+0x158>
      x_end = scroll->hend;
 20068e8:	e0bffc17 	ldw	r2,-16(fp)
 20068ec:	10800217 	ldw	r2,8(r2)
 20068f0:	e0bff215 	stw	r2,-56(fp)
 20068f4:	00000906 	br	200691c <vid_scroll_string+0x17c>
    } else {
      x_end = (scroll->hend - scroll->text_scroll_index + scroll->string_points);
 20068f8:	e0bffc17 	ldw	r2,-16(fp)
 20068fc:	10c00217 	ldw	r3,8(r2)
 2006900:	e0bffc17 	ldw	r2,-16(fp)
 2006904:	10800917 	ldw	r2,36(r2)
 2006908:	1887c83a 	sub	r3,r3,r2
 200690c:	e0bffc17 	ldw	r2,-16(fp)
 2006910:	10800e17 	ldw	r2,56(r2)
 2006914:	1885883a 	add	r2,r3,r2
 2006918:	e0bff215 	stw	r2,-56(fp)
    }

    // Write the string segment a column (x) at a time
    for(x_index = x_start; x_index < x_end; x_index++) {
 200691c:	e0bff117 	ldw	r2,-60(fp)
 2006920:	e0bff315 	stw	r2,-52(fp)
 2006924:	00006006 	br	2006aa8 <vid_scroll_string+0x308>
      // Find the x index we're at within the string
      // If first part of string hasnt yet reached left side of scroll window
      if (scroll->text_scroll_index < scroll->window_width) {
 2006928:	e0bffc17 	ldw	r2,-16(fp)
 200692c:	10c00917 	ldw	r3,36(r2)
 2006930:	e0bffc17 	ldw	r2,-16(fp)
 2006934:	10800b17 	ldw	r2,44(r2)
 2006938:	1880050e 	bge	r3,r2,2006950 <vid_scroll_string+0x1b0>
        string_x_index = (x_index - x_start);
 200693c:	e0fff317 	ldw	r3,-52(fp)
 2006940:	e0bff117 	ldw	r2,-60(fp)
 2006944:	1885c83a 	sub	r2,r3,r2
 2006948:	e0bff415 	stw	r2,-48(fp)
 200694c:	00000a06 	br	2006978 <vid_scroll_string+0x1d8>
      } else {
        string_x_index = scroll->text_scroll_index - scroll->window_width + x_index - x_start;
 2006950:	e0bffc17 	ldw	r2,-16(fp)
 2006954:	10c00917 	ldw	r3,36(r2)
 2006958:	e0bffc17 	ldw	r2,-16(fp)
 200695c:	10800b17 	ldw	r2,44(r2)
 2006960:	1887c83a 	sub	r3,r3,r2
 2006964:	e0bff317 	ldw	r2,-52(fp)
 2006968:	1887883a 	add	r3,r3,r2
 200696c:	e0bff117 	ldw	r2,-60(fp)
 2006970:	1885c83a 	sub	r2,r3,r2
 2006974:	e0bff415 	stw	r2,-48(fp)
      }
      //Find the character we're supposed to be writing
      string_char_index = (string_x_index / 8);
 2006978:	e0bff417 	ldw	r2,-48(fp)
 200697c:	1000010e 	bge	r2,zero,2006984 <vid_scroll_string+0x1e4>
 2006980:	108001c4 	addi	r2,r2,7
 2006984:	1005d0fa 	srai	r2,r2,3
 2006988:	e0bff715 	stw	r2,-36(fp)
      character = scroll->string[string_char_index];
 200698c:	e0bffc17 	ldw	r2,-16(fp)
 2006990:	10c00517 	ldw	r3,20(r2)
 2006994:	e0bff717 	ldw	r2,-36(fp)
 2006998:	1885883a 	add	r2,r3,r2
 200699c:	10800003 	ldbu	r2,0(r2)
 20069a0:	e0bff805 	stb	r2,-32(fp)
      char_column = (string_x_index % 8);
 20069a4:	e0fff417 	ldw	r3,-48(fp)
 20069a8:	00a00034 	movhi	r2,32768
 20069ac:	108001c4 	addi	r2,r2,7
 20069b0:	1884703a 	and	r2,r3,r2
 20069b4:	1000040e 	bge	r2,zero,20069c8 <vid_scroll_string+0x228>
 20069b8:	10bfffc4 	addi	r2,r2,-1
 20069bc:	00fffe04 	movi	r3,-8
 20069c0:	10c4b03a 	or	r2,r2,r3
 20069c4:	10800044 	addi	r2,r2,1
 20069c8:	e0bff915 	stw	r2,-28(fp)
      column_mask = (((unsigned int)0x80) >> char_column);
 20069cc:	00c02004 	movi	r3,128
 20069d0:	e0bff917 	ldw	r2,-28(fp)
 20069d4:	1884d83a 	srl	r2,r3,r2
 20069d8:	e0bffa05 	stb	r2,-24(fp)
      font_char_ptr = (scroll->font + ((character - 0x20) * FONT_10PT_ROW));
 20069dc:	e0bffc17 	ldw	r2,-16(fp)
 20069e0:	10800617 	ldw	r2,24(r2)
 20069e4:	e0fff807 	ldb	r3,-32(fp)
 20069e8:	18fff804 	addi	r3,r3,-32
 20069ec:	18c002e4 	muli	r3,r3,11
 20069f0:	10c5883a 	add	r2,r2,r3
 20069f4:	e0bffb15 	stw	r2,-20(fp)
      //We have all the data now, so let's write a column
      for(char_row = 0; char_row < 11; char_row++) {
 20069f8:	e03ff515 	stw	zero,-44(fp)
 20069fc:	00002406 	br	2006a90 <vid_scroll_string+0x2f0>
        // If the font table says this pixel is on, then set it to the foreground color
        if (*(font_char_ptr + char_row) & column_mask) {
 2006a00:	e0bff517 	ldw	r2,-44(fp)
 2006a04:	e0fffb17 	ldw	r3,-20(fp)
 2006a08:	1885883a 	add	r2,r3,r2
 2006a0c:	10c00003 	ldbu	r3,0(r2)
 2006a10:	e0bffa03 	ldbu	r2,-24(fp)
 2006a14:	1884703a 	and	r2,r3,r2
 2006a18:	10803fcc 	andi	r2,r2,255
 2006a1c:	1080201c 	xori	r2,r2,128
 2006a20:	10bfe004 	addi	r2,r2,-128
 2006a24:	10000c26 	beq	r2,zero,2006a58 <vid_scroll_string+0x2b8>
          vid_set_pixel(x_index, scroll->vbegin + char_row, scroll->f_color, display); 
 2006a28:	e0bffc17 	ldw	r2,-16(fp)
 2006a2c:	10c00117 	ldw	r3,4(r2)
 2006a30:	e0bff517 	ldw	r2,-44(fp)
 2006a34:	1887883a 	add	r3,r3,r2
 2006a38:	e0bffc17 	ldw	r2,-16(fp)
 2006a3c:	10800317 	ldw	r2,12(r2)
 2006a40:	e13ff317 	ldw	r4,-52(fp)
 2006a44:	180b883a 	mov	r5,r3
 2006a48:	100d883a 	mov	r6,r2
 2006a4c:	e1fffd17 	ldw	r7,-12(fp)
 2006a50:	2006f6c0 	call	2006f6c <vid_set_pixel>
 2006a54:	00000b06 	br	2006a84 <vid_scroll_string+0x2e4>
        // Otherwise, set it to the background color.
        } else {
          vid_set_pixel(x_index, scroll->vbegin + char_row, scroll->b_color, display); //background color
 2006a58:	e0bffc17 	ldw	r2,-16(fp)
 2006a5c:	10c00117 	ldw	r3,4(r2)
 2006a60:	e0bff517 	ldw	r2,-44(fp)
 2006a64:	1887883a 	add	r3,r3,r2
 2006a68:	e0bffc17 	ldw	r2,-16(fp)
 2006a6c:	10800417 	ldw	r2,16(r2)
 2006a70:	e13ff317 	ldw	r4,-52(fp)
 2006a74:	180b883a 	mov	r5,r3
 2006a78:	100d883a 	mov	r6,r2
 2006a7c:	e1fffd17 	ldw	r7,-12(fp)
 2006a80:	2006f6c0 	call	2006f6c <vid_set_pixel>
      character = scroll->string[string_char_index];
      char_column = (string_x_index % 8);
      column_mask = (((unsigned int)0x80) >> char_column);
      font_char_ptr = (scroll->font + ((character - 0x20) * FONT_10PT_ROW));
      //We have all the data now, so let's write a column
      for(char_row = 0; char_row < 11; char_row++) {
 2006a84:	e0bff517 	ldw	r2,-44(fp)
 2006a88:	10800044 	addi	r2,r2,1
 2006a8c:	e0bff515 	stw	r2,-44(fp)
 2006a90:	e0bff517 	ldw	r2,-44(fp)
 2006a94:	108002d0 	cmplti	r2,r2,11
 2006a98:	103fd91e 	bne	r2,zero,2006a00 <__reset+0xfdfff200>
    } else {
      x_end = (scroll->hend - scroll->text_scroll_index + scroll->string_points);
    }

    // Write the string segment a column (x) at a time
    for(x_index = x_start; x_index < x_end; x_index++) {
 2006a9c:	e0bff317 	ldw	r2,-52(fp)
 2006aa0:	10800044 	addi	r2,r2,1
 2006aa4:	e0bff315 	stw	r2,-52(fp)
 2006aa8:	e0fff317 	ldw	r3,-52(fp)
 2006aac:	e0bff217 	ldw	r2,-56(fp)
 2006ab0:	18bf9d16 	blt	r3,r2,2006928 <__reset+0xfdfff128>
          vid_set_pixel(x_index, scroll->vbegin + char_row, scroll->b_color, display); //background color
        }
      }
    }
    // Erase the leftover column (x) of the last string we wrote.
    vid_draw_line(x_end, scroll->vbegin, x_end, scroll->vbegin + 10, 1, scroll->b_color, display);
 2006ab4:	e0bffc17 	ldw	r2,-16(fp)
 2006ab8:	11400117 	ldw	r5,4(r2)
 2006abc:	e0bffc17 	ldw	r2,-16(fp)
 2006ac0:	10800117 	ldw	r2,4(r2)
 2006ac4:	11c00284 	addi	r7,r2,10
 2006ac8:	e0bffc17 	ldw	r2,-16(fp)
 2006acc:	10800417 	ldw	r2,16(r2)
 2006ad0:	00c00044 	movi	r3,1
 2006ad4:	d8c00015 	stw	r3,0(sp)
 2006ad8:	d8800115 	stw	r2,4(sp)
 2006adc:	e0bffd17 	ldw	r2,-12(fp)
 2006ae0:	d8800215 	stw	r2,8(sp)
 2006ae4:	e13ff217 	ldw	r4,-56(fp)
 2006ae8:	e1bff217 	ldw	r6,-56(fp)
 2006aec:	20065480 	call	2006548 <vid_draw_line>
    // Log what time we moved the scroll.
  }
  return(0);
 2006af0:	0005883a 	mov	r2,zero
}
 2006af4:	e6fffe04 	addi	sp,fp,-8
 2006af8:	dfc00317 	ldw	ra,12(sp)
 2006afc:	df000217 	ldw	fp,8(sp)
 2006b00:	dc400117 	ldw	r17,4(sp)
 2006b04:	dc000017 	ldw	r16,0(sp)
 2006b08:	dec00404 	addi	sp,sp,16
 2006b0c:	f800283a 	ret

02006b10 <vid_move_block>:
*           the backfill_color parameter.
*
******************************************************************/

int vid_move_block(int xbegin, int ybegin, int xend, int yend, int x_distance, int y_distance, int backfill_color, alt_video_display* display)
{
 2006b10:	defff504 	addi	sp,sp,-44
 2006b14:	dfc00a15 	stw	ra,40(sp)
 2006b18:	df000915 	stw	fp,36(sp)
 2006b1c:	df000904 	addi	fp,sp,36
 2006b20:	e13ffc15 	stw	r4,-16(fp)
 2006b24:	e17ffd15 	stw	r5,-12(fp)
 2006b28:	e1bffe15 	stw	r6,-8(fp)
 2006b2c:	e1ffff15 	stw	r7,-4(fp)
  int read_x, read_y, write_x, write_y;
  short temp_pixel;
  
  if(x_distance <= 0 && y_distance <= 0) {  
 2006b30:	e0800217 	ldw	r2,8(fp)
 2006b34:	00803716 	blt	zero,r2,2006c14 <vid_move_block+0x104>
 2006b38:	e0800317 	ldw	r2,12(fp)
 2006b3c:	00803516 	blt	zero,r2,2006c14 <vid_move_block+0x104>
    //Move by rows because they are contiguous in memory (could help speed if in SDRAM)
    for (read_y = ybegin; read_y < yend; read_y++) {
 2006b40:	e0bffd17 	ldw	r2,-12(fp)
 2006b44:	e0bff815 	stw	r2,-32(fp)
 2006b48:	00002f06 	br	2006c08 <vid_move_block+0xf8>
      write_y = read_y + y_distance;
 2006b4c:	e0fff817 	ldw	r3,-32(fp)
 2006b50:	e0800317 	ldw	r2,12(fp)
 2006b54:	1885883a 	add	r2,r3,r2
 2006b58:	e0bff915 	stw	r2,-28(fp)
      for(read_x = xbegin; read_x < xend; read_x++) {
 2006b5c:	e0bffc17 	ldw	r2,-16(fp)
 2006b60:	e0bff715 	stw	r2,-36(fp)
 2006b64:	00002206 	br	2006bf0 <vid_move_block+0xe0>
        write_x = read_x + x_distance;
 2006b68:	e0fff717 	ldw	r3,-36(fp)
 2006b6c:	e0800217 	ldw	r2,8(fp)
 2006b70:	1885883a 	add	r2,r3,r2
 2006b74:	e0bffa15 	stw	r2,-24(fp)
        temp_pixel = vid_get_pixel(read_x, read_y, display);
 2006b78:	e13ff717 	ldw	r4,-36(fp)
 2006b7c:	e17ff817 	ldw	r5,-32(fp)
 2006b80:	e1800517 	ldw	r6,20(fp)
 2006b84:	20070080 	call	2007008 <vid_get_pixel>
 2006b88:	e0bffb0d 	sth	r2,-20(fp)
        vid_set_pixel(write_x, write_y, temp_pixel, display);
 2006b8c:	e0bffb0f 	ldh	r2,-20(fp)
 2006b90:	e13ffa17 	ldw	r4,-24(fp)
 2006b94:	e17ff917 	ldw	r5,-28(fp)
 2006b98:	100d883a 	mov	r6,r2
 2006b9c:	e1c00517 	ldw	r7,20(fp)
 2006ba0:	2006f6c0 	call	2006f6c <vid_set_pixel>
        if(read_x >= xend + x_distance || read_y >= yend + y_distance) 
 2006ba4:	e0fffe17 	ldw	r3,-8(fp)
 2006ba8:	e0800217 	ldw	r2,8(fp)
 2006bac:	1885883a 	add	r2,r3,r2
 2006bb0:	e0fff717 	ldw	r3,-36(fp)
 2006bb4:	1880050e 	bge	r3,r2,2006bcc <vid_move_block+0xbc>
 2006bb8:	e0ffff17 	ldw	r3,-4(fp)
 2006bbc:	e0800317 	ldw	r2,12(fp)
 2006bc0:	1885883a 	add	r2,r3,r2
 2006bc4:	e0fff817 	ldw	r3,-32(fp)
 2006bc8:	18800616 	blt	r3,r2,2006be4 <vid_move_block+0xd4>
        {
	        vid_set_pixel(read_x, read_y, backfill_color, display);
 2006bcc:	e0800417 	ldw	r2,16(fp)
 2006bd0:	e13ff717 	ldw	r4,-36(fp)
 2006bd4:	e17ff817 	ldw	r5,-32(fp)
 2006bd8:	100d883a 	mov	r6,r2
 2006bdc:	e1c00517 	ldw	r7,20(fp)
 2006be0:	2006f6c0 	call	2006f6c <vid_set_pixel>
  
  if(x_distance <= 0 && y_distance <= 0) {  
    //Move by rows because they are contiguous in memory (could help speed if in SDRAM)
    for (read_y = ybegin; read_y < yend; read_y++) {
      write_y = read_y + y_distance;
      for(read_x = xbegin; read_x < xend; read_x++) {
 2006be4:	e0bff717 	ldw	r2,-36(fp)
 2006be8:	10800044 	addi	r2,r2,1
 2006bec:	e0bff715 	stw	r2,-36(fp)
 2006bf0:	e0fff717 	ldw	r3,-36(fp)
 2006bf4:	e0bffe17 	ldw	r2,-8(fp)
 2006bf8:	18bfdb16 	blt	r3,r2,2006b68 <__reset+0xfdfff368>
  int read_x, read_y, write_x, write_y;
  short temp_pixel;
  
  if(x_distance <= 0 && y_distance <= 0) {  
    //Move by rows because they are contiguous in memory (could help speed if in SDRAM)
    for (read_y = ybegin; read_y < yend; read_y++) {
 2006bfc:	e0bff817 	ldw	r2,-32(fp)
 2006c00:	10800044 	addi	r2,r2,1
 2006c04:	e0bff815 	stw	r2,-32(fp)
 2006c08:	e0fff817 	ldw	r3,-32(fp)
 2006c0c:	e0bfff17 	ldw	r2,-4(fp)
 2006c10:	18bfce16 	blt	r3,r2,2006b4c <__reset+0xfdfff34c>
	        vid_set_pixel(read_x, read_y, backfill_color, display);
        }
      }
    }
  }
  return (0);
 2006c14:	0005883a 	mov	r2,zero
}
 2006c18:	e037883a 	mov	sp,fp
 2006c1c:	dfc00117 	ldw	ra,4(sp)
 2006c20:	df000017 	ldw	fp,0(sp)
 2006c24:	dec00204 	addi	sp,sp,8
 2006c28:	f800283a 	ret

02006c2c <vid_print_string>:
*           using the specified font and color.
*           Calls vid_print_char
*
******************************************************************/
int vid_print_string(int horiz_offset, int vert_offset, int color, char *font, alt_video_display* display, char string[])
{
 2006c2c:	defff604 	addi	sp,sp,-40
 2006c30:	dfc00915 	stw	ra,36(sp)
 2006c34:	df000815 	stw	fp,32(sp)
 2006c38:	df000804 	addi	fp,sp,32
 2006c3c:	e13ffc15 	stw	r4,-16(fp)
 2006c40:	e17ffd15 	stw	r5,-12(fp)
 2006c44:	e1bffe15 	stw	r6,-8(fp)
 2006c48:	e1ffff15 	stw	r7,-4(fp)
  int i = 0;
 2006c4c:	e03ffa15 	stw	zero,-24(fp)
  int original_horiz_offset;

  original_horiz_offset = horiz_offset;
 2006c50:	e0bffc17 	ldw	r2,-16(fp)
 2006c54:	e0bffb15 	stw	r2,-20(fp)

  // Print until we hit the '\0' char.
  while (string[i]) {
 2006c58:	00002806 	br	2006cfc <vid_print_string+0xd0>
    //Handle newline char here.
    if (string[i] == '\n') {
 2006c5c:	e0bffa17 	ldw	r2,-24(fp)
 2006c60:	e0c00317 	ldw	r3,12(fp)
 2006c64:	1885883a 	add	r2,r3,r2
 2006c68:	10800003 	ldbu	r2,0(r2)
 2006c6c:	10803fcc 	andi	r2,r2,255
 2006c70:	1080201c 	xori	r2,r2,128
 2006c74:	10bfe004 	addi	r2,r2,-128
 2006c78:	10800298 	cmpnei	r2,r2,10
 2006c7c:	1000091e 	bne	r2,zero,2006ca4 <vid_print_string+0x78>
      horiz_offset = original_horiz_offset;
 2006c80:	e0bffb17 	ldw	r2,-20(fp)
 2006c84:	e0bffc15 	stw	r2,-16(fp)
      vert_offset += 12;
 2006c88:	e0bffd17 	ldw	r2,-12(fp)
 2006c8c:	10800304 	addi	r2,r2,12
 2006c90:	e0bffd15 	stw	r2,-12(fp)
      i++;
 2006c94:	e0bffa17 	ldw	r2,-24(fp)
 2006c98:	10800044 	addi	r2,r2,1
 2006c9c:	e0bffa15 	stw	r2,-24(fp)
      continue;
 2006ca0:	00001606 	br	2006cfc <vid_print_string+0xd0>
    }
    // Lay down that character and increment our offsets.
    vid_print_char (horiz_offset, vert_offset, color, string[i], font, display);
 2006ca4:	e0bffa17 	ldw	r2,-24(fp)
 2006ca8:	e0c00317 	ldw	r3,12(fp)
 2006cac:	1885883a 	add	r2,r3,r2
 2006cb0:	10800003 	ldbu	r2,0(r2)
 2006cb4:	10c03fcc 	andi	r3,r2,255
 2006cb8:	18c0201c 	xori	r3,r3,128
 2006cbc:	18ffe004 	addi	r3,r3,-128
 2006cc0:	e0bfff17 	ldw	r2,-4(fp)
 2006cc4:	d8800015 	stw	r2,0(sp)
 2006cc8:	e0800217 	ldw	r2,8(fp)
 2006ccc:	d8800115 	stw	r2,4(sp)
 2006cd0:	e13ffc17 	ldw	r4,-16(fp)
 2006cd4:	e17ffd17 	ldw	r5,-12(fp)
 2006cd8:	e1bffe17 	ldw	r6,-8(fp)
 2006cdc:	180f883a 	mov	r7,r3
 2006ce0:	2006e7c0 	call	2006e7c <vid_print_char>
    i++;
 2006ce4:	e0bffa17 	ldw	r2,-24(fp)
 2006ce8:	10800044 	addi	r2,r2,1
 2006cec:	e0bffa15 	stw	r2,-24(fp)
    horiz_offset += 8;
 2006cf0:	e0bffc17 	ldw	r2,-16(fp)
 2006cf4:	10800204 	addi	r2,r2,8
 2006cf8:	e0bffc15 	stw	r2,-16(fp)
  int original_horiz_offset;

  original_horiz_offset = horiz_offset;

  // Print until we hit the '\0' char.
  while (string[i]) {
 2006cfc:	e0bffa17 	ldw	r2,-24(fp)
 2006d00:	e0c00317 	ldw	r3,12(fp)
 2006d04:	1885883a 	add	r2,r3,r2
 2006d08:	10800003 	ldbu	r2,0(r2)
 2006d0c:	10803fcc 	andi	r2,r2,255
 2006d10:	1080201c 	xori	r2,r2,128
 2006d14:	10bfe004 	addi	r2,r2,-128
 2006d18:	103fd01e 	bne	r2,zero,2006c5c <__reset+0xfdfff45c>
    // Lay down that character and increment our offsets.
    vid_print_char (horiz_offset, vert_offset, color, string[i], font, display);
    i++;
    horiz_offset += 8;
  }
  return (0);
 2006d1c:	0005883a 	mov	r2,zero
}
 2006d20:	e037883a 	mov	sp,fp
 2006d24:	dfc00117 	ldw	ra,4(sp)
 2006d28:	df000017 	ldw	fp,0(sp)
 2006d2c:	dec00204 	addi	sp,sp,8
 2006d30:	f800283a 	ret

02006d34 <vid_draw_box>:
*  points.  The fill parameter tells the function whether or not
*  to fill in the box.  1 = fill, 0 = do not fill.
*
******************************************************************/
int vid_draw_box (int horiz_start, int vert_start, int horiz_end, int vert_end, int color, int fill, alt_video_display* display)
{
 2006d34:	defff704 	addi	sp,sp,-36
 2006d38:	dfc00815 	stw	ra,32(sp)
 2006d3c:	df000715 	stw	fp,28(sp)
 2006d40:	df000704 	addi	fp,sp,28
 2006d44:	e13ffc15 	stw	r4,-16(fp)
 2006d48:	e17ffd15 	stw	r5,-12(fp)
 2006d4c:	e1bffe15 	stw	r6,-8(fp)
 2006d50:	e1ffff15 	stw	r7,-4(fp)

  // If we want to fill in our box
  if (fill) {
 2006d54:	e0800317 	ldw	r2,12(fp)
 2006d58:	10000a26 	beq	r2,zero,2006d84 <vid_draw_box+0x50>
     vid_paint_block (horiz_start, vert_start, horiz_end, vert_end, color, display);
 2006d5c:	e0800217 	ldw	r2,8(fp)
 2006d60:	d8800015 	stw	r2,0(sp)
 2006d64:	e0800417 	ldw	r2,16(fp)
 2006d68:	d8800115 	stw	r2,4(sp)
 2006d6c:	e13ffc17 	ldw	r4,-16(fp)
 2006d70:	e17ffd17 	ldw	r5,-12(fp)
 2006d74:	e1bffe17 	ldw	r6,-8(fp)
 2006d78:	e1ffff17 	ldw	r7,-4(fp)
 2006d7c:	20070480 	call	2007048 <vid_paint_block>
 2006d80:	00003806 	br	2006e64 <vid_draw_box+0x130>
  // If we're not filling in the box, just draw four lines.
  } else {
    vid_draw_line(horiz_start, vert_start, horiz_start, vert_end-1, 1, color, display);
 2006d84:	e0bfff17 	ldw	r2,-4(fp)
 2006d88:	10ffffc4 	addi	r3,r2,-1
 2006d8c:	00800044 	movi	r2,1
 2006d90:	d8800015 	stw	r2,0(sp)
 2006d94:	e0800217 	ldw	r2,8(fp)
 2006d98:	d8800115 	stw	r2,4(sp)
 2006d9c:	e0800417 	ldw	r2,16(fp)
 2006da0:	d8800215 	stw	r2,8(sp)
 2006da4:	e13ffc17 	ldw	r4,-16(fp)
 2006da8:	e17ffd17 	ldw	r5,-12(fp)
 2006dac:	e1bffc17 	ldw	r6,-16(fp)
 2006db0:	180f883a 	mov	r7,r3
 2006db4:	20065480 	call	2006548 <vid_draw_line>
    vid_draw_line(horiz_end-1, vert_start, horiz_end-1, vert_end-1, 1, color, display);
 2006db8:	e0bffe17 	ldw	r2,-8(fp)
 2006dbc:	113fffc4 	addi	r4,r2,-1
 2006dc0:	e0bffe17 	ldw	r2,-8(fp)
 2006dc4:	11bfffc4 	addi	r6,r2,-1
 2006dc8:	e0bfff17 	ldw	r2,-4(fp)
 2006dcc:	10ffffc4 	addi	r3,r2,-1
 2006dd0:	00800044 	movi	r2,1
 2006dd4:	d8800015 	stw	r2,0(sp)
 2006dd8:	e0800217 	ldw	r2,8(fp)
 2006ddc:	d8800115 	stw	r2,4(sp)
 2006de0:	e0800417 	ldw	r2,16(fp)
 2006de4:	d8800215 	stw	r2,8(sp)
 2006de8:	e17ffd17 	ldw	r5,-12(fp)
 2006dec:	180f883a 	mov	r7,r3
 2006df0:	20065480 	call	2006548 <vid_draw_line>
    vid_draw_line(horiz_start, vert_start, horiz_end-1, vert_start, 1, color, display);
 2006df4:	e0bffe17 	ldw	r2,-8(fp)
 2006df8:	10ffffc4 	addi	r3,r2,-1
 2006dfc:	00800044 	movi	r2,1
 2006e00:	d8800015 	stw	r2,0(sp)
 2006e04:	e0800217 	ldw	r2,8(fp)
 2006e08:	d8800115 	stw	r2,4(sp)
 2006e0c:	e0800417 	ldw	r2,16(fp)
 2006e10:	d8800215 	stw	r2,8(sp)
 2006e14:	e13ffc17 	ldw	r4,-16(fp)
 2006e18:	e17ffd17 	ldw	r5,-12(fp)
 2006e1c:	180d883a 	mov	r6,r3
 2006e20:	e1fffd17 	ldw	r7,-12(fp)
 2006e24:	20065480 	call	2006548 <vid_draw_line>
    vid_draw_line(horiz_start, vert_end-1, horiz_end-1, vert_end-1, 1, color, display);
 2006e28:	e0bfff17 	ldw	r2,-4(fp)
 2006e2c:	117fffc4 	addi	r5,r2,-1
 2006e30:	e0bffe17 	ldw	r2,-8(fp)
 2006e34:	11bfffc4 	addi	r6,r2,-1
 2006e38:	e0bfff17 	ldw	r2,-4(fp)
 2006e3c:	10ffffc4 	addi	r3,r2,-1
 2006e40:	00800044 	movi	r2,1
 2006e44:	d8800015 	stw	r2,0(sp)
 2006e48:	e0800217 	ldw	r2,8(fp)
 2006e4c:	d8800115 	stw	r2,4(sp)
 2006e50:	e0800417 	ldw	r2,16(fp)
 2006e54:	d8800215 	stw	r2,8(sp)
 2006e58:	e13ffc17 	ldw	r4,-16(fp)
 2006e5c:	180f883a 	mov	r7,r3
 2006e60:	20065480 	call	2006548 <vid_draw_line>
  }

  return (0);
 2006e64:	0005883a 	mov	r2,zero
}
 2006e68:	e037883a 	mov	sp,fp
 2006e6c:	dfc00117 	ldw	ra,4(sp)
 2006e70:	df000017 	ldw	fp,0(sp)
 2006e74:	dec00204 	addi	sp,sp,8
 2006e78:	f800283a 	ret

02006e7c <vid_print_char>:
*           screen using the specified font and color.
*
******************************************************************/

int vid_print_char (int horiz_offset, int vert_offset, int color, char character, char *font, alt_video_display* display)
{
 2006e7c:	defff704 	addi	sp,sp,-36
 2006e80:	dfc00815 	stw	ra,32(sp)
 2006e84:	df000715 	stw	fp,28(sp)
 2006e88:	df000704 	addi	fp,sp,28
 2006e8c:	e13ffc15 	stw	r4,-16(fp)
 2006e90:	e17ffd15 	stw	r5,-12(fp)
 2006e94:	e1bffe15 	stw	r6,-8(fp)
 2006e98:	3805883a 	mov	r2,r7
 2006e9c:	e0bfff05 	stb	r2,-4(fp)
  int i, j;
  
  char temp_char, char_row;

  // Convert the ASCII value to an array offset
  temp_char = (character - 0x20);
 2006ea0:	e0bfff03 	ldbu	r2,-4(fp)
 2006ea4:	10bff804 	addi	r2,r2,-32
 2006ea8:	e0bffb05 	stb	r2,-20(fp)

  //Each character is 8 pixels wide and 11 tall.
  for(i = 0; i < 11; i++) {
 2006eac:	e03ff915 	stw	zero,-28(fp)
 2006eb0:	00002506 	br	2006f48 <vid_print_char+0xcc>
      char_row = *(font + (temp_char * FONT_10PT_ROW) + i);
 2006eb4:	e0bffb07 	ldb	r2,-20(fp)
 2006eb8:	108002e4 	muli	r2,r2,11
 2006ebc:	1007883a 	mov	r3,r2
 2006ec0:	e0bff917 	ldw	r2,-28(fp)
 2006ec4:	1885883a 	add	r2,r3,r2
 2006ec8:	e0c00217 	ldw	r3,8(fp)
 2006ecc:	1885883a 	add	r2,r3,r2
 2006ed0:	10800003 	ldbu	r2,0(r2)
 2006ed4:	e0bffb45 	stb	r2,-19(fp)
    for (j = 0; j < 8; j++) {
 2006ed8:	e03ffa15 	stw	zero,-24(fp)
 2006edc:	00001406 	br	2006f30 <vid_print_char+0xb4>
      //If the font table says the pixel in this location is on for this character, then set it.
      if (char_row & (((unsigned char)0x80) >> j)) {
 2006ee0:	e0fffb47 	ldb	r3,-19(fp)
 2006ee4:	01002004 	movi	r4,128
 2006ee8:	e0bffa17 	ldw	r2,-24(fp)
 2006eec:	2085d83a 	sra	r2,r4,r2
 2006ef0:	1884703a 	and	r2,r3,r2
 2006ef4:	10000b26 	beq	r2,zero,2006f24 <vid_print_char+0xa8>
        vid_set_pixel((horiz_offset + j), (vert_offset + i), color, display); // plot the pixel
 2006ef8:	e0fffc17 	ldw	r3,-16(fp)
 2006efc:	e0bffa17 	ldw	r2,-24(fp)
 2006f00:	1889883a 	add	r4,r3,r2
 2006f04:	e0fffd17 	ldw	r3,-12(fp)
 2006f08:	e0bff917 	ldw	r2,-28(fp)
 2006f0c:	1887883a 	add	r3,r3,r2
 2006f10:	e0bffe17 	ldw	r2,-8(fp)
 2006f14:	180b883a 	mov	r5,r3
 2006f18:	100d883a 	mov	r6,r2
 2006f1c:	e1c00317 	ldw	r7,12(fp)
 2006f20:	2006f6c0 	call	2006f6c <vid_set_pixel>
  temp_char = (character - 0x20);

  //Each character is 8 pixels wide and 11 tall.
  for(i = 0; i < 11; i++) {
      char_row = *(font + (temp_char * FONT_10PT_ROW) + i);
    for (j = 0; j < 8; j++) {
 2006f24:	e0bffa17 	ldw	r2,-24(fp)
 2006f28:	10800044 	addi	r2,r2,1
 2006f2c:	e0bffa15 	stw	r2,-24(fp)
 2006f30:	e0bffa17 	ldw	r2,-24(fp)
 2006f34:	10800210 	cmplti	r2,r2,8
 2006f38:	103fe91e 	bne	r2,zero,2006ee0 <__reset+0xfdfff6e0>

  // Convert the ASCII value to an array offset
  temp_char = (character - 0x20);

  //Each character is 8 pixels wide and 11 tall.
  for(i = 0; i < 11; i++) {
 2006f3c:	e0bff917 	ldw	r2,-28(fp)
 2006f40:	10800044 	addi	r2,r2,1
 2006f44:	e0bff915 	stw	r2,-28(fp)
 2006f48:	e0bff917 	ldw	r2,-28(fp)
 2006f4c:	108002d0 	cmplti	r2,r2,11
 2006f50:	103fd81e 	bne	r2,zero,2006eb4 <__reset+0xfdfff6b4>
      if (char_row & (((unsigned char)0x80) >> j)) {
        vid_set_pixel((horiz_offset + j), (vert_offset + i), color, display); // plot the pixel
      }
    }
  }
  return(0);
 2006f54:	0005883a 	mov	r2,zero
}
 2006f58:	e037883a 	mov	sp,fp
 2006f5c:	dfc00117 	ldw	ra,4(sp)
 2006f60:	df000017 	ldw	fp,0(sp)
 2006f64:	dec00204 	addi	sp,sp,8
 2006f68:	f800283a 	ret

02006f6c <vid_set_pixel>:
*           efficient when painting large areas of the screen.
*
******************************************************************/

void vid_set_pixel(int horiz, int vert, unsigned int color, alt_video_display* display)
{
 2006f6c:	defff904 	addi	sp,sp,-28
 2006f70:	dfc00615 	stw	ra,24(sp)
 2006f74:	df000515 	stw	fp,20(sp)
 2006f78:	df000504 	addi	fp,sp,20
 2006f7c:	e13ffc15 	stw	r4,-16(fp)
 2006f80:	e17ffd15 	stw	r5,-12(fp)
 2006f84:	e1bffe15 	stw	r6,-8(fp)
 2006f88:	e1ffff15 	stw	r7,-4(fp)
#ifdef LT24
	alt_u16 color16;


	// encode to RGB  5 6 5
	color16 = (color & 0xFF) >> 3; // blue
 2006f8c:	e0bffe17 	ldw	r2,-8(fp)
 2006f90:	10803fcc 	andi	r2,r2,255
 2006f94:	1004d0fa 	srli	r2,r2,3
 2006f98:	e0bffb0d 	sth	r2,-20(fp)
	color16 |= (color & 0xFC00) >> 5; // green
 2006f9c:	e0bffe17 	ldw	r2,-8(fp)
 2006fa0:	10bf000c 	andi	r2,r2,64512
 2006fa4:	1004d17a 	srli	r2,r2,5
 2006fa8:	1007883a 	mov	r3,r2
 2006fac:	e0bffb0b 	ldhu	r2,-20(fp)
 2006fb0:	1884b03a 	or	r2,r3,r2
 2006fb4:	e0bffb0d 	sth	r2,-20(fp)
	color16 |= (color & 0xF80000) >> 8; // blue
 2006fb8:	e0bffe17 	ldw	r2,-8(fp)
 2006fbc:	10803e2c 	andhi	r2,r2,248
 2006fc0:	1004d23a 	srli	r2,r2,8
 2006fc4:	1007883a 	mov	r3,r2
 2006fc8:	e0bffb0b 	ldhu	r2,-20(fp)
 2006fcc:	1884b03a 	or	r2,r3,r2
 2006fd0:	e0bffb0d 	sth	r2,-20(fp)
	LCD_DrawPoint(horiz, vert, color16);
 2006fd4:	e0bffc17 	ldw	r2,-16(fp)
 2006fd8:	113fffcc 	andi	r4,r2,65535
 2006fdc:	e0bffd17 	ldw	r2,-12(fp)
 2006fe0:	10ffffcc 	andi	r3,r2,65535
 2006fe4:	e0bffb0b 	ldhu	r2,-20(fp)
 2006fe8:	180b883a 	mov	r5,r3
 2006fec:	100d883a 	mov	r6,r2
 2006ff0:	20057900 	call	2005790 <LCD_DrawPoint>
  	addr = ( ( (int)(VIPFR_GetDrawFrame(display)) )+ (vert * (display->width * 2)) + horiz * 2);
  	IOWR_16DIRECT( addr, 0, (int)(color));
	}
#endif

}
 2006ff4:	e037883a 	mov	sp,fp
 2006ff8:	dfc00117 	ldw	ra,4(sp)
 2006ffc:	df000017 	ldw	fp,0(sp)
 2007000:	dec00204 	addi	sp,sp,8
 2007004:	f800283a 	ret

02007008 <vid_get_pixel>:
*  Purpose: Reads the color of the pixel at the given coordinates
*
******************************************************************/

short vid_get_pixel(int horiz, int vert, alt_video_display* display)
{
 2007008:	defffb04 	addi	sp,sp,-20
 200700c:	dfc00415 	stw	ra,16(sp)
 2007010:	df000315 	stw	fp,12(sp)
 2007014:	df000304 	addi	fp,sp,12
 2007018:	e13ffd15 	stw	r4,-12(fp)
 200701c:	e17ffe15 	stw	r5,-8(fp)
 2007020:	e1bfff15 	stw	r6,-4(fp)
#ifdef LT24
	printf("vid_get_pixel is not implemented\r\n");
 2007024:	010080f4 	movhi	r4,515
 2007028:	212f0c04 	addi	r4,r4,-17360
 200702c:	200d1940 	call	200d194 <puts>
	return(0);
 2007030:	0005883a 	mov	r2,zero
  int addr;
  
  addr = ( ( (int)(VIPFR_GetDrawFrame(display)) )+ (vert * (display->width * 2)) + horiz * 2);
  return(IORD_16DIRECT(addr, 0));
#endif
}
 2007034:	e037883a 	mov	sp,fp
 2007038:	dfc00117 	ldw	ra,4(sp)
 200703c:	df000017 	ldw	fp,0(sp)
 2007040:	dec00204 	addi	sp,sp,8
 2007044:	f800283a 	ret

02007048 <vid_paint_block>:
*           The color parameter must contain two pixel's worth
*           (32 bits).
*
******************************************************************/
void vid_paint_block (int Hstart,int Vstart, int Hend, int Vend, int color, alt_video_display* display)
{
 2007048:	defff804 	addi	sp,sp,-32
 200704c:	dfc00715 	stw	ra,28(sp)
 2007050:	df000615 	stw	fp,24(sp)
 2007054:	df000604 	addi	fp,sp,24
 2007058:	e13ffc15 	stw	r4,-16(fp)
 200705c:	e17ffd15 	stw	r5,-12(fp)
 2007060:	e1bffe15 	stw	r6,-8(fp)
 2007064:	e1ffff15 	stw	r7,-4(fp)
#ifdef LT24
	int x,y;
	for(y=Vstart;y<Vend;y++){
 2007068:	e0bffd17 	ldw	r2,-12(fp)
 200706c:	e0bffb15 	stw	r2,-20(fp)
 2007070:	00001206 	br	20070bc <vid_paint_block+0x74>
		for(x=Hstart;x<Hend;x++){
 2007074:	e0bffc17 	ldw	r2,-16(fp)
 2007078:	e0bffa15 	stw	r2,-24(fp)
 200707c:	00000906 	br	20070a4 <vid_paint_block+0x5c>
			vid_set_pixel(x, y, color, display);
 2007080:	e0800217 	ldw	r2,8(fp)
 2007084:	e13ffa17 	ldw	r4,-24(fp)
 2007088:	e17ffb17 	ldw	r5,-20(fp)
 200708c:	100d883a 	mov	r6,r2
 2007090:	e1c00317 	ldw	r7,12(fp)
 2007094:	2006f6c0 	call	2006f6c <vid_set_pixel>
void vid_paint_block (int Hstart,int Vstart, int Hend, int Vend, int color, alt_video_display* display)
{
#ifdef LT24
	int x,y;
	for(y=Vstart;y<Vend;y++){
		for(x=Hstart;x<Hend;x++){
 2007098:	e0bffa17 	ldw	r2,-24(fp)
 200709c:	10800044 	addi	r2,r2,1
 20070a0:	e0bffa15 	stw	r2,-24(fp)
 20070a4:	e0fffa17 	ldw	r3,-24(fp)
 20070a8:	e0bffe17 	ldw	r2,-8(fp)
 20070ac:	18bff416 	blt	r3,r2,2007080 <__reset+0xfdfff880>
******************************************************************/
void vid_paint_block (int Hstart,int Vstart, int Hend, int Vend, int color, alt_video_display* display)
{
#ifdef LT24
	int x,y;
	for(y=Vstart;y<Vend;y++){
 20070b0:	e0bffb17 	ldw	r2,-20(fp)
 20070b4:	10800044 	addi	r2,r2,1
 20070b8:	e0bffb15 	stw	r2,-20(fp)
 20070bc:	e0fffb17 	ldw	r3,-20(fp)
 20070c0:	e0bfff17 	ldw	r2,-4(fp)
 20070c4:	18bfeb16 	blt	r3,r2,2007074 <__reset+0xfdfff874>
    memcpy( (void*)addr, line, bytes_per_line );
    addr += (display->width * bytes_per_pixel);
  }
  free (line);
#endif
}
 20070c8:	e037883a 	mov	sp,fp
 20070cc:	dfc00117 	ldw	ra,4(sp)
 20070d0:	df000017 	ldw	fp,0(sp)
 20070d4:	dec00204 	addi	sp,sp,8
 20070d8:	f800283a 	ret

020070dc <vid_draw_horiz_line>:
*  Purpose: Draws a horizontal line on the screen quickly.
*           Good for filling stuff.
*
******************************************************************/
void vid_draw_horiz_line (short Hstart, short Hend, int V, int color, alt_video_display* display)
{
 20070dc:	defff904 	addi	sp,sp,-28
 20070e0:	dfc00615 	stw	ra,24(sp)
 20070e4:	df000515 	stw	fp,20(sp)
 20070e8:	df000504 	addi	fp,sp,20
 20070ec:	2007883a 	mov	r3,r4
 20070f0:	2805883a 	mov	r2,r5
 20070f4:	e1bffe15 	stw	r6,-8(fp)
 20070f8:	e1ffff15 	stw	r7,-4(fp)
 20070fc:	e0fffc0d 	sth	r3,-16(fp)
 2007100:	e0bffd0d 	sth	r2,-12(fp)
#ifdef LT24
	int x;
	for(x=Hstart;x<Hend;x++){
 2007104:	e0bffc0f 	ldh	r2,-16(fp)
 2007108:	e0bffb15 	stw	r2,-20(fp)
 200710c:	00000906 	br	2007134 <vid_draw_horiz_line+0x58>
		vid_set_pixel(x, V, color, display);
 2007110:	e0bfff17 	ldw	r2,-4(fp)
 2007114:	e13ffb17 	ldw	r4,-20(fp)
 2007118:	e17ffe17 	ldw	r5,-8(fp)
 200711c:	100d883a 	mov	r6,r2
 2007120:	e1c00217 	ldw	r7,8(fp)
 2007124:	2006f6c0 	call	2006f6c <vid_set_pixel>
******************************************************************/
void vid_draw_horiz_line (short Hstart, short Hend, int V, int color, alt_video_display* display)
{
#ifdef LT24
	int x;
	for(x=Hstart;x<Hend;x++){
 2007128:	e0bffb17 	ldw	r2,-20(fp)
 200712c:	10800044 	addi	r2,r2,1
 2007130:	e0bffb15 	stw	r2,-20(fp)
 2007134:	e0bffd0f 	ldh	r2,-12(fp)
 2007138:	e0fffb17 	ldw	r3,-20(fp)
 200713c:	18bff416 	blt	r3,r2,2007110 <__reset+0xfdfff910>
    memcpy( (void*)addr, fast_buffer, bytes_per_line );
  }
  free(fast_buffer);
#endif

}
 2007140:	e037883a 	mov	sp,fp
 2007144:	dfc00117 	ldw	ra,4(sp)
 2007148:	df000017 	ldw	fp,0(sp)
 200714c:	dec00204 	addi	sp,sp,8
 2007150:	f800283a 	ret

02007154 <vid_merge_colors>:
*  Purpose: Takes 5-bit color values for each red, green, and blue
*           and merges them into one 16-bit color value.
*
******************************************************************/
int vid_merge_colors(int red, int green, int blue)
{
 2007154:	defffc04 	addi	sp,sp,-16
 2007158:	df000315 	stw	fp,12(sp)
 200715c:	df000304 	addi	fp,sp,12
 2007160:	e13ffd15 	stw	r4,-12(fp)
 2007164:	e17ffe15 	stw	r5,-8(fp)
 2007168:	e1bfff15 	stw	r6,-4(fp)
  // Green actually has 6-bits, but we'll make it's LSB 1 to be consistent.
  return ((blue) | (((green << 1) | 0x1) << 5) | (red << 11));
 200716c:	e0bffe17 	ldw	r2,-8(fp)
 2007170:	1085883a 	add	r2,r2,r2
 2007174:	10800054 	ori	r2,r2,1
 2007178:	1006917a 	slli	r3,r2,5
 200717c:	e0bfff17 	ldw	r2,-4(fp)
 2007180:	1886b03a 	or	r3,r3,r2
 2007184:	e0bffd17 	ldw	r2,-12(fp)
 2007188:	100492fa 	slli	r2,r2,11
 200718c:	1884b03a 	or	r2,r3,r2
}
 2007190:	e037883a 	mov	sp,fp
 2007194:	df000017 	ldw	fp,0(sp)
 2007198:	dec00104 	addi	sp,sp,4
 200719c:	f800283a 	ret

020071a0 <vid_color_convert24_16>:
*           sample and converts it to 16-bits, displayable by the 
*           VGA controller in 16-bit mode
*
******************************************************************/
unsigned short vid_color_convert24_16(char* color24)
{
 20071a0:	defffc04 	addi	sp,sp,-16
 20071a4:	df000315 	stw	fp,12(sp)
 20071a8:	df000304 	addi	fp,sp,12
 20071ac:	e13fff15 	stw	r4,-4(fp)
	unsigned char red, green, blue;
	unsigned short output;
	
	red = *(color24 + 0) & 0xF8;
 20071b0:	e0bfff17 	ldw	r2,-4(fp)
 20071b4:	10800003 	ldbu	r2,0(r2)
 20071b8:	1007883a 	mov	r3,r2
 20071bc:	00bffe04 	movi	r2,-8
 20071c0:	1884703a 	and	r2,r3,r2
 20071c4:	e0bffd05 	stb	r2,-12(fp)
	green = *(color24 + 1) & 0xFC; // green is actualy 6 bits
 20071c8:	e0bfff17 	ldw	r2,-4(fp)
 20071cc:	10800044 	addi	r2,r2,1
 20071d0:	10800003 	ldbu	r2,0(r2)
 20071d4:	1007883a 	mov	r3,r2
 20071d8:	00bfff04 	movi	r2,-4
 20071dc:	1884703a 	and	r2,r3,r2
 20071e0:	e0bffd45 	stb	r2,-11(fp)
	blue = *(color24 + 2) & 0xF8;
 20071e4:	e0bfff17 	ldw	r2,-4(fp)
 20071e8:	10800084 	addi	r2,r2,2
 20071ec:	10800003 	ldbu	r2,0(r2)
 20071f0:	1007883a 	mov	r3,r2
 20071f4:	00bffe04 	movi	r2,-8
 20071f8:	1884703a 	and	r2,r3,r2
 20071fc:	e0bffd85 	stb	r2,-10(fp)

	output = ((blue >> 3) | (green << 3) | (red << 8));  
 2007200:	e0bffd83 	ldbu	r2,-10(fp)
 2007204:	1004d0fa 	srli	r2,r2,3
 2007208:	10803fcc 	andi	r2,r2,255
 200720c:	e0fffd43 	ldbu	r3,-11(fp)
 2007210:	180690fa 	slli	r3,r3,3
 2007214:	10c4b03a 	or	r2,r2,r3
 2007218:	1007883a 	mov	r3,r2
 200721c:	e0bffd03 	ldbu	r2,-12(fp)
 2007220:	1004923a 	slli	r2,r2,8
 2007224:	1884b03a 	or	r2,r3,r2
 2007228:	e0bffe0d 	sth	r2,-8(fp)
	return output;
 200722c:	e0bffe0b 	ldhu	r2,-8(fp)
}
 2007230:	e037883a 	mov	sp,fp
 2007234:	df000017 	ldw	fp,0(sp)
 2007238:	dec00104 	addi	sp,sp,4
 200723c:	f800283a 	ret

02007240 <vid_color_convert16_24>:
*           sample and converts it to 16-bits, displayable by the 
*           VGA controller in 16-bit mode
*
******************************************************************/
int vid_color_convert16_24(unsigned short color16, char* color24)
{
 2007240:	defffd04 	addi	sp,sp,-12
 2007244:	df000215 	stw	fp,8(sp)
 2007248:	df000204 	addi	fp,sp,8
 200724c:	2005883a 	mov	r2,r4
 2007250:	e17fff15 	stw	r5,-4(fp)
 2007254:	e0bffe0d 	sth	r2,-8(fp)
	*(color24 + 0) = color16 >> 11;
 2007258:	e0bffe0b 	ldhu	r2,-8(fp)
 200725c:	1004d2fa 	srli	r2,r2,11
 2007260:	1007883a 	mov	r3,r2
 2007264:	e0bfff17 	ldw	r2,-4(fp)
 2007268:	10c00005 	stb	r3,0(r2)
	*(color24 + 1) = ((color16 & 0x3E) >> 5);
 200726c:	e0bfff17 	ldw	r2,-4(fp)
 2007270:	10800044 	addi	r2,r2,1
 2007274:	e0fffe0b 	ldhu	r3,-8(fp)
 2007278:	18c00f8c 	andi	r3,r3,62
 200727c:	1807d17a 	srai	r3,r3,5
 2007280:	10c00005 	stb	r3,0(r2)
	*(color24 + 2) = (color16 & 0x1F);
 2007284:	e0bfff17 	ldw	r2,-4(fp)
 2007288:	10800084 	addi	r2,r2,2
 200728c:	e0fffe0b 	ldhu	r3,-8(fp)
 2007290:	18c007cc 	andi	r3,r3,31
 2007294:	10c00005 	stb	r3,0(r2)
	
	return (0);
 2007298:	0005883a 	mov	r2,zero
}
 200729c:	e037883a 	mov	sp,fp
 20072a0:	df000017 	ldw	fp,0(sp)
 20072a4:	dec00104 	addi	sp,sp,4
 20072a8:	f800283a 	ret

020072ac <vid_copy_line_to_frame_buffer>:
*           the specified coordinates.  Converts color depth if
*           necessary.
*
******************************************************************/
int vid_copy_line_to_frame_buffer( int x, int y, char* buffer, int num_pixels, int source_color_depth, alt_video_display* display )
{
 20072ac:	defffa04 	addi	sp,sp,-24
 20072b0:	dfc00515 	stw	ra,20(sp)
 20072b4:	df000415 	stw	fp,16(sp)
 20072b8:	df000404 	addi	fp,sp,16
 20072bc:	e13ffc15 	stw	r4,-16(fp)
 20072c0:	e17ffd15 	stw	r5,-12(fp)
 20072c4:	e1bffe15 	stw	r6,-8(fp)
 20072c8:	e1ffff15 	stw	r7,-4(fp)
#ifdef LT24
	printf("vid_copy_line_to_frame_buffer is not implemented!\r\n");
 20072cc:	010080f4 	movhi	r4,515
 20072d0:	212f1504 	addi	r4,r4,-17324
 20072d4:	200d1940 	call	200d194 <puts>
	return(0);
 20072d8:	0005883a 	mov	r2,zero
      memcpy( (void*)dest_addr, (void*)buffer, bytes_in_line );
    }
  }
  return(0);
#endif
}
 20072dc:	e037883a 	mov	sp,fp
 20072e0:	dfc00117 	ldw	ra,4(sp)
 20072e4:	df000017 	ldw	fp,0(sp)
 20072e8:	dec00204 	addi	sp,sp,8
 20072ec:	f800283a 	ret

020072f0 <vid_draw_sloped_line>:
                           unsigned short horiz_end, 
                           unsigned short vert_end, 
                           unsigned short width, 
                           int color, 
                           alt_video_display* display)
{
 20072f0:	deffef04 	addi	sp,sp,-68
 20072f4:	dfc01015 	stw	ra,64(sp)
 20072f8:	df000f15 	stw	fp,60(sp)
 20072fc:	df000f04 	addi	fp,sp,60
 2007300:	2011883a 	mov	r8,r4
 2007304:	3009883a 	mov	r4,r6
 2007308:	3807883a 	mov	r3,r7
 200730c:	e0800217 	ldw	r2,8(fp)
 2007310:	e23ffb0d 	sth	r8,-20(fp)
 2007314:	e17ffc0d 	sth	r5,-16(fp)
 2007318:	e13ffd0d 	sth	r4,-12(fp)
 200731c:	e0fffe0d 	sth	r3,-8(fp)
 2007320:	e0bfff0d 	sth	r2,-4(fp)
  // Find the vertical and horizontal distance between the two points
  int horiz_delta = abs(horiz_end-horiz_start);
 2007324:	e0fffd0b 	ldhu	r3,-12(fp)
 2007328:	e0bffb0b 	ldhu	r2,-20(fp)
 200732c:	1885c83a 	sub	r2,r3,r2
 2007330:	1000010e 	bge	r2,zero,2007338 <vid_draw_sloped_line+0x48>
 2007334:	0085c83a 	sub	r2,zero,r2
 2007338:	e0bff115 	stw	r2,-60(fp)
  int vert_delta = abs(vert_end-vert_start);
 200733c:	e0fffe0b 	ldhu	r3,-8(fp)
 2007340:	e0bffc0b 	ldhu	r2,-16(fp)
 2007344:	1885c83a 	sub	r2,r3,r2
 2007348:	1000010e 	bge	r2,zero,2007350 <vid_draw_sloped_line+0x60>
 200734c:	0085c83a 	sub	r2,zero,r2
 2007350:	e0bff215 	stw	r2,-56(fp)

  // Find out what direction we are going
  int horiz_incr, vert_incr;
  if (horiz_start > horiz_end) { horiz_incr=-1; } else { horiz_incr=1; }
 2007354:	e0bffb0b 	ldhu	r2,-20(fp)
 2007358:	e0fffd0b 	ldhu	r3,-12(fp)
 200735c:	1880032e 	bgeu	r3,r2,200736c <vid_draw_sloped_line+0x7c>
 2007360:	00bfffc4 	movi	r2,-1
 2007364:	e0bff315 	stw	r2,-52(fp)
 2007368:	00000206 	br	2007374 <vid_draw_sloped_line+0x84>
 200736c:	00800044 	movi	r2,1
 2007370:	e0bff315 	stw	r2,-52(fp)
  if (vert_start > vert_end) { vert_incr=-1; } else { vert_incr=1; }
 2007374:	e0bffc0b 	ldhu	r2,-16(fp)
 2007378:	e0fffe0b 	ldhu	r3,-8(fp)
 200737c:	1880032e 	bgeu	r3,r2,200738c <vid_draw_sloped_line+0x9c>
 2007380:	00bfffc4 	movi	r2,-1
 2007384:	e0bff415 	stw	r2,-48(fp)
 2007388:	00000206 	br	2007394 <vid_draw_sloped_line+0xa4>
 200738c:	00800044 	movi	r2,1
 2007390:	e0bff415 	stw	r2,-48(fp)

  // Find out which axis is always incremented when drawing the line
  // If it's the horizontal axis
  if (horiz_delta >= vert_delta) {
 2007394:	e0fff117 	ldw	r3,-60(fp)
 2007398:	e0bff217 	ldw	r2,-56(fp)
 200739c:	18803516 	blt	r3,r2,2007474 <vid_draw_sloped_line+0x184>
    int dPr   = vert_delta<<1;
 20073a0:	e0bff217 	ldw	r2,-56(fp)
 20073a4:	1085883a 	add	r2,r2,r2
 20073a8:	e0bff715 	stw	r2,-36(fp)
    int dPru  = dPr - (horiz_delta<<1);
 20073ac:	e0bff117 	ldw	r2,-60(fp)
 20073b0:	1085883a 	add	r2,r2,r2
 20073b4:	1007883a 	mov	r3,r2
 20073b8:	e0bff717 	ldw	r2,-36(fp)
 20073bc:	10c5c83a 	sub	r2,r2,r3
 20073c0:	e0bff815 	stw	r2,-32(fp)
    int P     = dPr - horiz_delta;
 20073c4:	e0fff717 	ldw	r3,-36(fp)
 20073c8:	e0bff117 	ldw	r2,-60(fp)
 20073cc:	1885c83a 	sub	r2,r3,r2
 20073d0:	e0bff515 	stw	r2,-44(fp)

    // Process the line, one horizontal point at at time
    for (; horiz_delta >= 0; horiz_delta--) {
 20073d4:	00002406 	br	2007468 <vid_draw_sloped_line+0x178>
      // plot the pixel
      vid_set_pixel(horiz_start, vert_start, color, display);
 20073d8:	e13ffb0b 	ldhu	r4,-20(fp)
 20073dc:	e0fffc0b 	ldhu	r3,-16(fp)
 20073e0:	e0800317 	ldw	r2,12(fp)
 20073e4:	180b883a 	mov	r5,r3
 20073e8:	100d883a 	mov	r6,r2
 20073ec:	e1c00417 	ldw	r7,16(fp)
 20073f0:	2006f6c0 	call	2006f6c <vid_set_pixel>
      // If we're moving both up and right
      if (P > 0) {
 20073f4:	e0bff517 	ldw	r2,-44(fp)
 20073f8:	00800f0e 	bge	zero,r2,2007438 <vid_draw_sloped_line+0x148>
        horiz_start+=horiz_incr;
 20073fc:	e0bff317 	ldw	r2,-52(fp)
 2007400:	1007883a 	mov	r3,r2
 2007404:	e0bffb0b 	ldhu	r2,-20(fp)
 2007408:	1885883a 	add	r2,r3,r2
 200740c:	e0bffb0d 	sth	r2,-20(fp)
        vert_start+=vert_incr;
 2007410:	e0bff417 	ldw	r2,-48(fp)
 2007414:	1007883a 	mov	r3,r2
 2007418:	e0bffc0b 	ldhu	r2,-16(fp)
 200741c:	1885883a 	add	r2,r3,r2
 2007420:	e0bffc0d 	sth	r2,-16(fp)
        P+=dPru;
 2007424:	e0fff517 	ldw	r3,-44(fp)
 2007428:	e0bff817 	ldw	r2,-32(fp)
 200742c:	1885883a 	add	r2,r3,r2
 2007430:	e0bff515 	stw	r2,-44(fp)
 2007434:	00000906 	br	200745c <vid_draw_sloped_line+0x16c>
      } else {
        horiz_start+=horiz_incr;
 2007438:	e0bff317 	ldw	r2,-52(fp)
 200743c:	1007883a 	mov	r3,r2
 2007440:	e0bffb0b 	ldhu	r2,-20(fp)
 2007444:	1885883a 	add	r2,r3,r2
 2007448:	e0bffb0d 	sth	r2,-20(fp)
        P+=dPr;
 200744c:	e0fff517 	ldw	r3,-44(fp)
 2007450:	e0bff717 	ldw	r2,-36(fp)
 2007454:	1885883a 	add	r2,r3,r2
 2007458:	e0bff515 	stw	r2,-44(fp)
    int dPr   = vert_delta<<1;
    int dPru  = dPr - (horiz_delta<<1);
    int P     = dPr - horiz_delta;

    // Process the line, one horizontal point at at time
    for (; horiz_delta >= 0; horiz_delta--) {
 200745c:	e0bff117 	ldw	r2,-60(fp)
 2007460:	10bfffc4 	addi	r2,r2,-1
 2007464:	e0bff115 	stw	r2,-60(fp)
 2007468:	e0bff117 	ldw	r2,-60(fp)
 200746c:	103fda0e 	bge	r2,zero,20073d8 <__reset+0xfdfffbd8>
 2007470:	00003406 	br	2007544 <vid_draw_sloped_line+0x254>
        P+=dPr;
      }
    }
  // If it's the vertical axis
  } else {
    int dPr   = horiz_delta<<1;
 2007474:	e0bff117 	ldw	r2,-60(fp)
 2007478:	1085883a 	add	r2,r2,r2
 200747c:	e0bff915 	stw	r2,-28(fp)
    int dPru  = dPr - (vert_delta<<1);
 2007480:	e0bff217 	ldw	r2,-56(fp)
 2007484:	1085883a 	add	r2,r2,r2
 2007488:	1007883a 	mov	r3,r2
 200748c:	e0bff917 	ldw	r2,-28(fp)
 2007490:	10c5c83a 	sub	r2,r2,r3
 2007494:	e0bffa15 	stw	r2,-24(fp)
    int P     = dPr - vert_delta;
 2007498:	e0fff917 	ldw	r3,-28(fp)
 200749c:	e0bff217 	ldw	r2,-56(fp)
 20074a0:	1885c83a 	sub	r2,r3,r2
 20074a4:	e0bff615 	stw	r2,-40(fp)

    // Process the line, one vertical point at at time
    for (; vert_delta>=0; vert_delta--) {
 20074a8:	00002406 	br	200753c <vid_draw_sloped_line+0x24c>
      // plot the pixel
      vid_set_pixel(horiz_start, vert_start, color, display);
 20074ac:	e13ffb0b 	ldhu	r4,-20(fp)
 20074b0:	e0fffc0b 	ldhu	r3,-16(fp)
 20074b4:	e0800317 	ldw	r2,12(fp)
 20074b8:	180b883a 	mov	r5,r3
 20074bc:	100d883a 	mov	r6,r2
 20074c0:	e1c00417 	ldw	r7,16(fp)
 20074c4:	2006f6c0 	call	2006f6c <vid_set_pixel>
      // If we're moving both up and right
      if (P > 0) {
 20074c8:	e0bff617 	ldw	r2,-40(fp)
 20074cc:	00800f0e 	bge	zero,r2,200750c <vid_draw_sloped_line+0x21c>
        horiz_start+=horiz_incr;
 20074d0:	e0bff317 	ldw	r2,-52(fp)
 20074d4:	1007883a 	mov	r3,r2
 20074d8:	e0bffb0b 	ldhu	r2,-20(fp)
 20074dc:	1885883a 	add	r2,r3,r2
 20074e0:	e0bffb0d 	sth	r2,-20(fp)
        vert_start+=vert_incr;
 20074e4:	e0bff417 	ldw	r2,-48(fp)
 20074e8:	1007883a 	mov	r3,r2
 20074ec:	e0bffc0b 	ldhu	r2,-16(fp)
 20074f0:	1885883a 	add	r2,r3,r2
 20074f4:	e0bffc0d 	sth	r2,-16(fp)
        P+=dPru;
 20074f8:	e0fff617 	ldw	r3,-40(fp)
 20074fc:	e0bffa17 	ldw	r2,-24(fp)
 2007500:	1885883a 	add	r2,r3,r2
 2007504:	e0bff615 	stw	r2,-40(fp)
 2007508:	00000906 	br	2007530 <vid_draw_sloped_line+0x240>
      } else {
        vert_start+=vert_incr;
 200750c:	e0bff417 	ldw	r2,-48(fp)
 2007510:	1007883a 	mov	r3,r2
 2007514:	e0bffc0b 	ldhu	r2,-16(fp)
 2007518:	1885883a 	add	r2,r3,r2
 200751c:	e0bffc0d 	sth	r2,-16(fp)
        P+=dPr;
 2007520:	e0fff617 	ldw	r3,-40(fp)
 2007524:	e0bff917 	ldw	r2,-28(fp)
 2007528:	1885883a 	add	r2,r3,r2
 200752c:	e0bff615 	stw	r2,-40(fp)
    int dPr   = horiz_delta<<1;
    int dPru  = dPr - (vert_delta<<1);
    int P     = dPr - vert_delta;

    // Process the line, one vertical point at at time
    for (; vert_delta>=0; vert_delta--) {
 2007530:	e0bff217 	ldw	r2,-56(fp)
 2007534:	10bfffc4 	addi	r2,r2,-1
 2007538:	e0bff215 	stw	r2,-56(fp)
 200753c:	e0bff217 	ldw	r2,-56(fp)
 2007540:	103fda0e 	bge	r2,zero,20074ac <__reset+0xfdfffcac>
        vert_start+=vert_incr;
        P+=dPr;
      }
    }
  }
}
 2007544:	e037883a 	mov	sp,fp
 2007548:	dfc00117 	ldw	ra,4(sp)
 200754c:	df000017 	ldw	fp,0(sp)
 2007550:	dec00204 	addi	sp,sp,8
 2007554:	f800283a 	ret

02007558 <vid_draw_circle>:
*  tells the function whether or not to fill in the box.  1 = fill,
*  0 = do not fill.
*
******************************************************************/
int vid_draw_circle(int Hcenter, int Vcenter, int radius, int color, char fill, alt_video_display* display)
{
 2007558:	defff104 	addi	sp,sp,-60
 200755c:	dfc00e15 	stw	ra,56(sp)
 2007560:	df000d15 	stw	fp,52(sp)
 2007564:	df000d04 	addi	fp,sp,52
 2007568:	e13ffb15 	stw	r4,-20(fp)
 200756c:	e17ffc15 	stw	r5,-16(fp)
 2007570:	e1bffd15 	stw	r6,-12(fp)
 2007574:	e1fffe15 	stw	r7,-8(fp)
 2007578:	e0800217 	ldw	r2,8(fp)
 200757c:	e0bfff05 	stb	r2,-4(fp)
  int x = 0;
 2007580:	e03ff815 	stw	zero,-32(fp)
  int y = radius;
 2007584:	e0bffd17 	ldw	r2,-12(fp)
 2007588:	e0bff915 	stw	r2,-28(fp)
  int p = (5 - radius*4)/4;
 200758c:	e0bffd17 	ldw	r2,-12(fp)
 2007590:	10bfff24 	muli	r2,r2,-4
 2007594:	10800144 	addi	r2,r2,5
 2007598:	1000010e 	bge	r2,zero,20075a0 <vid_draw_circle+0x48>
 200759c:	108000c4 	addi	r2,r2,3
 20075a0:	1005d0ba 	srai	r2,r2,2
 20075a4:	e0bffa15 	stw	r2,-24(fp)

  // Start the circle with the top, bottom, left, and right pixels.
  vid_round_corner_points(Hcenter, Vcenter, x, y, 0, 0, color, fill, display);
 20075a8:	e0bfff07 	ldb	r2,-4(fp)
 20075ac:	d8000015 	stw	zero,0(sp)
 20075b0:	d8000115 	stw	zero,4(sp)
 20075b4:	e0fffe17 	ldw	r3,-8(fp)
 20075b8:	d8c00215 	stw	r3,8(sp)
 20075bc:	d8800315 	stw	r2,12(sp)
 20075c0:	e0800317 	ldw	r2,12(fp)
 20075c4:	d8800415 	stw	r2,16(sp)
 20075c8:	e13ffb17 	ldw	r4,-20(fp)
 20075cc:	e17ffc17 	ldw	r5,-16(fp)
 20075d0:	e1bff817 	ldw	r6,-32(fp)
 20075d4:	e1fff917 	ldw	r7,-28(fp)
 20075d8:	2007a300 	call	2007a30 <vid_round_corner_points>

  // Now start moving out from those points until the lines meet
  while (x < y) {
 20075dc:	00002406 	br	2007670 <vid_draw_circle+0x118>
    x++;
 20075e0:	e0bff817 	ldw	r2,-32(fp)
 20075e4:	10800044 	addi	r2,r2,1
 20075e8:	e0bff815 	stw	r2,-32(fp)
    if (p < 0) {
 20075ec:	e0bffa17 	ldw	r2,-24(fp)
 20075f0:	1000070e 	bge	r2,zero,2007610 <vid_draw_circle+0xb8>
      p += 2*x+1;
 20075f4:	e0bff817 	ldw	r2,-32(fp)
 20075f8:	1085883a 	add	r2,r2,r2
 20075fc:	10800044 	addi	r2,r2,1
 2007600:	e0fffa17 	ldw	r3,-24(fp)
 2007604:	1885883a 	add	r2,r3,r2
 2007608:	e0bffa15 	stw	r2,-24(fp)
 200760c:	00000b06 	br	200763c <vid_draw_circle+0xe4>
    } else {
      y--;
 2007610:	e0bff917 	ldw	r2,-28(fp)
 2007614:	10bfffc4 	addi	r2,r2,-1
 2007618:	e0bff915 	stw	r2,-28(fp)
      p += 2*(x-y)+1;
 200761c:	e0fff817 	ldw	r3,-32(fp)
 2007620:	e0bff917 	ldw	r2,-28(fp)
 2007624:	1885c83a 	sub	r2,r3,r2
 2007628:	1085883a 	add	r2,r2,r2
 200762c:	10800044 	addi	r2,r2,1
 2007630:	e0fffa17 	ldw	r3,-24(fp)
 2007634:	1885883a 	add	r2,r3,r2
 2007638:	e0bffa15 	stw	r2,-24(fp)
    }
    vid_round_corner_points(Hcenter, Vcenter, x, y, 0, 0, color, fill, display);
 200763c:	e0bfff07 	ldb	r2,-4(fp)
 2007640:	d8000015 	stw	zero,0(sp)
 2007644:	d8000115 	stw	zero,4(sp)
 2007648:	e0fffe17 	ldw	r3,-8(fp)
 200764c:	d8c00215 	stw	r3,8(sp)
 2007650:	d8800315 	stw	r2,12(sp)
 2007654:	e0800317 	ldw	r2,12(fp)
 2007658:	d8800415 	stw	r2,16(sp)
 200765c:	e13ffb17 	ldw	r4,-20(fp)
 2007660:	e17ffc17 	ldw	r5,-16(fp)
 2007664:	e1bff817 	ldw	r6,-32(fp)
 2007668:	e1fff917 	ldw	r7,-28(fp)
 200766c:	2007a300 	call	2007a30 <vid_round_corner_points>

  // Start the circle with the top, bottom, left, and right pixels.
  vid_round_corner_points(Hcenter, Vcenter, x, y, 0, 0, color, fill, display);

  // Now start moving out from those points until the lines meet
  while (x < y) {
 2007670:	e0fff817 	ldw	r3,-32(fp)
 2007674:	e0bff917 	ldw	r2,-28(fp)
 2007678:	18bfd916 	blt	r3,r2,20075e0 <__reset+0xfdfffde0>
      y--;
      p += 2*(x-y)+1;
    }
    vid_round_corner_points(Hcenter, Vcenter, x, y, 0, 0, color, fill, display);
  }
  return (0);
 200767c:	0005883a 	mov	r2,zero
}
 2007680:	e037883a 	mov	sp,fp
 2007684:	dfc00117 	ldw	ra,4(sp)
 2007688:	df000017 	ldw	fp,0(sp)
 200768c:	dec00204 	addi	sp,sp,8
 2007690:	f800283a 	ret

02007694 <vid_draw_round_corner_box>:
*  to fill in the box.  1 = fill, 0 = do not fill.
*
******************************************************************/
int vid_draw_round_corner_box ( int horiz_start, int vert_start, int horiz_end, int vert_end, 
                                int radius, int color, int fill, alt_video_display* display)
{
 2007694:	deffec04 	addi	sp,sp,-80
 2007698:	dfc01315 	stw	ra,76(sp)
 200769c:	df001215 	stw	fp,72(sp)
 20076a0:	df001204 	addi	fp,sp,72
 20076a4:	e13ffc15 	stw	r4,-16(fp)
 20076a8:	e17ffd15 	stw	r5,-12(fp)
 20076ac:	e1bffe15 	stw	r6,-8(fp)
 20076b0:	e1ffff15 	stw	r7,-4(fp)
  int diameter;
  int temp;
  unsigned int width, height, straight_width, straight_height;

  // Make sure the start point us up and left of the end point
  if( horiz_start > horiz_end )
 20076b4:	e0bffc17 	ldw	r2,-16(fp)
 20076b8:	e0fffe17 	ldw	r3,-8(fp)
 20076bc:	1880060e 	bge	r3,r2,20076d8 <vid_draw_round_corner_box+0x44>
  {
    temp = horiz_end;
 20076c0:	e0bffe17 	ldw	r2,-8(fp)
 20076c4:	e0bff615 	stw	r2,-40(fp)
    horiz_end = horiz_start;
 20076c8:	e0bffc17 	ldw	r2,-16(fp)
 20076cc:	e0bffe15 	stw	r2,-8(fp)
    horiz_start = temp;
 20076d0:	e0bff617 	ldw	r2,-40(fp)
 20076d4:	e0bffc15 	stw	r2,-16(fp)
  }
  
  if( vert_start > vert_end )
 20076d8:	e0bffd17 	ldw	r2,-12(fp)
 20076dc:	e0ffff17 	ldw	r3,-4(fp)
 20076e0:	1880060e 	bge	r3,r2,20076fc <vid_draw_round_corner_box+0x68>
  {
    temp = vert_end;
 20076e4:	e0bfff17 	ldw	r2,-4(fp)
 20076e8:	e0bff615 	stw	r2,-40(fp)
    vert_end = vert_start;
 20076ec:	e0bffd17 	ldw	r2,-12(fp)
 20076f0:	e0bfff15 	stw	r2,-4(fp)
    vert_start = temp;
 20076f4:	e0bff617 	ldw	r2,-40(fp)
 20076f8:	e0bffd15 	stw	r2,-12(fp)
  }
  
  // These are the overall dimensions of the box
  width = horiz_end - horiz_start;
 20076fc:	e0fffe17 	ldw	r3,-8(fp)
 2007700:	e0bffc17 	ldw	r2,-16(fp)
 2007704:	1885c83a 	sub	r2,r3,r2
 2007708:	e0bff715 	stw	r2,-36(fp)
  height = vert_end - vert_start;
 200770c:	e0ffff17 	ldw	r3,-4(fp)
 2007710:	e0bffd17 	ldw	r2,-12(fp)
 2007714:	1885c83a 	sub	r2,r3,r2
 2007718:	e0bff815 	stw	r2,-32(fp)

  // Make sure our radius isnt more than the shortest dimension 
  // of the box, or it'll screw us all up
  if( radius > ( width / 2 ))
 200771c:	e0800217 	ldw	r2,8(fp)
 2007720:	e0fff717 	ldw	r3,-36(fp)
 2007724:	1806d07a 	srli	r3,r3,1
 2007728:	1880032e 	bgeu	r3,r2,2007738 <vid_draw_round_corner_box+0xa4>
    radius = width / 2;
 200772c:	e0bff717 	ldw	r2,-36(fp)
 2007730:	1004d07a 	srli	r2,r2,1
 2007734:	e0800215 	stw	r2,8(fp)

  if( radius > ( height / 2 ))
 2007738:	e0800217 	ldw	r2,8(fp)
 200773c:	e0fff817 	ldw	r3,-32(fp)
 2007740:	1806d07a 	srli	r3,r3,1
 2007744:	1880032e 	bgeu	r3,r2,2007754 <vid_draw_round_corner_box+0xc0>
    radius = height / 2;
 2007748:	e0bff817 	ldw	r2,-32(fp)
 200774c:	1004d07a 	srli	r2,r2,1
 2007750:	e0800215 	stw	r2,8(fp)
  
  // We use the diameter for some calculations, so we'll pre calculate it here.
  diameter = ( radius * 2 );
 2007754:	e0800217 	ldw	r2,8(fp)
 2007758:	1085883a 	add	r2,r2,r2
 200775c:	e0bff915 	stw	r2,-28(fp)

  // These are the lengths of the straight portions of the box edges.
  straight_width = width - diameter;
 2007760:	e0bff917 	ldw	r2,-28(fp)
 2007764:	e0fff717 	ldw	r3,-36(fp)
 2007768:	1885c83a 	sub	r2,r3,r2
 200776c:	e0bffa15 	stw	r2,-24(fp)
  straight_height = height - diameter;
 2007770:	e0bff917 	ldw	r2,-28(fp)
 2007774:	e0fff817 	ldw	r3,-32(fp)
 2007778:	1885c83a 	sub	r2,r3,r2
 200777c:	e0bffb15 	stw	r2,-20(fp)

  x = 0;
 2007780:	e03ff315 	stw	zero,-52(fp)
  y = radius;
 2007784:	e0800217 	ldw	r2,8(fp)
 2007788:	e0bff415 	stw	r2,-48(fp)
  p = (5 - radius*4)/4;
 200778c:	e0800217 	ldw	r2,8(fp)
 2007790:	10bfff24 	muli	r2,r2,-4
 2007794:	10800144 	addi	r2,r2,5
 2007798:	1000010e 	bge	r2,zero,20077a0 <vid_draw_round_corner_box+0x10c>
 200779c:	108000c4 	addi	r2,r2,3
 20077a0:	1005d0ba 	srai	r2,r2,2
 20077a4:	e0bff515 	stw	r2,-44(fp)
   
  // Start the corners with the top, bottom, left, and right pixels.
  vid_round_corner_points( horiz_start + radius, vert_start + radius, x, y, 
 20077a8:	e0fffc17 	ldw	r3,-16(fp)
 20077ac:	e0800217 	ldw	r2,8(fp)
 20077b0:	1891883a 	add	r8,r3,r2
 20077b4:	e0fffd17 	ldw	r3,-12(fp)
 20077b8:	e0800217 	ldw	r2,8(fp)
 20077bc:	188b883a 	add	r5,r3,r2
 20077c0:	e1bff317 	ldw	r6,-52(fp)
 20077c4:	e1fff417 	ldw	r7,-48(fp)
 20077c8:	e13ffa17 	ldw	r4,-24(fp)
 20077cc:	e0fffb17 	ldw	r3,-20(fp)
 20077d0:	e0800417 	ldw	r2,16(fp)
 20077d4:	10803fcc 	andi	r2,r2,255
 20077d8:	1080201c 	xori	r2,r2,128
 20077dc:	10bfe004 	addi	r2,r2,-128
 20077e0:	d9000015 	stw	r4,0(sp)
 20077e4:	d8c00115 	stw	r3,4(sp)
 20077e8:	e0c00317 	ldw	r3,12(fp)
 20077ec:	d8c00215 	stw	r3,8(sp)
 20077f0:	d8800315 	stw	r2,12(sp)
 20077f4:	e0800517 	ldw	r2,20(fp)
 20077f8:	d8800415 	stw	r2,16(sp)
 20077fc:	4009883a 	mov	r4,r8
 2007800:	2007a300 	call	2007a30 <vid_round_corner_points>
                           straight_width, straight_height, color, fill, display );
  
  // Now start moving out from those points until the lines meet
  while (x < y) {
 2007804:	00003006 	br	20078c8 <vid_draw_round_corner_box+0x234>
    x++;
 2007808:	e0bff317 	ldw	r2,-52(fp)
 200780c:	10800044 	addi	r2,r2,1
 2007810:	e0bff315 	stw	r2,-52(fp)
    if (p < 0) {
 2007814:	e0bff517 	ldw	r2,-44(fp)
 2007818:	1000080e 	bge	r2,zero,200783c <vid_draw_round_corner_box+0x1a8>
      p += 2*x+1;
 200781c:	e0bff317 	ldw	r2,-52(fp)
 2007820:	1085883a 	add	r2,r2,r2
 2007824:	1007883a 	mov	r3,r2
 2007828:	e0bff517 	ldw	r2,-44(fp)
 200782c:	1885883a 	add	r2,r3,r2
 2007830:	10800044 	addi	r2,r2,1
 2007834:	e0bff515 	stw	r2,-44(fp)
 2007838:	00000c06 	br	200786c <vid_draw_round_corner_box+0x1d8>
    } else {
      y--;
 200783c:	e0bff417 	ldw	r2,-48(fp)
 2007840:	10bfffc4 	addi	r2,r2,-1
 2007844:	e0bff415 	stw	r2,-48(fp)
      p += 2*(x-y)+1;
 2007848:	e0fff317 	ldw	r3,-52(fp)
 200784c:	e0bff417 	ldw	r2,-48(fp)
 2007850:	1885c83a 	sub	r2,r3,r2
 2007854:	1085883a 	add	r2,r2,r2
 2007858:	1007883a 	mov	r3,r2
 200785c:	e0bff517 	ldw	r2,-44(fp)
 2007860:	1885883a 	add	r2,r3,r2
 2007864:	10800044 	addi	r2,r2,1
 2007868:	e0bff515 	stw	r2,-44(fp)
    }
    vid_round_corner_points( horiz_start + radius, vert_start + radius, x, y, 
 200786c:	e0fffc17 	ldw	r3,-16(fp)
 2007870:	e0800217 	ldw	r2,8(fp)
 2007874:	1891883a 	add	r8,r3,r2
 2007878:	e0fffd17 	ldw	r3,-12(fp)
 200787c:	e0800217 	ldw	r2,8(fp)
 2007880:	188b883a 	add	r5,r3,r2
 2007884:	e1bff317 	ldw	r6,-52(fp)
 2007888:	e1fff417 	ldw	r7,-48(fp)
 200788c:	e13ffa17 	ldw	r4,-24(fp)
 2007890:	e0fffb17 	ldw	r3,-20(fp)
 2007894:	e0800417 	ldw	r2,16(fp)
 2007898:	10803fcc 	andi	r2,r2,255
 200789c:	1080201c 	xori	r2,r2,128
 20078a0:	10bfe004 	addi	r2,r2,-128
 20078a4:	d9000015 	stw	r4,0(sp)
 20078a8:	d8c00115 	stw	r3,4(sp)
 20078ac:	e0c00317 	ldw	r3,12(fp)
 20078b0:	d8c00215 	stw	r3,8(sp)
 20078b4:	d8800315 	stw	r2,12(sp)
 20078b8:	e0800517 	ldw	r2,20(fp)
 20078bc:	d8800415 	stw	r2,16(sp)
 20078c0:	4009883a 	mov	r4,r8
 20078c4:	2007a300 	call	2007a30 <vid_round_corner_points>
  // Start the corners with the top, bottom, left, and right pixels.
  vid_round_corner_points( horiz_start + radius, vert_start + radius, x, y, 
                           straight_width, straight_height, color, fill, display );
  
  // Now start moving out from those points until the lines meet
  while (x < y) {
 20078c8:	e0fff317 	ldw	r3,-52(fp)
 20078cc:	e0bff417 	ldw	r2,-48(fp)
 20078d0:	18bfcd36 	bltu	r3,r2,2007808 <__reset+0xfe000008>
    vid_round_corner_points( horiz_start + radius, vert_start + radius, x, y, 
                             straight_width, straight_height, color, fill, display);
  }

  // If we want to fill in our box
  if (fill) {
 20078d4:	e0800417 	ldw	r2,16(fp)
 20078d8:	10000f26 	beq	r2,zero,2007918 <vid_draw_round_corner_box+0x284>
     vid_paint_block (horiz_start, vert_start + radius, horiz_end, vert_end - radius, color, display);
 20078dc:	e0fffd17 	ldw	r3,-12(fp)
 20078e0:	e0800217 	ldw	r2,8(fp)
 20078e4:	188b883a 	add	r5,r3,r2
 20078e8:	e0ffff17 	ldw	r3,-4(fp)
 20078ec:	e0800217 	ldw	r2,8(fp)
 20078f0:	1887c83a 	sub	r3,r3,r2
 20078f4:	e0800317 	ldw	r2,12(fp)
 20078f8:	d8800015 	stw	r2,0(sp)
 20078fc:	e0800517 	ldw	r2,20(fp)
 2007900:	d8800115 	stw	r2,4(sp)
 2007904:	e13ffc17 	ldw	r4,-16(fp)
 2007908:	e1bffe17 	ldw	r6,-8(fp)
 200790c:	180f883a 	mov	r7,r3
 2007910:	20070480 	call	2007048 <vid_paint_block>
 2007914:	00004006 	br	2007a18 <vid_draw_round_corner_box+0x384>
  // If we're not filling in the box, just draw four lines.
  } else {
    vid_draw_line(horiz_start, vert_start + radius, horiz_start, vert_end - radius , 1, color, display); //left
 2007918:	e0fffd17 	ldw	r3,-12(fp)
 200791c:	e0800217 	ldw	r2,8(fp)
 2007920:	188b883a 	add	r5,r3,r2
 2007924:	e0ffff17 	ldw	r3,-4(fp)
 2007928:	e0800217 	ldw	r2,8(fp)
 200792c:	1887c83a 	sub	r3,r3,r2
 2007930:	00800044 	movi	r2,1
 2007934:	d8800015 	stw	r2,0(sp)
 2007938:	e0800317 	ldw	r2,12(fp)
 200793c:	d8800115 	stw	r2,4(sp)
 2007940:	e0800517 	ldw	r2,20(fp)
 2007944:	d8800215 	stw	r2,8(sp)
 2007948:	e13ffc17 	ldw	r4,-16(fp)
 200794c:	e1bffc17 	ldw	r6,-16(fp)
 2007950:	180f883a 	mov	r7,r3
 2007954:	20065480 	call	2006548 <vid_draw_line>
    vid_draw_line(horiz_end, vert_start + radius, horiz_end, vert_end - radius , 1, color, display); //right
 2007958:	e0fffd17 	ldw	r3,-12(fp)
 200795c:	e0800217 	ldw	r2,8(fp)
 2007960:	188b883a 	add	r5,r3,r2
 2007964:	e0ffff17 	ldw	r3,-4(fp)
 2007968:	e0800217 	ldw	r2,8(fp)
 200796c:	1887c83a 	sub	r3,r3,r2
 2007970:	00800044 	movi	r2,1
 2007974:	d8800015 	stw	r2,0(sp)
 2007978:	e0800317 	ldw	r2,12(fp)
 200797c:	d8800115 	stw	r2,4(sp)
 2007980:	e0800517 	ldw	r2,20(fp)
 2007984:	d8800215 	stw	r2,8(sp)
 2007988:	e13ffe17 	ldw	r4,-8(fp)
 200798c:	e1bffe17 	ldw	r6,-8(fp)
 2007990:	180f883a 	mov	r7,r3
 2007994:	20065480 	call	2006548 <vid_draw_line>
    vid_draw_line(horiz_start + radius, vert_start, horiz_end - radius , vert_start, 1, color, display); //top
 2007998:	e0fffc17 	ldw	r3,-16(fp)
 200799c:	e0800217 	ldw	r2,8(fp)
 20079a0:	1889883a 	add	r4,r3,r2
 20079a4:	e0fffe17 	ldw	r3,-8(fp)
 20079a8:	e0800217 	ldw	r2,8(fp)
 20079ac:	1887c83a 	sub	r3,r3,r2
 20079b0:	00800044 	movi	r2,1
 20079b4:	d8800015 	stw	r2,0(sp)
 20079b8:	e0800317 	ldw	r2,12(fp)
 20079bc:	d8800115 	stw	r2,4(sp)
 20079c0:	e0800517 	ldw	r2,20(fp)
 20079c4:	d8800215 	stw	r2,8(sp)
 20079c8:	e17ffd17 	ldw	r5,-12(fp)
 20079cc:	180d883a 	mov	r6,r3
 20079d0:	e1fffd17 	ldw	r7,-12(fp)
 20079d4:	20065480 	call	2006548 <vid_draw_line>
    vid_draw_line(horiz_start + radius, vert_end, horiz_end - radius , vert_end, 1, color, display); //bottom
 20079d8:	e0fffc17 	ldw	r3,-16(fp)
 20079dc:	e0800217 	ldw	r2,8(fp)
 20079e0:	1889883a 	add	r4,r3,r2
 20079e4:	e0fffe17 	ldw	r3,-8(fp)
 20079e8:	e0800217 	ldw	r2,8(fp)
 20079ec:	1887c83a 	sub	r3,r3,r2
 20079f0:	00800044 	movi	r2,1
 20079f4:	d8800015 	stw	r2,0(sp)
 20079f8:	e0800317 	ldw	r2,12(fp)
 20079fc:	d8800115 	stw	r2,4(sp)
 2007a00:	e0800517 	ldw	r2,20(fp)
 2007a04:	d8800215 	stw	r2,8(sp)
 2007a08:	e17fff17 	ldw	r5,-4(fp)
 2007a0c:	180d883a 	mov	r6,r3
 2007a10:	e1ffff17 	ldw	r7,-4(fp)
 2007a14:	20065480 	call	2006548 <vid_draw_line>
  }

  return (0);
 2007a18:	0005883a 	mov	r2,zero
}
 2007a1c:	e037883a 	mov	sp,fp
 2007a20:	dfc00117 	ldw	ra,4(sp)
 2007a24:	df000017 	ldw	fp,0(sp)
 2007a28:	dec00204 	addi	sp,sp,8
 2007a2c:	f800283a 	ret

02007a30 <vid_round_corner_points>:
******************************************************************/

void vid_round_corner_points( int cx, int cy, int x, int y, 
                              int straight_width, int straight_height, int color, 
                              char fill, alt_video_display* display)
{
 2007a30:	defff604 	addi	sp,sp,-40
 2007a34:	dfc00915 	stw	ra,36(sp)
 2007a38:	df000815 	stw	fp,32(sp)
 2007a3c:	df000804 	addi	fp,sp,32
 2007a40:	e13ffb15 	stw	r4,-20(fp)
 2007a44:	e17ffc15 	stw	r5,-16(fp)
 2007a48:	e1bffd15 	stw	r6,-12(fp)
 2007a4c:	e1fffe15 	stw	r7,-8(fp)
 2007a50:	e0800517 	ldw	r2,20(fp)
 2007a54:	e0bfff05 	stb	r2,-4(fp)

    // If we're directly above, below, left and right of center (0 degrees), plot those 4 pixels
    if (x == 0) {
 2007a58:	e0bffd17 	ldw	r2,-12(fp)
 2007a5c:	1000841e 	bne	r2,zero,2007c70 <vid_round_corner_points+0x240>
        // bottom
        vid_set_pixel(cx, cy + y + straight_height, color, display);
 2007a60:	e0fffc17 	ldw	r3,-16(fp)
 2007a64:	e0bffe17 	ldw	r2,-8(fp)
 2007a68:	1887883a 	add	r3,r3,r2
 2007a6c:	e0800317 	ldw	r2,12(fp)
 2007a70:	1887883a 	add	r3,r3,r2
 2007a74:	e0800417 	ldw	r2,16(fp)
 2007a78:	e13ffb17 	ldw	r4,-20(fp)
 2007a7c:	180b883a 	mov	r5,r3
 2007a80:	100d883a 	mov	r6,r2
 2007a84:	e1c00617 	ldw	r7,24(fp)
 2007a88:	2006f6c0 	call	2006f6c <vid_set_pixel>
        vid_set_pixel(cx + straight_width, cy + y + straight_height, color, display);
 2007a8c:	e0fffb17 	ldw	r3,-20(fp)
 2007a90:	e0800217 	ldw	r2,8(fp)
 2007a94:	1889883a 	add	r4,r3,r2
 2007a98:	e0fffc17 	ldw	r3,-16(fp)
 2007a9c:	e0bffe17 	ldw	r2,-8(fp)
 2007aa0:	1887883a 	add	r3,r3,r2
 2007aa4:	e0800317 	ldw	r2,12(fp)
 2007aa8:	1887883a 	add	r3,r3,r2
 2007aac:	e0800417 	ldw	r2,16(fp)
 2007ab0:	180b883a 	mov	r5,r3
 2007ab4:	100d883a 	mov	r6,r2
 2007ab8:	e1c00617 	ldw	r7,24(fp)
 2007abc:	2006f6c0 	call	2006f6c <vid_set_pixel>
        // top
        vid_set_pixel(cx, cy - y, color, display);
 2007ac0:	e0fffc17 	ldw	r3,-16(fp)
 2007ac4:	e0bffe17 	ldw	r2,-8(fp)
 2007ac8:	1887c83a 	sub	r3,r3,r2
 2007acc:	e0800417 	ldw	r2,16(fp)
 2007ad0:	e13ffb17 	ldw	r4,-20(fp)
 2007ad4:	180b883a 	mov	r5,r3
 2007ad8:	100d883a 	mov	r6,r2
 2007adc:	e1c00617 	ldw	r7,24(fp)
 2007ae0:	2006f6c0 	call	2006f6c <vid_set_pixel>
        vid_set_pixel(cx + straight_width, cy - y, color, display);
 2007ae4:	e0fffb17 	ldw	r3,-20(fp)
 2007ae8:	e0800217 	ldw	r2,8(fp)
 2007aec:	1889883a 	add	r4,r3,r2
 2007af0:	e0fffc17 	ldw	r3,-16(fp)
 2007af4:	e0bffe17 	ldw	r2,-8(fp)
 2007af8:	1887c83a 	sub	r3,r3,r2
 2007afc:	e0800417 	ldw	r2,16(fp)
 2007b00:	180b883a 	mov	r5,r3
 2007b04:	100d883a 	mov	r6,r2
 2007b08:	e1c00617 	ldw	r7,24(fp)
 2007b0c:	2006f6c0 	call	2006f6c <vid_set_pixel>

        if(fill) {
 2007b10:	e0bfff07 	ldb	r2,-4(fp)
 2007b14:	10002926 	beq	r2,zero,2007bbc <vid_round_corner_points+0x18c>
          vid_draw_line(cx - y, cy, cx + y + straight_width, cy, 1, color, display);
 2007b18:	e0fffb17 	ldw	r3,-20(fp)
 2007b1c:	e0bffe17 	ldw	r2,-8(fp)
 2007b20:	1889c83a 	sub	r4,r3,r2
 2007b24:	e0fffb17 	ldw	r3,-20(fp)
 2007b28:	e0bffe17 	ldw	r2,-8(fp)
 2007b2c:	1887883a 	add	r3,r3,r2
 2007b30:	e0800217 	ldw	r2,8(fp)
 2007b34:	1887883a 	add	r3,r3,r2
 2007b38:	00800044 	movi	r2,1
 2007b3c:	d8800015 	stw	r2,0(sp)
 2007b40:	e0800417 	ldw	r2,16(fp)
 2007b44:	d8800115 	stw	r2,4(sp)
 2007b48:	e0800617 	ldw	r2,24(fp)
 2007b4c:	d8800215 	stw	r2,8(sp)
 2007b50:	e17ffc17 	ldw	r5,-16(fp)
 2007b54:	180d883a 	mov	r6,r3
 2007b58:	e1fffc17 	ldw	r7,-16(fp)
 2007b5c:	20065480 	call	2006548 <vid_draw_line>
          vid_draw_line(cx - y, cy + straight_height, cx + y + straight_width, cy + straight_height, 1, color, display);
 2007b60:	e0fffb17 	ldw	r3,-20(fp)
 2007b64:	e0bffe17 	ldw	r2,-8(fp)
 2007b68:	1889c83a 	sub	r4,r3,r2
 2007b6c:	e0fffc17 	ldw	r3,-16(fp)
 2007b70:	e0800317 	ldw	r2,12(fp)
 2007b74:	188b883a 	add	r5,r3,r2
 2007b78:	e0fffb17 	ldw	r3,-20(fp)
 2007b7c:	e0bffe17 	ldw	r2,-8(fp)
 2007b80:	1887883a 	add	r3,r3,r2
 2007b84:	e0800217 	ldw	r2,8(fp)
 2007b88:	188d883a 	add	r6,r3,r2
 2007b8c:	e0fffc17 	ldw	r3,-16(fp)
 2007b90:	e0800317 	ldw	r2,12(fp)
 2007b94:	1887883a 	add	r3,r3,r2
 2007b98:	00800044 	movi	r2,1
 2007b9c:	d8800015 	stw	r2,0(sp)
 2007ba0:	e0800417 	ldw	r2,16(fp)
 2007ba4:	d8800115 	stw	r2,4(sp)
 2007ba8:	e0800617 	ldw	r2,24(fp)
 2007bac:	d8800215 	stw	r2,8(sp)
 2007bb0:	180f883a 	mov	r7,r3
 2007bb4:	20065480 	call	2006548 <vid_draw_line>
 2007bb8:	00016606 	br	2008154 <vid_round_corner_points+0x724>
        } else {
          //right
          vid_set_pixel(cx + y + straight_width, cy, color, display);
 2007bbc:	e0fffb17 	ldw	r3,-20(fp)
 2007bc0:	e0bffe17 	ldw	r2,-8(fp)
 2007bc4:	1887883a 	add	r3,r3,r2
 2007bc8:	e0800217 	ldw	r2,8(fp)
 2007bcc:	1887883a 	add	r3,r3,r2
 2007bd0:	e0800417 	ldw	r2,16(fp)
 2007bd4:	1809883a 	mov	r4,r3
 2007bd8:	e17ffc17 	ldw	r5,-16(fp)
 2007bdc:	100d883a 	mov	r6,r2
 2007be0:	e1c00617 	ldw	r7,24(fp)
 2007be4:	2006f6c0 	call	2006f6c <vid_set_pixel>
          vid_set_pixel(cx + y + straight_width, cy + straight_height, color, display);
 2007be8:	e0fffb17 	ldw	r3,-20(fp)
 2007bec:	e0bffe17 	ldw	r2,-8(fp)
 2007bf0:	1887883a 	add	r3,r3,r2
 2007bf4:	e0800217 	ldw	r2,8(fp)
 2007bf8:	1889883a 	add	r4,r3,r2
 2007bfc:	e0fffc17 	ldw	r3,-16(fp)
 2007c00:	e0800317 	ldw	r2,12(fp)
 2007c04:	1887883a 	add	r3,r3,r2
 2007c08:	e0800417 	ldw	r2,16(fp)
 2007c0c:	180b883a 	mov	r5,r3
 2007c10:	100d883a 	mov	r6,r2
 2007c14:	e1c00617 	ldw	r7,24(fp)
 2007c18:	2006f6c0 	call	2006f6c <vid_set_pixel>
          //left
          vid_set_pixel(cx - y, cy, color, display);
 2007c1c:	e0fffb17 	ldw	r3,-20(fp)
 2007c20:	e0bffe17 	ldw	r2,-8(fp)
 2007c24:	1887c83a 	sub	r3,r3,r2
 2007c28:	e0800417 	ldw	r2,16(fp)
 2007c2c:	1809883a 	mov	r4,r3
 2007c30:	e17ffc17 	ldw	r5,-16(fp)
 2007c34:	100d883a 	mov	r6,r2
 2007c38:	e1c00617 	ldw	r7,24(fp)
 2007c3c:	2006f6c0 	call	2006f6c <vid_set_pixel>
          vid_set_pixel(cx - y, cy + straight_height, color, display);
 2007c40:	e0fffb17 	ldw	r3,-20(fp)
 2007c44:	e0bffe17 	ldw	r2,-8(fp)
 2007c48:	1889c83a 	sub	r4,r3,r2
 2007c4c:	e0fffc17 	ldw	r3,-16(fp)
 2007c50:	e0800317 	ldw	r2,12(fp)
 2007c54:	1887883a 	add	r3,r3,r2
 2007c58:	e0800417 	ldw	r2,16(fp)
 2007c5c:	180b883a 	mov	r5,r3
 2007c60:	100d883a 	mov	r6,r2
 2007c64:	e1c00617 	ldw	r7,24(fp)
 2007c68:	2006f6c0 	call	2006f6c <vid_set_pixel>
 2007c6c:	00013906 	br	2008154 <vid_round_corner_points+0x724>
        }

    } else
    // If we've reached the 45 degree points (x=y), plot those 4 pixels
    if (x == y) {
 2007c70:	e0fffd17 	ldw	r3,-12(fp)
 2007c74:	e0bffe17 	ldw	r2,-8(fp)
 2007c78:	1880681e 	bne	r3,r2,2007e1c <vid_round_corner_points+0x3ec>
      if(fill) {
 2007c7c:	e0bfff07 	ldb	r2,-4(fp)
 2007c80:	10003126 	beq	r2,zero,2007d48 <vid_round_corner_points+0x318>
        vid_draw_line(cx - x, cy + y + straight_height, cx + x + straight_width, cy + y + straight_height, 1, color, display); // lower
 2007c84:	e0fffb17 	ldw	r3,-20(fp)
 2007c88:	e0bffd17 	ldw	r2,-12(fp)
 2007c8c:	1889c83a 	sub	r4,r3,r2
 2007c90:	e0fffc17 	ldw	r3,-16(fp)
 2007c94:	e0bffe17 	ldw	r2,-8(fp)
 2007c98:	1887883a 	add	r3,r3,r2
 2007c9c:	e0800317 	ldw	r2,12(fp)
 2007ca0:	188b883a 	add	r5,r3,r2
 2007ca4:	e0fffb17 	ldw	r3,-20(fp)
 2007ca8:	e0bffd17 	ldw	r2,-12(fp)
 2007cac:	1887883a 	add	r3,r3,r2
 2007cb0:	e0800217 	ldw	r2,8(fp)
 2007cb4:	188d883a 	add	r6,r3,r2
 2007cb8:	e0fffc17 	ldw	r3,-16(fp)
 2007cbc:	e0bffe17 	ldw	r2,-8(fp)
 2007cc0:	1887883a 	add	r3,r3,r2
 2007cc4:	e0800317 	ldw	r2,12(fp)
 2007cc8:	1887883a 	add	r3,r3,r2
 2007ccc:	00800044 	movi	r2,1
 2007cd0:	d8800015 	stw	r2,0(sp)
 2007cd4:	e0800417 	ldw	r2,16(fp)
 2007cd8:	d8800115 	stw	r2,4(sp)
 2007cdc:	e0800617 	ldw	r2,24(fp)
 2007ce0:	d8800215 	stw	r2,8(sp)
 2007ce4:	180f883a 	mov	r7,r3
 2007ce8:	20065480 	call	2006548 <vid_draw_line>
        vid_draw_line(cx - x, cy - y, cx + x + straight_width, cy - y, 1, color, display); // upper
 2007cec:	e0fffb17 	ldw	r3,-20(fp)
 2007cf0:	e0bffd17 	ldw	r2,-12(fp)
 2007cf4:	1889c83a 	sub	r4,r3,r2
 2007cf8:	e0fffc17 	ldw	r3,-16(fp)
 2007cfc:	e0bffe17 	ldw	r2,-8(fp)
 2007d00:	188bc83a 	sub	r5,r3,r2
 2007d04:	e0fffb17 	ldw	r3,-20(fp)
 2007d08:	e0bffd17 	ldw	r2,-12(fp)
 2007d0c:	1887883a 	add	r3,r3,r2
 2007d10:	e0800217 	ldw	r2,8(fp)
 2007d14:	188d883a 	add	r6,r3,r2
 2007d18:	e0fffc17 	ldw	r3,-16(fp)
 2007d1c:	e0bffe17 	ldw	r2,-8(fp)
 2007d20:	1887c83a 	sub	r3,r3,r2
 2007d24:	00800044 	movi	r2,1
 2007d28:	d8800015 	stw	r2,0(sp)
 2007d2c:	e0800417 	ldw	r2,16(fp)
 2007d30:	d8800115 	stw	r2,4(sp)
 2007d34:	e0800617 	ldw	r2,24(fp)
 2007d38:	d8800215 	stw	r2,8(sp)
 2007d3c:	180f883a 	mov	r7,r3
 2007d40:	20065480 	call	2006548 <vid_draw_line>
 2007d44:	00010306 	br	2008154 <vid_round_corner_points+0x724>
        
      } else {
        vid_set_pixel(cx + x + straight_width, cy + y + straight_height, color, display); // bottom right
 2007d48:	e0fffb17 	ldw	r3,-20(fp)
 2007d4c:	e0bffd17 	ldw	r2,-12(fp)
 2007d50:	1887883a 	add	r3,r3,r2
 2007d54:	e0800217 	ldw	r2,8(fp)
 2007d58:	1889883a 	add	r4,r3,r2
 2007d5c:	e0fffc17 	ldw	r3,-16(fp)
 2007d60:	e0bffe17 	ldw	r2,-8(fp)
 2007d64:	1887883a 	add	r3,r3,r2
 2007d68:	e0800317 	ldw	r2,12(fp)
 2007d6c:	1887883a 	add	r3,r3,r2
 2007d70:	e0800417 	ldw	r2,16(fp)
 2007d74:	180b883a 	mov	r5,r3
 2007d78:	100d883a 	mov	r6,r2
 2007d7c:	e1c00617 	ldw	r7,24(fp)
 2007d80:	2006f6c0 	call	2006f6c <vid_set_pixel>
        vid_set_pixel(cx - x, cy + y + straight_height, color, display); // bottom left
 2007d84:	e0fffb17 	ldw	r3,-20(fp)
 2007d88:	e0bffd17 	ldw	r2,-12(fp)
 2007d8c:	1889c83a 	sub	r4,r3,r2
 2007d90:	e0fffc17 	ldw	r3,-16(fp)
 2007d94:	e0bffe17 	ldw	r2,-8(fp)
 2007d98:	1887883a 	add	r3,r3,r2
 2007d9c:	e0800317 	ldw	r2,12(fp)
 2007da0:	1887883a 	add	r3,r3,r2
 2007da4:	e0800417 	ldw	r2,16(fp)
 2007da8:	180b883a 	mov	r5,r3
 2007dac:	100d883a 	mov	r6,r2
 2007db0:	e1c00617 	ldw	r7,24(fp)
 2007db4:	2006f6c0 	call	2006f6c <vid_set_pixel>
        vid_set_pixel(cx + x + straight_width, cy - y, color, display); // top right
 2007db8:	e0fffb17 	ldw	r3,-20(fp)
 2007dbc:	e0bffd17 	ldw	r2,-12(fp)
 2007dc0:	1887883a 	add	r3,r3,r2
 2007dc4:	e0800217 	ldw	r2,8(fp)
 2007dc8:	1889883a 	add	r4,r3,r2
 2007dcc:	e0fffc17 	ldw	r3,-16(fp)
 2007dd0:	e0bffe17 	ldw	r2,-8(fp)
 2007dd4:	1887c83a 	sub	r3,r3,r2
 2007dd8:	e0800417 	ldw	r2,16(fp)
 2007ddc:	180b883a 	mov	r5,r3
 2007de0:	100d883a 	mov	r6,r2
 2007de4:	e1c00617 	ldw	r7,24(fp)
 2007de8:	2006f6c0 	call	2006f6c <vid_set_pixel>
        vid_set_pixel(cx - x, cy - y, color, display); // top left
 2007dec:	e0fffb17 	ldw	r3,-20(fp)
 2007df0:	e0bffd17 	ldw	r2,-12(fp)
 2007df4:	1889c83a 	sub	r4,r3,r2
 2007df8:	e0fffc17 	ldw	r3,-16(fp)
 2007dfc:	e0bffe17 	ldw	r2,-8(fp)
 2007e00:	1887c83a 	sub	r3,r3,r2
 2007e04:	e0800417 	ldw	r2,16(fp)
 2007e08:	180b883a 	mov	r5,r3
 2007e0c:	100d883a 	mov	r6,r2
 2007e10:	e1c00617 	ldw	r7,24(fp)
 2007e14:	2006f6c0 	call	2006f6c <vid_set_pixel>
 2007e18:	0000ce06 	br	2008154 <vid_round_corner_points+0x724>
      }
    } else
    // If we're between 0 and 45 degrees plot 8 pixels.
    if (x < y) {
 2007e1c:	e0fffd17 	ldw	r3,-12(fp)
 2007e20:	e0bffe17 	ldw	r2,-8(fp)
 2007e24:	1880cb0e 	bge	r3,r2,2008154 <vid_round_corner_points+0x724>
        if(fill) {
 2007e28:	e0bfff07 	ldb	r2,-4(fp)
 2007e2c:	10006126 	beq	r2,zero,2007fb4 <vid_round_corner_points+0x584>
          vid_draw_line(cx - x, cy + y + straight_height, cx + x + straight_width, cy + y + straight_height, 1, color, display);
 2007e30:	e0fffb17 	ldw	r3,-20(fp)
 2007e34:	e0bffd17 	ldw	r2,-12(fp)
 2007e38:	1889c83a 	sub	r4,r3,r2
 2007e3c:	e0fffc17 	ldw	r3,-16(fp)
 2007e40:	e0bffe17 	ldw	r2,-8(fp)
 2007e44:	1887883a 	add	r3,r3,r2
 2007e48:	e0800317 	ldw	r2,12(fp)
 2007e4c:	188b883a 	add	r5,r3,r2
 2007e50:	e0fffb17 	ldw	r3,-20(fp)
 2007e54:	e0bffd17 	ldw	r2,-12(fp)
 2007e58:	1887883a 	add	r3,r3,r2
 2007e5c:	e0800217 	ldw	r2,8(fp)
 2007e60:	188d883a 	add	r6,r3,r2
 2007e64:	e0fffc17 	ldw	r3,-16(fp)
 2007e68:	e0bffe17 	ldw	r2,-8(fp)
 2007e6c:	1887883a 	add	r3,r3,r2
 2007e70:	e0800317 	ldw	r2,12(fp)
 2007e74:	1887883a 	add	r3,r3,r2
 2007e78:	00800044 	movi	r2,1
 2007e7c:	d8800015 	stw	r2,0(sp)
 2007e80:	e0800417 	ldw	r2,16(fp)
 2007e84:	d8800115 	stw	r2,4(sp)
 2007e88:	e0800617 	ldw	r2,24(fp)
 2007e8c:	d8800215 	stw	r2,8(sp)
 2007e90:	180f883a 	mov	r7,r3
 2007e94:	20065480 	call	2006548 <vid_draw_line>
          vid_draw_line(cx - y, cy + x + straight_height, cx + y + straight_width, cy + x + straight_height, 1, color, display);
 2007e98:	e0fffb17 	ldw	r3,-20(fp)
 2007e9c:	e0bffe17 	ldw	r2,-8(fp)
 2007ea0:	1889c83a 	sub	r4,r3,r2
 2007ea4:	e0fffc17 	ldw	r3,-16(fp)
 2007ea8:	e0bffd17 	ldw	r2,-12(fp)
 2007eac:	1887883a 	add	r3,r3,r2
 2007eb0:	e0800317 	ldw	r2,12(fp)
 2007eb4:	188b883a 	add	r5,r3,r2
 2007eb8:	e0fffb17 	ldw	r3,-20(fp)
 2007ebc:	e0bffe17 	ldw	r2,-8(fp)
 2007ec0:	1887883a 	add	r3,r3,r2
 2007ec4:	e0800217 	ldw	r2,8(fp)
 2007ec8:	188d883a 	add	r6,r3,r2
 2007ecc:	e0fffc17 	ldw	r3,-16(fp)
 2007ed0:	e0bffd17 	ldw	r2,-12(fp)
 2007ed4:	1887883a 	add	r3,r3,r2
 2007ed8:	e0800317 	ldw	r2,12(fp)
 2007edc:	1887883a 	add	r3,r3,r2
 2007ee0:	00800044 	movi	r2,1
 2007ee4:	d8800015 	stw	r2,0(sp)
 2007ee8:	e0800417 	ldw	r2,16(fp)
 2007eec:	d8800115 	stw	r2,4(sp)
 2007ef0:	e0800617 	ldw	r2,24(fp)
 2007ef4:	d8800215 	stw	r2,8(sp)
 2007ef8:	180f883a 	mov	r7,r3
 2007efc:	20065480 	call	2006548 <vid_draw_line>
          vid_draw_line(cx - y, cy - x, cx + y + straight_width, cy - x, 1, color, display);
 2007f00:	e0fffb17 	ldw	r3,-20(fp)
 2007f04:	e0bffe17 	ldw	r2,-8(fp)
 2007f08:	1889c83a 	sub	r4,r3,r2
 2007f0c:	e0fffc17 	ldw	r3,-16(fp)
 2007f10:	e0bffd17 	ldw	r2,-12(fp)
 2007f14:	188bc83a 	sub	r5,r3,r2
 2007f18:	e0fffb17 	ldw	r3,-20(fp)
 2007f1c:	e0bffe17 	ldw	r2,-8(fp)
 2007f20:	1887883a 	add	r3,r3,r2
 2007f24:	e0800217 	ldw	r2,8(fp)
 2007f28:	188d883a 	add	r6,r3,r2
 2007f2c:	e0fffc17 	ldw	r3,-16(fp)
 2007f30:	e0bffd17 	ldw	r2,-12(fp)
 2007f34:	1887c83a 	sub	r3,r3,r2
 2007f38:	00800044 	movi	r2,1
 2007f3c:	d8800015 	stw	r2,0(sp)
 2007f40:	e0800417 	ldw	r2,16(fp)
 2007f44:	d8800115 	stw	r2,4(sp)
 2007f48:	e0800617 	ldw	r2,24(fp)
 2007f4c:	d8800215 	stw	r2,8(sp)
 2007f50:	180f883a 	mov	r7,r3
 2007f54:	20065480 	call	2006548 <vid_draw_line>
          vid_draw_line(cx - x, cy - y, cx + x + straight_width, cy - y, 1, color, display);
 2007f58:	e0fffb17 	ldw	r3,-20(fp)
 2007f5c:	e0bffd17 	ldw	r2,-12(fp)
 2007f60:	1889c83a 	sub	r4,r3,r2
 2007f64:	e0fffc17 	ldw	r3,-16(fp)
 2007f68:	e0bffe17 	ldw	r2,-8(fp)
 2007f6c:	188bc83a 	sub	r5,r3,r2
 2007f70:	e0fffb17 	ldw	r3,-20(fp)
 2007f74:	e0bffd17 	ldw	r2,-12(fp)
 2007f78:	1887883a 	add	r3,r3,r2
 2007f7c:	e0800217 	ldw	r2,8(fp)
 2007f80:	188d883a 	add	r6,r3,r2
 2007f84:	e0fffc17 	ldw	r3,-16(fp)
 2007f88:	e0bffe17 	ldw	r2,-8(fp)
 2007f8c:	1887c83a 	sub	r3,r3,r2
 2007f90:	00800044 	movi	r2,1
 2007f94:	d8800015 	stw	r2,0(sp)
 2007f98:	e0800417 	ldw	r2,16(fp)
 2007f9c:	d8800115 	stw	r2,4(sp)
 2007fa0:	e0800617 	ldw	r2,24(fp)
 2007fa4:	d8800215 	stw	r2,8(sp)
 2007fa8:	180f883a 	mov	r7,r3
 2007fac:	20065480 	call	2006548 <vid_draw_line>
 2007fb0:	00006806 	br	2008154 <vid_round_corner_points+0x724>
        } else {
          vid_set_pixel(cx + x + straight_width, cy + y + straight_height, color, display);
 2007fb4:	e0fffb17 	ldw	r3,-20(fp)
 2007fb8:	e0bffd17 	ldw	r2,-12(fp)
 2007fbc:	1887883a 	add	r3,r3,r2
 2007fc0:	e0800217 	ldw	r2,8(fp)
 2007fc4:	1889883a 	add	r4,r3,r2
 2007fc8:	e0fffc17 	ldw	r3,-16(fp)
 2007fcc:	e0bffe17 	ldw	r2,-8(fp)
 2007fd0:	1887883a 	add	r3,r3,r2
 2007fd4:	e0800317 	ldw	r2,12(fp)
 2007fd8:	1887883a 	add	r3,r3,r2
 2007fdc:	e0800417 	ldw	r2,16(fp)
 2007fe0:	180b883a 	mov	r5,r3
 2007fe4:	100d883a 	mov	r6,r2
 2007fe8:	e1c00617 	ldw	r7,24(fp)
 2007fec:	2006f6c0 	call	2006f6c <vid_set_pixel>
          vid_set_pixel(cx - x, cy + y + straight_height, color, display);
 2007ff0:	e0fffb17 	ldw	r3,-20(fp)
 2007ff4:	e0bffd17 	ldw	r2,-12(fp)
 2007ff8:	1889c83a 	sub	r4,r3,r2
 2007ffc:	e0fffc17 	ldw	r3,-16(fp)
 2008000:	e0bffe17 	ldw	r2,-8(fp)
 2008004:	1887883a 	add	r3,r3,r2
 2008008:	e0800317 	ldw	r2,12(fp)
 200800c:	1887883a 	add	r3,r3,r2
 2008010:	e0800417 	ldw	r2,16(fp)
 2008014:	180b883a 	mov	r5,r3
 2008018:	100d883a 	mov	r6,r2
 200801c:	e1c00617 	ldw	r7,24(fp)
 2008020:	2006f6c0 	call	2006f6c <vid_set_pixel>
          vid_set_pixel(cx + x + straight_width, cy - y, color, display);
 2008024:	e0fffb17 	ldw	r3,-20(fp)
 2008028:	e0bffd17 	ldw	r2,-12(fp)
 200802c:	1887883a 	add	r3,r3,r2
 2008030:	e0800217 	ldw	r2,8(fp)
 2008034:	1889883a 	add	r4,r3,r2
 2008038:	e0fffc17 	ldw	r3,-16(fp)
 200803c:	e0bffe17 	ldw	r2,-8(fp)
 2008040:	1887c83a 	sub	r3,r3,r2
 2008044:	e0800417 	ldw	r2,16(fp)
 2008048:	180b883a 	mov	r5,r3
 200804c:	100d883a 	mov	r6,r2
 2008050:	e1c00617 	ldw	r7,24(fp)
 2008054:	2006f6c0 	call	2006f6c <vid_set_pixel>
          vid_set_pixel(cx - x, cy - y, color, display);
 2008058:	e0fffb17 	ldw	r3,-20(fp)
 200805c:	e0bffd17 	ldw	r2,-12(fp)
 2008060:	1889c83a 	sub	r4,r3,r2
 2008064:	e0fffc17 	ldw	r3,-16(fp)
 2008068:	e0bffe17 	ldw	r2,-8(fp)
 200806c:	1887c83a 	sub	r3,r3,r2
 2008070:	e0800417 	ldw	r2,16(fp)
 2008074:	180b883a 	mov	r5,r3
 2008078:	100d883a 	mov	r6,r2
 200807c:	e1c00617 	ldw	r7,24(fp)
 2008080:	2006f6c0 	call	2006f6c <vid_set_pixel>
          vid_set_pixel(cx + y + straight_width, cy + x + straight_height, color, display);
 2008084:	e0fffb17 	ldw	r3,-20(fp)
 2008088:	e0bffe17 	ldw	r2,-8(fp)
 200808c:	1887883a 	add	r3,r3,r2
 2008090:	e0800217 	ldw	r2,8(fp)
 2008094:	1889883a 	add	r4,r3,r2
 2008098:	e0fffc17 	ldw	r3,-16(fp)
 200809c:	e0bffd17 	ldw	r2,-12(fp)
 20080a0:	1887883a 	add	r3,r3,r2
 20080a4:	e0800317 	ldw	r2,12(fp)
 20080a8:	1887883a 	add	r3,r3,r2
 20080ac:	e0800417 	ldw	r2,16(fp)
 20080b0:	180b883a 	mov	r5,r3
 20080b4:	100d883a 	mov	r6,r2
 20080b8:	e1c00617 	ldw	r7,24(fp)
 20080bc:	2006f6c0 	call	2006f6c <vid_set_pixel>
          vid_set_pixel(cx - y, cy + x + straight_height, color, display);
 20080c0:	e0fffb17 	ldw	r3,-20(fp)
 20080c4:	e0bffe17 	ldw	r2,-8(fp)
 20080c8:	1889c83a 	sub	r4,r3,r2
 20080cc:	e0fffc17 	ldw	r3,-16(fp)
 20080d0:	e0bffd17 	ldw	r2,-12(fp)
 20080d4:	1887883a 	add	r3,r3,r2
 20080d8:	e0800317 	ldw	r2,12(fp)
 20080dc:	1887883a 	add	r3,r3,r2
 20080e0:	e0800417 	ldw	r2,16(fp)
 20080e4:	180b883a 	mov	r5,r3
 20080e8:	100d883a 	mov	r6,r2
 20080ec:	e1c00617 	ldw	r7,24(fp)
 20080f0:	2006f6c0 	call	2006f6c <vid_set_pixel>
          vid_set_pixel(cx + y + straight_width, cy - x, color, display);
 20080f4:	e0fffb17 	ldw	r3,-20(fp)
 20080f8:	e0bffe17 	ldw	r2,-8(fp)
 20080fc:	1887883a 	add	r3,r3,r2
 2008100:	e0800217 	ldw	r2,8(fp)
 2008104:	1889883a 	add	r4,r3,r2
 2008108:	e0fffc17 	ldw	r3,-16(fp)
 200810c:	e0bffd17 	ldw	r2,-12(fp)
 2008110:	1887c83a 	sub	r3,r3,r2
 2008114:	e0800417 	ldw	r2,16(fp)
 2008118:	180b883a 	mov	r5,r3
 200811c:	100d883a 	mov	r6,r2
 2008120:	e1c00617 	ldw	r7,24(fp)
 2008124:	2006f6c0 	call	2006f6c <vid_set_pixel>
          vid_set_pixel(cx - y, cy - x, color, display);
 2008128:	e0fffb17 	ldw	r3,-20(fp)
 200812c:	e0bffe17 	ldw	r2,-8(fp)
 2008130:	1889c83a 	sub	r4,r3,r2
 2008134:	e0fffc17 	ldw	r3,-16(fp)
 2008138:	e0bffd17 	ldw	r2,-12(fp)
 200813c:	1887c83a 	sub	r3,r3,r2
 2008140:	e0800417 	ldw	r2,16(fp)
 2008144:	180b883a 	mov	r5,r3
 2008148:	100d883a 	mov	r6,r2
 200814c:	e1c00617 	ldw	r7,24(fp)
 2008150:	2006f6c0 	call	2006f6c <vid_set_pixel>
        }
    }
}
 2008154:	e037883a 	mov	sp,fp
 2008158:	dfc00117 	ldw	ra,4(sp)
 200815c:	df000017 	ldw	fp,0(sp)
 2008160:	dec00204 	addi	sp,sp,8
 2008164:	f800283a 	ret

02008168 <max3>:
*  Purpose:  Returns the minimum value of 3 parameters
*            Used for drawing filled shapes
*
******************************************************************/
__inline__ int max3( int a, int b, int c )
{
 2008168:	defffc04 	addi	sp,sp,-16
 200816c:	df000315 	stw	fp,12(sp)
 2008170:	df000304 	addi	fp,sp,12
 2008174:	e13ffd15 	stw	r4,-12(fp)
 2008178:	e17ffe15 	stw	r5,-8(fp)
 200817c:	e1bfff15 	stw	r6,-4(fp)
  if( a < b )
 2008180:	e0fffd17 	ldw	r3,-12(fp)
 2008184:	e0bffe17 	ldw	r2,-8(fp)
 2008188:	1880020e 	bge	r3,r2,2008194 <max3+0x2c>
    a = b;
 200818c:	e0bffe17 	ldw	r2,-8(fp)
 2008190:	e0bffd15 	stw	r2,-12(fp)
  if( a < c )
 2008194:	e0fffd17 	ldw	r3,-12(fp)
 2008198:	e0bfff17 	ldw	r2,-4(fp)
 200819c:	1880020e 	bge	r3,r2,20081a8 <max3+0x40>
    a = c;
 20081a0:	e0bfff17 	ldw	r2,-4(fp)
 20081a4:	e0bffd15 	stw	r2,-12(fp)
  
  return a;
 20081a8:	e0bffd17 	ldw	r2,-12(fp)
}
 20081ac:	e037883a 	mov	sp,fp
 20081b0:	df000017 	ldw	fp,0(sp)
 20081b4:	dec00104 	addi	sp,sp,4
 20081b8:	f800283a 	ret

020081bc <min3>:
*  Purpose:  Returns the minimum value of 3 parameters
*            Used for drawing filled shapes.
*
******************************************************************/
__inline__ int min3( int a, int b, int c )
{
 20081bc:	defffc04 	addi	sp,sp,-16
 20081c0:	df000315 	stw	fp,12(sp)
 20081c4:	df000304 	addi	fp,sp,12
 20081c8:	e13ffd15 	stw	r4,-12(fp)
 20081cc:	e17ffe15 	stw	r5,-8(fp)
 20081d0:	e1bfff15 	stw	r6,-4(fp)
  if( a > b )
 20081d4:	e0bffd17 	ldw	r2,-12(fp)
 20081d8:	e0fffe17 	ldw	r3,-8(fp)
 20081dc:	1880020e 	bge	r3,r2,20081e8 <min3+0x2c>
    a = b;
 20081e0:	e0bffe17 	ldw	r2,-8(fp)
 20081e4:	e0bffd15 	stw	r2,-12(fp)
  if( a > c )
 20081e8:	e0bffd17 	ldw	r2,-12(fp)
 20081ec:	e0ffff17 	ldw	r3,-4(fp)
 20081f0:	1880020e 	bge	r3,r2,20081fc <min3+0x40>
    a = c;
 20081f4:	e0bfff17 	ldw	r2,-4(fp)
 20081f8:	e0bffd15 	stw	r2,-12(fp)
  
  return a;
 20081fc:	e0bffd17 	ldw	r2,-12(fp)
}
 2008200:	e037883a 	mov	sp,fp
 2008204:	df000017 	ldw	fp,0(sp)
 2008208:	dec00104 	addi	sp,sp,4
 200820c:	f800283a 	ret

02008210 <max_diff3>:
*  Purpose:  Returns the positive max difference between 3 
*            parameters.  Used for drawing filled shapes
*
******************************************************************/
__inline__ int max_diff3(int a, int b, int c)
{
 2008210:	defff904 	addi	sp,sp,-28
 2008214:	dfc00615 	stw	ra,24(sp)
 2008218:	df000515 	stw	fp,20(sp)
 200821c:	df000504 	addi	fp,sp,20
 2008220:	e13ffd15 	stw	r4,-12(fp)
 2008224:	e17ffe15 	stw	r5,-8(fp)
 2008228:	e1bfff15 	stw	r6,-4(fp)
  int max, min;
    
  max = max3( a, b, c );
 200822c:	e13ffd17 	ldw	r4,-12(fp)
 2008230:	e17ffe17 	ldw	r5,-8(fp)
 2008234:	e1bfff17 	ldw	r6,-4(fp)
 2008238:	20081680 	call	2008168 <max3>
 200823c:	e0bffb15 	stw	r2,-20(fp)
  min = min3( a, b, c );
 2008240:	e13ffd17 	ldw	r4,-12(fp)
 2008244:	e17ffe17 	ldw	r5,-8(fp)
 2008248:	e1bfff17 	ldw	r6,-4(fp)
 200824c:	20081bc0 	call	20081bc <min3>
 2008250:	e0bffc15 	stw	r2,-16(fp)
  return (max - min);
 2008254:	e0fffb17 	ldw	r3,-20(fp)
 2008258:	e0bffc17 	ldw	r2,-16(fp)
 200825c:	1885c83a 	sub	r2,r3,r2
}
 2008260:	e037883a 	mov	sp,fp
 2008264:	dfc00117 	ldw	ra,4(sp)
 2008268:	df000017 	ldw	fp,0(sp)
 200826c:	dec00204 	addi	sp,sp,8
 2008270:	f800283a 	ret

02008274 <vid_put_pixel_in_span_map>:
*            min value of an element that represents a span, 
*            essentially just a horizontal line used to fill shapes.
*
******************************************************************/
inline void vid_put_pixel_in_span_map( int x, int y, int *span_array )
{
 2008274:	defffc04 	addi	sp,sp,-16
 2008278:	df000315 	stw	fp,12(sp)
 200827c:	df000304 	addi	fp,sp,12
 2008280:	e13ffd15 	stw	r4,-12(fp)
 2008284:	e17ffe15 	stw	r5,-8(fp)
 2008288:	e1bfff15 	stw	r6,-4(fp)
  if (span_array[y*2] == -1)
 200828c:	e0bffe17 	ldw	r2,-8(fp)
 2008290:	100490fa 	slli	r2,r2,3
 2008294:	1007883a 	mov	r3,r2
 2008298:	e0bfff17 	ldw	r2,-4(fp)
 200829c:	10c5883a 	add	r2,r2,r3
 20082a0:	10800017 	ldw	r2,0(r2)
 20082a4:	10bfffd8 	cmpnei	r2,r2,-1
 20082a8:	10000f1e 	bne	r2,zero,20082e8 <vid_put_pixel_in_span_map+0x74>
  {
    span_array[y*2] = x;
 20082ac:	e0bffe17 	ldw	r2,-8(fp)
 20082b0:	100490fa 	slli	r2,r2,3
 20082b4:	1007883a 	mov	r3,r2
 20082b8:	e0bfff17 	ldw	r2,-4(fp)
 20082bc:	10c5883a 	add	r2,r2,r3
 20082c0:	e0fffd17 	ldw	r3,-12(fp)
 20082c4:	10c00015 	stw	r3,0(r2)
    span_array[(y*2)+1] = x;
 20082c8:	e0bffe17 	ldw	r2,-8(fp)
 20082cc:	100490fa 	slli	r2,r2,3
 20082d0:	10800104 	addi	r2,r2,4
 20082d4:	e0ffff17 	ldw	r3,-4(fp)
 20082d8:	1885883a 	add	r2,r3,r2
 20082dc:	e0fffd17 	ldw	r3,-12(fp)
 20082e0:	10c00015 	stw	r3,0(r2)
 20082e4:	00001f06 	br	2008364 <vid_put_pixel_in_span_map+0xf0>
  }
  else if( span_array[y*2] > x )
 20082e8:	e0bffe17 	ldw	r2,-8(fp)
 20082ec:	100490fa 	slli	r2,r2,3
 20082f0:	1007883a 	mov	r3,r2
 20082f4:	e0bfff17 	ldw	r2,-4(fp)
 20082f8:	10c5883a 	add	r2,r2,r3
 20082fc:	10800017 	ldw	r2,0(r2)
 2008300:	e0fffd17 	ldw	r3,-12(fp)
 2008304:	1880080e 	bge	r3,r2,2008328 <vid_put_pixel_in_span_map+0xb4>
    span_array[y*2] = x;
 2008308:	e0bffe17 	ldw	r2,-8(fp)
 200830c:	100490fa 	slli	r2,r2,3
 2008310:	1007883a 	mov	r3,r2
 2008314:	e0bfff17 	ldw	r2,-4(fp)
 2008318:	10c5883a 	add	r2,r2,r3
 200831c:	e0fffd17 	ldw	r3,-12(fp)
 2008320:	10c00015 	stw	r3,0(r2)
 2008324:	00000f06 	br	2008364 <vid_put_pixel_in_span_map+0xf0>
  else if( span_array[(y*2)+1] < x )
 2008328:	e0bffe17 	ldw	r2,-8(fp)
 200832c:	100490fa 	slli	r2,r2,3
 2008330:	10800104 	addi	r2,r2,4
 2008334:	e0ffff17 	ldw	r3,-4(fp)
 2008338:	1885883a 	add	r2,r3,r2
 200833c:	10c00017 	ldw	r3,0(r2)
 2008340:	e0bffd17 	ldw	r2,-12(fp)
 2008344:	1880070e 	bge	r3,r2,2008364 <vid_put_pixel_in_span_map+0xf0>
    span_array[(y*2)+1] = x;
 2008348:	e0bffe17 	ldw	r2,-8(fp)
 200834c:	100490fa 	slli	r2,r2,3
 2008350:	10800104 	addi	r2,r2,4
 2008354:	e0ffff17 	ldw	r3,-4(fp)
 2008358:	1885883a 	add	r2,r3,r2
 200835c:	e0fffd17 	ldw	r3,-12(fp)
 2008360:	10c00015 	stw	r3,0(r2)
}
 2008364:	e037883a 	mov	sp,fp
 2008368:	df000017 	ldw	fp,0(sp)
 200836c:	dec00104 	addi	sp,sp,4
 2008370:	f800283a 	ret

02008374 <vid_bres_scan_edges>:
*            filled shapes where you fill by drawing successive
*            horizontal lines.
*
******************************************************************/
void vid_bres_scan_edges( int x1, int y1, int x2, int y2, int *span_array) 
{
 2008374:	deffee04 	addi	sp,sp,-72
 2008378:	dfc01115 	stw	ra,68(sp)
 200837c:	df001015 	stw	fp,64(sp)
 2008380:	df001004 	addi	fp,sp,64
 2008384:	e13ffc15 	stw	r4,-16(fp)
 2008388:	e17ffd15 	stw	r5,-12(fp)
 200838c:	e1bffe15 	stw	r6,-8(fp)
 2008390:	e1ffff15 	stw	r7,-4(fp)

  int x_incr, y_incr;
  int y_delta, x_delta;

  // Assure we always draw left to right
  if( x1 > x2 )
 2008394:	e0bffc17 	ldw	r2,-16(fp)
 2008398:	e0fffe17 	ldw	r3,-8(fp)
 200839c:	18800c0e 	bge	r3,r2,20083d0 <vid_bres_scan_edges+0x5c>
  {
    int tempx = x2;
 20083a0:	e0bffe17 	ldw	r2,-8(fp)
 20083a4:	e0bff515 	stw	r2,-44(fp)
    x2 = x1;
 20083a8:	e0bffc17 	ldw	r2,-16(fp)
 20083ac:	e0bffe15 	stw	r2,-8(fp)
    x1 = tempx;
 20083b0:	e0bff517 	ldw	r2,-44(fp)
 20083b4:	e0bffc15 	stw	r2,-16(fp)
    int tempy = y2;
 20083b8:	e0bfff17 	ldw	r2,-4(fp)
 20083bc:	e0bff615 	stw	r2,-40(fp)
    y2 = y1;
 20083c0:	e0bffd17 	ldw	r2,-12(fp)
 20083c4:	e0bfff15 	stw	r2,-4(fp)
    y1 = tempy;
 20083c8:	e0bff617 	ldw	r2,-40(fp)
 20083cc:	e0bffd15 	stw	r2,-12(fp)
  }
  
  // Find the vertical and horizontal distance between the two points
  y_delta = abs(y1-y2);
 20083d0:	e0fffd17 	ldw	r3,-12(fp)
 20083d4:	e0bfff17 	ldw	r2,-4(fp)
 20083d8:	1885c83a 	sub	r2,r3,r2
 20083dc:	1000010e 	bge	r2,zero,20083e4 <vid_bres_scan_edges+0x70>
 20083e0:	0085c83a 	sub	r2,zero,r2
 20083e4:	e0bff115 	stw	r2,-60(fp)
  x_delta = (x2-x1);
 20083e8:	e0fffe17 	ldw	r3,-8(fp)
 20083ec:	e0bffc17 	ldw	r2,-16(fp)
 20083f0:	1885c83a 	sub	r2,r3,r2
 20083f4:	e0bff215 	stw	r2,-56(fp)

  // Find out what direction we are going
  if (y1 > y2) { y_incr=-1; } else { y_incr=1; }
 20083f8:	e0bffd17 	ldw	r2,-12(fp)
 20083fc:	e0ffff17 	ldw	r3,-4(fp)
 2008400:	1880030e 	bge	r3,r2,2008410 <vid_bres_scan_edges+0x9c>
 2008404:	00bfffc4 	movi	r2,-1
 2008408:	e0bff015 	stw	r2,-64(fp)
 200840c:	00000206 	br	2008418 <vid_bres_scan_edges+0xa4>
 2008410:	00800044 	movi	r2,1
 2008414:	e0bff015 	stw	r2,-64(fp)
  x_incr=1;
 2008418:	00800044 	movi	r2,1
 200841c:	e0bff715 	stw	r2,-36(fp)

  // Find out which axis is always incremented when drawing the line
  // If it's the horizontal axis
  if (x_delta >= y_delta) {
 2008420:	e0fff217 	ldw	r3,-56(fp)
 2008424:	e0bff117 	ldw	r2,-60(fp)
 2008428:	18802f16 	blt	r3,r2,20084e8 <vid_bres_scan_edges+0x174>
    int dPr   = y_delta<<1;
 200842c:	e0bff117 	ldw	r2,-60(fp)
 2008430:	1085883a 	add	r2,r2,r2
 2008434:	e0bff815 	stw	r2,-32(fp)
    int dPru  = dPr - (x_delta<<1);
 2008438:	e0bff217 	ldw	r2,-56(fp)
 200843c:	1085883a 	add	r2,r2,r2
 2008440:	1007883a 	mov	r3,r2
 2008444:	e0bff817 	ldw	r2,-32(fp)
 2008448:	10c5c83a 	sub	r2,r2,r3
 200844c:	e0bff915 	stw	r2,-28(fp)
    int P     = dPr - x_delta;
 2008450:	e0fff817 	ldw	r3,-32(fp)
 2008454:	e0bff217 	ldw	r2,-56(fp)
 2008458:	1885c83a 	sub	r2,r3,r2
 200845c:	e0bff315 	stw	r2,-52(fp)

    // Process the line, one horizontal point at at time
    for (; x_delta >= 0; x_delta--) {
 2008460:	00001e06 	br	20084dc <vid_bres_scan_edges+0x168>
      // map the pixel
      vid_put_pixel_in_span_map(x1, y1, span_array);
 2008464:	e13ffc17 	ldw	r4,-16(fp)
 2008468:	e17ffd17 	ldw	r5,-12(fp)
 200846c:	e1800217 	ldw	r6,8(fp)
 2008470:	20082740 	call	2008274 <vid_put_pixel_in_span_map>
      // If we're moving along both axis
      if (P > 0) {
 2008474:	e0bff317 	ldw	r2,-52(fp)
 2008478:	00800d0e 	bge	zero,r2,20084b0 <vid_bres_scan_edges+0x13c>
        x1+=x_incr;
 200847c:	e0fffc17 	ldw	r3,-16(fp)
 2008480:	e0bff717 	ldw	r2,-36(fp)
 2008484:	1885883a 	add	r2,r3,r2
 2008488:	e0bffc15 	stw	r2,-16(fp)
        y1+=y_incr;
 200848c:	e0fffd17 	ldw	r3,-12(fp)
 2008490:	e0bff017 	ldw	r2,-64(fp)
 2008494:	1885883a 	add	r2,r3,r2
 2008498:	e0bffd15 	stw	r2,-12(fp)
        P+=dPru;
 200849c:	e0fff317 	ldw	r3,-52(fp)
 20084a0:	e0bff917 	ldw	r2,-28(fp)
 20084a4:	1885883a 	add	r2,r3,r2
 20084a8:	e0bff315 	stw	r2,-52(fp)
 20084ac:	00000806 	br	20084d0 <vid_bres_scan_edges+0x15c>
      } else {
        x1+=x_incr;
 20084b0:	e0fffc17 	ldw	r3,-16(fp)
 20084b4:	e0bff717 	ldw	r2,-36(fp)
 20084b8:	1885883a 	add	r2,r3,r2
 20084bc:	e0bffc15 	stw	r2,-16(fp)
        P+=dPr;
 20084c0:	e0fff317 	ldw	r3,-52(fp)
 20084c4:	e0bff817 	ldw	r2,-32(fp)
 20084c8:	1885883a 	add	r2,r3,r2
 20084cc:	e0bff315 	stw	r2,-52(fp)
    int dPr   = y_delta<<1;
    int dPru  = dPr - (x_delta<<1);
    int P     = dPr - x_delta;

    // Process the line, one horizontal point at at time
    for (; x_delta >= 0; x_delta--) {
 20084d0:	e0bff217 	ldw	r2,-56(fp)
 20084d4:	10bfffc4 	addi	r2,r2,-1
 20084d8:	e0bff215 	stw	r2,-56(fp)
 20084dc:	e0bff217 	ldw	r2,-56(fp)
 20084e0:	103fe00e 	bge	r2,zero,2008464 <__reset+0xfe000c64>
 20084e4:	00002e06 	br	20085a0 <vid_bres_scan_edges+0x22c>
      }
    }
  }
  else // If it's the vertical axis
  {
    int dPr   = x_delta<<1;
 20084e8:	e0bff217 	ldw	r2,-56(fp)
 20084ec:	1085883a 	add	r2,r2,r2
 20084f0:	e0bffa15 	stw	r2,-24(fp)
    int dPru  = dPr - (y_delta<<1);
 20084f4:	e0bff117 	ldw	r2,-60(fp)
 20084f8:	1085883a 	add	r2,r2,r2
 20084fc:	1007883a 	mov	r3,r2
 2008500:	e0bffa17 	ldw	r2,-24(fp)
 2008504:	10c5c83a 	sub	r2,r2,r3
 2008508:	e0bffb15 	stw	r2,-20(fp)
    int P     = dPr - y_delta;
 200850c:	e0fffa17 	ldw	r3,-24(fp)
 2008510:	e0bff117 	ldw	r2,-60(fp)
 2008514:	1885c83a 	sub	r2,r3,r2
 2008518:	e0bff415 	stw	r2,-48(fp)

    // Process the line, one vertical point at at time
    for (; y_delta>=0; y_delta--) {
 200851c:	00001e06 	br	2008598 <vid_bres_scan_edges+0x224>
      // plot the pixel
      vid_put_pixel_in_span_map(x1, y1, span_array);
 2008520:	e13ffc17 	ldw	r4,-16(fp)
 2008524:	e17ffd17 	ldw	r5,-12(fp)
 2008528:	e1800217 	ldw	r6,8(fp)
 200852c:	20082740 	call	2008274 <vid_put_pixel_in_span_map>
      // If we're moving along both axis
      if (P > 0) {
 2008530:	e0bff417 	ldw	r2,-48(fp)
 2008534:	00800d0e 	bge	zero,r2,200856c <vid_bres_scan_edges+0x1f8>
        x1+=x_incr;
 2008538:	e0fffc17 	ldw	r3,-16(fp)
 200853c:	e0bff717 	ldw	r2,-36(fp)
 2008540:	1885883a 	add	r2,r3,r2
 2008544:	e0bffc15 	stw	r2,-16(fp)
        y1+=y_incr;
 2008548:	e0fffd17 	ldw	r3,-12(fp)
 200854c:	e0bff017 	ldw	r2,-64(fp)
 2008550:	1885883a 	add	r2,r3,r2
 2008554:	e0bffd15 	stw	r2,-12(fp)
        P+=dPru;
 2008558:	e0fff417 	ldw	r3,-48(fp)
 200855c:	e0bffb17 	ldw	r2,-20(fp)
 2008560:	1885883a 	add	r2,r3,r2
 2008564:	e0bff415 	stw	r2,-48(fp)
 2008568:	00000806 	br	200858c <vid_bres_scan_edges+0x218>
      } else {
        y1+=y_incr;
 200856c:	e0fffd17 	ldw	r3,-12(fp)
 2008570:	e0bff017 	ldw	r2,-64(fp)
 2008574:	1885883a 	add	r2,r3,r2
 2008578:	e0bffd15 	stw	r2,-12(fp)
        P+=dPr;
 200857c:	e0fff417 	ldw	r3,-48(fp)
 2008580:	e0bffa17 	ldw	r2,-24(fp)
 2008584:	1885883a 	add	r2,r3,r2
 2008588:	e0bff415 	stw	r2,-48(fp)
    int dPr   = x_delta<<1;
    int dPru  = dPr - (y_delta<<1);
    int P     = dPr - y_delta;

    // Process the line, one vertical point at at time
    for (; y_delta>=0; y_delta--) {
 200858c:	e0bff117 	ldw	r2,-60(fp)
 2008590:	10bfffc4 	addi	r2,r2,-1
 2008594:	e0bff115 	stw	r2,-60(fp)
 2008598:	e0bff117 	ldw	r2,-60(fp)
 200859c:	103fe00e 	bge	r2,zero,2008520 <__reset+0xfe000d20>
        y1+=y_incr;
        P+=dPr;
      }
    }
  }
}
 20085a0:	e037883a 	mov	sp,fp
 20085a4:	dfc00117 	ldw	ra,4(sp)
 20085a8:	df000017 	ldw	fp,0(sp)
 20085ac:	dec00204 	addi	sp,sp,8
 20085b0:	f800283a 	ret

020085b4 <vid_draw_triangle>:
*  Purpose:  This function draws a triangle on the screen between
*            three points defined by the structure tri.
*
******************************************************************/
void vid_draw_triangle(triangle_struct* tri, alt_video_display* display)
{
 20085b4:	defff804 	addi	sp,sp,-32
 20085b8:	dfc00715 	stw	ra,28(sp)
 20085bc:	df000615 	stw	fp,24(sp)
 20085c0:	df000604 	addi	fp,sp,24
 20085c4:	e13ffe15 	stw	r4,-8(fp)
 20085c8:	e17fff15 	stw	r5,-4(fp)
  int i;
  
  // Outline it first
    vid_draw_line( tri->vertex_x[0], tri->vertex_y[0], 
 20085cc:	e0bffe17 	ldw	r2,-8(fp)
 20085d0:	11000017 	ldw	r4,0(r2)
 20085d4:	e0bffe17 	ldw	r2,-8(fp)
 20085d8:	11400317 	ldw	r5,12(r2)
 20085dc:	e0bffe17 	ldw	r2,-8(fp)
 20085e0:	11800117 	ldw	r6,4(r2)
 20085e4:	e0bffe17 	ldw	r2,-8(fp)
 20085e8:	11c00417 	ldw	r7,16(r2)
 20085ec:	e0bffe17 	ldw	r2,-8(fp)
 20085f0:	10800a17 	ldw	r2,40(r2)
 20085f4:	00c00044 	movi	r3,1
 20085f8:	d8c00015 	stw	r3,0(sp)
 20085fc:	d8800115 	stw	r2,4(sp)
 2008600:	e0bfff17 	ldw	r2,-4(fp)
 2008604:	d8800215 	stw	r2,8(sp)
 2008608:	20065480 	call	2006548 <vid_draw_line>
                   tri->vertex_x[1], tri->vertex_y[1], 1, 
                   tri->col, display);
    vid_draw_line( tri->vertex_x[1], tri->vertex_y[1], 
 200860c:	e0bffe17 	ldw	r2,-8(fp)
 2008610:	11000117 	ldw	r4,4(r2)
 2008614:	e0bffe17 	ldw	r2,-8(fp)
 2008618:	11400417 	ldw	r5,16(r2)
 200861c:	e0bffe17 	ldw	r2,-8(fp)
 2008620:	11800217 	ldw	r6,8(r2)
 2008624:	e0bffe17 	ldw	r2,-8(fp)
 2008628:	11c00517 	ldw	r7,20(r2)
 200862c:	e0bffe17 	ldw	r2,-8(fp)
 2008630:	10800a17 	ldw	r2,40(r2)
 2008634:	00c00044 	movi	r3,1
 2008638:	d8c00015 	stw	r3,0(sp)
 200863c:	d8800115 	stw	r2,4(sp)
 2008640:	e0bfff17 	ldw	r2,-4(fp)
 2008644:	d8800215 	stw	r2,8(sp)
 2008648:	20065480 	call	2006548 <vid_draw_line>
                   tri->vertex_x[2], tri->vertex_y[2], 1, 
                   tri->col, display);
    vid_draw_line( tri->vertex_x[2], tri->vertex_y[2], 
 200864c:	e0bffe17 	ldw	r2,-8(fp)
 2008650:	11000217 	ldw	r4,8(r2)
 2008654:	e0bffe17 	ldw	r2,-8(fp)
 2008658:	11400517 	ldw	r5,20(r2)
 200865c:	e0bffe17 	ldw	r2,-8(fp)
 2008660:	11800017 	ldw	r6,0(r2)
 2008664:	e0bffe17 	ldw	r2,-8(fp)
 2008668:	11c00317 	ldw	r7,12(r2)
 200866c:	e0bffe17 	ldw	r2,-8(fp)
 2008670:	10800a17 	ldw	r2,40(r2)
 2008674:	00c00044 	movi	r3,1
 2008678:	d8c00015 	stw	r3,0(sp)
 200867c:	d8800115 	stw	r2,4(sp)
 2008680:	e0bfff17 	ldw	r2,-4(fp)
 2008684:	d8800215 	stw	r2,8(sp)
 2008688:	20065480 	call	2006548 <vid_draw_line>
                   tri->vertex_x[0], tri->vertex_y[0], 1, 
                   tri->col, display);
//  vid_draw_line(tri->bx, tri->by, tri->cx, tri->cy, 1, tri->col, display);
//  vid_draw_line(tri->cx, tri->cy, tri->ax, tri->ay, 1, tri->col, display);
  
  if(tri->fill == DO_FILL)
 200868c:	e0bffe17 	ldw	r2,-8(fp)
 2008690:	10800b17 	ldw	r2,44(r2)
 2008694:	10800058 	cmpnei	r2,r2,1
 2008698:	10009f1e 	bne	r2,zero,2008918 <vid_draw_triangle+0x364>
  {
    tri->top_y = min3(tri->vertex_y[0], tri->vertex_y[1], tri->vertex_y[2]);
 200869c:	e0bffe17 	ldw	r2,-8(fp)
 20086a0:	11000317 	ldw	r4,12(r2)
 20086a4:	e0bffe17 	ldw	r2,-8(fp)
 20086a8:	10c00417 	ldw	r3,16(r2)
 20086ac:	e0bffe17 	ldw	r2,-8(fp)
 20086b0:	10800517 	ldw	r2,20(r2)
 20086b4:	180b883a 	mov	r5,r3
 20086b8:	100d883a 	mov	r6,r2
 20086bc:	20081bc0 	call	20081bc <min3>
 20086c0:	1007883a 	mov	r3,r2
 20086c4:	e0bffe17 	ldw	r2,-8(fp)
 20086c8:	10c00815 	stw	r3,32(r2)
    tri->bottom_y = max3(tri->vertex_y[0], tri->vertex_y[1], tri->vertex_y[2]);
 20086cc:	e0bffe17 	ldw	r2,-8(fp)
 20086d0:	11000317 	ldw	r4,12(r2)
 20086d4:	e0bffe17 	ldw	r2,-8(fp)
 20086d8:	10c00417 	ldw	r3,16(r2)
 20086dc:	e0bffe17 	ldw	r2,-8(fp)
 20086e0:	10800517 	ldw	r2,20(r2)
 20086e4:	180b883a 	mov	r5,r3
 20086e8:	100d883a 	mov	r6,r2
 20086ec:	20081680 	call	2008168 <max3>
 20086f0:	1007883a 	mov	r3,r2
 20086f4:	e0bffe17 	ldw	r2,-8(fp)
 20086f8:	10c00915 	stw	r3,36(r2)
    tri->spans_needed = max_diff3(tri->vertex_y[0], tri->vertex_y[1], tri->vertex_y[2]);
 20086fc:	e0bffe17 	ldw	r2,-8(fp)
 2008700:	11000317 	ldw	r4,12(r2)
 2008704:	e0bffe17 	ldw	r2,-8(fp)
 2008708:	10c00417 	ldw	r3,16(r2)
 200870c:	e0bffe17 	ldw	r2,-8(fp)
 2008710:	10800517 	ldw	r2,20(r2)
 2008714:	180b883a 	mov	r5,r3
 2008718:	100d883a 	mov	r6,r2
 200871c:	20082100 	call	2008210 <max_diff3>
 2008720:	1007883a 	mov	r3,r2
 2008724:	e0bffe17 	ldw	r2,-8(fp)
 2008728:	10c00615 	stw	r3,24(r2)
    tri->max_span = max_diff3(tri->vertex_x[0], tri->vertex_x[1], tri->vertex_x[2]);
 200872c:	e0bffe17 	ldw	r2,-8(fp)
 2008730:	11000017 	ldw	r4,0(r2)
 2008734:	e0bffe17 	ldw	r2,-8(fp)
 2008738:	10c00117 	ldw	r3,4(r2)
 200873c:	e0bffe17 	ldw	r2,-8(fp)
 2008740:	10800217 	ldw	r2,8(r2)
 2008744:	180b883a 	mov	r5,r3
 2008748:	100d883a 	mov	r6,r2
 200874c:	20082100 	call	2008210 <max_diff3>
 2008750:	1007883a 	mov	r3,r2
 2008754:	e0bffe17 	ldw	r2,-8(fp)
 2008758:	10c00715 	stw	r3,28(r2)
    tri->span_array = malloc(display->height * 4 * 2);
 200875c:	e0bfff17 	ldw	r2,-4(fp)
 2008760:	10800217 	ldw	r2,8(r2)
 2008764:	100490fa 	slli	r2,r2,3
 2008768:	1009883a 	mov	r4,r2
 200876c:	200c9980 	call	200c998 <malloc>
 2008770:	1007883a 	mov	r3,r2
 2008774:	e0bffe17 	ldw	r2,-8(fp)
 2008778:	10c00d15 	stw	r3,52(r2)

    //init the span array
    for( i = tri->top_y; i <= tri->bottom_y; i++)
 200877c:	e0bffe17 	ldw	r2,-8(fp)
 2008780:	10800817 	ldw	r2,32(r2)
 2008784:	e0bffd15 	stw	r2,-12(fp)
 2008788:	00001206 	br	20087d4 <vid_draw_triangle+0x220>
    {
      tri->span_array[i*2] = -1;
 200878c:	e0bffe17 	ldw	r2,-8(fp)
 2008790:	10800d17 	ldw	r2,52(r2)
 2008794:	e0fffd17 	ldw	r3,-12(fp)
 2008798:	180690fa 	slli	r3,r3,3
 200879c:	10c5883a 	add	r2,r2,r3
 20087a0:	00ffffc4 	movi	r3,-1
 20087a4:	10c00015 	stw	r3,0(r2)
      tri->span_array[(i*2) + 1] = -1;
 20087a8:	e0bffe17 	ldw	r2,-8(fp)
 20087ac:	10c00d17 	ldw	r3,52(r2)
 20087b0:	e0bffd17 	ldw	r2,-12(fp)
 20087b4:	100490fa 	slli	r2,r2,3
 20087b8:	10800104 	addi	r2,r2,4
 20087bc:	1885883a 	add	r2,r3,r2
 20087c0:	00ffffc4 	movi	r3,-1
 20087c4:	10c00015 	stw	r3,0(r2)
    tri->spans_needed = max_diff3(tri->vertex_y[0], tri->vertex_y[1], tri->vertex_y[2]);
    tri->max_span = max_diff3(tri->vertex_x[0], tri->vertex_x[1], tri->vertex_x[2]);
    tri->span_array = malloc(display->height * 4 * 2);

    //init the span array
    for( i = tri->top_y; i <= tri->bottom_y; i++)
 20087c8:	e0bffd17 	ldw	r2,-12(fp)
 20087cc:	10800044 	addi	r2,r2,1
 20087d0:	e0bffd15 	stw	r2,-12(fp)
 20087d4:	e0bffe17 	ldw	r2,-8(fp)
 20087d8:	10c00917 	ldw	r3,36(r2)
 20087dc:	e0bffd17 	ldw	r2,-12(fp)
 20087e0:	18bfea0e 	bge	r3,r2,200878c <__reset+0xfe000f8c>
      tri->span_array[i*2] = -1;
      tri->span_array[(i*2) + 1] = -1;
    }
    
    // Scan-convert the triangle  
    vid_bres_scan_edges( tri->vertex_x[0], tri->vertex_y[0], 
 20087e4:	e0bffe17 	ldw	r2,-8(fp)
 20087e8:	11000017 	ldw	r4,0(r2)
 20087ec:	e0bffe17 	ldw	r2,-8(fp)
 20087f0:	11400317 	ldw	r5,12(r2)
 20087f4:	e0bffe17 	ldw	r2,-8(fp)
 20087f8:	11800117 	ldw	r6,4(r2)
 20087fc:	e0bffe17 	ldw	r2,-8(fp)
 2008800:	10c00417 	ldw	r3,16(r2)
 2008804:	e0bffe17 	ldw	r2,-8(fp)
 2008808:	10800d17 	ldw	r2,52(r2)
 200880c:	d8800015 	stw	r2,0(sp)
 2008810:	180f883a 	mov	r7,r3
 2008814:	20083740 	call	2008374 <vid_bres_scan_edges>
                         tri->vertex_x[1], tri->vertex_y[1], tri->span_array);
    vid_bres_scan_edges( tri->vertex_x[1], tri->vertex_y[1], 
 2008818:	e0bffe17 	ldw	r2,-8(fp)
 200881c:	11000117 	ldw	r4,4(r2)
 2008820:	e0bffe17 	ldw	r2,-8(fp)
 2008824:	11400417 	ldw	r5,16(r2)
 2008828:	e0bffe17 	ldw	r2,-8(fp)
 200882c:	11800217 	ldw	r6,8(r2)
 2008830:	e0bffe17 	ldw	r2,-8(fp)
 2008834:	10c00517 	ldw	r3,20(r2)
 2008838:	e0bffe17 	ldw	r2,-8(fp)
 200883c:	10800d17 	ldw	r2,52(r2)
 2008840:	d8800015 	stw	r2,0(sp)
 2008844:	180f883a 	mov	r7,r3
 2008848:	20083740 	call	2008374 <vid_bres_scan_edges>
                         tri->vertex_x[2], tri->vertex_y[2], tri->span_array);
    vid_bres_scan_edges( tri->vertex_x[2], tri->vertex_y[2], 
 200884c:	e0bffe17 	ldw	r2,-8(fp)
 2008850:	11000217 	ldw	r4,8(r2)
 2008854:	e0bffe17 	ldw	r2,-8(fp)
 2008858:	11400517 	ldw	r5,20(r2)
 200885c:	e0bffe17 	ldw	r2,-8(fp)
 2008860:	11800017 	ldw	r6,0(r2)
 2008864:	e0bffe17 	ldw	r2,-8(fp)
 2008868:	10c00317 	ldw	r3,12(r2)
 200886c:	e0bffe17 	ldw	r2,-8(fp)
 2008870:	10800d17 	ldw	r2,52(r2)
 2008874:	d8800015 	stw	r2,0(sp)
 2008878:	180f883a 	mov	r7,r3
 200887c:	20083740 	call	2008374 <vid_bres_scan_edges>
                         tri->vertex_x[0], tri->vertex_y[0], tri->span_array);
  
    // Render the polygon
    for( i = tri->top_y; i <= tri->bottom_y; i++ )
 2008880:	e0bffe17 	ldw	r2,-8(fp)
 2008884:	10800817 	ldw	r2,32(r2)
 2008888:	e0bffd15 	stw	r2,-12(fp)
 200888c:	00001a06 	br	20088f8 <vid_draw_triangle+0x344>
    {
//      vid_draw_horiz_line (tri->span_array[i*2], tri->span_array[(i*2)+1], i, tri->col, display);
      vid_draw_line (tri->span_array[i*2], i, tri->span_array[(i*2)+1], i, 1, tri->col, display);
 2008890:	e0bffe17 	ldw	r2,-8(fp)
 2008894:	10800d17 	ldw	r2,52(r2)
 2008898:	e0fffd17 	ldw	r3,-12(fp)
 200889c:	180690fa 	slli	r3,r3,3
 20088a0:	10c5883a 	add	r2,r2,r3
 20088a4:	11000017 	ldw	r4,0(r2)
 20088a8:	e0bffe17 	ldw	r2,-8(fp)
 20088ac:	10c00d17 	ldw	r3,52(r2)
 20088b0:	e0bffd17 	ldw	r2,-12(fp)
 20088b4:	100490fa 	slli	r2,r2,3
 20088b8:	10800104 	addi	r2,r2,4
 20088bc:	1885883a 	add	r2,r3,r2
 20088c0:	11800017 	ldw	r6,0(r2)
 20088c4:	e0bffe17 	ldw	r2,-8(fp)
 20088c8:	10800a17 	ldw	r2,40(r2)
 20088cc:	00c00044 	movi	r3,1
 20088d0:	d8c00015 	stw	r3,0(sp)
 20088d4:	d8800115 	stw	r2,4(sp)
 20088d8:	e0bfff17 	ldw	r2,-4(fp)
 20088dc:	d8800215 	stw	r2,8(sp)
 20088e0:	e17ffd17 	ldw	r5,-12(fp)
 20088e4:	e1fffd17 	ldw	r7,-12(fp)
 20088e8:	20065480 	call	2006548 <vid_draw_line>
                         tri->vertex_x[2], tri->vertex_y[2], tri->span_array);
    vid_bres_scan_edges( tri->vertex_x[2], tri->vertex_y[2], 
                         tri->vertex_x[0], tri->vertex_y[0], tri->span_array);
  
    // Render the polygon
    for( i = tri->top_y; i <= tri->bottom_y; i++ )
 20088ec:	e0bffd17 	ldw	r2,-12(fp)
 20088f0:	10800044 	addi	r2,r2,1
 20088f4:	e0bffd15 	stw	r2,-12(fp)
 20088f8:	e0bffe17 	ldw	r2,-8(fp)
 20088fc:	10c00917 	ldw	r3,36(r2)
 2008900:	e0bffd17 	ldw	r2,-12(fp)
 2008904:	18bfe20e 	bge	r3,r2,2008890 <__reset+0xfe001090>
    {
//      vid_draw_horiz_line (tri->span_array[i*2], tri->span_array[(i*2)+1], i, tri->col, display);
      vid_draw_line (tri->span_array[i*2], i, tri->span_array[(i*2)+1], i, 1, tri->col, display);

    }
    free(tri->span_array);
 2008908:	e0bffe17 	ldw	r2,-8(fp)
 200890c:	10800d17 	ldw	r2,52(r2)
 2008910:	1009883a 	mov	r4,r2
 2008914:	200c9ac0 	call	200c9ac <free>
  }
}
 2008918:	e037883a 	mov	sp,fp
 200891c:	dfc00117 	ldw	ra,4(sp)
 2008920:	df000017 	ldw	fp,0(sp)
 2008924:	dec00204 	addi	sp,sp,8
 2008928:	f800283a 	ret

0200892c <CopyImage16>:

void CopyImage16( short * __restrict__ source_buffer, 
                  short * __restrict__ dest_buffer, 
                  short source_width, short source_height,
                  short dest_width, short dest_height )
{
 200892c:	defff404 	addi	sp,sp,-48
 2008930:	dfc00b15 	stw	ra,44(sp)
 2008934:	df000a15 	stw	fp,40(sp)
 2008938:	df000a04 	addi	fp,sp,40
 200893c:	e13ffa15 	stw	r4,-24(fp)
 2008940:	e17ffb15 	stw	r5,-20(fp)
 2008944:	300b883a 	mov	r5,r6
 2008948:	3809883a 	mov	r4,r7
 200894c:	e0c00217 	ldw	r3,8(fp)
 2008950:	e0800317 	ldw	r2,12(fp)
 2008954:	e17ffc0d 	sth	r5,-16(fp)
 2008958:	e13ffd0d 	sth	r4,-12(fp)
 200895c:	e0fffe0d 	sth	r3,-8(fp)
 2008960:	e0bfff0d 	sth	r2,-4(fp)
  int y_src, y_dst;
  int y_src_offset = 0;
 2008964:	e03ff815 	stw	zero,-32(fp)
  int y_dst_offset = 0;
 2008968:	e03ff915 	stw	zero,-28(fp)
  
  for( y_src = 0, y_dst = 0; 
 200896c:	e03ff615 	stw	zero,-40(fp)
 2008970:	e03ff715 	stw	zero,-36(fp)
 2008974:	00001d06 	br	20089ec <CopyImage16+0xc0>
       y_src <= ( source_height  - 1 ); 
       y_src++, y_dst++, y_src_offset += source_width, y_dst_offset += dest_width )
  {
    memcpy(( dest_buffer + y_dst_offset ), 
 2008978:	e0bff917 	ldw	r2,-28(fp)
 200897c:	1085883a 	add	r2,r2,r2
 2008980:	1007883a 	mov	r3,r2
 2008984:	e0bffb17 	ldw	r2,-20(fp)
 2008988:	10c9883a 	add	r4,r2,r3
 200898c:	e0bff817 	ldw	r2,-32(fp)
           ( source_buffer + y_src_offset ), 
 2008990:	1085883a 	add	r2,r2,r2
 2008994:	1007883a 	mov	r3,r2
  
  for( y_src = 0, y_dst = 0; 
       y_src <= ( source_height  - 1 ); 
       y_src++, y_dst++, y_src_offset += source_width, y_dst_offset += dest_width )
  {
    memcpy(( dest_buffer + y_dst_offset ), 
 2008998:	e0bffa17 	ldw	r2,-24(fp)
 200899c:	10c7883a 	add	r3,r2,r3
           ( source_buffer + y_src_offset ), 
           ( source_width << 1 ));
 20089a0:	e0bffc0f 	ldh	r2,-16(fp)
 20089a4:	1085883a 	add	r2,r2,r2
  
  for( y_src = 0, y_dst = 0; 
       y_src <= ( source_height  - 1 ); 
       y_src++, y_dst++, y_src_offset += source_width, y_dst_offset += dest_width )
  {
    memcpy(( dest_buffer + y_dst_offset ), 
 20089a8:	180b883a 	mov	r5,r3
 20089ac:	100d883a 	mov	r6,r2
 20089b0:	200d0440 	call	200d044 <memcpy>
  int y_src_offset = 0;
  int y_dst_offset = 0;
  
  for( y_src = 0, y_dst = 0; 
       y_src <= ( source_height  - 1 ); 
       y_src++, y_dst++, y_src_offset += source_width, y_dst_offset += dest_width )
 20089b4:	e0bff617 	ldw	r2,-40(fp)
 20089b8:	10800044 	addi	r2,r2,1
 20089bc:	e0bff615 	stw	r2,-40(fp)
 20089c0:	e0bff717 	ldw	r2,-36(fp)
 20089c4:	10800044 	addi	r2,r2,1
 20089c8:	e0bff715 	stw	r2,-36(fp)
 20089cc:	e0bffc0f 	ldh	r2,-16(fp)
 20089d0:	e0fff817 	ldw	r3,-32(fp)
 20089d4:	1885883a 	add	r2,r3,r2
 20089d8:	e0bff815 	stw	r2,-32(fp)
 20089dc:	e0bffe0f 	ldh	r2,-8(fp)
 20089e0:	e0fff917 	ldw	r3,-28(fp)
 20089e4:	1885883a 	add	r2,r3,r2
 20089e8:	e0bff915 	stw	r2,-28(fp)
  int y_src, y_dst;
  int y_src_offset = 0;
  int y_dst_offset = 0;
  
  for( y_src = 0, y_dst = 0; 
       y_src <= ( source_height  - 1 ); 
 20089ec:	e0bffd0f 	ldh	r2,-12(fp)
 20089f0:	10ffffc4 	addi	r3,r2,-1
{
  int y_src, y_dst;
  int y_src_offset = 0;
  int y_dst_offset = 0;
  
  for( y_src = 0, y_dst = 0; 
 20089f4:	e0bff617 	ldw	r2,-40(fp)
 20089f8:	18bfdf0e 	bge	r3,r2,2008978 <__reset+0xfe001178>
  {
    memcpy(( dest_buffer + y_dst_offset ), 
           ( source_buffer + y_src_offset ), 
           ( source_width << 1 ));
  }
}
 20089fc:	e037883a 	mov	sp,fp
 2008a00:	dfc00117 	ldw	ra,4(sp)
 2008a04:	df000017 	ldw	fp,0(sp)
 2008a08:	dec00204 	addi	sp,sp,8
 2008a0c:	f800283a 	ret

02008a10 <CropImage16>:
                  short * __restrict__ dest_buffer, 
                  short source_width, short source_height,
                  short crop_left, short crop_right,
                  short crop_top, short crop_bottom,
                  short dest_width, short dest_height )
{
 2008a10:	defff004 	addi	sp,sp,-64
 2008a14:	dfc00f15 	stw	ra,60(sp)
 2008a18:	df000e15 	stw	fp,56(sp)
 2008a1c:	df000e04 	addi	fp,sp,56
 2008a20:	e13ff615 	stw	r4,-40(fp)
 2008a24:	e17ff715 	stw	r5,-36(fp)
 2008a28:	3013883a 	mov	r9,r6
 2008a2c:	3811883a 	mov	r8,r7
 2008a30:	e1c00217 	ldw	r7,8(fp)
 2008a34:	e1800317 	ldw	r6,12(fp)
 2008a38:	e1400417 	ldw	r5,16(fp)
 2008a3c:	e1000517 	ldw	r4,20(fp)
 2008a40:	e0c00617 	ldw	r3,24(fp)
 2008a44:	e0800717 	ldw	r2,28(fp)
 2008a48:	e27ff80d 	sth	r9,-32(fp)
 2008a4c:	e23ff90d 	sth	r8,-28(fp)
 2008a50:	e1fffa0d 	sth	r7,-24(fp)
 2008a54:	e1bffb0d 	sth	r6,-20(fp)
 2008a58:	e17ffc0d 	sth	r5,-16(fp)
 2008a5c:	e13ffd0d 	sth	r4,-12(fp)
 2008a60:	e0fffe0d 	sth	r3,-8(fp)
 2008a64:	e0bfff0d 	sth	r2,-4(fp)
  int y_src, y_dst;
  int y_src_offset = (source_width * crop_top);
 2008a68:	e0fff80f 	ldh	r3,-32(fp)
 2008a6c:	e0bffc0f 	ldh	r2,-16(fp)
 2008a70:	1885383a 	mul	r2,r3,r2
 2008a74:	e0bff415 	stw	r2,-48(fp)
  int y_dst_offset = 0;
 2008a78:	e03ff515 	stw	zero,-44(fp)
  
  for( y_src = crop_top, y_dst = 0; 
 2008a7c:	e0bffc0f 	ldh	r2,-16(fp)
 2008a80:	e0bff215 	stw	r2,-56(fp)
 2008a84:	e03ff315 	stw	zero,-52(fp)
 2008a88:	00002206 	br	2008b14 <CropImage16+0x104>
       y_src <= ( source_height - crop_bottom - 1 ); 
       y_src++, y_dst++, y_src_offset += source_width, y_dst_offset += dest_width )
  {
    memcpy(( dest_buffer + y_dst_offset ), 
 2008a8c:	e0bff517 	ldw	r2,-44(fp)
 2008a90:	1085883a 	add	r2,r2,r2
 2008a94:	1007883a 	mov	r3,r2
 2008a98:	e0bff717 	ldw	r2,-36(fp)
 2008a9c:	10c9883a 	add	r4,r2,r3
           ( source_buffer + y_src_offset + crop_left ), 
 2008aa0:	e0fffa0f 	ldh	r3,-24(fp)
 2008aa4:	e0bff417 	ldw	r2,-48(fp)
 2008aa8:	1885883a 	add	r2,r3,r2
 2008aac:	1085883a 	add	r2,r2,r2
 2008ab0:	1007883a 	mov	r3,r2
 2008ab4:	e0bff617 	ldw	r2,-40(fp)
 2008ab8:	10cb883a 	add	r5,r2,r3
           ((source_width - crop_left - crop_right) << 1));
 2008abc:	e0fff80f 	ldh	r3,-32(fp)
 2008ac0:	e0bffa0f 	ldh	r2,-24(fp)
 2008ac4:	1887c83a 	sub	r3,r3,r2
 2008ac8:	e0bffb0f 	ldh	r2,-20(fp)
 2008acc:	1885c83a 	sub	r2,r3,r2
 2008ad0:	1085883a 	add	r2,r2,r2
  
  for( y_src = crop_top, y_dst = 0; 
       y_src <= ( source_height - crop_bottom - 1 ); 
       y_src++, y_dst++, y_src_offset += source_width, y_dst_offset += dest_width )
  {
    memcpy(( dest_buffer + y_dst_offset ), 
 2008ad4:	100d883a 	mov	r6,r2
 2008ad8:	200d0440 	call	200d044 <memcpy>
  int y_src_offset = (source_width * crop_top);
  int y_dst_offset = 0;
  
  for( y_src = crop_top, y_dst = 0; 
       y_src <= ( source_height - crop_bottom - 1 ); 
       y_src++, y_dst++, y_src_offset += source_width, y_dst_offset += dest_width )
 2008adc:	e0bff217 	ldw	r2,-56(fp)
 2008ae0:	10800044 	addi	r2,r2,1
 2008ae4:	e0bff215 	stw	r2,-56(fp)
 2008ae8:	e0bff317 	ldw	r2,-52(fp)
 2008aec:	10800044 	addi	r2,r2,1
 2008af0:	e0bff315 	stw	r2,-52(fp)
 2008af4:	e0bff80f 	ldh	r2,-32(fp)
 2008af8:	e0fff417 	ldw	r3,-48(fp)
 2008afc:	1885883a 	add	r2,r3,r2
 2008b00:	e0bff415 	stw	r2,-48(fp)
 2008b04:	e0bffe0f 	ldh	r2,-8(fp)
 2008b08:	e0fff517 	ldw	r3,-44(fp)
 2008b0c:	1885883a 	add	r2,r3,r2
 2008b10:	e0bff515 	stw	r2,-44(fp)
  int y_src, y_dst;
  int y_src_offset = (source_width * crop_top);
  int y_dst_offset = 0;
  
  for( y_src = crop_top, y_dst = 0; 
       y_src <= ( source_height - crop_bottom - 1 ); 
 2008b14:	e0fff90f 	ldh	r3,-28(fp)
 2008b18:	e0bffd0f 	ldh	r2,-12(fp)
 2008b1c:	1885c83a 	sub	r2,r3,r2
 2008b20:	10ffffc4 	addi	r3,r2,-1
{
  int y_src, y_dst;
  int y_src_offset = (source_width * crop_top);
  int y_dst_offset = 0;
  
  for( y_src = crop_top, y_dst = 0; 
 2008b24:	e0bff217 	ldw	r2,-56(fp)
 2008b28:	18bfd80e 	bge	r3,r2,2008a8c <__reset+0xfe00128c>
  {
    memcpy(( dest_buffer + y_dst_offset ), 
           ( source_buffer + y_src_offset + crop_left ), 
           ((source_width - crop_left - crop_right) << 1));
  }
}
 2008b2c:	e037883a 	mov	sp,fp
 2008b30:	dfc00117 	ldw	ra,4(sp)
 2008b34:	df000017 	ldw	fp,0(sp)
 2008b38:	dec00204 	addi	sp,sp,8
 2008b3c:	f800283a 	ret

02008b40 <vid_print_string_alpha>:
*           24 bit - R(8):G(8):B(8)  (packed)
*           32 bit - 0 : R(8):G(8):B(8) (unpacked)
******************************************************************/

int vid_print_string_alpha(int horiz_offset, int vert_offset, int color, int background_color, struct abc_font_struct font[], alt_video_display * display, char string[])
{
 2008b40:	defff404 	addi	sp,sp,-48
 2008b44:	dfc00b15 	stw	ra,44(sp)
 2008b48:	df000a15 	stw	fp,40(sp)
 2008b4c:	df000a04 	addi	fp,sp,40
 2008b50:	e13ffc15 	stw	r4,-16(fp)
 2008b54:	e17ffd15 	stw	r5,-12(fp)
 2008b58:	e1bffe15 	stw	r6,-8(fp)
 2008b5c:	e1ffff15 	stw	r7,-4(fp)
  int i = 0;
 2008b60:	e03ff915 	stw	zero,-28(fp)
  int tab;
  int original_horiz_offset;

  original_horiz_offset = horiz_offset;
 2008b64:	e0bffc17 	ldw	r2,-16(fp)
 2008b68:	e0bffb15 	stw	r2,-20(fp)

  // Print until we hit the '\0' char.
  while (string[i]) {
 2008b6c:	00007d06 	br	2008d64 <vid_print_string_alpha+0x224>
    //Handle newline char here.
    if (string[i] == '\n') {
 2008b70:	e0bff917 	ldw	r2,-28(fp)
 2008b74:	e0c00417 	ldw	r3,16(fp)
 2008b78:	1885883a 	add	r2,r3,r2
 2008b7c:	10800003 	ldbu	r2,0(r2)
 2008b80:	10803fcc 	andi	r2,r2,255
 2008b84:	1080201c 	xori	r2,r2,128
 2008b88:	10bfe004 	addi	r2,r2,-128
 2008b8c:	10800298 	cmpnei	r2,r2,10
 2008b90:	10000c1e 	bne	r2,zero,2008bc4 <vid_print_string_alpha+0x84>
      horiz_offset = original_horiz_offset;
 2008b94:	e0bffb17 	ldw	r2,-20(fp)
 2008b98:	e0bffc15 	stw	r2,-16(fp)
      vert_offset += font['|' - 33].bounds_height;  // we'll use "|" to add the line to line spacing
 2008b9c:	e0800217 	ldw	r2,8(fp)
 2008ba0:	1082d804 	addi	r2,r2,2912
 2008ba4:	10c00517 	ldw	r3,20(r2)
 2008ba8:	e0bffd17 	ldw	r2,-12(fp)
 2008bac:	1885883a 	add	r2,r3,r2
 2008bb0:	e0bffd15 	stw	r2,-12(fp)
      i++;
 2008bb4:	e0bff917 	ldw	r2,-28(fp)
 2008bb8:	10800044 	addi	r2,r2,1
 2008bbc:	e0bff915 	stw	r2,-28(fp)
      continue;
 2008bc0:	00006806 	br	2008d64 <vid_print_string_alpha+0x224>
    }
    // Lay down that character and increment our offsets.
    if(string[i] == 32)  // this is a space in ASCII
 2008bc4:	e0bff917 	ldw	r2,-28(fp)
 2008bc8:	e0c00417 	ldw	r3,16(fp)
 2008bcc:	1885883a 	add	r2,r3,r2
 2008bd0:	10800003 	ldbu	r2,0(r2)
 2008bd4:	10803fcc 	andi	r2,r2,255
 2008bd8:	1080201c 	xori	r2,r2,128
 2008bdc:	10bfe004 	addi	r2,r2,-128
 2008be0:	10800818 	cmpnei	r2,r2,32
 2008be4:	1000151e 	bne	r2,zero,2008c3c <vid_print_string_alpha+0xfc>
    {
      if(background_color != CLEAR_BACKGROUND)  // need to fill in this spot (setting foreground to background color so that it looks like a drawn in box)
 2008be8:	e0bfff17 	ldw	r2,-4(fp)
 2008bec:	10bfffe0 	cmpeqi	r2,r2,-1
 2008bf0:	10000b1e 	bne	r2,zero,2008c20 <vid_print_string_alpha+0xe0>
      {
        vid_print_char_alpha (horiz_offset, vert_offset, background_color, '-', background_color, font, display);
 2008bf4:	e0bfff17 	ldw	r2,-4(fp)
 2008bf8:	d8800015 	stw	r2,0(sp)
 2008bfc:	e0800217 	ldw	r2,8(fp)
 2008c00:	d8800115 	stw	r2,4(sp)
 2008c04:	e0800317 	ldw	r2,12(fp)
 2008c08:	d8800215 	stw	r2,8(sp)
 2008c0c:	e13ffc17 	ldw	r4,-16(fp)
 2008c10:	e17ffd17 	ldw	r5,-12(fp)
 2008c14:	e1bfff17 	ldw	r6,-4(fp)
 2008c18:	01c00b44 	movi	r7,45
 2008c1c:	20092940 	call	2009294 <vid_print_char_alpha>
      }
      horiz_offset += font[45 - 33].bounds_width;  // using the width of the '-' character for the space width since it's not present in the font
 2008c20:	e0800217 	ldw	r2,8(fp)
 2008c24:	10806004 	addi	r2,r2,384
 2008c28:	10c00417 	ldw	r3,16(r2)
 2008c2c:	e0bffc17 	ldw	r2,-16(fp)
 2008c30:	1885883a 	add	r2,r3,r2
 2008c34:	e0bffc15 	stw	r2,-16(fp)
 2008c38:	00004706 	br	2008d58 <vid_print_string_alpha+0x218>
    }
    else if(string[i] == '\t')  // this is a tab
 2008c3c:	e0bff917 	ldw	r2,-28(fp)
 2008c40:	e0c00417 	ldw	r3,16(fp)
 2008c44:	1885883a 	add	r2,r3,r2
 2008c48:	10800003 	ldbu	r2,0(r2)
 2008c4c:	10803fcc 	andi	r2,r2,255
 2008c50:	1080201c 	xori	r2,r2,128
 2008c54:	10bfe004 	addi	r2,r2,-128
 2008c58:	10800258 	cmpnei	r2,r2,9
 2008c5c:	10001d1e 	bne	r2,zero,2008cd4 <vid_print_string_alpha+0x194>
    {
      for( tab = 0; tab < TAB_SPACING; tab++ )
 2008c60:	e03ffa15 	stw	zero,-24(fp)
 2008c64:	00001706 	br	2008cc4 <vid_print_string_alpha+0x184>
      {
        if(background_color != CLEAR_BACKGROUND)  // need to fill in this spot (setting foreground to background color so that it looks like a drawn in box)
 2008c68:	e0bfff17 	ldw	r2,-4(fp)
 2008c6c:	10bfffe0 	cmpeqi	r2,r2,-1
 2008c70:	10000b1e 	bne	r2,zero,2008ca0 <vid_print_string_alpha+0x160>
        {
          vid_print_char_alpha (horiz_offset, vert_offset, background_color, '-', background_color, font, display);
 2008c74:	e0bfff17 	ldw	r2,-4(fp)
 2008c78:	d8800015 	stw	r2,0(sp)
 2008c7c:	e0800217 	ldw	r2,8(fp)
 2008c80:	d8800115 	stw	r2,4(sp)
 2008c84:	e0800317 	ldw	r2,12(fp)
 2008c88:	d8800215 	stw	r2,8(sp)
 2008c8c:	e13ffc17 	ldw	r4,-16(fp)
 2008c90:	e17ffd17 	ldw	r5,-12(fp)
 2008c94:	e1bfff17 	ldw	r6,-4(fp)
 2008c98:	01c00b44 	movi	r7,45
 2008c9c:	20092940 	call	2009294 <vid_print_char_alpha>
        }
        horiz_offset += font[45 - 33].bounds_width;  // using the width of the '-' character for the space width since it's not present in the font
 2008ca0:	e0800217 	ldw	r2,8(fp)
 2008ca4:	10806004 	addi	r2,r2,384
 2008ca8:	10c00417 	ldw	r3,16(r2)
 2008cac:	e0bffc17 	ldw	r2,-16(fp)
 2008cb0:	1885883a 	add	r2,r3,r2
 2008cb4:	e0bffc15 	stw	r2,-16(fp)
      }
      horiz_offset += font[45 - 33].bounds_width;  // using the width of the '-' character for the space width since it's not present in the font
    }
    else if(string[i] == '\t')  // this is a tab
    {
      for( tab = 0; tab < TAB_SPACING; tab++ )
 2008cb8:	e0bffa17 	ldw	r2,-24(fp)
 2008cbc:	10800044 	addi	r2,r2,1
 2008cc0:	e0bffa15 	stw	r2,-24(fp)
 2008cc4:	e0bffa17 	ldw	r2,-24(fp)
 2008cc8:	10800090 	cmplti	r2,r2,2
 2008ccc:	103fe61e 	bne	r2,zero,2008c68 <__reset+0xfe001468>
 2008cd0:	00002106 	br	2008d58 <vid_print_string_alpha+0x218>
        horiz_offset += font[45 - 33].bounds_width;  // using the width of the '-' character for the space width since it's not present in the font
      }
    }
    else
    {
      vid_print_char_alpha (horiz_offset, vert_offset, color, string[i], background_color, font, display);
 2008cd4:	e0bff917 	ldw	r2,-28(fp)
 2008cd8:	e0c00417 	ldw	r3,16(fp)
 2008cdc:	1885883a 	add	r2,r3,r2
 2008ce0:	10800003 	ldbu	r2,0(r2)
 2008ce4:	10c03fcc 	andi	r3,r2,255
 2008ce8:	18c0201c 	xori	r3,r3,128
 2008cec:	18ffe004 	addi	r3,r3,-128
 2008cf0:	e0bfff17 	ldw	r2,-4(fp)
 2008cf4:	d8800015 	stw	r2,0(sp)
 2008cf8:	e0800217 	ldw	r2,8(fp)
 2008cfc:	d8800115 	stw	r2,4(sp)
 2008d00:	e0800317 	ldw	r2,12(fp)
 2008d04:	d8800215 	stw	r2,8(sp)
 2008d08:	e13ffc17 	ldw	r4,-16(fp)
 2008d0c:	e17ffd17 	ldw	r5,-12(fp)
 2008d10:	e1bffe17 	ldw	r6,-8(fp)
 2008d14:	180f883a 	mov	r7,r3
 2008d18:	20092940 	call	2009294 <vid_print_char_alpha>
      horiz_offset += font[string[i] - 33].bounds_width;
 2008d1c:	e0bff917 	ldw	r2,-28(fp)
 2008d20:	e0c00417 	ldw	r3,16(fp)
 2008d24:	1885883a 	add	r2,r3,r2
 2008d28:	10800003 	ldbu	r2,0(r2)
 2008d2c:	10803fcc 	andi	r2,r2,255
 2008d30:	1080201c 	xori	r2,r2,128
 2008d34:	10bfe004 	addi	r2,r2,-128
 2008d38:	1004917a 	slli	r2,r2,5
 2008d3c:	10bef804 	addi	r2,r2,-1056
 2008d40:	e0c00217 	ldw	r3,8(fp)
 2008d44:	1885883a 	add	r2,r3,r2
 2008d48:	10c00417 	ldw	r3,16(r2)
 2008d4c:	e0bffc17 	ldw	r2,-16(fp)
 2008d50:	1885883a 	add	r2,r3,r2
 2008d54:	e0bffc15 	stw	r2,-16(fp)
    }
    i++;
 2008d58:	e0bff917 	ldw	r2,-28(fp)
 2008d5c:	10800044 	addi	r2,r2,1
 2008d60:	e0bff915 	stw	r2,-28(fp)
  int original_horiz_offset;

  original_horiz_offset = horiz_offset;

  // Print until we hit the '\0' char.
  while (string[i]) {
 2008d64:	e0bff917 	ldw	r2,-28(fp)
 2008d68:	e0c00417 	ldw	r3,16(fp)
 2008d6c:	1885883a 	add	r2,r3,r2
 2008d70:	10800003 	ldbu	r2,0(r2)
 2008d74:	10803fcc 	andi	r2,r2,255
 2008d78:	1080201c 	xori	r2,r2,128
 2008d7c:	10bfe004 	addi	r2,r2,-128
 2008d80:	103f7b1e 	bne	r2,zero,2008b70 <__reset+0xfe001370>
      vid_print_char_alpha (horiz_offset, vert_offset, color, string[i], background_color, font, display);
      horiz_offset += font[string[i] - 33].bounds_width;
    }
    i++;
  }
  return (0);
 2008d84:	0005883a 	mov	r2,zero
}
 2008d88:	e037883a 	mov	sp,fp
 2008d8c:	dfc00117 	ldw	ra,4(sp)
 2008d90:	df000017 	ldw	fp,0(sp)
 2008d94:	dec00204 	addi	sp,sp,8
 2008d98:	f800283a 	ret

02008d9c <seperate_color_channels>:
*           the function working on pointers.
*
******************************************************************/

__inline__ int seperate_color_channels(int color_depth, unsigned char * color, unsigned char * red, unsigned char * green, unsigned char * blue)
{
 2008d9c:	defff904 	addi	sp,sp,-28
 2008da0:	df000615 	stw	fp,24(sp)
 2008da4:	df000604 	addi	fp,sp,24
 2008da8:	e13ffc15 	stw	r4,-16(fp)
 2008dac:	e17ffd15 	stw	r5,-12(fp)
 2008db0:	e1bffe15 	stw	r6,-8(fp)
 2008db4:	e1ffff15 	stw	r7,-4(fp)
  int return_value;  // error checking in case anyone is listening
  unsigned short temp_color = 0;
 2008db8:	e03ffb0d 	sth	zero,-20(fp)
  
  if (color_depth == 16)  // R(5):G(6):B(5)
 2008dbc:	e0bffc17 	ldw	r2,-16(fp)
 2008dc0:	10800418 	cmpnei	r2,r2,16
 2008dc4:	1000221e 	bne	r2,zero,2008e50 <seperate_color_channels+0xb4>
  {
    temp_color = *color++;        // get the first half of the 16 bit color
 2008dc8:	e0bffd17 	ldw	r2,-12(fp)
 2008dcc:	10c00044 	addi	r3,r2,1
 2008dd0:	e0fffd15 	stw	r3,-12(fp)
 2008dd4:	10800003 	ldbu	r2,0(r2)
 2008dd8:	10803fcc 	andi	r2,r2,255
 2008ddc:	e0bffb0d 	sth	r2,-20(fp)
    temp_color += (*color << 8);  // get the second half of the 16 bit color
 2008de0:	e0bffd17 	ldw	r2,-12(fp)
 2008de4:	10800003 	ldbu	r2,0(r2)
 2008de8:	10803fcc 	andi	r2,r2,255
 2008dec:	1004923a 	slli	r2,r2,8
 2008df0:	1007883a 	mov	r3,r2
 2008df4:	e0bffb0b 	ldhu	r2,-20(fp)
 2008df8:	1885883a 	add	r2,r3,r2
 2008dfc:	e0bffb0d 	sth	r2,-20(fp)
    *blue = temp_color & 0x1F; 
 2008e00:	e0bffb0b 	ldhu	r2,-20(fp)
 2008e04:	108007cc 	andi	r2,r2,31
 2008e08:	1007883a 	mov	r3,r2
 2008e0c:	e0800117 	ldw	r2,4(fp)
 2008e10:	10c00005 	stb	r3,0(r2)
    *green = (temp_color >> 5) & 0x3F;
 2008e14:	e0bffb0b 	ldhu	r2,-20(fp)
 2008e18:	1004d17a 	srli	r2,r2,5
 2008e1c:	10800fcc 	andi	r2,r2,63
 2008e20:	1007883a 	mov	r3,r2
 2008e24:	e0bfff17 	ldw	r2,-4(fp)
 2008e28:	10c00005 	stb	r3,0(r2)
    *red = (temp_color >> 11) & 0x1F;
 2008e2c:	e0bffb0b 	ldhu	r2,-20(fp)
 2008e30:	1004d2fa 	srli	r2,r2,11
 2008e34:	108007cc 	andi	r2,r2,31
 2008e38:	1007883a 	mov	r3,r2
 2008e3c:	e0bffe17 	ldw	r2,-8(fp)
 2008e40:	10c00005 	stb	r3,0(r2)
    return_value = 1;
 2008e44:	00800044 	movi	r2,1
 2008e48:	e0bffa15 	stw	r2,-24(fp)
 2008e4c:	00002006 	br	2008ed0 <seperate_color_channels+0x134>
  }
  else if ((color_depth == 24) || (color_depth == 32))  // R(8):G(8):B(8) packed/unpacked
 2008e50:	e0bffc17 	ldw	r2,-16(fp)
 2008e54:	10800620 	cmpeqi	r2,r2,24
 2008e58:	1000031e 	bne	r2,zero,2008e68 <seperate_color_channels+0xcc>
 2008e5c:	e0bffc17 	ldw	r2,-16(fp)
 2008e60:	10800818 	cmpnei	r2,r2,32
 2008e64:	1000131e 	bne	r2,zero,2008eb4 <seperate_color_channels+0x118>
  {
    *blue = *color++;
 2008e68:	e0bffd17 	ldw	r2,-12(fp)
 2008e6c:	10c00044 	addi	r3,r2,1
 2008e70:	e0fffd15 	stw	r3,-12(fp)
 2008e74:	10c00003 	ldbu	r3,0(r2)
 2008e78:	e0800117 	ldw	r2,4(fp)
 2008e7c:	10c00005 	stb	r3,0(r2)
    *green = *color++;
 2008e80:	e0bffd17 	ldw	r2,-12(fp)
 2008e84:	10c00044 	addi	r3,r2,1
 2008e88:	e0fffd15 	stw	r3,-12(fp)
 2008e8c:	10c00003 	ldbu	r3,0(r2)
 2008e90:	e0bfff17 	ldw	r2,-4(fp)
 2008e94:	10c00005 	stb	r3,0(r2)
    *red = *color;   
 2008e98:	e0bffd17 	ldw	r2,-12(fp)
 2008e9c:	10c00003 	ldbu	r3,0(r2)
 2008ea0:	e0bffe17 	ldw	r2,-8(fp)
 2008ea4:	10c00005 	stb	r3,0(r2)
    return_value = 1;
 2008ea8:	00800044 	movi	r2,1
 2008eac:	e0bffa15 	stw	r2,-24(fp)
 2008eb0:	00000706 	br	2008ed0 <seperate_color_channels+0x134>
  }
  else  // not a valid color depth for this function
  {
    *red = 0;
 2008eb4:	e0bffe17 	ldw	r2,-8(fp)
 2008eb8:	10000005 	stb	zero,0(r2)
    *green = 0;
 2008ebc:	e0bfff17 	ldw	r2,-4(fp)
 2008ec0:	10000005 	stb	zero,0(r2)
    *blue = 0;    
 2008ec4:	e0800117 	ldw	r2,4(fp)
 2008ec8:	10000005 	stb	zero,0(r2)
    return_value = 0;    
 2008ecc:	e03ffa15 	stw	zero,-24(fp)
  }
  return return_value;
 2008ed0:	e0bffa17 	ldw	r2,-24(fp)
}
 2008ed4:	e037883a 	mov	sp,fp
 2008ed8:	df000017 	ldw	fp,0(sp)
 2008edc:	dec00104 	addi	sp,sp,4
 2008ee0:	f800283a 	ret

02008ee4 <merge_color_channels>:
*           different color formats and packing.
*
******************************************************************/

__inline__ int merge_color_channels(int color_depth, unsigned char red, unsigned char green, unsigned char blue, unsigned char * color)
{
 2008ee4:	defffa04 	addi	sp,sp,-24
 2008ee8:	df000515 	stw	fp,20(sp)
 2008eec:	df000504 	addi	fp,sp,20
 2008ef0:	e13ffc15 	stw	r4,-16(fp)
 2008ef4:	2809883a 	mov	r4,r5
 2008ef8:	3007883a 	mov	r3,r6
 2008efc:	3805883a 	mov	r2,r7
 2008f00:	e13ffd05 	stb	r4,-12(fp)
 2008f04:	e0fffe05 	stb	r3,-8(fp)
 2008f08:	e0bfff05 	stb	r2,-4(fp)
    temp_color = (blue & 0x1F) | ((green & 0x3F) << 5) | ((red & 0x1F) << 11);  // 16 bit color format
    *color++ = temp_color & 0xFF;
    *color = (temp_color >> 8) & 0xFF;
    return_value = 1;
  }*/
  if (color_depth == 16) // R(5):G(6):B(5)
 2008f0c:	e0bffc17 	ldw	r2,-16(fp)
 2008f10:	10800418 	cmpnei	r2,r2,16
 2008f14:	1000151e 	bne	r2,zero,2008f6c <merge_color_channels+0x88>
  {
     *color++ = blue << 3;
 2008f18:	e0800117 	ldw	r2,4(fp)
 2008f1c:	10c00044 	addi	r3,r2,1
 2008f20:	e0c00115 	stw	r3,4(fp)
 2008f24:	e0ffff03 	ldbu	r3,-4(fp)
 2008f28:	180690fa 	slli	r3,r3,3
 2008f2c:	10c00005 	stb	r3,0(r2)
     *color++ = green << 2;
 2008f30:	e0800117 	ldw	r2,4(fp)
 2008f34:	10c00044 	addi	r3,r2,1
 2008f38:	e0c00115 	stw	r3,4(fp)
 2008f3c:	e0fffe03 	ldbu	r3,-8(fp)
 2008f40:	18c7883a 	add	r3,r3,r3
 2008f44:	18c7883a 	add	r3,r3,r3
 2008f48:	10c00005 	stb	r3,0(r2)
     *color = red << 3;
 2008f4c:	e0bffd03 	ldbu	r2,-12(fp)
 2008f50:	100490fa 	slli	r2,r2,3
 2008f54:	1007883a 	mov	r3,r2
 2008f58:	e0800117 	ldw	r2,4(fp)
 2008f5c:	10c00005 	stb	r3,0(r2)
     return_value = 1;
 2008f60:	00800044 	movi	r2,1
 2008f64:	e0bffb15 	stw	r2,-20(fp)
 2008f68:	00002106 	br	2008ff0 <merge_color_channels+0x10c>
  }
  else if ((color_depth == 24) || (color_depth == 32))  // R(8):G(8):B(8) packed/unpacked
 2008f6c:	e0bffc17 	ldw	r2,-16(fp)
 2008f70:	10800620 	cmpeqi	r2,r2,24
 2008f74:	1000031e 	bne	r2,zero,2008f84 <merge_color_channels+0xa0>
 2008f78:	e0bffc17 	ldw	r2,-16(fp)
 2008f7c:	10800818 	cmpnei	r2,r2,32
 2008f80:	1000101e 	bne	r2,zero,2008fc4 <merge_color_channels+0xe0>
  {
    *color++ = blue;
 2008f84:	e0800117 	ldw	r2,4(fp)
 2008f88:	10c00044 	addi	r3,r2,1
 2008f8c:	e0c00115 	stw	r3,4(fp)
 2008f90:	e0ffff03 	ldbu	r3,-4(fp)
 2008f94:	10c00005 	stb	r3,0(r2)
    *color++ = green;
 2008f98:	e0800117 	ldw	r2,4(fp)
 2008f9c:	10c00044 	addi	r3,r2,1
 2008fa0:	e0c00115 	stw	r3,4(fp)
 2008fa4:	e0fffe03 	ldbu	r3,-8(fp)
 2008fa8:	10c00005 	stb	r3,0(r2)
    *color = red;
 2008fac:	e0800117 	ldw	r2,4(fp)
 2008fb0:	e0fffd03 	ldbu	r3,-12(fp)
 2008fb4:	10c00005 	stb	r3,0(r2)
    return_value = 1;
 2008fb8:	00800044 	movi	r2,1
 2008fbc:	e0bffb15 	stw	r2,-20(fp)
 2008fc0:	00000b06 	br	2008ff0 <merge_color_channels+0x10c>
  }
  else  // not a valid color depth for this function
  {
    *color++ = 0;
 2008fc4:	e0800117 	ldw	r2,4(fp)
 2008fc8:	10c00044 	addi	r3,r2,1
 2008fcc:	e0c00115 	stw	r3,4(fp)
 2008fd0:	10000005 	stb	zero,0(r2)
    *color++ = 0;
 2008fd4:	e0800117 	ldw	r2,4(fp)
 2008fd8:	10c00044 	addi	r3,r2,1
 2008fdc:	e0c00115 	stw	r3,4(fp)
 2008fe0:	10000005 	stb	zero,0(r2)
    *color = 0;
 2008fe4:	e0800117 	ldw	r2,4(fp)
 2008fe8:	10000005 	stb	zero,0(r2)
    return_value = 0;    
 2008fec:	e03ffb15 	stw	zero,-20(fp)
  }
  return return_value;  
 2008ff0:	e0bffb17 	ldw	r2,-20(fp)
}
 2008ff4:	e037883a 	mov	sp,fp
 2008ff8:	df000017 	ldw	fp,0(sp)
 2008ffc:	dec00104 	addi	sp,sp,4
 2009000:	f800283a 	ret

02009004 <read_from_frame>:
*           needed to calculate the new one.
*
******************************************************************/

__inline__ int read_from_frame (int horiz, int vert, unsigned char *red, unsigned char *green, unsigned char *blue, alt_video_display * display)
{
 2009004:	defffa04 	addi	sp,sp,-24
 2009008:	dfc00515 	stw	ra,20(sp)
 200900c:	df000415 	stw	fp,16(sp)
 2009010:	df000404 	addi	fp,sp,16
 2009014:	e13ffc15 	stw	r4,-16(fp)
 2009018:	e17ffd15 	stw	r5,-12(fp)
 200901c:	e1bffe15 	stw	r6,-8(fp)
 2009020:	e1ffff15 	stw	r7,-4(fp)
#ifdef LT24
	printf("read_from_frame is not implemented!\r\n");
 2009024:	010080f4 	movhi	r4,515
 2009028:	212f2204 	addi	r4,r4,-17272
 200902c:	200d1940 	call	200d194 <puts>
	return(0);
 2009030:	0005883a 	mov	r2,zero
    return_value = 0; 
  }

  return return_value;
#endif
}
 2009034:	e037883a 	mov	sp,fp
 2009038:	dfc00117 	ldw	ra,4(sp)
 200903c:	df000017 	ldw	fp,0(sp)
 2009040:	dec00204 	addi	sp,sp,8
 2009044:	f800283a 	ret

02009048 <alpha_blending>:
*           the font color with the background color.
*
******************************************************************/

__inline__ int alpha_blending (int horiz_offset, int vert_offset, int background_color, unsigned char alpha, unsigned char *red, unsigned char *green, unsigned char *blue, alt_video_display * display)
{
 2009048:	defff304 	addi	sp,sp,-52
 200904c:	dfc00c15 	stw	ra,48(sp)
 2009050:	df000b15 	stw	fp,44(sp)
 2009054:	df000b04 	addi	fp,sp,44
 2009058:	e13ffc15 	stw	r4,-16(fp)
 200905c:	e17ffd15 	stw	r5,-12(fp)
 2009060:	e1bffe15 	stw	r6,-8(fp)
 2009064:	3805883a 	mov	r2,r7
 2009068:	e0bfff05 	stb	r2,-4(fp)
  int return_value;
  unsigned char background_red, background_green, background_blue;
  unsigned int blended_red, blended_green, blended_blue;  // short since there may be overflow to be clipped
  
  // set red, green, and blue of the background color
  if(background_color == CLEAR_BACKGROUND)
 200906c:	e0bffe17 	ldw	r2,-8(fp)
 2009070:	10bfffd8 	cmpnei	r2,r2,-1
 2009074:	10000b1e 	bne	r2,zero,20090a4 <alpha_blending+0x5c>
  {
    read_from_frame (horiz_offset, vert_offset, &background_red, &background_green, &background_blue, display);
 2009078:	e1bffb04 	addi	r6,fp,-20
 200907c:	e0fffb44 	addi	r3,fp,-19
 2009080:	e0bffb84 	addi	r2,fp,-18
 2009084:	d8800015 	stw	r2,0(sp)
 2009088:	e0800517 	ldw	r2,20(fp)
 200908c:	d8800115 	stw	r2,4(sp)
 2009090:	e13ffc17 	ldw	r4,-16(fp)
 2009094:	e17ffd17 	ldw	r5,-12(fp)
 2009098:	180f883a 	mov	r7,r3
 200909c:	20090040 	call	2009004 <read_from_frame>
 20090a0:	00000906 	br	20090c8 <alpha_blending+0x80>
  }
  else
  {
    seperate_color_channels(display->color_depth, (unsigned char *)&background_color, &background_red, &background_green, &background_blue);
 20090a4:	e0800517 	ldw	r2,20(fp)
 20090a8:	11000017 	ldw	r4,0(r2)
 20090ac:	e17ffe04 	addi	r5,fp,-8
 20090b0:	e1bffb04 	addi	r6,fp,-20
 20090b4:	e0fffb44 	addi	r3,fp,-19
 20090b8:	e0bffb84 	addi	r2,fp,-18
 20090bc:	d8800015 	stw	r2,0(sp)
 20090c0:	180f883a 	mov	r7,r3
 20090c4:	2008d9c0 	call	2008d9c <seperate_color_channels>
  }

  // these blended colors may need to be clipped to the maximum amounts the color depth supports
  blended_red = (((*red) * alpha) + (background_red * (255 - alpha)))/255;
 20090c8:	e0800217 	ldw	r2,8(fp)
 20090cc:	10800003 	ldbu	r2,0(r2)
 20090d0:	10c03fcc 	andi	r3,r2,255
 20090d4:	e0bfff03 	ldbu	r2,-4(fp)
 20090d8:	1887383a 	mul	r3,r3,r2
 20090dc:	e0bffb03 	ldbu	r2,-20(fp)
 20090e0:	11003fcc 	andi	r4,r2,255
 20090e4:	e0bfff03 	ldbu	r2,-4(fp)
 20090e8:	01403fc4 	movi	r5,255
 20090ec:	2885c83a 	sub	r2,r5,r2
 20090f0:	2085383a 	mul	r2,r4,r2
 20090f4:	1885883a 	add	r2,r3,r2
 20090f8:	1009883a 	mov	r4,r2
 20090fc:	01403fc4 	movi	r5,255
 2009100:	200a4d00 	call	200a4d0 <__divsi3>
 2009104:	e0bff815 	stw	r2,-32(fp)
  blended_green = (((*green) * alpha) + (background_green * (255 - alpha)))/255;
 2009108:	e0800317 	ldw	r2,12(fp)
 200910c:	10800003 	ldbu	r2,0(r2)
 2009110:	10c03fcc 	andi	r3,r2,255
 2009114:	e0bfff03 	ldbu	r2,-4(fp)
 2009118:	1887383a 	mul	r3,r3,r2
 200911c:	e0bffb43 	ldbu	r2,-19(fp)
 2009120:	11003fcc 	andi	r4,r2,255
 2009124:	e0bfff03 	ldbu	r2,-4(fp)
 2009128:	01403fc4 	movi	r5,255
 200912c:	2885c83a 	sub	r2,r5,r2
 2009130:	2085383a 	mul	r2,r4,r2
 2009134:	1885883a 	add	r2,r3,r2
 2009138:	1009883a 	mov	r4,r2
 200913c:	01403fc4 	movi	r5,255
 2009140:	200a4d00 	call	200a4d0 <__divsi3>
 2009144:	e0bff915 	stw	r2,-28(fp)
  blended_blue = (((*blue) * alpha) + (background_blue * (255 - alpha)))/255;
 2009148:	e0800417 	ldw	r2,16(fp)
 200914c:	10800003 	ldbu	r2,0(r2)
 2009150:	10c03fcc 	andi	r3,r2,255
 2009154:	e0bfff03 	ldbu	r2,-4(fp)
 2009158:	1887383a 	mul	r3,r3,r2
 200915c:	e0bffb83 	ldbu	r2,-18(fp)
 2009160:	11003fcc 	andi	r4,r2,255
 2009164:	e0bfff03 	ldbu	r2,-4(fp)
 2009168:	01403fc4 	movi	r5,255
 200916c:	2885c83a 	sub	r2,r5,r2
 2009170:	2085383a 	mul	r2,r4,r2
 2009174:	1885883a 	add	r2,r3,r2
 2009178:	1009883a 	mov	r4,r2
 200917c:	01403fc4 	movi	r5,255
 2009180:	200a4d00 	call	200a4d0 <__divsi3>
 2009184:	e0bffa15 	stw	r2,-24(fp)
  

  if(display->color_depth == 16)
 2009188:	e0800517 	ldw	r2,20(fp)
 200918c:	10800017 	ldw	r2,0(r2)
 2009190:	10800418 	cmpnei	r2,r2,16
 2009194:	1000181e 	bne	r2,zero,20091f8 <alpha_blending+0x1b0>
  {
    *red = (blended_red > 0x1F)? 0x1F: blended_red;
 2009198:	e0bff817 	ldw	r2,-32(fp)
 200919c:	10c00830 	cmpltui	r3,r2,32
 20091a0:	1800011e 	bne	r3,zero,20091a8 <alpha_blending+0x160>
 20091a4:	008007c4 	movi	r2,31
 20091a8:	1007883a 	mov	r3,r2
 20091ac:	e0800217 	ldw	r2,8(fp)
 20091b0:	10c00005 	stb	r3,0(r2)
    *green = (blended_green > 0x3F)? 0x3F: blended_green;
 20091b4:	e0bff917 	ldw	r2,-28(fp)
 20091b8:	10c01030 	cmpltui	r3,r2,64
 20091bc:	1800011e 	bne	r3,zero,20091c4 <alpha_blending+0x17c>
 20091c0:	00800fc4 	movi	r2,63
 20091c4:	1007883a 	mov	r3,r2
 20091c8:	e0800317 	ldw	r2,12(fp)
 20091cc:	10c00005 	stb	r3,0(r2)
    *blue = (blended_blue > 0x1F)? 0x1F: blended_blue; 
 20091d0:	e0bffa17 	ldw	r2,-24(fp)
 20091d4:	10c00830 	cmpltui	r3,r2,32
 20091d8:	1800011e 	bne	r3,zero,20091e0 <alpha_blending+0x198>
 20091dc:	008007c4 	movi	r2,31
 20091e0:	1007883a 	mov	r3,r2
 20091e4:	e0800417 	ldw	r2,16(fp)
 20091e8:	10c00005 	stb	r3,0(r2)
    return_value = 1;        
 20091ec:	00800044 	movi	r2,1
 20091f0:	e0bff715 	stw	r2,-36(fp)
 20091f4:	00002106 	br	200927c <alpha_blending+0x234>
  }
  else if((display->color_depth == 24) || (display->color_depth == 32))
 20091f8:	e0800517 	ldw	r2,20(fp)
 20091fc:	10800017 	ldw	r2,0(r2)
 2009200:	10800620 	cmpeqi	r2,r2,24
 2009204:	1000041e 	bne	r2,zero,2009218 <alpha_blending+0x1d0>
 2009208:	e0800517 	ldw	r2,20(fp)
 200920c:	10800017 	ldw	r2,0(r2)
 2009210:	10800818 	cmpnei	r2,r2,32
 2009214:	1000181e 	bne	r2,zero,2009278 <alpha_blending+0x230>
  {
    *red = (blended_red > 0xFF)? 0xFF: blended_red;
 2009218:	e0bff817 	ldw	r2,-32(fp)
 200921c:	10c04030 	cmpltui	r3,r2,256
 2009220:	1800011e 	bne	r3,zero,2009228 <alpha_blending+0x1e0>
 2009224:	00803fc4 	movi	r2,255
 2009228:	1007883a 	mov	r3,r2
 200922c:	e0800217 	ldw	r2,8(fp)
 2009230:	10c00005 	stb	r3,0(r2)
    *green = (blended_green > 0xFF)? 0xFF: blended_green;
 2009234:	e0bff917 	ldw	r2,-28(fp)
 2009238:	10c04030 	cmpltui	r3,r2,256
 200923c:	1800011e 	bne	r3,zero,2009244 <alpha_blending+0x1fc>
 2009240:	00803fc4 	movi	r2,255
 2009244:	1007883a 	mov	r3,r2
 2009248:	e0800317 	ldw	r2,12(fp)
 200924c:	10c00005 	stb	r3,0(r2)
    *blue = (blended_blue > 0xFF)? 0xFF: blended_blue; 
 2009250:	e0bffa17 	ldw	r2,-24(fp)
 2009254:	10c04030 	cmpltui	r3,r2,256
 2009258:	1800011e 	bne	r3,zero,2009260 <alpha_blending+0x218>
 200925c:	00803fc4 	movi	r2,255
 2009260:	1007883a 	mov	r3,r2
 2009264:	e0800417 	ldw	r2,16(fp)
 2009268:	10c00005 	stb	r3,0(r2)
    return_value = 1;            
 200926c:	00800044 	movi	r2,1
 2009270:	e0bff715 	stw	r2,-36(fp)
 2009274:	00000106 	br	200927c <alpha_blending+0x234>
  }
  else
  {
    return_value = 0;     
 2009278:	e03ff715 	stw	zero,-36(fp)
  }  
 
  return return_value;
 200927c:	e0bff717 	ldw	r2,-36(fp)
} 
 2009280:	e037883a 	mov	sp,fp
 2009284:	dfc00117 	ldw	ra,4(sp)
 2009288:	df000017 	ldw	fp,0(sp)
 200928c:	dec00204 	addi	sp,sp,8
 2009290:	f800283a 	ret

02009294 <vid_print_char_alpha>:
*           screen using the specified font and color.
*
******************************************************************/

int vid_print_char_alpha (int horiz_offset, int vert_offset, int color, char character, int background_color, struct abc_font_struct font[], alt_video_display * display)
{
 2009294:	defff004 	addi	sp,sp,-64
 2009298:	dfc00f15 	stw	ra,60(sp)
 200929c:	df000e15 	stw	fp,56(sp)
 20092a0:	df000e04 	addi	fp,sp,56
 20092a4:	e13ffc15 	stw	r4,-16(fp)
 20092a8:	e17ffd15 	stw	r5,-12(fp)
 20092ac:	e1bffe15 	stw	r6,-8(fp)
 20092b0:	3805883a 	mov	r2,r7
 20092b4:	e0bfff05 	stb	r2,-4(fp)
  unsigned char original_red, original_blue, original_green;
  unsigned char red, green, blue;
  int new_color;

  // Assign the pointer of the font bitmap
  alpha = font[character-33].char_alpha_map;
 20092b8:	e0bfff07 	ldb	r2,-4(fp)
 20092bc:	1004917a 	slli	r2,r2,5
 20092c0:	10bef804 	addi	r2,r2,-1056
 20092c4:	e0c00317 	ldw	r3,12(fp)
 20092c8:	1885883a 	add	r2,r3,r2
 20092cc:	10800617 	ldw	r2,24(r2)
 20092d0:	e0bff815 	stw	r2,-32(fp)

  // set red, green, and blue of the font color  
  seperate_color_channels(display->color_depth, (unsigned char *)&color, &original_red, &original_green, &original_blue);
 20092d4:	e0800417 	ldw	r2,16(fp)
 20092d8:	11000017 	ldw	r4,0(r2)
 20092dc:	e17ffe04 	addi	r5,fp,-8
 20092e0:	e1bff904 	addi	r6,fp,-28
 20092e4:	e0fff984 	addi	r3,fp,-26
 20092e8:	e0bff944 	addi	r2,fp,-27
 20092ec:	d8800015 	stw	r2,0(sp)
 20092f0:	180f883a 	mov	r7,r3
 20092f4:	2008d9c0 	call	2008d9c <seperate_color_channels>

  for(i = 0; i < font[character-33].bounds_height; i++) {
 20092f8:	e03ff615 	stw	zero,-40(fp)
 20092fc:	00004406 	br	2009410 <vid_print_char_alpha+0x17c>
    for (j = 0; j < font[character-33].bounds_width; j++) {
 2009300:	e03ff715 	stw	zero,-36(fp)
 2009304:	00003706 	br	20093e4 <vid_print_char_alpha+0x150>
      red = original_red;
 2009308:	e0bff903 	ldbu	r2,-28(fp)
 200930c:	e0bff9c5 	stb	r2,-25(fp)
      green = original_green;
 2009310:	e0bff983 	ldbu	r2,-26(fp)
 2009314:	e0bffa05 	stb	r2,-24(fp)
      blue = original_blue;
 2009318:	e0bff943 	ldbu	r2,-27(fp)
 200931c:	e0bffa45 	stb	r2,-23(fp)

      // send in the font alpha channel and the colour channels for the blending to occur
      alpha_blending ((horiz_offset + j), (vert_offset + i), background_color, *alpha, &red, &green, &blue, display);
 2009320:	e0fffc17 	ldw	r3,-16(fp)
 2009324:	e0bff717 	ldw	r2,-36(fp)
 2009328:	1889883a 	add	r4,r3,r2
 200932c:	e0fffd17 	ldw	r3,-12(fp)
 2009330:	e0bff617 	ldw	r2,-40(fp)
 2009334:	188b883a 	add	r5,r3,r2
 2009338:	e0bff817 	ldw	r2,-32(fp)
 200933c:	10800003 	ldbu	r2,0(r2)
 2009340:	10c03fcc 	andi	r3,r2,255
 2009344:	e0bff9c4 	addi	r2,fp,-25
 2009348:	d8800015 	stw	r2,0(sp)
 200934c:	e0bffa04 	addi	r2,fp,-24
 2009350:	d8800115 	stw	r2,4(sp)
 2009354:	e0bffa44 	addi	r2,fp,-23
 2009358:	d8800215 	stw	r2,8(sp)
 200935c:	e0800417 	ldw	r2,16(fp)
 2009360:	d8800315 	stw	r2,12(sp)
 2009364:	e1800217 	ldw	r6,8(fp)
 2009368:	180f883a 	mov	r7,r3
 200936c:	20090480 	call	2009048 <alpha_blending>

      // take the blended pixel and merge the color channels back into a single pixel value 
      merge_color_channels(display->color_depth, red, green, blue, (unsigned char *)&new_color);
 2009370:	e0800417 	ldw	r2,16(fp)
 2009374:	11000017 	ldw	r4,0(r2)
 2009378:	e0bff9c3 	ldbu	r2,-25(fp)
 200937c:	11403fcc 	andi	r5,r2,255
 2009380:	e0bffa03 	ldbu	r2,-24(fp)
 2009384:	11803fcc 	andi	r6,r2,255
 2009388:	e0bffa43 	ldbu	r2,-23(fp)
 200938c:	10c03fcc 	andi	r3,r2,255
 2009390:	e0bffb04 	addi	r2,fp,-20
 2009394:	d8800015 	stw	r2,0(sp)
 2009398:	180f883a 	mov	r7,r3
 200939c:	2008ee40 	call	2008ee4 <merge_color_channels>
      
      // write the new pixel value out to memory overwriting the current background     
      vid_set_pixel((horiz_offset + j), (vert_offset + i), new_color, display);     
 20093a0:	e0fffc17 	ldw	r3,-16(fp)
 20093a4:	e0bff717 	ldw	r2,-36(fp)
 20093a8:	1889883a 	add	r4,r3,r2
 20093ac:	e0fffd17 	ldw	r3,-12(fp)
 20093b0:	e0bff617 	ldw	r2,-40(fp)
 20093b4:	1885883a 	add	r2,r3,r2
 20093b8:	e0fffb17 	ldw	r3,-20(fp)
 20093bc:	100b883a 	mov	r5,r2
 20093c0:	180d883a 	mov	r6,r3
 20093c4:	e1c00417 	ldw	r7,16(fp)
 20093c8:	2006f6c0 	call	2006f6c <vid_set_pixel>

      alpha++;
 20093cc:	e0bff817 	ldw	r2,-32(fp)
 20093d0:	10800044 	addi	r2,r2,1
 20093d4:	e0bff815 	stw	r2,-32(fp)

  // set red, green, and blue of the font color  
  seperate_color_channels(display->color_depth, (unsigned char *)&color, &original_red, &original_green, &original_blue);

  for(i = 0; i < font[character-33].bounds_height; i++) {
    for (j = 0; j < font[character-33].bounds_width; j++) {
 20093d8:	e0bff717 	ldw	r2,-36(fp)
 20093dc:	10800044 	addi	r2,r2,1
 20093e0:	e0bff715 	stw	r2,-36(fp)
 20093e4:	e0fff717 	ldw	r3,-36(fp)
 20093e8:	e0bfff07 	ldb	r2,-4(fp)
 20093ec:	1004917a 	slli	r2,r2,5
 20093f0:	10bef804 	addi	r2,r2,-1056
 20093f4:	e1000317 	ldw	r4,12(fp)
 20093f8:	2085883a 	add	r2,r4,r2
 20093fc:	10800417 	ldw	r2,16(r2)
 2009400:	18bfc136 	bltu	r3,r2,2009308 <__reset+0xfe001b08>
  alpha = font[character-33].char_alpha_map;

  // set red, green, and blue of the font color  
  seperate_color_channels(display->color_depth, (unsigned char *)&color, &original_red, &original_green, &original_blue);

  for(i = 0; i < font[character-33].bounds_height; i++) {
 2009404:	e0bff617 	ldw	r2,-40(fp)
 2009408:	10800044 	addi	r2,r2,1
 200940c:	e0bff615 	stw	r2,-40(fp)
 2009410:	e0fff617 	ldw	r3,-40(fp)
 2009414:	e0bfff07 	ldb	r2,-4(fp)
 2009418:	1004917a 	slli	r2,r2,5
 200941c:	10bef804 	addi	r2,r2,-1056
 2009420:	e1000317 	ldw	r4,12(fp)
 2009424:	2085883a 	add	r2,r4,r2
 2009428:	10800517 	ldw	r2,20(r2)
 200942c:	18bfb436 	bltu	r3,r2,2009300 <__reset+0xfe001b00>

      alpha++;
    }
  }

  return(0);
 2009430:	0005883a 	mov	r2,zero
}
 2009434:	e037883a 	mov	sp,fp
 2009438:	dfc00117 	ldw	ra,4(sp)
 200943c:	df000017 	ldw	fp,0(sp)
 2009440:	dec00204 	addi	sp,sp,8
 2009444:	f800283a 	ret

02009448 <vid_string_pixel_length_alpha>:
*           font.  Useful for centering text, and determining the
*           appropriate size of a text box or button.
*
******************************************************************/
int vid_string_pixel_length_alpha( struct abc_font_struct font[], char string[] )
{
 2009448:	defffb04 	addi	sp,sp,-20
 200944c:	df000415 	stw	fp,16(sp)
 2009450:	df000404 	addi	fp,sp,16
 2009454:	e13ffe15 	stw	r4,-8(fp)
 2009458:	e17fff15 	stw	r5,-4(fp)
  int i = 0;
 200945c:	e03ffc15 	stw	zero,-16(fp)
  int length = 0;
 2009460:	e03ffd15 	stw	zero,-12(fp)

  // Count the length of the string
  for( i = 0; string[i] != '\0'; i++ )
 2009464:	e03ffc15 	stw	zero,-16(fp)
 2009468:	00002206 	br	20094f4 <vid_string_pixel_length_alpha+0xac>
  {
    if( string[i] == ' ' )
 200946c:	e0bffc17 	ldw	r2,-16(fp)
 2009470:	e0ffff17 	ldw	r3,-4(fp)
 2009474:	1885883a 	add	r2,r3,r2
 2009478:	10800003 	ldbu	r2,0(r2)
 200947c:	10803fcc 	andi	r2,r2,255
 2009480:	1080201c 	xori	r2,r2,128
 2009484:	10bfe004 	addi	r2,r2,-128
 2009488:	10800818 	cmpnei	r2,r2,32
 200948c:	1000071e 	bne	r2,zero,20094ac <vid_string_pixel_length_alpha+0x64>
    {
      // Here we just add the length of the '-' character
      length += font[45 - 33].bounds_width;
 2009490:	e0bffe17 	ldw	r2,-8(fp)
 2009494:	10806004 	addi	r2,r2,384
 2009498:	10c00417 	ldw	r3,16(r2)
 200949c:	e0bffd17 	ldw	r2,-12(fp)
 20094a0:	1885883a 	add	r2,r3,r2
 20094a4:	e0bffd15 	stw	r2,-12(fp)
 20094a8:	00000f06 	br	20094e8 <vid_string_pixel_length_alpha+0xa0>
    }
    else
    {
      length += font[string[i] - 33].bounds_width;
 20094ac:	e0bffc17 	ldw	r2,-16(fp)
 20094b0:	e0ffff17 	ldw	r3,-4(fp)
 20094b4:	1885883a 	add	r2,r3,r2
 20094b8:	10800003 	ldbu	r2,0(r2)
 20094bc:	10803fcc 	andi	r2,r2,255
 20094c0:	1080201c 	xori	r2,r2,128
 20094c4:	10bfe004 	addi	r2,r2,-128
 20094c8:	1004917a 	slli	r2,r2,5
 20094cc:	10bef804 	addi	r2,r2,-1056
 20094d0:	e0fffe17 	ldw	r3,-8(fp)
 20094d4:	1885883a 	add	r2,r3,r2
 20094d8:	10c00417 	ldw	r3,16(r2)
 20094dc:	e0bffd17 	ldw	r2,-12(fp)
 20094e0:	1885883a 	add	r2,r3,r2
 20094e4:	e0bffd15 	stw	r2,-12(fp)
{
  int i = 0;
  int length = 0;

  // Count the length of the string
  for( i = 0; string[i] != '\0'; i++ )
 20094e8:	e0bffc17 	ldw	r2,-16(fp)
 20094ec:	10800044 	addi	r2,r2,1
 20094f0:	e0bffc15 	stw	r2,-16(fp)
 20094f4:	e0bffc17 	ldw	r2,-16(fp)
 20094f8:	e0ffff17 	ldw	r3,-4(fp)
 20094fc:	1885883a 	add	r2,r3,r2
 2009500:	10800003 	ldbu	r2,0(r2)
 2009504:	10803fcc 	andi	r2,r2,255
 2009508:	1080201c 	xori	r2,r2,128
 200950c:	10bfe004 	addi	r2,r2,-128
 2009510:	103fd61e 	bne	r2,zero,200946c <__reset+0xfe001c6c>
    else
    {
      length += font[string[i] - 33].bounds_width;
    }
  }
  return( length );
 2009514:	e0bffd17 	ldw	r2,-12(fp)
}
 2009518:	e037883a 	mov	sp,fp
 200951c:	df000017 	ldw	fp,0(sp)
 2009520:	dec00104 	addi	sp,sp,4
 2009524:	f800283a 	ret

02009528 <main>:
#include "demo/robinsun.h"
#include "system.h"
//#include "demo/gui.h"

int main()
{
 2009528:	defff804 	addi	sp,sp,-32
 200952c:	dfc00715 	stw	ra,28(sp)
 2009530:	df000615 	stw	fp,24(sp)
 2009534:	df000604 	addi	fp,sp,24
Clr_BUFFER_FLAG();
 2009538:	20060bc0 	call	20060bc <Clr_BUFFER_FLAG>

 alt_video_display Display;
 TOUCH_HANDLE *pTouch;

 printf("Hi There !\n");
 200953c:	010080f4 	movhi	r4,515
 2009540:	212f2c04 	addi	r4,r4,-17232
 2009544:	200d1940 	call	200d194 <puts>

 // Write 0x3C on LED[6:0] through the dedicated custom IP
 IOWR(LED_CTRL_BASE, 0x0, 0x3C);
 2009548:	00c00f04 	movi	r3,60
 200954c:	00810074 	movhi	r2,1025
 2009550:	10a00004 	addi	r2,r2,-32768
 2009554:	10c00035 	stwio	r3,0(r2)

 // TOUCH INITIALIZATION
 pTouch = Touch_Init(LT24_TOUCH_SPI_BASE,  LT24_TOUCH_PENIRQ_N_BASE, LT24_TOUCH_PENIRQ_N_IRQ);
 2009558:	01010074 	movhi	r4,1025
 200955c:	21210004 	addi	r4,r4,-31744
 2009560:	01410074 	movhi	r5,1025
 2009564:	29611c04 	addi	r5,r5,-31632
 2009568:	01800104 	movi	r6,4
 200956c:	20095ec0 	call	20095ec <Touch_Init>
 2009570:	e0bffa15 	stw	r2,-24(fp)
 if (!pTouch){
 2009574:	e0bffa17 	ldw	r2,-24(fp)
 2009578:	1000041e 	bne	r2,zero,200958c <main+0x64>
	 printf("Failed to init touch\r\n");
 200957c:	010080f4 	movhi	r4,515
 2009580:	212f2f04 	addi	r4,r4,-17220
 2009584:	200d1940 	call	200d194 <puts>
 2009588:	00000306 	br	2009598 <main+0x70>
 }else{
	 printf("Init touch successfully\r\n");
 200958c:	010080f4 	movhi	r4,515
 2009590:	212f3504 	addi	r4,r4,-17196
 2009594:	200d1940 	call	200d194 <puts>
 }

 // LCD INITIALIZATION
 LCD_Init();
 2009598:	20057fc0 	call	20057fc <LCD_Init>
 Display.width = SCREEN_WIDTH;
 GUI(&Display, pTouch);
*/

 // Other demo
 Clr_BUFFER_FLAG();
 200959c:	20060bc0 	call	20060bc <Clr_BUFFER_FLAG>
 Display.interlace = 0;
 20095a0:	e03fff15 	stw	zero,-4(fp)
 Display.bytes_per_pixel = 2;
 20095a4:	00800084 	movi	r2,2
 20095a8:	e0bffe15 	stw	r2,-8(fp)
 Display.color_depth = 16;
 20095ac:	00800404 	movi	r2,16
 20095b0:	e0bffb15 	stw	r2,-20(fp)
 Display.height = SCREEN_HEIGHT;
 20095b4:	00805004 	movi	r2,320
 20095b8:	e0bffd15 	stw	r2,-12(fp)
 Display.width = SCREEN_WIDTH;
 20095bc:	00803c04 	movi	r2,240
 20095c0:	e0bffc15 	stw	r2,-16(fp)
 //GUI(&Display, pTouch);
 GUI_ROBINSUN(&Display, pTouch);
 20095c4:	e0bffb04 	addi	r2,fp,-20
 20095c8:	1009883a 	mov	r4,r2
 20095cc:	e17ffa17 	ldw	r5,-24(fp)
 20095d0:	2002fdc0 	call	2002fdc <GUI_ROBINSUN>

 return 0;
 20095d4:	0005883a 	mov	r2,zero
}
 20095d8:	e037883a 	mov	sp,fp
 20095dc:	dfc00117 	ldw	ra,4(sp)
 20095e0:	df000017 	ldw	fp,0(sp)
 20095e4:	dec00204 	addi	sp,sp,8
 20095e8:	f800283a 	ret

020095ec <Touch_Init>:
bool touch_is_pen_pressed(TERASIC_TOUCH_PANEL *p);
void touch_empty_fifo(TERASIC_TOUCH_PANEL *p);
void touch_clear_input(TERASIC_TOUCH_PANEL *p);

// init touch panel
TOUCH_HANDLE Touch_Init(const alt_u32 spi_base, const alt_u32 penirq_base, const alt_u32 penirq_irq){
 20095ec:	defff804 	addi	sp,sp,-32
 20095f0:	dfc00715 	stw	ra,28(sp)
 20095f4:	df000615 	stw	fp,24(sp)
 20095f8:	df000604 	addi	fp,sp,24
 20095fc:	e13ffd15 	stw	r4,-12(fp)
 2009600:	e17ffe15 	stw	r5,-8(fp)
 2009604:	e1bfff15 	stw	r6,-4(fp)
    bool bSuccess = TRUE;
 2009608:	00800044 	movi	r2,1
 200960c:	e0bffb15 	stw	r2,-20(fp)
    
    TERASIC_TOUCH_PANEL *p;
    
    p = malloc(sizeof(TERASIC_TOUCH_PANEL));
 2009610:	01001804 	movi	r4,96
 2009614:	200c9980 	call	200c998 <malloc>
 2009618:	e0bffc15 	stw	r2,-16(fp)
    if (!p)
 200961c:	e0bffc17 	ldw	r2,-16(fp)
 2009620:	1000021e 	bne	r2,zero,200962c <Touch_Init+0x40>
        return p;
 2009624:	e0bffc17 	ldw	r2,-16(fp)
 2009628:	00004806 	br	200974c <Touch_Init+0x160>

    memset(p, 0, sizeof(TERASIC_TOUCH_PANEL));
 200962c:	e13ffc17 	ldw	r4,-16(fp)
 2009630:	000b883a 	mov	r5,zero
 2009634:	01801804 	movi	r6,96
 2009638:	200d06c0 	call	200d06c <memset>
    p->spi_base = spi_base;
 200963c:	e0bffc17 	ldw	r2,-16(fp)
 2009640:	e0fffd17 	ldw	r3,-12(fp)
 2009644:	10c00015 	stw	r3,0(r2)
    p->penirq_base = penirq_base;
 2009648:	e0bffc17 	ldw	r2,-16(fp)
 200964c:	e0fffe17 	ldw	r3,-8(fp)
 2009650:	10c00115 	stw	r3,4(r2)
    p->irq_mask = 0x01;  // 1-pin
 2009654:	e0bffc17 	ldw	r2,-16(fp)
 2009658:	00c00044 	movi	r3,1
 200965c:	10c00315 	stw	r3,12(r2)
    p->penirq_irq = penirq_irq;
 2009660:	e0bffc17 	ldw	r2,-16(fp)
 2009664:	e0ffff17 	ldw	r3,-4(fp)
 2009668:	10c00215 	stw	r3,8(r2)
 * Obtain the system clock rate in ticks/s. 
 */

static ALT_INLINE alt_u32 ALT_ALWAYS_INLINE alt_ticks_per_second (void)
{
  return _alt_tick_rate;
 200966c:	008080f4 	movhi	r2,515
 2009670:	10896e04 	addi	r2,r2,9656
 2009674:	10800017 	ldw	r2,0(r2)
    p->alarm_dur = alt_ticks_per_second()/SAMPLE_RATE;
 2009678:	1009883a 	mov	r4,r2
 200967c:	01400f04 	movi	r5,60
 2009680:	200a5800 	call	200a580 <__udivsi3>
 2009684:	1007883a 	mov	r3,r2
 2009688:	e0bffc17 	ldw	r2,-16(fp)
 200968c:	10c01615 	stw	r3,88(r2)
    
    // enable penirq_n interrupt (P1=1, P1=0)
    touch_enable_penirq(p);    
 2009690:	e13ffc17 	ldw	r4,-16(fp)
 2009694:	2009a2c0 	call	2009a2c <touch_enable_penirq>
    
    // enable interrupt, 1-pin
    IOWR_ALTERA_AVALON_PIO_IRQ_MASK(p->penirq_base, p->irq_mask); 
 2009698:	e0bffc17 	ldw	r2,-16(fp)
 200969c:	10800117 	ldw	r2,4(r2)
 20096a0:	10800204 	addi	r2,r2,8
 20096a4:	1007883a 	mov	r3,r2
 20096a8:	e0bffc17 	ldw	r2,-16(fp)
 20096ac:	10800317 	ldw	r2,12(r2)
 20096b0:	18800035 	stwio	r2,0(r3)
    // Reset the edge capture register
    IOWR_ALTERA_AVALON_PIO_EDGE_CAP(p->penirq_base,0);
 20096b4:	e0bffc17 	ldw	r2,-16(fp)
 20096b8:	10800117 	ldw	r2,4(r2)
 20096bc:	10800304 	addi	r2,r2,12
 20096c0:	0007883a 	mov	r3,zero
 20096c4:	10c00035 	stwio	r3,0(r2)
    // register ISR
    // register callback function

#ifdef ALT_ENHANCED_INTERRUPT_API_PRESENT
  if ((alt_ic_isr_register(LT24_TOUCH_PENIRQ_N_IRQ_INTERRUPT_CONTROLLER_ID,
 20096c8:	e0bffc17 	ldw	r2,-16(fp)
 20096cc:	10800217 	ldw	r2,8(r2)
 20096d0:	d8000015 	stw	zero,0(sp)
 20096d4:	0009883a 	mov	r4,zero
 20096d8:	100b883a 	mov	r5,r2
 20096dc:	01808074 	movhi	r6,513
 20096e0:	31a65204 	addi	r6,r6,-26296
 20096e4:	e1fffc17 	ldw	r7,-16(fp)
 20096e8:	200e5b00 	call	200e5b0 <alt_ic_isr_register>
 20096ec:	10000126 	beq	r2,zero,20096f4 <Touch_Init+0x108>
		                   ) != 0)){
 #else
  if ((alt_irq_register(p->penirq_irq, (void *)p, touch_isr) != 0)){
 #endif
        //DEBUG_OUT(("[TOUCH]register IRQ fail\n"));
        bSuccess = FALSE;
 20096f0:	e03ffb15 	stw	zero,-20(fp)
    }else{        
        //DEBUG_OUT(("[TOUCH]register IRQ success\n"));
    }

    if (bSuccess){    
 20096f4:	e0bffb17 	ldw	r2,-20(fp)
 20096f8:	10000c26 	beq	r2,zero,200972c <Touch_Init+0x140>
        if (alt_alarm_start(&p->alarm, p->alarm_dur, touch_alarm_callback, p) == 0){
 20096fc:	e0bffc17 	ldw	r2,-16(fp)
 2009700:	10c01004 	addi	r3,r2,64
 2009704:	e0bffc17 	ldw	r2,-16(fp)
 2009708:	10801617 	ldw	r2,88(r2)
 200970c:	1809883a 	mov	r4,r3
 2009710:	100b883a 	mov	r5,r2
 2009714:	01808074 	movhi	r6,513
 2009718:	31a7b504 	addi	r6,r6,-24876
 200971c:	e1fffc17 	ldw	r7,-16(fp)
 2009720:	200e4700 	call	200e470 <alt_alarm_start>
 2009724:	10000126 	beq	r2,zero,200972c <Touch_Init+0x140>
            //DEBUG_OUT(("[TOUCH]alarm start success\n"));
        }else{
           // DEBUG_OUT(("[TOUCH]alarm start fail\n"));
            bSuccess = FALSE;
 2009728:	e03ffb15 	stw	zero,-20(fp)
        }
    }
    
    if (!bSuccess && p){
 200972c:	e0bffb17 	ldw	r2,-20(fp)
 2009730:	1000051e 	bne	r2,zero,2009748 <Touch_Init+0x15c>
 2009734:	e0bffc17 	ldw	r2,-16(fp)
 2009738:	10000326 	beq	r2,zero,2009748 <Touch_Init+0x15c>
        free(p);
 200973c:	e13ffc17 	ldw	r4,-16(fp)
 2009740:	200c9ac0 	call	200c9ac <free>
        p = NULL;
 2009744:	e03ffc15 	stw	zero,-16(fp)
    }        
                
    return p;        
 2009748:	e0bffc17 	ldw	r2,-16(fp)
}
 200974c:	e037883a 	mov	sp,fp
 2009750:	dfc00117 	ldw	ra,4(sp)
 2009754:	df000017 	ldw	fp,0(sp)
 2009758:	dec00204 	addi	sp,sp,8
 200975c:	f800283a 	ret

02009760 <Touch_UnInit>:

// uninit touch panel
void Touch_UnInit(TOUCH_HANDLE pHandle){
 2009760:	defffc04 	addi	sp,sp,-16
 2009764:	dfc00315 	stw	ra,12(sp)
 2009768:	df000215 	stw	fp,8(sp)
 200976c:	df000204 	addi	fp,sp,8
 2009770:	e13fff15 	stw	r4,-4(fp)
    TERASIC_TOUCH_PANEL *p = (TERASIC_TOUCH_PANEL *)pHandle;
 2009774:	e0bfff17 	ldw	r2,-4(fp)
 2009778:	e0bffe15 	stw	r2,-8(fp)
    if (!p)
 200977c:	e0bffe17 	ldw	r2,-8(fp)
 2009780:	1000011e 	bne	r2,zero,2009788 <Touch_UnInit+0x28>
        return;
 2009784:	00000b06 	br	20097b4 <Touch_UnInit+0x54>
        
    // stop alarm
    alt_alarm_stop(&(p->alarm));
 2009788:	e0bffe17 	ldw	r2,-8(fp)
 200978c:	10801004 	addi	r2,r2,64
 2009790:	1009883a 	mov	r4,r2
 2009794:	200eacc0 	call	200eacc <alt_alarm_stop>
    // disable irq
    IOWR_ALTERA_AVALON_PIO_IRQ_MASK(p->penirq_base, 0x00);
 2009798:	e0bffe17 	ldw	r2,-8(fp)
 200979c:	10800117 	ldw	r2,4(r2)
 20097a0:	10800204 	addi	r2,r2,8
 20097a4:	0007883a 	mov	r3,zero
 20097a8:	10c00035 	stwio	r3,0(r2)
    
    // zero variable
    free(p);
 20097ac:	e13ffe17 	ldw	r4,-8(fp)
 20097b0:	200c9ac0 	call	200c9ac <free>
}
 20097b4:	e037883a 	mov	sp,fp
 20097b8:	dfc00117 	ldw	ra,4(sp)
 20097bc:	df000017 	ldw	fp,0(sp)
 20097c0:	dec00204 	addi	sp,sp,8
 20097c4:	f800283a 	ret

020097c8 <Touch_EmptyFifo>:


void Touch_EmptyFifo(TOUCH_HANDLE pHandle){
 20097c8:	defffc04 	addi	sp,sp,-16
 20097cc:	dfc00315 	stw	ra,12(sp)
 20097d0:	df000215 	stw	fp,8(sp)
 20097d4:	df000204 	addi	fp,sp,8
 20097d8:	e13fff15 	stw	r4,-4(fp)
    TERASIC_TOUCH_PANEL *p = (TERASIC_TOUCH_PANEL *)pHandle;
 20097dc:	e0bfff17 	ldw	r2,-4(fp)
 20097e0:	e0bffe15 	stw	r2,-8(fp)
    touch_empty_fifo(p);
 20097e4:	e13ffe17 	ldw	r4,-8(fp)
 20097e8:	20099bc0 	call	20099bc <touch_empty_fifo>
}
 20097ec:	e037883a 	mov	sp,fp
 20097f0:	dfc00117 	ldw	ra,4(sp)
 20097f4:	df000017 	ldw	fp,0(sp)
 20097f8:	dec00204 	addi	sp,sp,8
 20097fc:	f800283a 	ret

02009800 <Touch_GetXY>:

// get x/y from internal FIFO
bool Touch_GetXY(TOUCH_HANDLE pHandle, int *x, int *y){
 2009800:	defff904 	addi	sp,sp,-28
 2009804:	dfc00615 	stw	ra,24(sp)
 2009808:	df000515 	stw	fp,20(sp)
 200980c:	dc000415 	stw	r16,16(sp)
 2009810:	df000504 	addi	fp,sp,20
 2009814:	e13ffc15 	stw	r4,-16(fp)
 2009818:	e17ffd15 	stw	r5,-12(fp)
 200981c:	e1bffe15 	stw	r6,-8(fp)
    TERASIC_TOUCH_PANEL *p = (TERASIC_TOUCH_PANEL *)pHandle;
 2009820:	e0bffc17 	ldw	r2,-16(fp)
 2009824:	e0bffb15 	stw	r2,-20(fp)
    if (!p)
 2009828:	e0bffb17 	ldw	r2,-20(fp)
 200982c:	1000021e 	bne	r2,zero,2009838 <Touch_GetXY+0x38>
        return FALSE;    
 2009830:	0005883a 	mov	r2,zero
 2009834:	00003e06 	br	2009930 <Touch_GetXY+0x130>
    
    if (p->fifo_front == p->fifo_rear){
 2009838:	e0bffb17 	ldw	r2,-20(fp)
 200983c:	10c0040b 	ldhu	r3,16(r2)
 2009840:	e0bffb17 	ldw	r2,-20(fp)
 2009844:	1080048b 	ldhu	r2,18(r2)
 2009848:	18ffffcc 	andi	r3,r3,65535
 200984c:	10bfffcc 	andi	r2,r2,65535
 2009850:	1880021e 	bne	r3,r2,200985c <Touch_GetXY+0x5c>
        // empty
        return FALSE;
 2009854:	0005883a 	mov	r2,zero
 2009858:	00003506 	br	2009930 <Touch_GetXY+0x130>
    }
    *x = p->fifo_x[p->fifo_rear];
 200985c:	e0bffb17 	ldw	r2,-20(fp)
 2009860:	1080048b 	ldhu	r2,18(r2)
 2009864:	10bfffcc 	andi	r2,r2,65535
 2009868:	e0fffb17 	ldw	r3,-20(fp)
 200986c:	10800284 	addi	r2,r2,10
 2009870:	1085883a 	add	r2,r2,r2
 2009874:	1885883a 	add	r2,r3,r2
 2009878:	1080000b 	ldhu	r2,0(r2)
 200987c:	10ffffcc 	andi	r3,r2,65535
 2009880:	e0bffd17 	ldw	r2,-12(fp)
 2009884:	10c00015 	stw	r3,0(r2)
    *y = p->fifo_y[p->fifo_rear];
 2009888:	e0bffb17 	ldw	r2,-20(fp)
 200988c:	1080048b 	ldhu	r2,18(r2)
 2009890:	10bfffcc 	andi	r2,r2,65535
 2009894:	e0fffb17 	ldw	r3,-20(fp)
 2009898:	10800504 	addi	r2,r2,20
 200989c:	1085883a 	add	r2,r2,r2
 20098a0:	1885883a 	add	r2,r3,r2
 20098a4:	1080000b 	ldhu	r2,0(r2)
 20098a8:	10ffffcc 	andi	r3,r2,65535
 20098ac:	e0bffe17 	ldw	r2,-8(fp)
 20098b0:	10c00015 	stw	r3,0(r2)
    //
    p->fifo_rear++;
 20098b4:	e0bffb17 	ldw	r2,-20(fp)
 20098b8:	1080048b 	ldhu	r2,18(r2)
 20098bc:	10800044 	addi	r2,r2,1
 20098c0:	1007883a 	mov	r3,r2
 20098c4:	e0bffb17 	ldw	r2,-20(fp)
 20098c8:	10c0048d 	sth	r3,18(r2)
    p->fifo_rear %= FIFO_SIZE;
 20098cc:	e0bffb17 	ldw	r2,-20(fp)
 20098d0:	1080048b 	ldhu	r2,18(r2)
 20098d4:	10bfffcc 	andi	r2,r2,65535
 20098d8:	1009883a 	mov	r4,r2
 20098dc:	01400284 	movi	r5,10
 20098e0:	200a5880 	call	200a588 <__umodsi3>
 20098e4:	1007883a 	mov	r3,r2
 20098e8:	e0bffb17 	ldw	r2,-20(fp)
 20098ec:	10c0048d 	sth	r3,18(r2)
    //
    // translate
    touch_xy_transform(x, y);
 20098f0:	e13ffd17 	ldw	r4,-12(fp)
 20098f4:	e17ffe17 	ldw	r5,-8(fp)
 20098f8:	2009f4c0 	call	2009f4c <touch_xy_transform>
 * alt_nticks() returns the elapsed number of system clock ticks since reset.
 */

static ALT_INLINE alt_u32 ALT_ALWAYS_INLINE alt_nticks (void)
{
  return _alt_nticks;
 20098fc:	008080f4 	movhi	r2,515
 2009900:	10896f04 	addi	r2,r2,9660
 2009904:	14000017 	ldw	r16,0(r2)
 * Obtain the system clock rate in ticks/s. 
 */

static ALT_INLINE alt_u32 ALT_ALWAYS_INLINE alt_ticks_per_second (void)
{
  return _alt_tick_rate;
 2009908:	008080f4 	movhi	r2,515
 200990c:	10896e04 	addi	r2,r2,9656
 2009910:	10800017 	ldw	r2,0(r2)

    //DEBUG_OUT("[TOUCH] x=%d, y=%d\n", *x,*y);
//    touch_clear_input(p);
//    touch_empty_fifo(p);
    p->next_active_time = alt_nticks() + ACTIVE_DELAY_TIME;
 2009914:	1009883a 	mov	r4,r2
 2009918:	01400f04 	movi	r5,60
 200991c:	200a5800 	call	200a580 <__udivsi3>
 2009920:	8087883a 	add	r3,r16,r2
 2009924:	e0bffb17 	ldw	r2,-20(fp)
 2009928:	10c01715 	stw	r3,92(r2)
    
    return TRUE;
 200992c:	00800044 	movi	r2,1
}
 2009930:	e6ffff04 	addi	sp,fp,-4
 2009934:	dfc00217 	ldw	ra,8(sp)
 2009938:	df000117 	ldw	fp,4(sp)
 200993c:	dc000017 	ldw	r16,0(sp)
 2009940:	dec00304 	addi	sp,sp,12
 2009944:	f800283a 	ret

02009948 <touch_isr>:



// penirq_n ISR
#ifdef ALT_ENHANCED_INTERRUPT_API_PRESENT
void touch_isr(void* context){
 2009948:	defffc04 	addi	sp,sp,-16
 200994c:	dfc00315 	stw	ra,12(sp)
 2009950:	df000215 	stw	fp,8(sp)
 2009954:	df000204 	addi	fp,sp,8
 2009958:	e13fff15 	stw	r4,-4(fp)
#else
void touch_isr(void* context, alt_u32 id){
#endif
    TERASIC_TOUCH_PANEL *p = (TERASIC_TOUCH_PANEL *)context;
 200995c:	e0bfff17 	ldw	r2,-4(fp)
 2009960:	e0bffe15 	stw	r2,-8(fp)

#ifdef ALT_ENHANCED_INTERRUPT_API_PRESENT
    alt_ic_irq_disable(LT24_TOUCH_PENIRQ_N_IRQ_INTERRUPT_CONTROLLER_ID,LT24_TOUCH_PENIRQ_N_IRQ);
 2009964:	0009883a 	mov	r4,zero
 2009968:	01400104 	movi	r5,4
 200996c:	200e6a00 	call	200e6a0 <alt_ic_irq_disable>
#else
    alt_irq_disable(id);
#endif

    // get the edge capture mask
    IORD_ALTERA_AVALON_PIO_EDGE_CAP(p->penirq_base);
 2009970:	e0bffe17 	ldw	r2,-8(fp)
 2009974:	10800117 	ldw	r2,4(r2)
 2009978:	10800304 	addi	r2,r2,12
 200997c:	10800037 	ldwio	r2,0(r2)
    //if ((mask & Touch.irq_mask) == 0)  // 1-pin
    //    return;
    //DEBUG_OUT("Touched!!\n");
    usleep(1000);
 2009980:	0100fa04 	movi	r4,1000
 2009984:	200ec680 	call	200ec68 <usleep>
    }
    IOWR(PIO_RED_LED_BASE, 0, Touch.pen_pressed);
#endif                    
    
    // Reset the edge capture register
    IOWR_ALTERA_AVALON_PIO_EDGE_CAP(p->penirq_base,0);    
 2009988:	e0bffe17 	ldw	r2,-8(fp)
 200998c:	10800117 	ldw	r2,4(r2)
 2009990:	10800304 	addi	r2,r2,12
 2009994:	0007883a 	mov	r3,zero
 2009998:	10c00035 	stwio	r3,0(r2)
    
#ifdef ALT_ENHANCED_INTERRUPT_API_PRESENT
    alt_ic_irq_enable(LT24_TOUCH_PENIRQ_N_IRQ_INTERRUPT_CONTROLLER_ID,LT24_TOUCH_PENIRQ_N_IRQ);
 200999c:	0009883a 	mov	r4,zero
 20099a0:	01400104 	movi	r5,4
 20099a4:	200e6000 	call	200e600 <alt_ic_irq_enable>
#else
    alt_irq_enable(id);
#endif

}
 20099a8:	e037883a 	mov	sp,fp
 20099ac:	dfc00117 	ldw	ra,4(sp)
 20099b0:	df000017 	ldw	fp,0(sp)
 20099b4:	dec00204 	addi	sp,sp,8
 20099b8:	f800283a 	ret

020099bc <touch_empty_fifo>:

void touch_empty_fifo(TERASIC_TOUCH_PANEL *p){
 20099bc:	defffe04 	addi	sp,sp,-8
 20099c0:	df000115 	stw	fp,4(sp)
 20099c4:	df000104 	addi	fp,sp,4
 20099c8:	e13fff15 	stw	r4,-4(fp)
    p->fifo_rear = p->fifo_front;
 20099cc:	e0bfff17 	ldw	r2,-4(fp)
 20099d0:	10c0040b 	ldhu	r3,16(r2)
 20099d4:	e0bfff17 	ldw	r2,-4(fp)
 20099d8:	10c0048d 	sth	r3,18(r2)
}
 20099dc:	e037883a 	mov	sp,fp
 20099e0:	df000017 	ldw	fp,0(sp)
 20099e4:	dec00104 	addi	sp,sp,4
 20099e8:	f800283a 	ret

020099ec <touch_is_pen_pressed>:

bool touch_is_pen_pressed(TERASIC_TOUCH_PANEL *p){
 20099ec:	defffd04 	addi	sp,sp,-12
 20099f0:	df000215 	stw	fp,8(sp)
 20099f4:	df000204 	addi	fp,sp,8
 20099f8:	e13fff15 	stw	r4,-4(fp)
    bool bPressed;
    bPressed = (IORD(p->penirq_base, 0) & 0x01)?FALSE:TRUE;
 20099fc:	e0bfff17 	ldw	r2,-4(fp)
 2009a00:	10800117 	ldw	r2,4(r2)
 2009a04:	10800037 	ldwio	r2,0(r2)
 2009a08:	1080004c 	andi	r2,r2,1
 2009a0c:	1005003a 	cmpeq	r2,r2,zero
 2009a10:	10803fcc 	andi	r2,r2,255
 2009a14:	e0bffe15 	stw	r2,-8(fp)
    return bPressed;
 2009a18:	e0bffe17 	ldw	r2,-8(fp)
}
 2009a1c:	e037883a 	mov	sp,fp
 2009a20:	df000017 	ldw	fp,0(sp)
 2009a24:	dec00104 	addi	sp,sp,4
 2009a28:	f800283a 	ret

02009a2c <touch_enable_penirq>:


void touch_enable_penirq(TERASIC_TOUCH_PANEL *p){
 2009a2c:	defff904 	addi	sp,sp,-28
 2009a30:	dfc00615 	stw	ra,24(sp)
 2009a34:	df000515 	stw	fp,20(sp)
 2009a38:	df000504 	addi	fp,sp,20
 2009a3c:	e13fff15 	stw	r4,-4(fp)
    const alt_u8 CommandGetX = 0x82;
 2009a40:	00bfe084 	movi	r2,-126
 2009a44:	e0bffe05 	stb	r2,-8(fp)
    const alt_u8 CommandGetY = 0xD2;
 2009a48:	00bff484 	movi	r2,-46
 2009a4c:	e0bffe45 	stb	r2,-7(fp)
    alt_u8 data8;
    
    alt_avalon_spi_command(p->spi_base, 0, sizeof(CommandGetX), &CommandGetX, 0, 0, ALT_AVALON_SPI_COMMAND_MERGE);
 2009a50:	e0bfff17 	ldw	r2,-4(fp)
 2009a54:	10c00017 	ldw	r3,0(r2)
 2009a58:	d8000015 	stw	zero,0(sp)
 2009a5c:	d8000115 	stw	zero,4(sp)
 2009a60:	00800044 	movi	r2,1
 2009a64:	d8800215 	stw	r2,8(sp)
 2009a68:	1809883a 	mov	r4,r3
 2009a6c:	000b883a 	mov	r5,zero
 2009a70:	01800044 	movi	r6,1
 2009a74:	e1fffe04 	addi	r7,fp,-8
 2009a78:	20103fc0 	call	20103fc <alt_avalon_spi_command>
    alt_avalon_spi_command(p->spi_base, 0, 0, 0, sizeof(data8), (alt_u8*)&data8, ALT_AVALON_SPI_COMMAND_MERGE);
 2009a7c:	e0bfff17 	ldw	r2,-4(fp)
 2009a80:	10c00017 	ldw	r3,0(r2)
 2009a84:	00800044 	movi	r2,1
 2009a88:	d8800015 	stw	r2,0(sp)
 2009a8c:	e0bffe84 	addi	r2,fp,-6
 2009a90:	d8800115 	stw	r2,4(sp)
 2009a94:	00800044 	movi	r2,1
 2009a98:	d8800215 	stw	r2,8(sp)
 2009a9c:	1809883a 	mov	r4,r3
 2009aa0:	000b883a 	mov	r5,zero
 2009aa4:	000d883a 	mov	r6,zero
 2009aa8:	000f883a 	mov	r7,zero
 2009aac:	20103fc0 	call	20103fc <alt_avalon_spi_command>
    alt_avalon_spi_command(p->spi_base, 0, 0, 0, sizeof(data8), (alt_u8*)&data8, ALT_AVALON_SPI_COMMAND_TOGGLE_SS_N);
 2009ab0:	e0bfff17 	ldw	r2,-4(fp)
 2009ab4:	10c00017 	ldw	r3,0(r2)
 2009ab8:	00800044 	movi	r2,1
 2009abc:	d8800015 	stw	r2,0(sp)
 2009ac0:	e0bffe84 	addi	r2,fp,-6
 2009ac4:	d8800115 	stw	r2,4(sp)
 2009ac8:	00800084 	movi	r2,2
 2009acc:	d8800215 	stw	r2,8(sp)
 2009ad0:	1809883a 	mov	r4,r3
 2009ad4:	000b883a 	mov	r5,zero
 2009ad8:	000d883a 	mov	r6,zero
 2009adc:	000f883a 	mov	r7,zero
 2009ae0:	20103fc0 	call	20103fc <alt_avalon_spi_command>
   
    alt_avalon_spi_command(p->spi_base, 0, sizeof(CommandGetY), &CommandGetY, 0, 0, ALT_AVALON_SPI_COMMAND_MERGE);
 2009ae4:	e0bfff17 	ldw	r2,-4(fp)
 2009ae8:	11000017 	ldw	r4,0(r2)
 2009aec:	e0fffe44 	addi	r3,fp,-7
 2009af0:	d8000015 	stw	zero,0(sp)
 2009af4:	d8000115 	stw	zero,4(sp)
 2009af8:	00800044 	movi	r2,1
 2009afc:	d8800215 	stw	r2,8(sp)
 2009b00:	000b883a 	mov	r5,zero
 2009b04:	01800044 	movi	r6,1
 2009b08:	180f883a 	mov	r7,r3
 2009b0c:	20103fc0 	call	20103fc <alt_avalon_spi_command>
    alt_avalon_spi_command(p->spi_base, 0, 0, 0, sizeof(data8), (alt_u8*)&data8, ALT_AVALON_SPI_COMMAND_MERGE);
 2009b10:	e0bfff17 	ldw	r2,-4(fp)
 2009b14:	10c00017 	ldw	r3,0(r2)
 2009b18:	00800044 	movi	r2,1
 2009b1c:	d8800015 	stw	r2,0(sp)
 2009b20:	e0bffe84 	addi	r2,fp,-6
 2009b24:	d8800115 	stw	r2,4(sp)
 2009b28:	00800044 	movi	r2,1
 2009b2c:	d8800215 	stw	r2,8(sp)
 2009b30:	1809883a 	mov	r4,r3
 2009b34:	000b883a 	mov	r5,zero
 2009b38:	000d883a 	mov	r6,zero
 2009b3c:	000f883a 	mov	r7,zero
 2009b40:	20103fc0 	call	20103fc <alt_avalon_spi_command>
    alt_avalon_spi_command(p->spi_base, 0, 0, 0, sizeof(data8), (alt_u8*)&data8, ALT_AVALON_SPI_COMMAND_TOGGLE_SS_N);
 2009b44:	e0bfff17 	ldw	r2,-4(fp)
 2009b48:	10c00017 	ldw	r3,0(r2)
 2009b4c:	00800044 	movi	r2,1
 2009b50:	d8800015 	stw	r2,0(sp)
 2009b54:	e0bffe84 	addi	r2,fp,-6
 2009b58:	d8800115 	stw	r2,4(sp)
 2009b5c:	00800084 	movi	r2,2
 2009b60:	d8800215 	stw	r2,8(sp)
 2009b64:	1809883a 	mov	r4,r3
 2009b68:	000b883a 	mov	r5,zero
 2009b6c:	000d883a 	mov	r6,zero
 2009b70:	000f883a 	mov	r7,zero
 2009b74:	20103fc0 	call	20103fc <alt_avalon_spi_command>
}
 2009b78:	e037883a 	mov	sp,fp
 2009b7c:	dfc00117 	ldw	ra,4(sp)
 2009b80:	df000017 	ldw	fp,0(sp)
 2009b84:	dec00204 	addi	sp,sp,8
 2009b88:	f800283a 	ret

02009b8c <touch_clear_input>:

void touch_clear_input(TERASIC_TOUCH_PANEL *p){
 2009b8c:	defffd04 	addi	sp,sp,-12
 2009b90:	dfc00215 	stw	ra,8(sp)
 2009b94:	df000115 	stw	fp,4(sp)
 2009b98:	df000104 	addi	fp,sp,4
 2009b9c:	e13fff15 	stw	r4,-4(fp)
    touch_enable_penirq(p);
 2009ba0:	e13fff17 	ldw	r4,-4(fp)
 2009ba4:	2009a2c0 	call	2009a2c <touch_enable_penirq>
}
 2009ba8:	e037883a 	mov	sp,fp
 2009bac:	dfc00117 	ldw	ra,4(sp)
 2009bb0:	df000017 	ldw	fp,0(sp)
 2009bb4:	dec00204 	addi	sp,sp,8
 2009bb8:	f800283a 	ret

02009bbc <touch_get_xy>:

// get x/y by SPI command
void touch_get_xy(TERASIC_TOUCH_PANEL *p){
 2009bbc:	defff604 	addi	sp,sp,-40
 2009bc0:	dfc00915 	stw	ra,36(sp)
 2009bc4:	df000815 	stw	fp,32(sp)
 2009bc8:	df000804 	addi	fp,sp,32
 2009bcc:	e13fff15 	stw	r4,-4(fp)
    alt_u16 x, y;
    int result;
    const alt_u8 CommandGetX = 0x92;
 2009bd0:	00bfe484 	movi	r2,-110
 2009bd4:	e0bffe05 	stb	r2,-8(fp)
    const alt_u8 CommandGetY = 0xD2;
 2009bd8:	00bff484 	movi	r2,-46
 2009bdc:	e0bffe45 	stb	r2,-7(fp)
    
       
    //DEBUG_OUT(("[TOUCH] get x/y\n"));

    // x
    result = alt_avalon_spi_command(p->spi_base, 0, sizeof(CommandGetX), &CommandGetX, 0, 0, ALT_AVALON_SPI_COMMAND_MERGE);
 2009be0:	e0bfff17 	ldw	r2,-4(fp)
 2009be4:	11000017 	ldw	r4,0(r2)
 2009be8:	e0fffe04 	addi	r3,fp,-8
 2009bec:	d8000015 	stw	zero,0(sp)
 2009bf0:	d8000115 	stw	zero,4(sp)
 2009bf4:	00800044 	movi	r2,1
 2009bf8:	d8800215 	stw	r2,8(sp)
 2009bfc:	000b883a 	mov	r5,zero
 2009c00:	01800044 	movi	r6,1
 2009c04:	180f883a 	mov	r7,r3
 2009c08:	20103fc0 	call	20103fc <alt_avalon_spi_command>
 2009c0c:	e0bffb15 	stw	r2,-20(fp)
    result = alt_avalon_spi_command(p->spi_base, 0, 0, 0, sizeof(high_byte), (alt_u8*)&high_byte, ALT_AVALON_SPI_COMMAND_MERGE);
 2009c10:	e0bfff17 	ldw	r2,-4(fp)
 2009c14:	10c00017 	ldw	r3,0(r2)
 2009c18:	00800044 	movi	r2,1
 2009c1c:	d8800015 	stw	r2,0(sp)
 2009c20:	e0bffe84 	addi	r2,fp,-6
 2009c24:	d8800115 	stw	r2,4(sp)
 2009c28:	00800044 	movi	r2,1
 2009c2c:	d8800215 	stw	r2,8(sp)
 2009c30:	1809883a 	mov	r4,r3
 2009c34:	000b883a 	mov	r5,zero
 2009c38:	000d883a 	mov	r6,zero
 2009c3c:	000f883a 	mov	r7,zero
 2009c40:	20103fc0 	call	20103fc <alt_avalon_spi_command>
 2009c44:	e0bffb15 	stw	r2,-20(fp)
    if (result != sizeof(high_byte)){
 2009c48:	e0bffb17 	ldw	r2,-20(fp)
 2009c4c:	10800060 	cmpeqi	r2,r2,1
 2009c50:	1000011e 	bne	r2,zero,2009c58 <touch_get_xy+0x9c>
        //DEBUG_OUT(("[TOUCH] failed to get x\n"));
        return;
 2009c54:	00009a06 	br	2009ec0 <touch_get_xy+0x304>
    }          
    result = alt_avalon_spi_command(p->spi_base, 0, 0, 0, sizeof(low_byte), (alt_u8*)&low_byte, ALT_AVALON_SPI_COMMAND_TOGGLE_SS_N);
 2009c58:	e0bfff17 	ldw	r2,-4(fp)
 2009c5c:	10c00017 	ldw	r3,0(r2)
 2009c60:	00800044 	movi	r2,1
 2009c64:	d8800015 	stw	r2,0(sp)
 2009c68:	e0bffec4 	addi	r2,fp,-5
 2009c6c:	d8800115 	stw	r2,4(sp)
 2009c70:	00800084 	movi	r2,2
 2009c74:	d8800215 	stw	r2,8(sp)
 2009c78:	1809883a 	mov	r4,r3
 2009c7c:	000b883a 	mov	r5,zero
 2009c80:	000d883a 	mov	r6,zero
 2009c84:	000f883a 	mov	r7,zero
 2009c88:	20103fc0 	call	20103fc <alt_avalon_spi_command>
 2009c8c:	e0bffb15 	stw	r2,-20(fp)
    if (result != sizeof(low_byte)){
 2009c90:	e0bffb17 	ldw	r2,-20(fp)
 2009c94:	10800060 	cmpeqi	r2,r2,1
 2009c98:	1000011e 	bne	r2,zero,2009ca0 <touch_get_xy+0xe4>
        //DEBUG_OUT(("[TOUCH] failed to get x\n"));
        return;
 2009c9c:	00008806 	br	2009ec0 <touch_get_xy+0x304>
    }  
    ResponseX = (high_byte << 8) | low_byte;        
 2009ca0:	e0bffe83 	ldbu	r2,-6(fp)
 2009ca4:	10803fcc 	andi	r2,r2,255
 2009ca8:	1004923a 	slli	r2,r2,8
 2009cac:	1007883a 	mov	r3,r2
 2009cb0:	e0bffec3 	ldbu	r2,-5(fp)
 2009cb4:	10803fcc 	andi	r2,r2,255
 2009cb8:	1884b03a 	or	r2,r3,r2
 2009cbc:	e0bffc0d 	sth	r2,-16(fp)
    
    // y
    result = alt_avalon_spi_command(p->spi_base, 0, sizeof(CommandGetY), &CommandGetY, 0, 0, ALT_AVALON_SPI_COMMAND_MERGE);
 2009cc0:	e0bfff17 	ldw	r2,-4(fp)
 2009cc4:	11000017 	ldw	r4,0(r2)
 2009cc8:	e0fffe44 	addi	r3,fp,-7
 2009ccc:	d8000015 	stw	zero,0(sp)
 2009cd0:	d8000115 	stw	zero,4(sp)
 2009cd4:	00800044 	movi	r2,1
 2009cd8:	d8800215 	stw	r2,8(sp)
 2009cdc:	000b883a 	mov	r5,zero
 2009ce0:	01800044 	movi	r6,1
 2009ce4:	180f883a 	mov	r7,r3
 2009ce8:	20103fc0 	call	20103fc <alt_avalon_spi_command>
 2009cec:	e0bffb15 	stw	r2,-20(fp)
    result = alt_avalon_spi_command(p->spi_base, 0, 0, 0, sizeof(high_byte), (alt_u8*)&high_byte, ALT_AVALON_SPI_COMMAND_MERGE);
 2009cf0:	e0bfff17 	ldw	r2,-4(fp)
 2009cf4:	10c00017 	ldw	r3,0(r2)
 2009cf8:	00800044 	movi	r2,1
 2009cfc:	d8800015 	stw	r2,0(sp)
 2009d00:	e0bffe84 	addi	r2,fp,-6
 2009d04:	d8800115 	stw	r2,4(sp)
 2009d08:	00800044 	movi	r2,1
 2009d0c:	d8800215 	stw	r2,8(sp)
 2009d10:	1809883a 	mov	r4,r3
 2009d14:	000b883a 	mov	r5,zero
 2009d18:	000d883a 	mov	r6,zero
 2009d1c:	000f883a 	mov	r7,zero
 2009d20:	20103fc0 	call	20103fc <alt_avalon_spi_command>
 2009d24:	e0bffb15 	stw	r2,-20(fp)
    if (result != sizeof(high_byte)){
 2009d28:	e0bffb17 	ldw	r2,-20(fp)
 2009d2c:	10800060 	cmpeqi	r2,r2,1
 2009d30:	1000011e 	bne	r2,zero,2009d38 <touch_get_xy+0x17c>
       // DEBUG_OUT(("[TOUCH] failed to get x\n"));
        return;
 2009d34:	00006206 	br	2009ec0 <touch_get_xy+0x304>
    }          
    result = alt_avalon_spi_command(p->spi_base, 0, 0, 0, sizeof(low_byte), (alt_u8*)&low_byte, ALT_AVALON_SPI_COMMAND_TOGGLE_SS_N);
 2009d38:	e0bfff17 	ldw	r2,-4(fp)
 2009d3c:	10c00017 	ldw	r3,0(r2)
 2009d40:	00800044 	movi	r2,1
 2009d44:	d8800015 	stw	r2,0(sp)
 2009d48:	e0bffec4 	addi	r2,fp,-5
 2009d4c:	d8800115 	stw	r2,4(sp)
 2009d50:	00800084 	movi	r2,2
 2009d54:	d8800215 	stw	r2,8(sp)
 2009d58:	1809883a 	mov	r4,r3
 2009d5c:	000b883a 	mov	r5,zero
 2009d60:	000d883a 	mov	r6,zero
 2009d64:	000f883a 	mov	r7,zero
 2009d68:	20103fc0 	call	20103fc <alt_avalon_spi_command>
 2009d6c:	e0bffb15 	stw	r2,-20(fp)
    if (result != sizeof(low_byte)){
 2009d70:	e0bffb17 	ldw	r2,-20(fp)
 2009d74:	10800060 	cmpeqi	r2,r2,1
 2009d78:	1000011e 	bne	r2,zero,2009d80 <touch_get_xy+0x1c4>
        //DEBUG_OUT(("[TOUCH] failed to get x\n"));
        return;
 2009d7c:	00005006 	br	2009ec0 <touch_get_xy+0x304>
    }  
    ResponseY = (high_byte << 8) | low_byte;        
 2009d80:	e0bffe83 	ldbu	r2,-6(fp)
 2009d84:	10803fcc 	andi	r2,r2,255
 2009d88:	1004923a 	slli	r2,r2,8
 2009d8c:	1007883a 	mov	r3,r2
 2009d90:	e0bffec3 	ldbu	r2,-5(fp)
 2009d94:	10803fcc 	andi	r2,r2,255
 2009d98:	1884b03a 	or	r2,r3,r2
 2009d9c:	e0bffc8d 	sth	r2,-14(fp)

    if (!touch_is_pen_pressed(p))
 2009da0:	e13fff17 	ldw	r4,-4(fp)
 2009da4:	20099ec0 	call	20099ec <touch_is_pen_pressed>
 2009da8:	1000011e 	bne	r2,zero,2009db0 <touch_get_xy+0x1f4>
        return; // do not use this data    
 2009dac:	00004406 	br	2009ec0 <touch_get_xy+0x304>
        
    x = (ResponseX >> 3 ) & 0xFFF;  // 12 bits    
 2009db0:	e0bffc0b 	ldhu	r2,-16(fp)
 2009db4:	1004d0fa 	srli	r2,r2,3
 2009db8:	1083ffcc 	andi	r2,r2,4095
 2009dbc:	e0bffd0d 	sth	r2,-12(fp)
    y = (ResponseY >> 3 ) & 0xFFF;  // 12 bits
 2009dc0:	e0bffc8b 	ldhu	r2,-14(fp)
 2009dc4:	1004d0fa 	srli	r2,r2,3
 2009dc8:	1083ffcc 	andi	r2,r2,4095
 2009dcc:	e0bffd8d 	sth	r2,-10(fp)
    
    
    // check whether the fifo is full!
    if (((p->fifo_front+1)%FIFO_SIZE) == p->fifo_rear){
 2009dd0:	e0bfff17 	ldw	r2,-4(fp)
 2009dd4:	1080040b 	ldhu	r2,16(r2)
 2009dd8:	10bfffcc 	andi	r2,r2,65535
 2009ddc:	10800044 	addi	r2,r2,1
 2009de0:	1009883a 	mov	r4,r2
 2009de4:	01400284 	movi	r5,10
 2009de8:	200a5240 	call	200a524 <__modsi3>
 2009dec:	1007883a 	mov	r3,r2
 2009df0:	e0bfff17 	ldw	r2,-4(fp)
 2009df4:	1080048b 	ldhu	r2,18(r2)
 2009df8:	10bfffcc 	andi	r2,r2,65535
 2009dfc:	18800f1e 	bne	r3,r2,2009e3c <touch_get_xy+0x280>
        // full, pop an old one
        p->fifo_rear++;
 2009e00:	e0bfff17 	ldw	r2,-4(fp)
 2009e04:	1080048b 	ldhu	r2,18(r2)
 2009e08:	10800044 	addi	r2,r2,1
 2009e0c:	1007883a 	mov	r3,r2
 2009e10:	e0bfff17 	ldw	r2,-4(fp)
 2009e14:	10c0048d 	sth	r3,18(r2)
        p->fifo_rear %= FIFO_SIZE;        
 2009e18:	e0bfff17 	ldw	r2,-4(fp)
 2009e1c:	1080048b 	ldhu	r2,18(r2)
 2009e20:	10bfffcc 	andi	r2,r2,65535
 2009e24:	1009883a 	mov	r4,r2
 2009e28:	01400284 	movi	r5,10
 2009e2c:	200a5880 	call	200a588 <__umodsi3>
 2009e30:	1007883a 	mov	r3,r2
 2009e34:	e0bfff17 	ldw	r2,-4(fp)
 2009e38:	10c0048d 	sth	r3,18(r2)
        
    }
    //DEBUG_OUT("[ ADC] x=%d, y=%d\n", x,y);

    // push now
    p->fifo_x[p->fifo_front] = x;
 2009e3c:	e0bfff17 	ldw	r2,-4(fp)
 2009e40:	1080040b 	ldhu	r2,16(r2)
 2009e44:	10bfffcc 	andi	r2,r2,65535
 2009e48:	e0ffff17 	ldw	r3,-4(fp)
 2009e4c:	10800284 	addi	r2,r2,10
 2009e50:	1085883a 	add	r2,r2,r2
 2009e54:	1885883a 	add	r2,r3,r2
 2009e58:	e0fffd0b 	ldhu	r3,-12(fp)
 2009e5c:	10c0000d 	sth	r3,0(r2)
    p->fifo_y[p->fifo_front] = y;    
 2009e60:	e0bfff17 	ldw	r2,-4(fp)
 2009e64:	1080040b 	ldhu	r2,16(r2)
 2009e68:	10bfffcc 	andi	r2,r2,65535
 2009e6c:	e0ffff17 	ldw	r3,-4(fp)
 2009e70:	10800504 	addi	r2,r2,20
 2009e74:	1085883a 	add	r2,r2,r2
 2009e78:	1885883a 	add	r2,r3,r2
 2009e7c:	e0fffd8b 	ldhu	r3,-10(fp)
 2009e80:	10c0000d 	sth	r3,0(r2)
    p->fifo_front++;
 2009e84:	e0bfff17 	ldw	r2,-4(fp)
 2009e88:	1080040b 	ldhu	r2,16(r2)
 2009e8c:	10800044 	addi	r2,r2,1
 2009e90:	1007883a 	mov	r3,r2
 2009e94:	e0bfff17 	ldw	r2,-4(fp)
 2009e98:	10c0040d 	sth	r3,16(r2)
    p->fifo_front %= FIFO_SIZE;   
 2009e9c:	e0bfff17 	ldw	r2,-4(fp)
 2009ea0:	1080040b 	ldhu	r2,16(r2)
 2009ea4:	10bfffcc 	andi	r2,r2,65535
 2009ea8:	1009883a 	mov	r4,r2
 2009eac:	01400284 	movi	r5,10
 2009eb0:	200a5880 	call	200a588 <__umodsi3>
 2009eb4:	1007883a 	mov	r3,r2
 2009eb8:	e0bfff17 	ldw	r2,-4(fp)
 2009ebc:	10c0040d 	sth	r3,16(r2)
    
}
 2009ec0:	e037883a 	mov	sp,fp
 2009ec4:	dfc00117 	ldw	ra,4(sp)
 2009ec8:	df000017 	ldw	fp,0(sp)
 2009ecc:	dec00204 	addi	sp,sp,8
 2009ed0:	f800283a 	ret

02009ed4 <touch_alarm_callback>:

// polling x/y when penirq_n is low
alt_u32 touch_alarm_callback(void *context){
 2009ed4:	defffc04 	addi	sp,sp,-16
 2009ed8:	dfc00315 	stw	ra,12(sp)
 2009edc:	df000215 	stw	fp,8(sp)
 2009ee0:	df000204 	addi	fp,sp,8
 2009ee4:	e13fff15 	stw	r4,-4(fp)
    TERASIC_TOUCH_PANEL *p = (TERASIC_TOUCH_PANEL *)context;
 2009ee8:	e0bfff17 	ldw	r2,-4(fp)
 2009eec:	e0bffe15 	stw	r2,-8(fp)
    
    if (touch_is_pen_pressed(p)){//Touch.pen_pressed){
 2009ef0:	e13ffe17 	ldw	r4,-8(fp)
 2009ef4:	20099ec0 	call	20099ec <touch_is_pen_pressed>
 2009ef8:	10000926 	beq	r2,zero,2009f20 <touch_alarm_callback+0x4c>
 * alt_nticks() returns the elapsed number of system clock ticks since reset.
 */

static ALT_INLINE alt_u32 ALT_ALWAYS_INLINE alt_nticks (void)
{
  return _alt_nticks;
 2009efc:	008080f4 	movhi	r2,515
 2009f00:	10896f04 	addi	r2,r2,9660
 2009f04:	10800017 	ldw	r2,0(r2)
        if (alt_nticks() > p->next_active_time)
 2009f08:	e0fffe17 	ldw	r3,-8(fp)
 2009f0c:	18c01717 	ldw	r3,92(r3)
 2009f10:	1880072e 	bgeu	r3,r2,2009f30 <touch_alarm_callback+0x5c>
            touch_get_xy(p);
 2009f14:	e13ffe17 	ldw	r4,-8(fp)
 2009f18:	2009bbc0 	call	2009bbc <touch_get_xy>
 2009f1c:	00000406 	br	2009f30 <touch_alarm_callback+0x5c>
      //  p->last_active_time = alt_nticks(); 
    }else{
       // touch_empty_fifo(p);
        //if ((alt_nticks() - Touch.last_active_time) > alt_ticks_per_second()/10){
         touch_enable_penirq(p);
 2009f20:	e13ffe17 	ldw	r4,-8(fp)
 2009f24:	2009a2c0 	call	2009a2c <touch_enable_penirq>
         touch_clear_input(p);
 2009f28:	e13ffe17 	ldw	r4,-8(fp)
 2009f2c:	2009b8c0 	call	2009b8c <touch_clear_input>
          //  p->last_active_time = alt_nticks(); 
        //}            
    }        
    return p->alarm_dur;
 2009f30:	e0bffe17 	ldw	r2,-8(fp)
 2009f34:	10801617 	ldw	r2,88(r2)
}
 2009f38:	e037883a 	mov	sp,fp
 2009f3c:	dfc00117 	ldw	ra,4(sp)
 2009f40:	df000017 	ldw	fp,0(sp)
 2009f44:	dec00204 	addi	sp,sp,8
 2009f48:	f800283a 	ret

02009f4c <touch_xy_transform>:

void touch_xy_transform(int *x, int *y){
 2009f4c:	defff904 	addi	sp,sp,-28
 2009f50:	dfc00615 	stw	ra,24(sp)
 2009f54:	df000515 	stw	fp,20(sp)
 2009f58:	df000504 	addi	fp,sp,20
 2009f5c:	e13ffe15 	stw	r4,-8(fp)
 2009f60:	e17fff15 	stw	r5,-4(fp)
    int xx, yy;
    const int y_ignore = 200;
 2009f64:	00803204 	movi	r2,200
 2009f68:	e0bffc15 	stw	r2,-16(fp)
    xx = *y;
 2009f6c:	e0bfff17 	ldw	r2,-4(fp)
 2009f70:	10800017 	ldw	r2,0(r2)
 2009f74:	e0bffd15 	stw	r2,-12(fp)
    yy = *x;
 2009f78:	e0bffe17 	ldw	r2,-8(fp)
 2009f7c:	10800017 	ldw	r2,0(r2)
 2009f80:	e0bffb15 	stw	r2,-20(fp)

    // scale & swap
   // xx = 4096 -1 - xx;
    xx = xx * X_RES / 4096;
 2009f84:	e0bffd17 	ldw	r2,-12(fp)
 2009f88:	10803c24 	muli	r2,r2,240
 2009f8c:	1000010e 	bge	r2,zero,2009f94 <touch_xy_transform+0x48>
 2009f90:	1083ffc4 	addi	r2,r2,4095
 2009f94:	1005d33a 	srai	r2,r2,12
 2009f98:	e0bffd15 	stw	r2,-12(fp)

   // yy = 4096 -1 - yy;

    // special calibrate for LT24
    if (yy > (4096-y_ignore))
 2009f9c:	00c40004 	movi	r3,4096
 2009fa0:	e0bffc17 	ldw	r2,-16(fp)
 2009fa4:	1887c83a 	sub	r3,r3,r2
 2009fa8:	e0bffb17 	ldw	r2,-20(fp)
 2009fac:	1880040e 	bge	r3,r2,2009fc0 <touch_xy_transform+0x74>
    	yy = 4096-y_ignore;
 2009fb0:	00c40004 	movi	r3,4096
 2009fb4:	e0bffc17 	ldw	r2,-16(fp)
 2009fb8:	1885c83a 	sub	r2,r3,r2
 2009fbc:	e0bffb15 	stw	r2,-20(fp)
    yy = yy * 4095/ (4096-y_ignore);
 2009fc0:	e0bffb17 	ldw	r2,-20(fp)
 2009fc4:	1103ffe4 	muli	r4,r2,4095
 2009fc8:	00c40004 	movi	r3,4096
 2009fcc:	e0bffc17 	ldw	r2,-16(fp)
 2009fd0:	1885c83a 	sub	r2,r3,r2
 2009fd4:	100b883a 	mov	r5,r2
 2009fd8:	200a4d00 	call	200a4d0 <__divsi3>
 2009fdc:	e0bffb15 	stw	r2,-20(fp)
    
    yy = yy * Y_RES / 4096;
 2009fe0:	e0bffb17 	ldw	r2,-20(fp)
 2009fe4:	10805024 	muli	r2,r2,320
 2009fe8:	1000010e 	bge	r2,zero,2009ff0 <touch_xy_transform+0xa4>
 2009fec:	1083ffc4 	addi	r2,r2,4095
 2009ff0:	1005d33a 	srai	r2,r2,12
 2009ff4:	e0bffb15 	stw	r2,-20(fp)

    // swap
    *x = xx;
 2009ff8:	e0bffe17 	ldw	r2,-8(fp)
 2009ffc:	e0fffd17 	ldw	r3,-12(fp)
 200a000:	10c00015 	stw	r3,0(r2)
    *y = yy;    
 200a004:	e0bfff17 	ldw	r2,-4(fp)
 200a008:	e0fffb17 	ldw	r3,-20(fp)
 200a00c:	10c00015 	stw	r3,0(r2)
    
}
 200a010:	e037883a 	mov	sp,fp
 200a014:	dfc00117 	ldw	ra,4(sp)
 200a018:	df000017 	ldw	fp,0(sp)
 200a01c:	dec00204 	addi	sp,sp,8
 200a020:	f800283a 	ret

0200a024 <sqrt>:
 200a024:	defff104 	addi	sp,sp,-60
 200a028:	dd000d15 	stw	r20,52(sp)
 200a02c:	050080f4 	movhi	r20,515
 200a030:	dcc00c15 	stw	r19,48(sp)
 200a034:	dc800b15 	stw	r18,44(sp)
 200a038:	dc400a15 	stw	r17,40(sp)
 200a03c:	dc000915 	stw	r16,36(sp)
 200a040:	dfc00e15 	stw	ra,56(sp)
 200a044:	a53c6b04 	addi	r20,r20,-3668
 200a048:	2027883a 	mov	r19,r4
 200a04c:	2825883a 	mov	r18,r5
 200a050:	200a1540 	call	200a154 <__ieee754_sqrt>
 200a054:	1821883a 	mov	r16,r3
 200a058:	a0c00017 	ldw	r3,0(r20)
 200a05c:	1023883a 	mov	r17,r2
 200a060:	00bfffc4 	movi	r2,-1
 200a064:	18800a26 	beq	r3,r2,200a090 <sqrt+0x6c>
 200a068:	9809883a 	mov	r4,r19
 200a06c:	900b883a 	mov	r5,r18
 200a070:	200a3e80 	call	200a3e8 <__fpclassifyd>
 200a074:	10000626 	beq	r2,zero,200a090 <sqrt+0x6c>
 200a078:	9809883a 	mov	r4,r19
 200a07c:	900b883a 	mov	r5,r18
 200a080:	000d883a 	mov	r6,zero
 200a084:	000f883a 	mov	r7,zero
 200a088:	200b6f80 	call	200b6f8 <__ledf2>
 200a08c:	10000a16 	blt	r2,zero,200a0b8 <sqrt+0x94>
 200a090:	8805883a 	mov	r2,r17
 200a094:	8007883a 	mov	r3,r16
 200a098:	dfc00e17 	ldw	ra,56(sp)
 200a09c:	dd000d17 	ldw	r20,52(sp)
 200a0a0:	dcc00c17 	ldw	r19,48(sp)
 200a0a4:	dc800b17 	ldw	r18,44(sp)
 200a0a8:	dc400a17 	ldw	r17,40(sp)
 200a0ac:	dc000917 	ldw	r16,36(sp)
 200a0b0:	dec00f04 	addi	sp,sp,60
 200a0b4:	f800283a 	ret
 200a0b8:	00800044 	movi	r2,1
 200a0bc:	d8800015 	stw	r2,0(sp)
 200a0c0:	a4000017 	ldw	r16,0(r20)
 200a0c4:	008080f4 	movhi	r2,515
 200a0c8:	10af3c04 	addi	r2,r2,-17168
 200a0cc:	d8800115 	stw	r2,4(sp)
 200a0d0:	d8000815 	stw	zero,32(sp)
 200a0d4:	dcc00415 	stw	r19,16(sp)
 200a0d8:	dc800515 	stw	r18,20(sp)
 200a0dc:	dcc00215 	stw	r19,8(sp)
 200a0e0:	dc800315 	stw	r18,12(sp)
 200a0e4:	80000a1e 	bne	r16,zero,200a110 <sqrt+0xec>
 200a0e8:	d8000615 	stw	zero,24(sp)
 200a0ec:	d8000715 	stw	zero,28(sp)
 200a0f0:	d809883a 	mov	r4,sp
 200a0f4:	200a45c0 	call	200a45c <matherr>
 200a0f8:	10000e26 	beq	r2,zero,200a134 <sqrt+0x110>
 200a0fc:	d8800817 	ldw	r2,32(sp)
 200a100:	1000101e 	bne	r2,zero,200a144 <sqrt+0x120>
 200a104:	d8800617 	ldw	r2,24(sp)
 200a108:	d8c00717 	ldw	r3,28(sp)
 200a10c:	003fe206 	br	200a098 <__reset+0xfe002898>
 200a110:	0009883a 	mov	r4,zero
 200a114:	000b883a 	mov	r5,zero
 200a118:	000d883a 	mov	r6,zero
 200a11c:	000f883a 	mov	r7,zero
 200a120:	200ae2c0 	call	200ae2c <__divdf3>
 200a124:	d8800615 	stw	r2,24(sp)
 200a128:	d8c00715 	stw	r3,28(sp)
 200a12c:	00800084 	movi	r2,2
 200a130:	80bfef1e 	bne	r16,r2,200a0f0 <__reset+0xfe0028f0>
 200a134:	200c9880 	call	200c988 <__errno>
 200a138:	00c00844 	movi	r3,33
 200a13c:	10c00015 	stw	r3,0(r2)
 200a140:	003fee06 	br	200a0fc <__reset+0xfe0028fc>
 200a144:	200c9880 	call	200c988 <__errno>
 200a148:	d8c00817 	ldw	r3,32(sp)
 200a14c:	10c00015 	stw	r3,0(r2)
 200a150:	003fec06 	br	200a104 <__reset+0xfe002904>

0200a154 <__ieee754_sqrt>:
 200a154:	defffd04 	addi	sp,sp,-12
 200a158:	dc400115 	stw	r17,4(sp)
 200a15c:	dc000015 	stw	r16,0(sp)
 200a160:	dfc00215 	stw	ra,8(sp)
 200a164:	28dffc2c 	andhi	r3,r5,32752
 200a168:	009ffc34 	movhi	r2,32752
 200a16c:	2821883a 	mov	r16,r5
 200a170:	2023883a 	mov	r17,r4
 200a174:	18807c26 	beq	r3,r2,200a368 <__ieee754_sqrt+0x214>
 200a178:	2011883a 	mov	r8,r4
 200a17c:	01405f0e 	bge	zero,r5,200a2fc <__ieee754_sqrt+0x1a8>
 200a180:	2815d53a 	srai	r10,r5,20
 200a184:	50006a26 	beq	r10,zero,200a330 <__ieee754_sqrt+0x1dc>
 200a188:	00800434 	movhi	r2,16
 200a18c:	52bf0044 	addi	r10,r10,-1023
 200a190:	10bfffc4 	addi	r2,r2,-1
 200a194:	8084703a 	and	r2,r16,r2
 200a198:	50c0004c 	andi	r3,r10,1
 200a19c:	10800434 	orhi	r2,r2,16
 200a1a0:	18004f1e 	bne	r3,zero,200a2e0 <__ieee754_sqrt+0x18c>
 200a1a4:	4006d7fa 	srli	r3,r8,31
 200a1a8:	5015d07a 	srai	r10,r10,1
 200a1ac:	1085883a 	add	r2,r2,r2
 200a1b0:	10c5883a 	add	r2,r2,r3
 200a1b4:	01800584 	movi	r6,22
 200a1b8:	4207883a 	add	r3,r8,r8
 200a1bc:	0013883a 	mov	r9,zero
 200a1c0:	000b883a 	mov	r5,zero
 200a1c4:	01000834 	movhi	r4,32
 200a1c8:	290f883a 	add	r7,r5,r4
 200a1cc:	1810d7fa 	srli	r8,r3,31
 200a1d0:	31bfffc4 	addi	r6,r6,-1
 200a1d4:	11c00316 	blt	r2,r7,200a1e4 <__ieee754_sqrt+0x90>
 200a1d8:	11c5c83a 	sub	r2,r2,r7
 200a1dc:	390b883a 	add	r5,r7,r4
 200a1e0:	4913883a 	add	r9,r9,r4
 200a1e4:	1085883a 	add	r2,r2,r2
 200a1e8:	1205883a 	add	r2,r2,r8
 200a1ec:	18c7883a 	add	r3,r3,r3
 200a1f0:	2008d07a 	srli	r4,r4,1
 200a1f4:	303ff41e 	bne	r6,zero,200a1c8 <__reset+0xfe0029c8>
 200a1f8:	01200034 	movhi	r4,32768
 200a1fc:	01c00804 	movi	r7,32
 200a200:	0011883a 	mov	r8,zero
 200a204:	0017883a 	mov	r11,zero
 200a208:	201b883a 	mov	r13,r4
 200a20c:	00000806 	br	200a230 <__ieee754_sqrt+0xdc>
 200a210:	11401726 	beq	r2,r5,200a270 <__ieee754_sqrt+0x11c>
 200a214:	180cd7fa 	srli	r6,r3,31
 200a218:	1085883a 	add	r2,r2,r2
 200a21c:	39ffffc4 	addi	r7,r7,-1
 200a220:	1185883a 	add	r2,r2,r6
 200a224:	18c7883a 	add	r3,r3,r3
 200a228:	2008d07a 	srli	r4,r4,1
 200a22c:	38001726 	beq	r7,zero,200a28c <__ieee754_sqrt+0x138>
 200a230:	590d883a 	add	r6,r11,r4
 200a234:	28bff60e 	bge	r5,r2,200a210 <__reset+0xfe002a10>
 200a238:	3320002c 	andhi	r12,r6,32768
 200a23c:	3117883a 	add	r11,r6,r4
 200a240:	63400826 	beq	r12,r13,200a264 <__ieee754_sqrt+0x110>
 200a244:	2819883a 	mov	r12,r5
 200a248:	1145c83a 	sub	r2,r2,r5
 200a24c:	1980012e 	bgeu	r3,r6,200a254 <__ieee754_sqrt+0x100>
 200a250:	10bfffc4 	addi	r2,r2,-1
 200a254:	1987c83a 	sub	r3,r3,r6
 200a258:	4111883a 	add	r8,r8,r4
 200a25c:	600b883a 	mov	r5,r12
 200a260:	003fec06 	br	200a214 <__reset+0xfe002a14>
 200a264:	583ff716 	blt	r11,zero,200a244 <__reset+0xfe002a44>
 200a268:	2b000044 	addi	r12,r5,1
 200a26c:	003ff606 	br	200a248 <__reset+0xfe002a48>
 200a270:	19801936 	bltu	r3,r6,200a2d8 <__ieee754_sqrt+0x184>
 200a274:	3320002c 	andhi	r12,r6,32768
 200a278:	3117883a 	add	r11,r6,r4
 200a27c:	63404626 	beq	r12,r13,200a398 <__ieee754_sqrt+0x244>
 200a280:	1019883a 	mov	r12,r2
 200a284:	0005883a 	mov	r2,zero
 200a288:	003ff206 	br	200a254 <__reset+0xfe002a54>
 200a28c:	10c4b03a 	or	r2,r2,r3
 200a290:	10000426 	beq	r2,zero,200a2a4 <__ieee754_sqrt+0x150>
 200a294:	00bfffc4 	movi	r2,-1
 200a298:	40804326 	beq	r8,r2,200a3a8 <__ieee754_sqrt+0x254>
 200a29c:	4080004c 	andi	r2,r8,1
 200a2a0:	1211883a 	add	r8,r2,r8
 200a2a4:	4004d07a 	srli	r2,r8,1
 200a2a8:	4807d07a 	srai	r3,r9,1
 200a2ac:	010ff834 	movhi	r4,16352
 200a2b0:	4a40004c 	andi	r9,r9,1
 200a2b4:	1909883a 	add	r4,r3,r4
 200a2b8:	48000e1e 	bne	r9,zero,200a2f4 <__ieee754_sqrt+0x1a0>
 200a2bc:	5006953a 	slli	r3,r10,20
 200a2c0:	1907883a 	add	r3,r3,r4
 200a2c4:	dfc00217 	ldw	ra,8(sp)
 200a2c8:	dc400117 	ldw	r17,4(sp)
 200a2cc:	dc000017 	ldw	r16,0(sp)
 200a2d0:	dec00304 	addi	sp,sp,12
 200a2d4:	f800283a 	ret
 200a2d8:	100b883a 	mov	r5,r2
 200a2dc:	003fcd06 	br	200a214 <__reset+0xfe002a14>
 200a2e0:	4006d7fa 	srli	r3,r8,31
 200a2e4:	1085883a 	add	r2,r2,r2
 200a2e8:	4211883a 	add	r8,r8,r8
 200a2ec:	10c5883a 	add	r2,r2,r3
 200a2f0:	003fac06 	br	200a1a4 <__reset+0xfe0029a4>
 200a2f4:	10a00034 	orhi	r2,r2,32768
 200a2f8:	003ff006 	br	200a2bc <__reset+0xfe002abc>
 200a2fc:	00a00034 	movhi	r2,32768
 200a300:	10bfffc4 	addi	r2,r2,-1
 200a304:	2884703a 	and	r2,r5,r2
 200a308:	1104b03a 	or	r2,r2,r4
 200a30c:	10001f26 	beq	r2,zero,200a38c <__ieee754_sqrt+0x238>
 200a310:	28002c1e 	bne	r5,zero,200a3c4 <__ieee754_sqrt+0x270>
 200a314:	0015883a 	mov	r10,zero
 200a318:	4020d2fa 	srli	r16,r8,11
 200a31c:	52bffac4 	addi	r10,r10,-21
 200a320:	4010957a 	slli	r8,r8,21
 200a324:	803ffc26 	beq	r16,zero,200a318 <__reset+0xfe002b18>
 200a328:	8080042c 	andhi	r2,r16,16
 200a32c:	1000211e 	bne	r2,zero,200a3b4 <__ieee754_sqrt+0x260>
 200a330:	0005883a 	mov	r2,zero
 200a334:	8421883a 	add	r16,r16,r16
 200a338:	80c0042c 	andhi	r3,r16,16
 200a33c:	10800044 	addi	r2,r2,1
 200a340:	183ffc26 	beq	r3,zero,200a334 <__reset+0xfe002b34>
 200a344:	01000044 	movi	r4,1
 200a348:	00c00804 	movi	r3,32
 200a34c:	2089c83a 	sub	r4,r4,r2
 200a350:	1887c83a 	sub	r3,r3,r2
 200a354:	40c6d83a 	srl	r3,r8,r3
 200a358:	5115883a 	add	r10,r10,r4
 200a35c:	4090983a 	sll	r8,r8,r2
 200a360:	80e0b03a 	or	r16,r16,r3
 200a364:	003f8806 	br	200a188 <__reset+0xfe002988>
 200a368:	200d883a 	mov	r6,r4
 200a36c:	280f883a 	mov	r7,r5
 200a370:	200b7d80 	call	200b7d8 <__muldf3>
 200a374:	1009883a 	mov	r4,r2
 200a378:	180b883a 	mov	r5,r3
 200a37c:	880d883a 	mov	r6,r17
 200a380:	800f883a 	mov	r7,r16
 200a384:	200a5900 	call	200a590 <__adddf3>
 200a388:	003fce06 	br	200a2c4 <__reset+0xfe002ac4>
 200a38c:	2005883a 	mov	r2,r4
 200a390:	2807883a 	mov	r3,r5
 200a394:	003fcb06 	br	200a2c4 <__reset+0xfe002ac4>
 200a398:	583fb30e 	bge	r11,zero,200a268 <__reset+0xfe002a68>
 200a39c:	0005883a 	mov	r2,zero
 200a3a0:	2819883a 	mov	r12,r5
 200a3a4:	003fab06 	br	200a254 <__reset+0xfe002a54>
 200a3a8:	4a400044 	addi	r9,r9,1
 200a3ac:	0005883a 	mov	r2,zero
 200a3b0:	003fbd06 	br	200a2a8 <__reset+0xfe002aa8>
 200a3b4:	00c00804 	movi	r3,32
 200a3b8:	01000044 	movi	r4,1
 200a3bc:	0005883a 	mov	r2,zero
 200a3c0:	003fe406 	br	200a354 <__reset+0xfe002b54>
 200a3c4:	200d883a 	mov	r6,r4
 200a3c8:	280f883a 	mov	r7,r5
 200a3cc:	200befc0 	call	200befc <__subdf3>
 200a3d0:	1009883a 	mov	r4,r2
 200a3d4:	180b883a 	mov	r5,r3
 200a3d8:	100d883a 	mov	r6,r2
 200a3dc:	180f883a 	mov	r7,r3
 200a3e0:	200ae2c0 	call	200ae2c <__divdf3>
 200a3e4:	003fb706 	br	200a2c4 <__reset+0xfe002ac4>

0200a3e8 <__fpclassifyd>:
 200a3e8:	00a00034 	movhi	r2,32768
 200a3ec:	10bfffc4 	addi	r2,r2,-1
 200a3f0:	2884703a 	and	r2,r5,r2
 200a3f4:	10000726 	beq	r2,zero,200a414 <__fpclassifyd+0x2c>
 200a3f8:	00fffc34 	movhi	r3,65520
 200a3fc:	019ff834 	movhi	r6,32736
 200a400:	28c7883a 	add	r3,r5,r3
 200a404:	31bfffc4 	addi	r6,r6,-1
 200a408:	30c00536 	bltu	r6,r3,200a420 <__fpclassifyd+0x38>
 200a40c:	00800104 	movi	r2,4
 200a410:	f800283a 	ret
 200a414:	2000021e 	bne	r4,zero,200a420 <__fpclassifyd+0x38>
 200a418:	00800084 	movi	r2,2
 200a41c:	f800283a 	ret
 200a420:	00dffc34 	movhi	r3,32752
 200a424:	019ff834 	movhi	r6,32736
 200a428:	28cb883a 	add	r5,r5,r3
 200a42c:	31bfffc4 	addi	r6,r6,-1
 200a430:	317ff62e 	bgeu	r6,r5,200a40c <__reset+0xfe002c0c>
 200a434:	01400434 	movhi	r5,16
 200a438:	297fffc4 	addi	r5,r5,-1
 200a43c:	28800236 	bltu	r5,r2,200a448 <__fpclassifyd+0x60>
 200a440:	008000c4 	movi	r2,3
 200a444:	f800283a 	ret
 200a448:	10c00226 	beq	r2,r3,200a454 <__fpclassifyd+0x6c>
 200a44c:	0005883a 	mov	r2,zero
 200a450:	f800283a 	ret
 200a454:	2005003a 	cmpeq	r2,r4,zero
 200a458:	f800283a 	ret

0200a45c <matherr>:
 200a45c:	0005883a 	mov	r2,zero
 200a460:	f800283a 	ret

0200a464 <udivmodsi4>:
 200a464:	2900182e 	bgeu	r5,r4,200a4c8 <udivmodsi4+0x64>
 200a468:	28001716 	blt	r5,zero,200a4c8 <udivmodsi4+0x64>
 200a46c:	00800804 	movi	r2,32
 200a470:	00c00044 	movi	r3,1
 200a474:	00000206 	br	200a480 <udivmodsi4+0x1c>
 200a478:	10001126 	beq	r2,zero,200a4c0 <udivmodsi4+0x5c>
 200a47c:	28000516 	blt	r5,zero,200a494 <udivmodsi4+0x30>
 200a480:	294b883a 	add	r5,r5,r5
 200a484:	10bfffc4 	addi	r2,r2,-1
 200a488:	18c7883a 	add	r3,r3,r3
 200a48c:	293ffa36 	bltu	r5,r4,200a478 <__reset+0xfe002c78>
 200a490:	18000b26 	beq	r3,zero,200a4c0 <udivmodsi4+0x5c>
 200a494:	0005883a 	mov	r2,zero
 200a498:	21400236 	bltu	r4,r5,200a4a4 <udivmodsi4+0x40>
 200a49c:	2149c83a 	sub	r4,r4,r5
 200a4a0:	10c4b03a 	or	r2,r2,r3
 200a4a4:	1806d07a 	srli	r3,r3,1
 200a4a8:	280ad07a 	srli	r5,r5,1
 200a4ac:	183ffa1e 	bne	r3,zero,200a498 <__reset+0xfe002c98>
 200a4b0:	3000011e 	bne	r6,zero,200a4b8 <udivmodsi4+0x54>
 200a4b4:	f800283a 	ret
 200a4b8:	2005883a 	mov	r2,r4
 200a4bc:	f800283a 	ret
 200a4c0:	0005883a 	mov	r2,zero
 200a4c4:	003ffa06 	br	200a4b0 <__reset+0xfe002cb0>
 200a4c8:	00c00044 	movi	r3,1
 200a4cc:	003ff106 	br	200a494 <__reset+0xfe002c94>

0200a4d0 <__divsi3>:
 200a4d0:	defffe04 	addi	sp,sp,-8
 200a4d4:	dfc00115 	stw	ra,4(sp)
 200a4d8:	dc000015 	stw	r16,0(sp)
 200a4dc:	20000b16 	blt	r4,zero,200a50c <__divsi3+0x3c>
 200a4e0:	0021883a 	mov	r16,zero
 200a4e4:	28000c16 	blt	r5,zero,200a518 <__divsi3+0x48>
 200a4e8:	000d883a 	mov	r6,zero
 200a4ec:	200a4640 	call	200a464 <udivmodsi4>
 200a4f0:	0407c83a 	sub	r3,zero,r16
 200a4f4:	1884f03a 	xor	r2,r3,r2
 200a4f8:	1405883a 	add	r2,r2,r16
 200a4fc:	dfc00117 	ldw	ra,4(sp)
 200a500:	dc000017 	ldw	r16,0(sp)
 200a504:	dec00204 	addi	sp,sp,8
 200a508:	f800283a 	ret
 200a50c:	0109c83a 	sub	r4,zero,r4
 200a510:	04000044 	movi	r16,1
 200a514:	283ff40e 	bge	r5,zero,200a4e8 <__reset+0xfe002ce8>
 200a518:	014bc83a 	sub	r5,zero,r5
 200a51c:	8400005c 	xori	r16,r16,1
 200a520:	003ff106 	br	200a4e8 <__reset+0xfe002ce8>

0200a524 <__modsi3>:
 200a524:	defffd04 	addi	sp,sp,-12
 200a528:	dfc00215 	stw	ra,8(sp)
 200a52c:	dc400115 	stw	r17,4(sp)
 200a530:	dc000015 	stw	r16,0(sp)
 200a534:	20000c16 	blt	r4,zero,200a568 <__modsi3+0x44>
 200a538:	0023883a 	mov	r17,zero
 200a53c:	0021883a 	mov	r16,zero
 200a540:	28000d16 	blt	r5,zero,200a578 <__modsi3+0x54>
 200a544:	01800044 	movi	r6,1
 200a548:	200a4640 	call	200a464 <udivmodsi4>
 200a54c:	1404f03a 	xor	r2,r2,r16
 200a550:	8885883a 	add	r2,r17,r2
 200a554:	dfc00217 	ldw	ra,8(sp)
 200a558:	dc400117 	ldw	r17,4(sp)
 200a55c:	dc000017 	ldw	r16,0(sp)
 200a560:	dec00304 	addi	sp,sp,12
 200a564:	f800283a 	ret
 200a568:	0109c83a 	sub	r4,zero,r4
 200a56c:	04400044 	movi	r17,1
 200a570:	043fffc4 	movi	r16,-1
 200a574:	283ff30e 	bge	r5,zero,200a544 <__reset+0xfe002d44>
 200a578:	014bc83a 	sub	r5,zero,r5
 200a57c:	003ff106 	br	200a544 <__reset+0xfe002d44>

0200a580 <__udivsi3>:
 200a580:	000d883a 	mov	r6,zero
 200a584:	200a4641 	jmpi	200a464 <udivmodsi4>

0200a588 <__umodsi3>:
 200a588:	01800044 	movi	r6,1
 200a58c:	200a4641 	jmpi	200a464 <udivmodsi4>

0200a590 <__adddf3>:
 200a590:	02000434 	movhi	r8,16
 200a594:	423fffc4 	addi	r8,r8,-1
 200a598:	defffb04 	addi	sp,sp,-20
 200a59c:	2a12703a 	and	r9,r5,r8
 200a5a0:	2806d7fa 	srli	r3,r5,31
 200a5a4:	3a10703a 	and	r8,r7,r8
 200a5a8:	3804d53a 	srli	r2,r7,20
 200a5ac:	3014d77a 	srli	r10,r6,29
 200a5b0:	dc000015 	stw	r16,0(sp)
 200a5b4:	481290fa 	slli	r9,r9,3
 200a5b8:	2820d53a 	srli	r16,r5,20
 200a5bc:	401090fa 	slli	r8,r8,3
 200a5c0:	200ad77a 	srli	r5,r4,29
 200a5c4:	380ed7fa 	srli	r7,r7,31
 200a5c8:	dc800215 	stw	r18,8(sp)
 200a5cc:	dc400115 	stw	r17,4(sp)
 200a5d0:	dfc00415 	stw	ra,16(sp)
 200a5d4:	dcc00315 	stw	r19,12(sp)
 200a5d8:	1c803fcc 	andi	r18,r3,255
 200a5dc:	8401ffcc 	andi	r16,r16,2047
 200a5e0:	494ab03a 	or	r5,r9,r5
 200a5e4:	202290fa 	slli	r17,r4,3
 200a5e8:	1081ffcc 	andi	r2,r2,2047
 200a5ec:	4290b03a 	or	r8,r8,r10
 200a5f0:	300c90fa 	slli	r6,r6,3
 200a5f4:	91c07026 	beq	r18,r7,200a7b8 <__adddf3+0x228>
 200a5f8:	8087c83a 	sub	r3,r16,r2
 200a5fc:	00c0b30e 	bge	zero,r3,200a8cc <__adddf3+0x33c>
 200a600:	10002a1e 	bne	r2,zero,200a6ac <__adddf3+0x11c>
 200a604:	4184b03a 	or	r2,r8,r6
 200a608:	1000991e 	bne	r2,zero,200a870 <__adddf3+0x2e0>
 200a60c:	888001cc 	andi	r2,r17,7
 200a610:	10005b26 	beq	r2,zero,200a780 <__adddf3+0x1f0>
 200a614:	88c003cc 	andi	r3,r17,15
 200a618:	00800104 	movi	r2,4
 200a61c:	18805826 	beq	r3,r2,200a780 <__adddf3+0x1f0>
 200a620:	89800104 	addi	r6,r17,4
 200a624:	3463803a 	cmpltu	r17,r6,r17
 200a628:	2c4b883a 	add	r5,r5,r17
 200a62c:	2880202c 	andhi	r2,r5,128
 200a630:	9007883a 	mov	r3,r18
 200a634:	3023883a 	mov	r17,r6
 200a638:	10005426 	beq	r2,zero,200a78c <__adddf3+0x1fc>
 200a63c:	84000044 	addi	r16,r16,1
 200a640:	0081ffc4 	movi	r2,2047
 200a644:	8080c126 	beq	r16,r2,200a94c <__adddf3+0x3bc>
 200a648:	013fe034 	movhi	r4,65408
 200a64c:	213fffc4 	addi	r4,r4,-1
 200a650:	290a703a 	and	r5,r5,r4
 200a654:	2804977a 	slli	r2,r5,29
 200a658:	280a927a 	slli	r5,r5,9
 200a65c:	8822d0fa 	srli	r17,r17,3
 200a660:	8401ffcc 	andi	r16,r16,2047
 200a664:	2808d33a 	srli	r4,r5,12
 200a668:	1444b03a 	or	r2,r2,r17
 200a66c:	8401ffcc 	andi	r16,r16,2047
 200a670:	800a953a 	slli	r5,r16,20
 200a674:	18c03fcc 	andi	r3,r3,255
 200a678:	04000434 	movhi	r16,16
 200a67c:	180697fa 	slli	r3,r3,31
 200a680:	843fffc4 	addi	r16,r16,-1
 200a684:	2420703a 	and	r16,r4,r16
 200a688:	8160b03a 	or	r16,r16,r5
 200a68c:	80c6b03a 	or	r3,r16,r3
 200a690:	dfc00417 	ldw	ra,16(sp)
 200a694:	dcc00317 	ldw	r19,12(sp)
 200a698:	dc800217 	ldw	r18,8(sp)
 200a69c:	dc400117 	ldw	r17,4(sp)
 200a6a0:	dc000017 	ldw	r16,0(sp)
 200a6a4:	dec00504 	addi	sp,sp,20
 200a6a8:	f800283a 	ret
 200a6ac:	0081ffc4 	movi	r2,2047
 200a6b0:	80bfd626 	beq	r16,r2,200a60c <__reset+0xfe002e0c>
 200a6b4:	42002034 	orhi	r8,r8,128
 200a6b8:	00800e04 	movi	r2,56
 200a6bc:	10c0a616 	blt	r2,r3,200a958 <__adddf3+0x3c8>
 200a6c0:	008007c4 	movi	r2,31
 200a6c4:	10c0c916 	blt	r2,r3,200a9ec <__adddf3+0x45c>
 200a6c8:	00800804 	movi	r2,32
 200a6cc:	10c5c83a 	sub	r2,r2,r3
 200a6d0:	408e983a 	sll	r7,r8,r2
 200a6d4:	30c8d83a 	srl	r4,r6,r3
 200a6d8:	3084983a 	sll	r2,r6,r2
 200a6dc:	40c6d83a 	srl	r3,r8,r3
 200a6e0:	390cb03a 	or	r6,r7,r4
 200a6e4:	1004c03a 	cmpne	r2,r2,zero
 200a6e8:	308cb03a 	or	r6,r6,r2
 200a6ec:	898dc83a 	sub	r6,r17,r6
 200a6f0:	89a3803a 	cmpltu	r17,r17,r6
 200a6f4:	28cbc83a 	sub	r5,r5,r3
 200a6f8:	2c4bc83a 	sub	r5,r5,r17
 200a6fc:	3023883a 	mov	r17,r6
 200a700:	2880202c 	andhi	r2,r5,128
 200a704:	10006d26 	beq	r2,zero,200a8bc <__adddf3+0x32c>
 200a708:	04c02034 	movhi	r19,128
 200a70c:	9cffffc4 	addi	r19,r19,-1
 200a710:	2ce6703a 	and	r19,r5,r19
 200a714:	98007e26 	beq	r19,zero,200a910 <__adddf3+0x380>
 200a718:	9809883a 	mov	r4,r19
 200a71c:	200c9240 	call	200c924 <__clzsi2>
 200a720:	10fffe04 	addi	r3,r2,-8
 200a724:	010007c4 	movi	r4,31
 200a728:	20c07f16 	blt	r4,r3,200a928 <__adddf3+0x398>
 200a72c:	01400a04 	movi	r5,40
 200a730:	2885c83a 	sub	r2,r5,r2
 200a734:	888ad83a 	srl	r5,r17,r2
 200a738:	98e6983a 	sll	r19,r19,r3
 200a73c:	88e2983a 	sll	r17,r17,r3
 200a740:	2ce6b03a 	or	r19,r5,r19
 200a744:	1c007c16 	blt	r3,r16,200a938 <__adddf3+0x3a8>
 200a748:	1c21c83a 	sub	r16,r3,r16
 200a74c:	81400044 	addi	r5,r16,1
 200a750:	00c007c4 	movi	r3,31
 200a754:	19409816 	blt	r3,r5,200a9b8 <__adddf3+0x428>
 200a758:	1c21c83a 	sub	r16,r3,r16
 200a75c:	8c08983a 	sll	r4,r17,r16
 200a760:	8946d83a 	srl	r3,r17,r5
 200a764:	9c20983a 	sll	r16,r19,r16
 200a768:	2008c03a 	cmpne	r4,r4,zero
 200a76c:	994ad83a 	srl	r5,r19,r5
 200a770:	1c06b03a 	or	r3,r3,r16
 200a774:	1922b03a 	or	r17,r3,r4
 200a778:	0021883a 	mov	r16,zero
 200a77c:	003fa306 	br	200a60c <__reset+0xfe002e0c>
 200a780:	2880202c 	andhi	r2,r5,128
 200a784:	9007883a 	mov	r3,r18
 200a788:	103fac1e 	bne	r2,zero,200a63c <__reset+0xfe002e3c>
 200a78c:	2804977a 	slli	r2,r5,29
 200a790:	8822d0fa 	srli	r17,r17,3
 200a794:	0101ffc4 	movi	r4,2047
 200a798:	280ad0fa 	srli	r5,r5,3
 200a79c:	1444b03a 	or	r2,r2,r17
 200a7a0:	81002c26 	beq	r16,r4,200a854 <__adddf3+0x2c4>
 200a7a4:	8120703a 	and	r16,r16,r4
 200a7a8:	01000434 	movhi	r4,16
 200a7ac:	213fffc4 	addi	r4,r4,-1
 200a7b0:	2908703a 	and	r4,r5,r4
 200a7b4:	003fad06 	br	200a66c <__reset+0xfe002e6c>
 200a7b8:	8089c83a 	sub	r4,r16,r2
 200a7bc:	01006a0e 	bge	zero,r4,200a968 <__adddf3+0x3d8>
 200a7c0:	10003326 	beq	r2,zero,200a890 <__adddf3+0x300>
 200a7c4:	0081ffc4 	movi	r2,2047
 200a7c8:	80bf9026 	beq	r16,r2,200a60c <__reset+0xfe002e0c>
 200a7cc:	42002034 	orhi	r8,r8,128
 200a7d0:	00800e04 	movi	r2,56
 200a7d4:	1100b116 	blt	r2,r4,200aa9c <__adddf3+0x50c>
 200a7d8:	008007c4 	movi	r2,31
 200a7dc:	1100e216 	blt	r2,r4,200ab68 <__adddf3+0x5d8>
 200a7e0:	00800804 	movi	r2,32
 200a7e4:	1105c83a 	sub	r2,r2,r4
 200a7e8:	4092983a 	sll	r9,r8,r2
 200a7ec:	310ed83a 	srl	r7,r6,r4
 200a7f0:	3084983a 	sll	r2,r6,r2
 200a7f4:	4110d83a 	srl	r8,r8,r4
 200a7f8:	49ccb03a 	or	r6,r9,r7
 200a7fc:	1004c03a 	cmpne	r2,r2,zero
 200a800:	308cb03a 	or	r6,r6,r2
 200a804:	344d883a 	add	r6,r6,r17
 200a808:	3463803a 	cmpltu	r17,r6,r17
 200a80c:	414b883a 	add	r5,r8,r5
 200a810:	2c4b883a 	add	r5,r5,r17
 200a814:	3023883a 	mov	r17,r6
 200a818:	2880202c 	andhi	r2,r5,128
 200a81c:	10002726 	beq	r2,zero,200a8bc <__adddf3+0x32c>
 200a820:	84000044 	addi	r16,r16,1
 200a824:	0081ffc4 	movi	r2,2047
 200a828:	8080ae26 	beq	r16,r2,200aae4 <__adddf3+0x554>
 200a82c:	00bfe034 	movhi	r2,65408
 200a830:	10bfffc4 	addi	r2,r2,-1
 200a834:	288a703a 	and	r5,r5,r2
 200a838:	880cd07a 	srli	r6,r17,1
 200a83c:	280897fa 	slli	r4,r5,31
 200a840:	88c0004c 	andi	r3,r17,1
 200a844:	30e2b03a 	or	r17,r6,r3
 200a848:	280ad07a 	srli	r5,r5,1
 200a84c:	8922b03a 	or	r17,r17,r4
 200a850:	003f6e06 	br	200a60c <__reset+0xfe002e0c>
 200a854:	1148b03a 	or	r4,r2,r5
 200a858:	20003c26 	beq	r4,zero,200a94c <__adddf3+0x3bc>
 200a85c:	29000234 	orhi	r4,r5,8
 200a860:	01400434 	movhi	r5,16
 200a864:	297fffc4 	addi	r5,r5,-1
 200a868:	2148703a 	and	r4,r4,r5
 200a86c:	003f7f06 	br	200a66c <__reset+0xfe002e6c>
 200a870:	18ffffc4 	addi	r3,r3,-1
 200a874:	18004d1e 	bne	r3,zero,200a9ac <__adddf3+0x41c>
 200a878:	898dc83a 	sub	r6,r17,r6
 200a87c:	89a3803a 	cmpltu	r17,r17,r6
 200a880:	2a0bc83a 	sub	r5,r5,r8
 200a884:	2c4bc83a 	sub	r5,r5,r17
 200a888:	3023883a 	mov	r17,r6
 200a88c:	003f9c06 	br	200a700 <__reset+0xfe002f00>
 200a890:	4184b03a 	or	r2,r8,r6
 200a894:	103f5d26 	beq	r2,zero,200a60c <__reset+0xfe002e0c>
 200a898:	213fffc4 	addi	r4,r4,-1
 200a89c:	203fd926 	beq	r4,zero,200a804 <__reset+0xfe003004>
 200a8a0:	0081ffc4 	movi	r2,2047
 200a8a4:	80bfca1e 	bne	r16,r2,200a7d0 <__reset+0xfe002fd0>
 200a8a8:	003f5806 	br	200a60c <__reset+0xfe002e0c>
 200a8ac:	10c8b03a 	or	r4,r2,r3
 200a8b0:	20008b26 	beq	r4,zero,200aae0 <__adddf3+0x550>
 200a8b4:	100b883a 	mov	r5,r2
 200a8b8:	1823883a 	mov	r17,r3
 200a8bc:	888001cc 	andi	r2,r17,7
 200a8c0:	103f541e 	bne	r2,zero,200a614 <__reset+0xfe002e14>
 200a8c4:	9007883a 	mov	r3,r18
 200a8c8:	003fb006 	br	200a78c <__reset+0xfe002f8c>
 200a8cc:	1800531e 	bne	r3,zero,200aa1c <__adddf3+0x48c>
 200a8d0:	80800044 	addi	r2,r16,1
 200a8d4:	1081ffcc 	andi	r2,r2,2047
 200a8d8:	00c00044 	movi	r3,1
 200a8dc:	1880990e 	bge	r3,r2,200ab44 <__adddf3+0x5b4>
 200a8e0:	8985c83a 	sub	r2,r17,r6
 200a8e4:	8887803a 	cmpltu	r3,r17,r2
 200a8e8:	2a27c83a 	sub	r19,r5,r8
 200a8ec:	98e7c83a 	sub	r19,r19,r3
 200a8f0:	98c0202c 	andhi	r3,r19,128
 200a8f4:	18006226 	beq	r3,zero,200aa80 <__adddf3+0x4f0>
 200a8f8:	3463c83a 	sub	r17,r6,r17
 200a8fc:	4151c83a 	sub	r8,r8,r5
 200a900:	344d803a 	cmpltu	r6,r6,r17
 200a904:	41a7c83a 	sub	r19,r8,r6
 200a908:	3825883a 	mov	r18,r7
 200a90c:	983f821e 	bne	r19,zero,200a718 <__reset+0xfe002f18>
 200a910:	8809883a 	mov	r4,r17
 200a914:	200c9240 	call	200c924 <__clzsi2>
 200a918:	10800804 	addi	r2,r2,32
 200a91c:	10fffe04 	addi	r3,r2,-8
 200a920:	010007c4 	movi	r4,31
 200a924:	20ff810e 	bge	r4,r3,200a72c <__reset+0xfe002f2c>
 200a928:	14fff604 	addi	r19,r2,-40
 200a92c:	8ce6983a 	sll	r19,r17,r19
 200a930:	0023883a 	mov	r17,zero
 200a934:	1c3f840e 	bge	r3,r16,200a748 <__reset+0xfe002f48>
 200a938:	017fe034 	movhi	r5,65408
 200a93c:	297fffc4 	addi	r5,r5,-1
 200a940:	80e1c83a 	sub	r16,r16,r3
 200a944:	994a703a 	and	r5,r19,r5
 200a948:	003f3006 	br	200a60c <__reset+0xfe002e0c>
 200a94c:	0009883a 	mov	r4,zero
 200a950:	0005883a 	mov	r2,zero
 200a954:	003f4506 	br	200a66c <__reset+0xfe002e6c>
 200a958:	418cb03a 	or	r6,r8,r6
 200a95c:	300cc03a 	cmpne	r6,r6,zero
 200a960:	0007883a 	mov	r3,zero
 200a964:	003f6106 	br	200a6ec <__reset+0xfe002eec>
 200a968:	2000921e 	bne	r4,zero,200abb4 <__adddf3+0x624>
 200a96c:	80800044 	addi	r2,r16,1
 200a970:	11c1ffcc 	andi	r7,r2,2047
 200a974:	01000044 	movi	r4,1
 200a978:	21c0610e 	bge	r4,r7,200ab00 <__adddf3+0x570>
 200a97c:	0101ffc4 	movi	r4,2047
 200a980:	1100a326 	beq	r2,r4,200ac10 <__adddf3+0x680>
 200a984:	344d883a 	add	r6,r6,r17
 200a988:	3463803a 	cmpltu	r17,r6,r17
 200a98c:	414b883a 	add	r5,r8,r5
 200a990:	2c4b883a 	add	r5,r5,r17
 200a994:	282297fa 	slli	r17,r5,31
 200a998:	300cd07a 	srli	r6,r6,1
 200a99c:	280ad07a 	srli	r5,r5,1
 200a9a0:	1021883a 	mov	r16,r2
 200a9a4:	89a2b03a 	or	r17,r17,r6
 200a9a8:	003f1806 	br	200a60c <__reset+0xfe002e0c>
 200a9ac:	0081ffc4 	movi	r2,2047
 200a9b0:	80bf411e 	bne	r16,r2,200a6b8 <__reset+0xfe002eb8>
 200a9b4:	003f1506 	br	200a60c <__reset+0xfe002e0c>
 200a9b8:	80bff844 	addi	r2,r16,-31
 200a9bc:	00c00804 	movi	r3,32
 200a9c0:	9884d83a 	srl	r2,r19,r2
 200a9c4:	28c04a26 	beq	r5,r3,200aaf0 <__adddf3+0x560>
 200a9c8:	00c00fc4 	movi	r3,63
 200a9cc:	1c21c83a 	sub	r16,r3,r16
 200a9d0:	9c26983a 	sll	r19,r19,r16
 200a9d4:	9c62b03a 	or	r17,r19,r17
 200a9d8:	8822c03a 	cmpne	r17,r17,zero
 200a9dc:	88a2b03a 	or	r17,r17,r2
 200a9e0:	000b883a 	mov	r5,zero
 200a9e4:	0021883a 	mov	r16,zero
 200a9e8:	003fb406 	br	200a8bc <__reset+0xfe0030bc>
 200a9ec:	18bff804 	addi	r2,r3,-32
 200a9f0:	01000804 	movi	r4,32
 200a9f4:	4084d83a 	srl	r2,r8,r2
 200a9f8:	19003f26 	beq	r3,r4,200aaf8 <__adddf3+0x568>
 200a9fc:	01001004 	movi	r4,64
 200aa00:	20c7c83a 	sub	r3,r4,r3
 200aa04:	40d0983a 	sll	r8,r8,r3
 200aa08:	418cb03a 	or	r6,r8,r6
 200aa0c:	300cc03a 	cmpne	r6,r6,zero
 200aa10:	308cb03a 	or	r6,r6,r2
 200aa14:	0007883a 	mov	r3,zero
 200aa18:	003f3406 	br	200a6ec <__reset+0xfe002eec>
 200aa1c:	80002326 	beq	r16,zero,200aaac <__adddf3+0x51c>
 200aa20:	0101ffc4 	movi	r4,2047
 200aa24:	11005e26 	beq	r2,r4,200aba0 <__adddf3+0x610>
 200aa28:	00c7c83a 	sub	r3,zero,r3
 200aa2c:	29402034 	orhi	r5,r5,128
 200aa30:	01000e04 	movi	r4,56
 200aa34:	20c07216 	blt	r4,r3,200ac00 <__adddf3+0x670>
 200aa38:	010007c4 	movi	r4,31
 200aa3c:	20c0ce16 	blt	r4,r3,200ad78 <__adddf3+0x7e8>
 200aa40:	01000804 	movi	r4,32
 200aa44:	20c9c83a 	sub	r4,r4,r3
 200aa48:	2914983a 	sll	r10,r5,r4
 200aa4c:	88d2d83a 	srl	r9,r17,r3
 200aa50:	8908983a 	sll	r4,r17,r4
 200aa54:	28c6d83a 	srl	r3,r5,r3
 200aa58:	5262b03a 	or	r17,r10,r9
 200aa5c:	2008c03a 	cmpne	r4,r4,zero
 200aa60:	8922b03a 	or	r17,r17,r4
 200aa64:	3463c83a 	sub	r17,r6,r17
 200aa68:	40c7c83a 	sub	r3,r8,r3
 200aa6c:	344d803a 	cmpltu	r6,r6,r17
 200aa70:	198bc83a 	sub	r5,r3,r6
 200aa74:	1021883a 	mov	r16,r2
 200aa78:	3825883a 	mov	r18,r7
 200aa7c:	003f2006 	br	200a700 <__reset+0xfe002f00>
 200aa80:	9886b03a 	or	r3,r19,r2
 200aa84:	1800141e 	bne	r3,zero,200aad8 <__adddf3+0x548>
 200aa88:	0007883a 	mov	r3,zero
 200aa8c:	000b883a 	mov	r5,zero
 200aa90:	0023883a 	mov	r17,zero
 200aa94:	0021883a 	mov	r16,zero
 200aa98:	003f3c06 	br	200a78c <__reset+0xfe002f8c>
 200aa9c:	418cb03a 	or	r6,r8,r6
 200aaa0:	300cc03a 	cmpne	r6,r6,zero
 200aaa4:	0011883a 	mov	r8,zero
 200aaa8:	003f5606 	br	200a804 <__reset+0xfe003004>
 200aaac:	2c48b03a 	or	r4,r5,r17
 200aab0:	20003b26 	beq	r4,zero,200aba0 <__adddf3+0x610>
 200aab4:	00c6303a 	nor	r3,zero,r3
 200aab8:	1800371e 	bne	r3,zero,200ab98 <__adddf3+0x608>
 200aabc:	3463c83a 	sub	r17,r6,r17
 200aac0:	414bc83a 	sub	r5,r8,r5
 200aac4:	344d803a 	cmpltu	r6,r6,r17
 200aac8:	298bc83a 	sub	r5,r5,r6
 200aacc:	1021883a 	mov	r16,r2
 200aad0:	3825883a 	mov	r18,r7
 200aad4:	003f0a06 	br	200a700 <__reset+0xfe002f00>
 200aad8:	1023883a 	mov	r17,r2
 200aadc:	003f0d06 	br	200a714 <__reset+0xfe002f14>
 200aae0:	0007883a 	mov	r3,zero
 200aae4:	000b883a 	mov	r5,zero
 200aae8:	0023883a 	mov	r17,zero
 200aaec:	003f2706 	br	200a78c <__reset+0xfe002f8c>
 200aaf0:	0027883a 	mov	r19,zero
 200aaf4:	003fb706 	br	200a9d4 <__reset+0xfe0031d4>
 200aaf8:	0011883a 	mov	r8,zero
 200aafc:	003fc206 	br	200aa08 <__reset+0xfe003208>
 200ab00:	2c44b03a 	or	r2,r5,r17
 200ab04:	8000871e 	bne	r16,zero,200ad24 <__adddf3+0x794>
 200ab08:	1000b126 	beq	r2,zero,200add0 <__adddf3+0x840>
 200ab0c:	4184b03a 	or	r2,r8,r6
 200ab10:	103ebe26 	beq	r2,zero,200a60c <__reset+0xfe002e0c>
 200ab14:	3445883a 	add	r2,r6,r17
 200ab18:	1463803a 	cmpltu	r17,r2,r17
 200ab1c:	414b883a 	add	r5,r8,r5
 200ab20:	2c4b883a 	add	r5,r5,r17
 200ab24:	28c0202c 	andhi	r3,r5,128
 200ab28:	1023883a 	mov	r17,r2
 200ab2c:	183f6326 	beq	r3,zero,200a8bc <__reset+0xfe0030bc>
 200ab30:	00bfe034 	movhi	r2,65408
 200ab34:	10bfffc4 	addi	r2,r2,-1
 200ab38:	2021883a 	mov	r16,r4
 200ab3c:	288a703a 	and	r5,r5,r2
 200ab40:	003eb206 	br	200a60c <__reset+0xfe002e0c>
 200ab44:	2c44b03a 	or	r2,r5,r17
 200ab48:	8000251e 	bne	r16,zero,200abe0 <__adddf3+0x650>
 200ab4c:	10004b1e 	bne	r2,zero,200ac7c <__adddf3+0x6ec>
 200ab50:	4184b03a 	or	r2,r8,r6
 200ab54:	103fe226 	beq	r2,zero,200aae0 <__reset+0xfe0032e0>
 200ab58:	400b883a 	mov	r5,r8
 200ab5c:	3023883a 	mov	r17,r6
 200ab60:	3825883a 	mov	r18,r7
 200ab64:	003ea906 	br	200a60c <__reset+0xfe002e0c>
 200ab68:	20bff804 	addi	r2,r4,-32
 200ab6c:	01c00804 	movi	r7,32
 200ab70:	4084d83a 	srl	r2,r8,r2
 200ab74:	21c07e26 	beq	r4,r7,200ad70 <__adddf3+0x7e0>
 200ab78:	01c01004 	movi	r7,64
 200ab7c:	3909c83a 	sub	r4,r7,r4
 200ab80:	4110983a 	sll	r8,r8,r4
 200ab84:	418cb03a 	or	r6,r8,r6
 200ab88:	300cc03a 	cmpne	r6,r6,zero
 200ab8c:	308cb03a 	or	r6,r6,r2
 200ab90:	0011883a 	mov	r8,zero
 200ab94:	003f1b06 	br	200a804 <__reset+0xfe003004>
 200ab98:	0101ffc4 	movi	r4,2047
 200ab9c:	113fa41e 	bne	r2,r4,200aa30 <__reset+0xfe003230>
 200aba0:	400b883a 	mov	r5,r8
 200aba4:	3023883a 	mov	r17,r6
 200aba8:	1021883a 	mov	r16,r2
 200abac:	3825883a 	mov	r18,r7
 200abb0:	003e9606 	br	200a60c <__reset+0xfe002e0c>
 200abb4:	80001a1e 	bne	r16,zero,200ac20 <__adddf3+0x690>
 200abb8:	2c4eb03a 	or	r7,r5,r17
 200abbc:	38005526 	beq	r7,zero,200ad14 <__adddf3+0x784>
 200abc0:	0108303a 	nor	r4,zero,r4
 200abc4:	2000511e 	bne	r4,zero,200ad0c <__adddf3+0x77c>
 200abc8:	89a3883a 	add	r17,r17,r6
 200abcc:	414b883a 	add	r5,r8,r5
 200abd0:	898d803a 	cmpltu	r6,r17,r6
 200abd4:	298b883a 	add	r5,r5,r6
 200abd8:	1021883a 	mov	r16,r2
 200abdc:	003f0e06 	br	200a818 <__reset+0xfe003018>
 200abe0:	1000341e 	bne	r2,zero,200acb4 <__adddf3+0x724>
 200abe4:	4184b03a 	or	r2,r8,r6
 200abe8:	10006f26 	beq	r2,zero,200ada8 <__adddf3+0x818>
 200abec:	400b883a 	mov	r5,r8
 200abf0:	3023883a 	mov	r17,r6
 200abf4:	3825883a 	mov	r18,r7
 200abf8:	0401ffc4 	movi	r16,2047
 200abfc:	003e8306 	br	200a60c <__reset+0xfe002e0c>
 200ac00:	2c62b03a 	or	r17,r5,r17
 200ac04:	8822c03a 	cmpne	r17,r17,zero
 200ac08:	0007883a 	mov	r3,zero
 200ac0c:	003f9506 	br	200aa64 <__reset+0xfe003264>
 200ac10:	1021883a 	mov	r16,r2
 200ac14:	000b883a 	mov	r5,zero
 200ac18:	0023883a 	mov	r17,zero
 200ac1c:	003edb06 	br	200a78c <__reset+0xfe002f8c>
 200ac20:	01c1ffc4 	movi	r7,2047
 200ac24:	11c03b26 	beq	r2,r7,200ad14 <__adddf3+0x784>
 200ac28:	0109c83a 	sub	r4,zero,r4
 200ac2c:	29402034 	orhi	r5,r5,128
 200ac30:	01c00e04 	movi	r7,56
 200ac34:	39006216 	blt	r7,r4,200adc0 <__adddf3+0x830>
 200ac38:	01c007c4 	movi	r7,31
 200ac3c:	39006b16 	blt	r7,r4,200adec <__adddf3+0x85c>
 200ac40:	01c00804 	movi	r7,32
 200ac44:	390fc83a 	sub	r7,r7,r4
 200ac48:	29d4983a 	sll	r10,r5,r7
 200ac4c:	8912d83a 	srl	r9,r17,r4
 200ac50:	89ce983a 	sll	r7,r17,r7
 200ac54:	2908d83a 	srl	r4,r5,r4
 200ac58:	5262b03a 	or	r17,r10,r9
 200ac5c:	380ac03a 	cmpne	r5,r7,zero
 200ac60:	8962b03a 	or	r17,r17,r5
 200ac64:	89a3883a 	add	r17,r17,r6
 200ac68:	2211883a 	add	r8,r4,r8
 200ac6c:	898d803a 	cmpltu	r6,r17,r6
 200ac70:	418b883a 	add	r5,r8,r6
 200ac74:	1021883a 	mov	r16,r2
 200ac78:	003ee706 	br	200a818 <__reset+0xfe003018>
 200ac7c:	4184b03a 	or	r2,r8,r6
 200ac80:	103e6226 	beq	r2,zero,200a60c <__reset+0xfe002e0c>
 200ac84:	8987c83a 	sub	r3,r17,r6
 200ac88:	88c9803a 	cmpltu	r4,r17,r3
 200ac8c:	2a05c83a 	sub	r2,r5,r8
 200ac90:	1105c83a 	sub	r2,r2,r4
 200ac94:	1100202c 	andhi	r4,r2,128
 200ac98:	203f0426 	beq	r4,zero,200a8ac <__reset+0xfe0030ac>
 200ac9c:	3463c83a 	sub	r17,r6,r17
 200aca0:	414bc83a 	sub	r5,r8,r5
 200aca4:	344d803a 	cmpltu	r6,r6,r17
 200aca8:	298bc83a 	sub	r5,r5,r6
 200acac:	3825883a 	mov	r18,r7
 200acb0:	003e5606 	br	200a60c <__reset+0xfe002e0c>
 200acb4:	4184b03a 	or	r2,r8,r6
 200acb8:	10002b26 	beq	r2,zero,200ad68 <__adddf3+0x7d8>
 200acbc:	2804d0fa 	srli	r2,r5,3
 200acc0:	8822d0fa 	srli	r17,r17,3
 200acc4:	280a977a 	slli	r5,r5,29
 200acc8:	10c0022c 	andhi	r3,r2,8
 200accc:	2c62b03a 	or	r17,r5,r17
 200acd0:	18000826 	beq	r3,zero,200acf4 <__adddf3+0x764>
 200acd4:	4008d0fa 	srli	r4,r8,3
 200acd8:	20c0022c 	andhi	r3,r4,8
 200acdc:	1800051e 	bne	r3,zero,200acf4 <__adddf3+0x764>
 200ace0:	300cd0fa 	srli	r6,r6,3
 200ace4:	4010977a 	slli	r8,r8,29
 200ace8:	2005883a 	mov	r2,r4
 200acec:	3825883a 	mov	r18,r7
 200acf0:	41a2b03a 	or	r17,r8,r6
 200acf4:	880ad77a 	srli	r5,r17,29
 200acf8:	100490fa 	slli	r2,r2,3
 200acfc:	882290fa 	slli	r17,r17,3
 200ad00:	0401ffc4 	movi	r16,2047
 200ad04:	288ab03a 	or	r5,r5,r2
 200ad08:	003e4006 	br	200a60c <__reset+0xfe002e0c>
 200ad0c:	01c1ffc4 	movi	r7,2047
 200ad10:	11ffc71e 	bne	r2,r7,200ac30 <__reset+0xfe003430>
 200ad14:	400b883a 	mov	r5,r8
 200ad18:	3023883a 	mov	r17,r6
 200ad1c:	1021883a 	mov	r16,r2
 200ad20:	003e3a06 	br	200a60c <__reset+0xfe002e0c>
 200ad24:	10002d26 	beq	r2,zero,200addc <__adddf3+0x84c>
 200ad28:	4184b03a 	or	r2,r8,r6
 200ad2c:	10000e26 	beq	r2,zero,200ad68 <__adddf3+0x7d8>
 200ad30:	2804d0fa 	srli	r2,r5,3
 200ad34:	8822d0fa 	srli	r17,r17,3
 200ad38:	280a977a 	slli	r5,r5,29
 200ad3c:	10c0022c 	andhi	r3,r2,8
 200ad40:	2c62b03a 	or	r17,r5,r17
 200ad44:	183feb26 	beq	r3,zero,200acf4 <__reset+0xfe0034f4>
 200ad48:	4008d0fa 	srli	r4,r8,3
 200ad4c:	20c0022c 	andhi	r3,r4,8
 200ad50:	183fe81e 	bne	r3,zero,200acf4 <__reset+0xfe0034f4>
 200ad54:	300cd0fa 	srli	r6,r6,3
 200ad58:	4010977a 	slli	r8,r8,29
 200ad5c:	2005883a 	mov	r2,r4
 200ad60:	41a2b03a 	or	r17,r8,r6
 200ad64:	003fe306 	br	200acf4 <__reset+0xfe0034f4>
 200ad68:	0401ffc4 	movi	r16,2047
 200ad6c:	003e2706 	br	200a60c <__reset+0xfe002e0c>
 200ad70:	0011883a 	mov	r8,zero
 200ad74:	003f8306 	br	200ab84 <__reset+0xfe003384>
 200ad78:	193ff804 	addi	r4,r3,-32
 200ad7c:	02400804 	movi	r9,32
 200ad80:	2908d83a 	srl	r4,r5,r4
 200ad84:	1a402526 	beq	r3,r9,200ae1c <__adddf3+0x88c>
 200ad88:	02401004 	movi	r9,64
 200ad8c:	48c7c83a 	sub	r3,r9,r3
 200ad90:	28ca983a 	sll	r5,r5,r3
 200ad94:	2c62b03a 	or	r17,r5,r17
 200ad98:	8822c03a 	cmpne	r17,r17,zero
 200ad9c:	8922b03a 	or	r17,r17,r4
 200ada0:	0007883a 	mov	r3,zero
 200ada4:	003f2f06 	br	200aa64 <__reset+0xfe003264>
 200ada8:	01402034 	movhi	r5,128
 200adac:	0007883a 	mov	r3,zero
 200adb0:	297fffc4 	addi	r5,r5,-1
 200adb4:	047ffe04 	movi	r17,-8
 200adb8:	0401ffc4 	movi	r16,2047
 200adbc:	003e7306 	br	200a78c <__reset+0xfe002f8c>
 200adc0:	2c62b03a 	or	r17,r5,r17
 200adc4:	8822c03a 	cmpne	r17,r17,zero
 200adc8:	0009883a 	mov	r4,zero
 200adcc:	003fa506 	br	200ac64 <__reset+0xfe003464>
 200add0:	400b883a 	mov	r5,r8
 200add4:	3023883a 	mov	r17,r6
 200add8:	003e0c06 	br	200a60c <__reset+0xfe002e0c>
 200addc:	400b883a 	mov	r5,r8
 200ade0:	3023883a 	mov	r17,r6
 200ade4:	0401ffc4 	movi	r16,2047
 200ade8:	003e0806 	br	200a60c <__reset+0xfe002e0c>
 200adec:	21fff804 	addi	r7,r4,-32
 200adf0:	02400804 	movi	r9,32
 200adf4:	29ced83a 	srl	r7,r5,r7
 200adf8:	22400a26 	beq	r4,r9,200ae24 <__adddf3+0x894>
 200adfc:	02401004 	movi	r9,64
 200ae00:	4909c83a 	sub	r4,r9,r4
 200ae04:	290a983a 	sll	r5,r5,r4
 200ae08:	2c62b03a 	or	r17,r5,r17
 200ae0c:	8822c03a 	cmpne	r17,r17,zero
 200ae10:	89e2b03a 	or	r17,r17,r7
 200ae14:	0009883a 	mov	r4,zero
 200ae18:	003f9206 	br	200ac64 <__reset+0xfe003464>
 200ae1c:	000b883a 	mov	r5,zero
 200ae20:	003fdc06 	br	200ad94 <__reset+0xfe003594>
 200ae24:	000b883a 	mov	r5,zero
 200ae28:	003ff706 	br	200ae08 <__reset+0xfe003608>

0200ae2c <__divdf3>:
 200ae2c:	defff204 	addi	sp,sp,-56
 200ae30:	dd000815 	stw	r20,32(sp)
 200ae34:	2828d53a 	srli	r20,r5,20
 200ae38:	dd800a15 	stw	r22,40(sp)
 200ae3c:	282cd7fa 	srli	r22,r5,31
 200ae40:	dc000415 	stw	r16,16(sp)
 200ae44:	04000434 	movhi	r16,16
 200ae48:	df000c15 	stw	fp,48(sp)
 200ae4c:	dcc00715 	stw	r19,28(sp)
 200ae50:	dc800615 	stw	r18,24(sp)
 200ae54:	dc400515 	stw	r17,20(sp)
 200ae58:	843fffc4 	addi	r16,r16,-1
 200ae5c:	dfc00d15 	stw	ra,52(sp)
 200ae60:	ddc00b15 	stw	r23,44(sp)
 200ae64:	dd400915 	stw	r21,36(sp)
 200ae68:	a501ffcc 	andi	r20,r20,2047
 200ae6c:	2025883a 	mov	r18,r4
 200ae70:	2027883a 	mov	r19,r4
 200ae74:	2c22703a 	and	r17,r5,r16
 200ae78:	b7003fcc 	andi	fp,r22,255
 200ae7c:	a0005e26 	beq	r20,zero,200aff8 <__divdf3+0x1cc>
 200ae80:	0081ffc4 	movi	r2,2047
 200ae84:	a0803526 	beq	r20,r2,200af5c <__divdf3+0x130>
 200ae88:	8c000434 	orhi	r16,r17,16
 200ae8c:	2004d77a 	srli	r2,r4,29
 200ae90:	802090fa 	slli	r16,r16,3
 200ae94:	202690fa 	slli	r19,r4,3
 200ae98:	a53f0044 	addi	r20,r20,-1023
 200ae9c:	80a2b03a 	or	r17,r16,r2
 200aea0:	0025883a 	mov	r18,zero
 200aea4:	0011883a 	mov	r8,zero
 200aea8:	380ad53a 	srli	r5,r7,20
 200aeac:	382ed7fa 	srli	r23,r7,31
 200aeb0:	04000434 	movhi	r16,16
 200aeb4:	843fffc4 	addi	r16,r16,-1
 200aeb8:	2941ffcc 	andi	r5,r5,2047
 200aebc:	302b883a 	mov	r21,r6
 200aec0:	3c20703a 	and	r16,r7,r16
 200aec4:	ba403fcc 	andi	r9,r23,255
 200aec8:	28006726 	beq	r5,zero,200b068 <__divdf3+0x23c>
 200aecc:	0081ffc4 	movi	r2,2047
 200aed0:	28805f26 	beq	r5,r2,200b050 <__divdf3+0x224>
 200aed4:	84000434 	orhi	r16,r16,16
 200aed8:	3004d77a 	srli	r2,r6,29
 200aedc:	802090fa 	slli	r16,r16,3
 200aee0:	302a90fa 	slli	r21,r6,3
 200aee4:	297f0044 	addi	r5,r5,-1023
 200aee8:	80a0b03a 	or	r16,r16,r2
 200aeec:	000f883a 	mov	r7,zero
 200aef0:	3c86b03a 	or	r3,r7,r18
 200aef4:	180690ba 	slli	r3,r3,2
 200aef8:	00808074 	movhi	r2,513
 200aefc:	10abc704 	addi	r2,r2,-20708
 200af00:	1887883a 	add	r3,r3,r2
 200af04:	18c00017 	ldw	r3,0(r3)
 200af08:	b5c8f03a 	xor	r4,r22,r23
 200af0c:	200d883a 	mov	r6,r4
 200af10:	24803fcc 	andi	r18,r4,255
 200af14:	a169c83a 	sub	r20,r20,r5
 200af18:	1800683a 	jmp	r3
 200af1c:	0200b164 	muli	r8,zero,709
 200af20:	0200af94 	movui	r8,702
 200af24:	0200b128 	cmpgeui	r8,zero,708
 200af28:	0200af78 	rdprs	r8,zero,701
 200af2c:	0200b128 	cmpgeui	r8,zero,708
 200af30:	0200b0fc 	xorhi	r8,zero,707
 200af34:	0200b128 	cmpgeui	r8,zero,708
 200af38:	0200af78 	rdprs	r8,zero,701
 200af3c:	0200af94 	movui	r8,702
 200af40:	0200af94 	movui	r8,702
 200af44:	0200b0fc 	xorhi	r8,zero,707
 200af48:	0200af78 	rdprs	r8,zero,701
 200af4c:	0200af88 	cmpgei	r8,zero,702
 200af50:	0200af88 	cmpgei	r8,zero,702
 200af54:	0200af88 	cmpgei	r8,zero,702
 200af58:	0200b138 	rdprs	r8,zero,708
 200af5c:	8904b03a 	or	r2,r17,r4
 200af60:	1000631e 	bne	r2,zero,200b0f0 <__divdf3+0x2c4>
 200af64:	04800204 	movi	r18,8
 200af68:	0023883a 	mov	r17,zero
 200af6c:	0027883a 	mov	r19,zero
 200af70:	02000084 	movi	r8,2
 200af74:	003fcc06 	br	200aea8 <__reset+0xfe0036a8>
 200af78:	8023883a 	mov	r17,r16
 200af7c:	a827883a 	mov	r19,r21
 200af80:	4839883a 	mov	fp,r9
 200af84:	3811883a 	mov	r8,r7
 200af88:	00800084 	movi	r2,2
 200af8c:	40812a1e 	bne	r8,r2,200b438 <__divdf3+0x60c>
 200af90:	e025883a 	mov	r18,fp
 200af94:	9180004c 	andi	r6,r18,1
 200af98:	0101ffc4 	movi	r4,2047
 200af9c:	000b883a 	mov	r5,zero
 200afa0:	0027883a 	mov	r19,zero
 200afa4:	2008953a 	slli	r4,r4,20
 200afa8:	30c03fcc 	andi	r3,r6,255
 200afac:	04000434 	movhi	r16,16
 200afb0:	180697fa 	slli	r3,r3,31
 200afb4:	843fffc4 	addi	r16,r16,-1
 200afb8:	2c20703a 	and	r16,r5,r16
 200afbc:	8120b03a 	or	r16,r16,r4
 200afc0:	80c6b03a 	or	r3,r16,r3
 200afc4:	9805883a 	mov	r2,r19
 200afc8:	dfc00d17 	ldw	ra,52(sp)
 200afcc:	df000c17 	ldw	fp,48(sp)
 200afd0:	ddc00b17 	ldw	r23,44(sp)
 200afd4:	dd800a17 	ldw	r22,40(sp)
 200afd8:	dd400917 	ldw	r21,36(sp)
 200afdc:	dd000817 	ldw	r20,32(sp)
 200afe0:	dcc00717 	ldw	r19,28(sp)
 200afe4:	dc800617 	ldw	r18,24(sp)
 200afe8:	dc400517 	ldw	r17,20(sp)
 200afec:	dc000417 	ldw	r16,16(sp)
 200aff0:	dec00e04 	addi	sp,sp,56
 200aff4:	f800283a 	ret
 200aff8:	8904b03a 	or	r2,r17,r4
 200affc:	10003726 	beq	r2,zero,200b0dc <__divdf3+0x2b0>
 200b000:	88011c26 	beq	r17,zero,200b474 <__divdf3+0x648>
 200b004:	8809883a 	mov	r4,r17
 200b008:	d9800315 	stw	r6,12(sp)
 200b00c:	d9c00115 	stw	r7,4(sp)
 200b010:	200c9240 	call	200c924 <__clzsi2>
 200b014:	d9800317 	ldw	r6,12(sp)
 200b018:	d9c00117 	ldw	r7,4(sp)
 200b01c:	1007883a 	mov	r3,r2
 200b020:	01000a04 	movi	r4,40
 200b024:	1cfffe04 	addi	r19,r3,-8
 200b028:	20c9c83a 	sub	r4,r4,r3
 200b02c:	8cca983a 	sll	r5,r17,r19
 200b030:	9108d83a 	srl	r4,r18,r4
 200b034:	94e6983a 	sll	r19,r18,r19
 200b038:	2162b03a 	or	r17,r4,r5
 200b03c:	053f0344 	movi	r20,-1011
 200b040:	a0e9c83a 	sub	r20,r20,r3
 200b044:	0025883a 	mov	r18,zero
 200b048:	0011883a 	mov	r8,zero
 200b04c:	003f9606 	br	200aea8 <__reset+0xfe0036a8>
 200b050:	8184b03a 	or	r2,r16,r6
 200b054:	10001f1e 	bne	r2,zero,200b0d4 <__divdf3+0x2a8>
 200b058:	0021883a 	mov	r16,zero
 200b05c:	002b883a 	mov	r21,zero
 200b060:	01c00084 	movi	r7,2
 200b064:	003fa206 	br	200aef0 <__reset+0xfe0036f0>
 200b068:	8184b03a 	or	r2,r16,r6
 200b06c:	10001526 	beq	r2,zero,200b0c4 <__divdf3+0x298>
 200b070:	80010c26 	beq	r16,zero,200b4a4 <__divdf3+0x678>
 200b074:	8009883a 	mov	r4,r16
 200b078:	d9800315 	stw	r6,12(sp)
 200b07c:	da000215 	stw	r8,8(sp)
 200b080:	da400015 	stw	r9,0(sp)
 200b084:	200c9240 	call	200c924 <__clzsi2>
 200b088:	d9800317 	ldw	r6,12(sp)
 200b08c:	da000217 	ldw	r8,8(sp)
 200b090:	da400017 	ldw	r9,0(sp)
 200b094:	1007883a 	mov	r3,r2
 200b098:	01000a04 	movi	r4,40
 200b09c:	1d7ffe04 	addi	r21,r3,-8
 200b0a0:	20c9c83a 	sub	r4,r4,r3
 200b0a4:	8560983a 	sll	r16,r16,r21
 200b0a8:	3108d83a 	srl	r4,r6,r4
 200b0ac:	356a983a 	sll	r21,r6,r21
 200b0b0:	2420b03a 	or	r16,r4,r16
 200b0b4:	017f0344 	movi	r5,-1011
 200b0b8:	28cbc83a 	sub	r5,r5,r3
 200b0bc:	000f883a 	mov	r7,zero
 200b0c0:	003f8b06 	br	200aef0 <__reset+0xfe0036f0>
 200b0c4:	0021883a 	mov	r16,zero
 200b0c8:	002b883a 	mov	r21,zero
 200b0cc:	01c00044 	movi	r7,1
 200b0d0:	003f8706 	br	200aef0 <__reset+0xfe0036f0>
 200b0d4:	01c000c4 	movi	r7,3
 200b0d8:	003f8506 	br	200aef0 <__reset+0xfe0036f0>
 200b0dc:	04800104 	movi	r18,4
 200b0e0:	0023883a 	mov	r17,zero
 200b0e4:	0027883a 	mov	r19,zero
 200b0e8:	02000044 	movi	r8,1
 200b0ec:	003f6e06 	br	200aea8 <__reset+0xfe0036a8>
 200b0f0:	04800304 	movi	r18,12
 200b0f4:	020000c4 	movi	r8,3
 200b0f8:	003f6b06 	br	200aea8 <__reset+0xfe0036a8>
 200b0fc:	01400434 	movhi	r5,16
 200b100:	000d883a 	mov	r6,zero
 200b104:	297fffc4 	addi	r5,r5,-1
 200b108:	04ffffc4 	movi	r19,-1
 200b10c:	0101ffc4 	movi	r4,2047
 200b110:	003fa406 	br	200afa4 <__reset+0xfe0037a4>
 200b114:	043f0084 	movi	r16,-1022
 200b118:	8521c83a 	sub	r16,r16,r20
 200b11c:	00800e04 	movi	r2,56
 200b120:	1401200e 	bge	r2,r16,200b5a4 <__divdf3+0x778>
 200b124:	9180004c 	andi	r6,r18,1
 200b128:	0009883a 	mov	r4,zero
 200b12c:	000b883a 	mov	r5,zero
 200b130:	0027883a 	mov	r19,zero
 200b134:	003f9b06 	br	200afa4 <__reset+0xfe0037a4>
 200b138:	8880022c 	andhi	r2,r17,8
 200b13c:	1000c726 	beq	r2,zero,200b45c <__divdf3+0x630>
 200b140:	8080022c 	andhi	r2,r16,8
 200b144:	1000c51e 	bne	r2,zero,200b45c <__divdf3+0x630>
 200b148:	00800434 	movhi	r2,16
 200b14c:	81400234 	orhi	r5,r16,8
 200b150:	10bfffc4 	addi	r2,r2,-1
 200b154:	b80d883a 	mov	r6,r23
 200b158:	288a703a 	and	r5,r5,r2
 200b15c:	a827883a 	mov	r19,r21
 200b160:	003fea06 	br	200b10c <__reset+0xfe00390c>
 200b164:	8440ea36 	bltu	r16,r17,200b510 <__divdf3+0x6e4>
 200b168:	8c00e826 	beq	r17,r16,200b50c <__divdf3+0x6e0>
 200b16c:	a53fffc4 	addi	r20,r20,-1
 200b170:	882d883a 	mov	r22,r17
 200b174:	000d883a 	mov	r6,zero
 200b178:	a804d63a 	srli	r2,r21,24
 200b17c:	8020923a 	slli	r16,r16,8
 200b180:	b009883a 	mov	r4,r22
 200b184:	d9800315 	stw	r6,12(sp)
 200b188:	1420b03a 	or	r16,r2,r16
 200b18c:	802ed43a 	srli	r23,r16,16
 200b190:	873fffcc 	andi	fp,r16,65535
 200b194:	a82a923a 	slli	r21,r21,8
 200b198:	b80b883a 	mov	r5,r23
 200b19c:	200a5800 	call	200a580 <__udivsi3>
 200b1a0:	b009883a 	mov	r4,r22
 200b1a4:	b80b883a 	mov	r5,r23
 200b1a8:	1023883a 	mov	r17,r2
 200b1ac:	200a5880 	call	200a588 <__umodsi3>
 200b1b0:	1004943a 	slli	r2,r2,16
 200b1b4:	9808d43a 	srli	r4,r19,16
 200b1b8:	8f2d383a 	mul	r22,r17,fp
 200b1bc:	d9800317 	ldw	r6,12(sp)
 200b1c0:	1106b03a 	or	r3,r2,r4
 200b1c4:	1d80062e 	bgeu	r3,r22,200b1e0 <__divdf3+0x3b4>
 200b1c8:	1c07883a 	add	r3,r3,r16
 200b1cc:	88bfffc4 	addi	r2,r17,-1
 200b1d0:	1c00dc36 	bltu	r3,r16,200b544 <__divdf3+0x718>
 200b1d4:	1d80db2e 	bgeu	r3,r22,200b544 <__divdf3+0x718>
 200b1d8:	8c7fff84 	addi	r17,r17,-2
 200b1dc:	1c07883a 	add	r3,r3,r16
 200b1e0:	1dadc83a 	sub	r22,r3,r22
 200b1e4:	b009883a 	mov	r4,r22
 200b1e8:	b80b883a 	mov	r5,r23
 200b1ec:	d9800315 	stw	r6,12(sp)
 200b1f0:	200a5800 	call	200a580 <__udivsi3>
 200b1f4:	b009883a 	mov	r4,r22
 200b1f8:	b80b883a 	mov	r5,r23
 200b1fc:	d8800015 	stw	r2,0(sp)
 200b200:	200a5880 	call	200a588 <__umodsi3>
 200b204:	da400017 	ldw	r9,0(sp)
 200b208:	1004943a 	slli	r2,r2,16
 200b20c:	9cffffcc 	andi	r19,r19,65535
 200b210:	4f07383a 	mul	r3,r9,fp
 200b214:	14c8b03a 	or	r4,r2,r19
 200b218:	d9800317 	ldw	r6,12(sp)
 200b21c:	20c0062e 	bgeu	r4,r3,200b238 <__divdf3+0x40c>
 200b220:	2409883a 	add	r4,r4,r16
 200b224:	48bfffc4 	addi	r2,r9,-1
 200b228:	2400c436 	bltu	r4,r16,200b53c <__divdf3+0x710>
 200b22c:	20c0c32e 	bgeu	r4,r3,200b53c <__divdf3+0x710>
 200b230:	4a7fff84 	addi	r9,r9,-2
 200b234:	2409883a 	add	r4,r4,r16
 200b238:	8822943a 	slli	r17,r17,16
 200b23c:	a80ed43a 	srli	r7,r21,16
 200b240:	aa3fffcc 	andi	r8,r21,65535
 200b244:	4c62b03a 	or	r17,r9,r17
 200b248:	8816d43a 	srli	r11,r17,16
 200b24c:	897fffcc 	andi	r5,r17,65535
 200b250:	2a15383a 	mul	r10,r5,r8
 200b254:	5a19383a 	mul	r12,r11,r8
 200b258:	29cb383a 	mul	r5,r5,r7
 200b25c:	5012d43a 	srli	r9,r10,16
 200b260:	20c5c83a 	sub	r2,r4,r3
 200b264:	614b883a 	add	r5,r12,r5
 200b268:	2a4b883a 	add	r5,r5,r9
 200b26c:	59c7383a 	mul	r3,r11,r7
 200b270:	2b00022e 	bgeu	r5,r12,200b27c <__divdf3+0x450>
 200b274:	01000074 	movhi	r4,1
 200b278:	1907883a 	add	r3,r3,r4
 200b27c:	2808d43a 	srli	r4,r5,16
 200b280:	280a943a 	slli	r5,r5,16
 200b284:	54ffffcc 	andi	r19,r10,65535
 200b288:	1907883a 	add	r3,r3,r4
 200b28c:	2ccb883a 	add	r5,r5,r19
 200b290:	10c09336 	bltu	r2,r3,200b4e0 <__divdf3+0x6b4>
 200b294:	10c0ad26 	beq	r2,r3,200b54c <__divdf3+0x720>
 200b298:	10c7c83a 	sub	r3,r2,r3
 200b29c:	3167c83a 	sub	r19,r6,r5
 200b2a0:	34ed803a 	cmpltu	r22,r6,r19
 200b2a4:	1dadc83a 	sub	r22,r3,r22
 200b2a8:	b400b226 	beq	r22,r16,200b574 <__divdf3+0x748>
 200b2ac:	b009883a 	mov	r4,r22
 200b2b0:	b80b883a 	mov	r5,r23
 200b2b4:	d9c00115 	stw	r7,4(sp)
 200b2b8:	da000215 	stw	r8,8(sp)
 200b2bc:	200a5800 	call	200a580 <__udivsi3>
 200b2c0:	b009883a 	mov	r4,r22
 200b2c4:	b80b883a 	mov	r5,r23
 200b2c8:	d8800315 	stw	r2,12(sp)
 200b2cc:	200a5880 	call	200a588 <__umodsi3>
 200b2d0:	d9800317 	ldw	r6,12(sp)
 200b2d4:	1004943a 	slli	r2,r2,16
 200b2d8:	9808d43a 	srli	r4,r19,16
 200b2dc:	372d383a 	mul	r22,r6,fp
 200b2e0:	d9c00117 	ldw	r7,4(sp)
 200b2e4:	1106b03a 	or	r3,r2,r4
 200b2e8:	da000217 	ldw	r8,8(sp)
 200b2ec:	1d80062e 	bgeu	r3,r22,200b308 <__divdf3+0x4dc>
 200b2f0:	1c07883a 	add	r3,r3,r16
 200b2f4:	30bfffc4 	addi	r2,r6,-1
 200b2f8:	1c00a036 	bltu	r3,r16,200b57c <__divdf3+0x750>
 200b2fc:	1d809f2e 	bgeu	r3,r22,200b57c <__divdf3+0x750>
 200b300:	31bfff84 	addi	r6,r6,-2
 200b304:	1c07883a 	add	r3,r3,r16
 200b308:	1dadc83a 	sub	r22,r3,r22
 200b30c:	b009883a 	mov	r4,r22
 200b310:	b80b883a 	mov	r5,r23
 200b314:	d9800315 	stw	r6,12(sp)
 200b318:	d9c00115 	stw	r7,4(sp)
 200b31c:	da000215 	stw	r8,8(sp)
 200b320:	200a5800 	call	200a580 <__udivsi3>
 200b324:	b009883a 	mov	r4,r22
 200b328:	b80b883a 	mov	r5,r23
 200b32c:	d8800015 	stw	r2,0(sp)
 200b330:	200a5880 	call	200a588 <__umodsi3>
 200b334:	da400017 	ldw	r9,0(sp)
 200b338:	1004943a 	slli	r2,r2,16
 200b33c:	993fffcc 	andi	r4,r19,65535
 200b340:	4f39383a 	mul	fp,r9,fp
 200b344:	1106b03a 	or	r3,r2,r4
 200b348:	d9800317 	ldw	r6,12(sp)
 200b34c:	d9c00117 	ldw	r7,4(sp)
 200b350:	da000217 	ldw	r8,8(sp)
 200b354:	1f00062e 	bgeu	r3,fp,200b370 <__divdf3+0x544>
 200b358:	1c07883a 	add	r3,r3,r16
 200b35c:	48bfffc4 	addi	r2,r9,-1
 200b360:	1c008836 	bltu	r3,r16,200b584 <__divdf3+0x758>
 200b364:	1f00872e 	bgeu	r3,fp,200b584 <__divdf3+0x758>
 200b368:	4a7fff84 	addi	r9,r9,-2
 200b36c:	1c07883a 	add	r3,r3,r16
 200b370:	3008943a 	slli	r4,r6,16
 200b374:	1f07c83a 	sub	r3,r3,fp
 200b378:	4926b03a 	or	r19,r9,r4
 200b37c:	993fffcc 	andi	r4,r19,65535
 200b380:	980cd43a 	srli	r6,r19,16
 200b384:	220b383a 	mul	r5,r4,r8
 200b388:	21c5383a 	mul	r2,r4,r7
 200b38c:	3211383a 	mul	r8,r6,r8
 200b390:	2808d43a 	srli	r4,r5,16
 200b394:	31cf383a 	mul	r7,r6,r7
 200b398:	4085883a 	add	r2,r8,r2
 200b39c:	1105883a 	add	r2,r2,r4
 200b3a0:	1200022e 	bgeu	r2,r8,200b3ac <__divdf3+0x580>
 200b3a4:	01000074 	movhi	r4,1
 200b3a8:	390f883a 	add	r7,r7,r4
 200b3ac:	1008d43a 	srli	r4,r2,16
 200b3b0:	1004943a 	slli	r2,r2,16
 200b3b4:	297fffcc 	andi	r5,r5,65535
 200b3b8:	390f883a 	add	r7,r7,r4
 200b3bc:	1145883a 	add	r2,r2,r5
 200b3c0:	19c06536 	bltu	r3,r7,200b558 <__divdf3+0x72c>
 200b3c4:	19c09f26 	beq	r3,r7,200b644 <__divdf3+0x818>
 200b3c8:	9cc00054 	ori	r19,r19,1
 200b3cc:	a100ffc4 	addi	r4,r20,1023
 200b3d0:	013f500e 	bge	zero,r4,200b114 <__reset+0xfe003914>
 200b3d4:	988001cc 	andi	r2,r19,7
 200b3d8:	10000726 	beq	r2,zero,200b3f8 <__divdf3+0x5cc>
 200b3dc:	98c003cc 	andi	r3,r19,15
 200b3e0:	00800104 	movi	r2,4
 200b3e4:	18800426 	beq	r3,r2,200b3f8 <__divdf3+0x5cc>
 200b3e8:	9885883a 	add	r2,r19,r2
 200b3ec:	14e1803a 	cmpltu	r16,r2,r19
 200b3f0:	8c23883a 	add	r17,r17,r16
 200b3f4:	1027883a 	mov	r19,r2
 200b3f8:	8880402c 	andhi	r2,r17,256
 200b3fc:	10000426 	beq	r2,zero,200b410 <__divdf3+0x5e4>
 200b400:	00bfc034 	movhi	r2,65280
 200b404:	10bfffc4 	addi	r2,r2,-1
 200b408:	a1010004 	addi	r4,r20,1024
 200b40c:	88a2703a 	and	r17,r17,r2
 200b410:	0081ff84 	movi	r2,2046
 200b414:	113edf16 	blt	r2,r4,200af94 <__reset+0xfe003794>
 200b418:	9826d0fa 	srli	r19,r19,3
 200b41c:	8804977a 	slli	r2,r17,29
 200b420:	8820927a 	slli	r16,r17,9
 200b424:	2101ffcc 	andi	r4,r4,2047
 200b428:	14e6b03a 	or	r19,r2,r19
 200b42c:	800ad33a 	srli	r5,r16,12
 200b430:	9180004c 	andi	r6,r18,1
 200b434:	003edb06 	br	200afa4 <__reset+0xfe0037a4>
 200b438:	008000c4 	movi	r2,3
 200b43c:	4080a826 	beq	r8,r2,200b6e0 <__divdf3+0x8b4>
 200b440:	00800044 	movi	r2,1
 200b444:	4080551e 	bne	r8,r2,200b59c <__divdf3+0x770>
 200b448:	e00d883a 	mov	r6,fp
 200b44c:	0009883a 	mov	r4,zero
 200b450:	000b883a 	mov	r5,zero
 200b454:	0027883a 	mov	r19,zero
 200b458:	003ed206 	br	200afa4 <__reset+0xfe0037a4>
 200b45c:	00800434 	movhi	r2,16
 200b460:	89400234 	orhi	r5,r17,8
 200b464:	10bfffc4 	addi	r2,r2,-1
 200b468:	b00d883a 	mov	r6,r22
 200b46c:	288a703a 	and	r5,r5,r2
 200b470:	003f2606 	br	200b10c <__reset+0xfe00390c>
 200b474:	d9800315 	stw	r6,12(sp)
 200b478:	d9c00115 	stw	r7,4(sp)
 200b47c:	200c9240 	call	200c924 <__clzsi2>
 200b480:	10c00804 	addi	r3,r2,32
 200b484:	010009c4 	movi	r4,39
 200b488:	d9800317 	ldw	r6,12(sp)
 200b48c:	d9c00117 	ldw	r7,4(sp)
 200b490:	20fee30e 	bge	r4,r3,200b020 <__reset+0xfe003820>
 200b494:	117ffe04 	addi	r5,r2,-8
 200b498:	9162983a 	sll	r17,r18,r5
 200b49c:	0027883a 	mov	r19,zero
 200b4a0:	003ee606 	br	200b03c <__reset+0xfe00383c>
 200b4a4:	3009883a 	mov	r4,r6
 200b4a8:	d9800315 	stw	r6,12(sp)
 200b4ac:	da000215 	stw	r8,8(sp)
 200b4b0:	da400015 	stw	r9,0(sp)
 200b4b4:	200c9240 	call	200c924 <__clzsi2>
 200b4b8:	10c00804 	addi	r3,r2,32
 200b4bc:	010009c4 	movi	r4,39
 200b4c0:	d9800317 	ldw	r6,12(sp)
 200b4c4:	da000217 	ldw	r8,8(sp)
 200b4c8:	da400017 	ldw	r9,0(sp)
 200b4cc:	20fef20e 	bge	r4,r3,200b098 <__reset+0xfe003898>
 200b4d0:	10bffe04 	addi	r2,r2,-8
 200b4d4:	a8a0983a 	sll	r16,r21,r2
 200b4d8:	002b883a 	mov	r21,zero
 200b4dc:	003ef506 	br	200b0b4 <__reset+0xfe0038b4>
 200b4e0:	354d883a 	add	r6,r6,r21
 200b4e4:	3549803a 	cmpltu	r4,r6,r21
 200b4e8:	2409883a 	add	r4,r4,r16
 200b4ec:	2089883a 	add	r4,r4,r2
 200b4f0:	88bfffc4 	addi	r2,r17,-1
 200b4f4:	81000c2e 	bgeu	r16,r4,200b528 <__divdf3+0x6fc>
 200b4f8:	20c04436 	bltu	r4,r3,200b60c <__divdf3+0x7e0>
 200b4fc:	19006f26 	beq	r3,r4,200b6bc <__divdf3+0x890>
 200b500:	20c7c83a 	sub	r3,r4,r3
 200b504:	1023883a 	mov	r17,r2
 200b508:	003f6406 	br	200b29c <__reset+0xfe003a9c>
 200b50c:	9d7f1736 	bltu	r19,r21,200b16c <__reset+0xfe00396c>
 200b510:	9806d07a 	srli	r3,r19,1
 200b514:	880497fa 	slli	r2,r17,31
 200b518:	980c97fa 	slli	r6,r19,31
 200b51c:	882cd07a 	srli	r22,r17,1
 200b520:	18a6b03a 	or	r19,r3,r2
 200b524:	003f1406 	br	200b178 <__reset+0xfe003978>
 200b528:	243ff51e 	bne	r4,r16,200b500 <__reset+0xfe003d00>
 200b52c:	357ff22e 	bgeu	r6,r21,200b4f8 <__reset+0xfe003cf8>
 200b530:	80c7c83a 	sub	r3,r16,r3
 200b534:	1023883a 	mov	r17,r2
 200b538:	003f5806 	br	200b29c <__reset+0xfe003a9c>
 200b53c:	1013883a 	mov	r9,r2
 200b540:	003f3d06 	br	200b238 <__reset+0xfe003a38>
 200b544:	1023883a 	mov	r17,r2
 200b548:	003f2506 	br	200b1e0 <__reset+0xfe0039e0>
 200b54c:	317fe436 	bltu	r6,r5,200b4e0 <__reset+0xfe003ce0>
 200b550:	0007883a 	mov	r3,zero
 200b554:	003f5106 	br	200b29c <__reset+0xfe003a9c>
 200b558:	1c07883a 	add	r3,r3,r16
 200b55c:	993fffc4 	addi	r4,r19,-1
 200b560:	1c000a2e 	bgeu	r3,r16,200b58c <__divdf3+0x760>
 200b564:	2027883a 	mov	r19,r4
 200b568:	19ff971e 	bne	r3,r7,200b3c8 <__reset+0xfe003bc8>
 200b56c:	a8bf961e 	bne	r21,r2,200b3c8 <__reset+0xfe003bc8>
 200b570:	003f9606 	br	200b3cc <__reset+0xfe003bcc>
 200b574:	04ffffc4 	movi	r19,-1
 200b578:	003f9406 	br	200b3cc <__reset+0xfe003bcc>
 200b57c:	100d883a 	mov	r6,r2
 200b580:	003f6106 	br	200b308 <__reset+0xfe003b08>
 200b584:	1013883a 	mov	r9,r2
 200b588:	003f7906 	br	200b370 <__reset+0xfe003b70>
 200b58c:	19c02636 	bltu	r3,r7,200b628 <__divdf3+0x7fc>
 200b590:	38c04d26 	beq	r7,r3,200b6c8 <__divdf3+0x89c>
 200b594:	2027883a 	mov	r19,r4
 200b598:	003f8b06 	br	200b3c8 <__reset+0xfe003bc8>
 200b59c:	e025883a 	mov	r18,fp
 200b5a0:	003f8a06 	br	200b3cc <__reset+0xfe003bcc>
 200b5a4:	008007c4 	movi	r2,31
 200b5a8:	14002a16 	blt	r2,r16,200b654 <__divdf3+0x828>
 200b5ac:	a5010784 	addi	r20,r20,1054
 200b5b0:	8d04983a 	sll	r2,r17,r20
 200b5b4:	9c06d83a 	srl	r3,r19,r16
 200b5b8:	9d28983a 	sll	r20,r19,r20
 200b5bc:	8c20d83a 	srl	r16,r17,r16
 200b5c0:	1886b03a 	or	r3,r3,r2
 200b5c4:	a004c03a 	cmpne	r2,r20,zero
 200b5c8:	1884b03a 	or	r2,r3,r2
 200b5cc:	10c001cc 	andi	r3,r2,7
 200b5d0:	18000726 	beq	r3,zero,200b5f0 <__divdf3+0x7c4>
 200b5d4:	110003cc 	andi	r4,r2,15
 200b5d8:	00c00104 	movi	r3,4
 200b5dc:	20c00426 	beq	r4,r3,200b5f0 <__divdf3+0x7c4>
 200b5e0:	10c00104 	addi	r3,r2,4
 200b5e4:	1885803a 	cmpltu	r2,r3,r2
 200b5e8:	80a1883a 	add	r16,r16,r2
 200b5ec:	1805883a 	mov	r2,r3
 200b5f0:	80c0202c 	andhi	r3,r16,128
 200b5f4:	18002d26 	beq	r3,zero,200b6ac <__divdf3+0x880>
 200b5f8:	9180004c 	andi	r6,r18,1
 200b5fc:	01000044 	movi	r4,1
 200b600:	000b883a 	mov	r5,zero
 200b604:	0027883a 	mov	r19,zero
 200b608:	003e6606 	br	200afa4 <__reset+0xfe0037a4>
 200b60c:	354d883a 	add	r6,r6,r21
 200b610:	356d803a 	cmpltu	r22,r6,r21
 200b614:	b42d883a 	add	r22,r22,r16
 200b618:	b12d883a 	add	r22,r22,r4
 200b61c:	8c7fff84 	addi	r17,r17,-2
 200b620:	b0c7c83a 	sub	r3,r22,r3
 200b624:	003f1d06 	br	200b29c <__reset+0xfe003a9c>
 200b628:	ad4b883a 	add	r5,r21,r21
 200b62c:	2d6b803a 	cmpltu	r21,r5,r21
 200b630:	ac2b883a 	add	r21,r21,r16
 200b634:	1d47883a 	add	r3,r3,r21
 200b638:	993fff84 	addi	r4,r19,-2
 200b63c:	282b883a 	mov	r21,r5
 200b640:	003fc806 	br	200b564 <__reset+0xfe003d64>
 200b644:	103fc41e 	bne	r2,zero,200b558 <__reset+0xfe003d58>
 200b648:	002b883a 	mov	r21,zero
 200b64c:	a8bf5e1e 	bne	r21,r2,200b3c8 <__reset+0xfe003bc8>
 200b650:	003f5e06 	br	200b3cc <__reset+0xfe003bcc>
 200b654:	00bef884 	movi	r2,-1054
 200b658:	1505c83a 	sub	r2,r2,r20
 200b65c:	00c00804 	movi	r3,32
 200b660:	8884d83a 	srl	r2,r17,r2
 200b664:	80c01c26 	beq	r16,r3,200b6d8 <__divdf3+0x8ac>
 200b668:	a0c10f84 	addi	r3,r20,1086
 200b66c:	88c6983a 	sll	r3,r17,r3
 200b670:	1cc6b03a 	or	r3,r3,r19
 200b674:	1806c03a 	cmpne	r3,r3,zero
 200b678:	1884b03a 	or	r2,r3,r2
 200b67c:	140001cc 	andi	r16,r2,7
 200b680:	8000061e 	bne	r16,zero,200b69c <__divdf3+0x870>
 200b684:	000b883a 	mov	r5,zero
 200b688:	1004d0fa 	srli	r2,r2,3
 200b68c:	9180004c 	andi	r6,r18,1
 200b690:	0009883a 	mov	r4,zero
 200b694:	1426b03a 	or	r19,r2,r16
 200b698:	003e4206 	br	200afa4 <__reset+0xfe0037a4>
 200b69c:	110003cc 	andi	r4,r2,15
 200b6a0:	00c00104 	movi	r3,4
 200b6a4:	0021883a 	mov	r16,zero
 200b6a8:	20ffcd1e 	bne	r4,r3,200b5e0 <__reset+0xfe003de0>
 200b6ac:	800a927a 	slli	r5,r16,9
 200b6b0:	8020977a 	slli	r16,r16,29
 200b6b4:	280ad33a 	srli	r5,r5,12
 200b6b8:	003ff306 	br	200b688 <__reset+0xfe003e88>
 200b6bc:	317fd336 	bltu	r6,r5,200b60c <__reset+0xfe003e0c>
 200b6c0:	1023883a 	mov	r17,r2
 200b6c4:	003fa206 	br	200b550 <__reset+0xfe003d50>
 200b6c8:	a8bfd736 	bltu	r21,r2,200b628 <__reset+0xfe003e28>
 200b6cc:	2027883a 	mov	r19,r4
 200b6d0:	a8bf3d1e 	bne	r21,r2,200b3c8 <__reset+0xfe003bc8>
 200b6d4:	003f3d06 	br	200b3cc <__reset+0xfe003bcc>
 200b6d8:	0007883a 	mov	r3,zero
 200b6dc:	003fe406 	br	200b670 <__reset+0xfe003e70>
 200b6e0:	00800434 	movhi	r2,16
 200b6e4:	89400234 	orhi	r5,r17,8
 200b6e8:	10bfffc4 	addi	r2,r2,-1
 200b6ec:	e00d883a 	mov	r6,fp
 200b6f0:	288a703a 	and	r5,r5,r2
 200b6f4:	003e8506 	br	200b10c <__reset+0xfe00390c>

0200b6f8 <__ledf2>:
 200b6f8:	2804d53a 	srli	r2,r5,20
 200b6fc:	3810d53a 	srli	r8,r7,20
 200b700:	00c00434 	movhi	r3,16
 200b704:	18ffffc4 	addi	r3,r3,-1
 200b708:	0241ffc4 	movi	r9,2047
 200b70c:	1081ffcc 	andi	r2,r2,2047
 200b710:	28d4703a 	and	r10,r5,r3
 200b714:	4250703a 	and	r8,r8,r9
 200b718:	38c6703a 	and	r3,r7,r3
 200b71c:	280ad7fa 	srli	r5,r5,31
 200b720:	380ed7fa 	srli	r7,r7,31
 200b724:	12400b26 	beq	r2,r9,200b754 <__ledf2+0x5c>
 200b728:	42401926 	beq	r8,r9,200b790 <__ledf2+0x98>
 200b72c:	10000c1e 	bne	r2,zero,200b760 <__ledf2+0x68>
 200b730:	5112b03a 	or	r9,r10,r4
 200b734:	4813003a 	cmpeq	r9,r9,zero
 200b738:	4817883a 	mov	r11,r9
 200b73c:	40000f26 	beq	r8,zero,200b77c <__ledf2+0x84>
 200b740:	39c03fcc 	andi	r7,r7,255
 200b744:	58001826 	beq	r11,zero,200b7a8 <__ledf2+0xb0>
 200b748:	38000a1e 	bne	r7,zero,200b774 <__ledf2+0x7c>
 200b74c:	00bfffc4 	movi	r2,-1
 200b750:	f800283a 	ret
 200b754:	5112b03a 	or	r9,r10,r4
 200b758:	48000f1e 	bne	r9,zero,200b798 <__ledf2+0xa0>
 200b75c:	40800c26 	beq	r8,r2,200b790 <__ledf2+0x98>
 200b760:	4000101e 	bne	r8,zero,200b7a4 <__ledf2+0xac>
 200b764:	1992b03a 	or	r9,r3,r6
 200b768:	0017883a 	mov	r11,zero
 200b76c:	483ff41e 	bne	r9,zero,200b740 <__reset+0xfe003f40>
 200b770:	283ff61e 	bne	r5,zero,200b74c <__reset+0xfe003f4c>
 200b774:	00800044 	movi	r2,1
 200b778:	f800283a 	ret
 200b77c:	1998b03a 	or	r12,r3,r6
 200b780:	603fef1e 	bne	r12,zero,200b740 <__reset+0xfe003f40>
 200b784:	483ffa26 	beq	r9,zero,200b770 <__reset+0xfe003f70>
 200b788:	0005883a 	mov	r2,zero
 200b78c:	f800283a 	ret
 200b790:	1992b03a 	or	r9,r3,r6
 200b794:	48000226 	beq	r9,zero,200b7a0 <__ledf2+0xa8>
 200b798:	00800084 	movi	r2,2
 200b79c:	f800283a 	ret
 200b7a0:	103fe326 	beq	r2,zero,200b730 <__reset+0xfe003f30>
 200b7a4:	39c03fcc 	andi	r7,r7,255
 200b7a8:	29fff11e 	bne	r5,r7,200b770 <__reset+0xfe003f70>
 200b7ac:	40bff016 	blt	r8,r2,200b770 <__reset+0xfe003f70>
 200b7b0:	12000316 	blt	r2,r8,200b7c0 <__ledf2+0xc8>
 200b7b4:	1abfee36 	bltu	r3,r10,200b770 <__reset+0xfe003f70>
 200b7b8:	50c00326 	beq	r10,r3,200b7c8 <__ledf2+0xd0>
 200b7bc:	50fff22e 	bgeu	r10,r3,200b788 <__reset+0xfe003f88>
 200b7c0:	283fe226 	beq	r5,zero,200b74c <__reset+0xfe003f4c>
 200b7c4:	003feb06 	br	200b774 <__reset+0xfe003f74>
 200b7c8:	313fe936 	bltu	r6,r4,200b770 <__reset+0xfe003f70>
 200b7cc:	21bfee2e 	bgeu	r4,r6,200b788 <__reset+0xfe003f88>
 200b7d0:	283fde26 	beq	r5,zero,200b74c <__reset+0xfe003f4c>
 200b7d4:	003fe706 	br	200b774 <__reset+0xfe003f74>

0200b7d8 <__muldf3>:
 200b7d8:	defff204 	addi	sp,sp,-56
 200b7dc:	2804d53a 	srli	r2,r5,20
 200b7e0:	dd800a15 	stw	r22,40(sp)
 200b7e4:	282cd7fa 	srli	r22,r5,31
 200b7e8:	dc000415 	stw	r16,16(sp)
 200b7ec:	04000434 	movhi	r16,16
 200b7f0:	df000c15 	stw	fp,48(sp)
 200b7f4:	dd000815 	stw	r20,32(sp)
 200b7f8:	dcc00715 	stw	r19,28(sp)
 200b7fc:	dc800615 	stw	r18,24(sp)
 200b800:	dc400515 	stw	r17,20(sp)
 200b804:	843fffc4 	addi	r16,r16,-1
 200b808:	dfc00d15 	stw	ra,52(sp)
 200b80c:	ddc00b15 	stw	r23,44(sp)
 200b810:	dd400915 	stw	r21,36(sp)
 200b814:	1501ffcc 	andi	r20,r2,2047
 200b818:	2023883a 	mov	r17,r4
 200b81c:	2025883a 	mov	r18,r4
 200b820:	2c20703a 	and	r16,r5,r16
 200b824:	b027883a 	mov	r19,r22
 200b828:	b7003fcc 	andi	fp,r22,255
 200b82c:	a0005926 	beq	r20,zero,200b994 <__muldf3+0x1bc>
 200b830:	0081ffc4 	movi	r2,2047
 200b834:	a0803426 	beq	r20,r2,200b908 <__muldf3+0x130>
 200b838:	84000434 	orhi	r16,r16,16
 200b83c:	2004d77a 	srli	r2,r4,29
 200b840:	802090fa 	slli	r16,r16,3
 200b844:	202490fa 	slli	r18,r4,3
 200b848:	a53f0044 	addi	r20,r20,-1023
 200b84c:	80a0b03a 	or	r16,r16,r2
 200b850:	002b883a 	mov	r21,zero
 200b854:	0015883a 	mov	r10,zero
 200b858:	3812d53a 	srli	r9,r7,20
 200b85c:	3806d7fa 	srli	r3,r7,31
 200b860:	02000434 	movhi	r8,16
 200b864:	423fffc4 	addi	r8,r8,-1
 200b868:	4941ffcc 	andi	r5,r9,2047
 200b86c:	302f883a 	mov	r23,r6
 200b870:	3a22703a 	and	r17,r7,r8
 200b874:	1ac03fcc 	andi	r11,r3,255
 200b878:	28006226 	beq	r5,zero,200ba04 <__muldf3+0x22c>
 200b87c:	0081ffc4 	movi	r2,2047
 200b880:	28805a26 	beq	r5,r2,200b9ec <__muldf3+0x214>
 200b884:	8a000434 	orhi	r8,r17,16
 200b888:	3004d77a 	srli	r2,r6,29
 200b88c:	401090fa 	slli	r8,r8,3
 200b890:	302e90fa 	slli	r23,r6,3
 200b894:	297f0044 	addi	r5,r5,-1023
 200b898:	40a2b03a 	or	r17,r8,r2
 200b89c:	0013883a 	mov	r9,zero
 200b8a0:	4d4cb03a 	or	r6,r9,r21
 200b8a4:	300c90ba 	slli	r6,r6,2
 200b8a8:	02008074 	movhi	r8,513
 200b8ac:	422e3204 	addi	r8,r8,-18232
 200b8b0:	320d883a 	add	r6,r6,r8
 200b8b4:	31800017 	ldw	r6,0(r6)
 200b8b8:	a14b883a 	add	r5,r20,r5
 200b8bc:	1dacf03a 	xor	r22,r3,r22
 200b8c0:	2b000044 	addi	r12,r5,1
 200b8c4:	3000683a 	jmp	r6
 200b8c8:	0200bb04 	movi	r8,748
 200b8cc:	0200baf0 	cmpltui	r8,zero,747
 200b8d0:	0200baf0 	cmpltui	r8,zero,747
 200b8d4:	0200badc 	xori	r8,zero,747
 200b8d8:	0200b924 	muli	r8,zero,740
 200b8dc:	0200b924 	muli	r8,zero,740
 200b8e0:	0200bac4 	movi	r8,747
 200b8e4:	0200badc 	xori	r8,zero,747
 200b8e8:	0200b924 	muli	r8,zero,740
 200b8ec:	0200bac4 	movi	r8,747
 200b8f0:	0200b924 	muli	r8,zero,740
 200b8f4:	0200badc 	xori	r8,zero,747
 200b8f8:	0200b928 	cmpgeui	r8,zero,740
 200b8fc:	0200b928 	cmpgeui	r8,zero,740
 200b900:	0200b928 	cmpgeui	r8,zero,740
 200b904:	0200bd00 	call	200bd0 <__alt_mem_SDRAM-0x1dff430>
 200b908:	8104b03a 	or	r2,r16,r4
 200b90c:	10006a1e 	bne	r2,zero,200bab8 <__muldf3+0x2e0>
 200b910:	05400204 	movi	r21,8
 200b914:	0021883a 	mov	r16,zero
 200b918:	0025883a 	mov	r18,zero
 200b91c:	02800084 	movi	r10,2
 200b920:	003fcd06 	br	200b858 <__reset+0xfe004058>
 200b924:	b039883a 	mov	fp,r22
 200b928:	00800084 	movi	r2,2
 200b92c:	50804e1e 	bne	r10,r2,200ba68 <__muldf3+0x290>
 200b930:	e4c0004c 	andi	r19,fp,1
 200b934:	0101ffc4 	movi	r4,2047
 200b938:	0021883a 	mov	r16,zero
 200b93c:	0025883a 	mov	r18,zero
 200b940:	2008953a 	slli	r4,r4,20
 200b944:	98c03fcc 	andi	r3,r19,255
 200b948:	01400434 	movhi	r5,16
 200b94c:	297fffc4 	addi	r5,r5,-1
 200b950:	180697fa 	slli	r3,r3,31
 200b954:	8160703a 	and	r16,r16,r5
 200b958:	8120b03a 	or	r16,r16,r4
 200b95c:	80c6b03a 	or	r3,r16,r3
 200b960:	9005883a 	mov	r2,r18
 200b964:	dfc00d17 	ldw	ra,52(sp)
 200b968:	df000c17 	ldw	fp,48(sp)
 200b96c:	ddc00b17 	ldw	r23,44(sp)
 200b970:	dd800a17 	ldw	r22,40(sp)
 200b974:	dd400917 	ldw	r21,36(sp)
 200b978:	dd000817 	ldw	r20,32(sp)
 200b97c:	dcc00717 	ldw	r19,28(sp)
 200b980:	dc800617 	ldw	r18,24(sp)
 200b984:	dc400517 	ldw	r17,20(sp)
 200b988:	dc000417 	ldw	r16,16(sp)
 200b98c:	dec00e04 	addi	sp,sp,56
 200b990:	f800283a 	ret
 200b994:	8104b03a 	or	r2,r16,r4
 200b998:	10004226 	beq	r2,zero,200baa4 <__muldf3+0x2cc>
 200b99c:	8000f926 	beq	r16,zero,200bd84 <__muldf3+0x5ac>
 200b9a0:	8009883a 	mov	r4,r16
 200b9a4:	d9800315 	stw	r6,12(sp)
 200b9a8:	d9c00015 	stw	r7,0(sp)
 200b9ac:	200c9240 	call	200c924 <__clzsi2>
 200b9b0:	d9800317 	ldw	r6,12(sp)
 200b9b4:	d9c00017 	ldw	r7,0(sp)
 200b9b8:	1007883a 	mov	r3,r2
 200b9bc:	01000a04 	movi	r4,40
 200b9c0:	18bffe04 	addi	r2,r3,-8
 200b9c4:	20c9c83a 	sub	r4,r4,r3
 200b9c8:	80a0983a 	sll	r16,r16,r2
 200b9cc:	8908d83a 	srl	r4,r17,r4
 200b9d0:	88a4983a 	sll	r18,r17,r2
 200b9d4:	2420b03a 	or	r16,r4,r16
 200b9d8:	017f0344 	movi	r5,-1011
 200b9dc:	28e9c83a 	sub	r20,r5,r3
 200b9e0:	002b883a 	mov	r21,zero
 200b9e4:	0015883a 	mov	r10,zero
 200b9e8:	003f9b06 	br	200b858 <__reset+0xfe004058>
 200b9ec:	8984b03a 	or	r2,r17,r6
 200b9f0:	10002a1e 	bne	r2,zero,200ba9c <__muldf3+0x2c4>
 200b9f4:	0023883a 	mov	r17,zero
 200b9f8:	002f883a 	mov	r23,zero
 200b9fc:	02400084 	movi	r9,2
 200ba00:	003fa706 	br	200b8a0 <__reset+0xfe0040a0>
 200ba04:	8984b03a 	or	r2,r17,r6
 200ba08:	10002026 	beq	r2,zero,200ba8c <__muldf3+0x2b4>
 200ba0c:	8800cc26 	beq	r17,zero,200bd40 <__muldf3+0x568>
 200ba10:	8809883a 	mov	r4,r17
 200ba14:	d8c00215 	stw	r3,8(sp)
 200ba18:	d9800315 	stw	r6,12(sp)
 200ba1c:	da800015 	stw	r10,0(sp)
 200ba20:	dac00115 	stw	r11,4(sp)
 200ba24:	200c9240 	call	200c924 <__clzsi2>
 200ba28:	d8c00217 	ldw	r3,8(sp)
 200ba2c:	d9800317 	ldw	r6,12(sp)
 200ba30:	da800017 	ldw	r10,0(sp)
 200ba34:	dac00117 	ldw	r11,4(sp)
 200ba38:	1009883a 	mov	r4,r2
 200ba3c:	01400a04 	movi	r5,40
 200ba40:	25fffe04 	addi	r23,r4,-8
 200ba44:	290bc83a 	sub	r5,r5,r4
 200ba48:	8dd0983a 	sll	r8,r17,r23
 200ba4c:	314ad83a 	srl	r5,r6,r5
 200ba50:	35ee983a 	sll	r23,r6,r23
 200ba54:	2a22b03a 	or	r17,r5,r8
 200ba58:	017f0344 	movi	r5,-1011
 200ba5c:	290bc83a 	sub	r5,r5,r4
 200ba60:	0013883a 	mov	r9,zero
 200ba64:	003f8e06 	br	200b8a0 <__reset+0xfe0040a0>
 200ba68:	008000c4 	movi	r2,3
 200ba6c:	50811d26 	beq	r10,r2,200bee4 <__muldf3+0x70c>
 200ba70:	00800044 	movi	r2,1
 200ba74:	5080e01e 	bne	r10,r2,200bdf8 <__muldf3+0x620>
 200ba78:	e0a6703a 	and	r19,fp,r2
 200ba7c:	0009883a 	mov	r4,zero
 200ba80:	0021883a 	mov	r16,zero
 200ba84:	0025883a 	mov	r18,zero
 200ba88:	003fad06 	br	200b940 <__reset+0xfe004140>
 200ba8c:	0023883a 	mov	r17,zero
 200ba90:	002f883a 	mov	r23,zero
 200ba94:	02400044 	movi	r9,1
 200ba98:	003f8106 	br	200b8a0 <__reset+0xfe0040a0>
 200ba9c:	024000c4 	movi	r9,3
 200baa0:	003f7f06 	br	200b8a0 <__reset+0xfe0040a0>
 200baa4:	05400104 	movi	r21,4
 200baa8:	0021883a 	mov	r16,zero
 200baac:	0025883a 	mov	r18,zero
 200bab0:	02800044 	movi	r10,1
 200bab4:	003f6806 	br	200b858 <__reset+0xfe004058>
 200bab8:	05400304 	movi	r21,12
 200babc:	028000c4 	movi	r10,3
 200bac0:	003f6506 	br	200b858 <__reset+0xfe004058>
 200bac4:	04000434 	movhi	r16,16
 200bac8:	0027883a 	mov	r19,zero
 200bacc:	843fffc4 	addi	r16,r16,-1
 200bad0:	04bfffc4 	movi	r18,-1
 200bad4:	0101ffc4 	movi	r4,2047
 200bad8:	003f9906 	br	200b940 <__reset+0xfe004140>
 200badc:	8821883a 	mov	r16,r17
 200bae0:	b825883a 	mov	r18,r23
 200bae4:	5839883a 	mov	fp,r11
 200bae8:	4815883a 	mov	r10,r9
 200baec:	003f8e06 	br	200b928 <__reset+0xfe004128>
 200baf0:	8821883a 	mov	r16,r17
 200baf4:	b825883a 	mov	r18,r23
 200baf8:	b039883a 	mov	fp,r22
 200bafc:	4815883a 	mov	r10,r9
 200bb00:	003f8906 	br	200b928 <__reset+0xfe004128>
 200bb04:	b80cd43a 	srli	r6,r23,16
 200bb08:	9006d43a 	srli	r3,r18,16
 200bb0c:	90bfffcc 	andi	r2,r18,65535
 200bb10:	bdffffcc 	andi	r23,r23,65535
 200bb14:	b891383a 	mul	r8,r23,r2
 200bb18:	b8c9383a 	mul	r4,r23,r3
 200bb1c:	309b383a 	mul	r13,r6,r2
 200bb20:	400ed43a 	srli	r7,r8,16
 200bb24:	30df383a 	mul	r15,r6,r3
 200bb28:	235b883a 	add	r13,r4,r13
 200bb2c:	69db883a 	add	r13,r13,r7
 200bb30:	6900022e 	bgeu	r13,r4,200bb3c <__muldf3+0x364>
 200bb34:	01000074 	movhi	r4,1
 200bb38:	791f883a 	add	r15,r15,r4
 200bb3c:	8828d43a 	srli	r20,r17,16
 200bb40:	8c7fffcc 	andi	r17,r17,65535
 200bb44:	888f383a 	mul	r7,r17,r2
 200bb48:	88d3383a 	mul	r9,r17,r3
 200bb4c:	a0a5383a 	mul	r18,r20,r2
 200bb50:	3816d43a 	srli	r11,r7,16
 200bb54:	6814943a 	slli	r10,r13,16
 200bb58:	4ca5883a 	add	r18,r9,r18
 200bb5c:	423fffcc 	andi	r8,r8,65535
 200bb60:	92e5883a 	add	r18,r18,r11
 200bb64:	6808d43a 	srli	r4,r13,16
 200bb68:	5215883a 	add	r10,r10,r8
 200bb6c:	a0c7383a 	mul	r3,r20,r3
 200bb70:	9240022e 	bgeu	r18,r9,200bb7c <__muldf3+0x3a4>
 200bb74:	00800074 	movhi	r2,1
 200bb78:	1887883a 	add	r3,r3,r2
 200bb7c:	802ad43a 	srli	r21,r16,16
 200bb80:	80bfffcc 	andi	r2,r16,65535
 200bb84:	b893383a 	mul	r9,r23,r2
 200bb88:	3091383a 	mul	r8,r6,r2
 200bb8c:	bd6f383a 	mul	r23,r23,r21
 200bb90:	9026943a 	slli	r19,r18,16
 200bb94:	481ad43a 	srli	r13,r9,16
 200bb98:	9024d43a 	srli	r18,r18,16
 200bb9c:	39ffffcc 	andi	r7,r7,65535
 200bba0:	ba11883a 	add	r8,r23,r8
 200bba4:	99e7883a 	add	r19,r19,r7
 200bba8:	4351883a 	add	r8,r8,r13
 200bbac:	1c97883a 	add	r11,r3,r18
 200bbb0:	354d383a 	mul	r6,r6,r21
 200bbb4:	9925883a 	add	r18,r19,r4
 200bbb8:	45c0022e 	bgeu	r8,r23,200bbc4 <__muldf3+0x3ec>
 200bbbc:	00c00074 	movhi	r3,1
 200bbc0:	30cd883a 	add	r6,r6,r3
 200bbc4:	8889383a 	mul	r4,r17,r2
 200bbc8:	8d63383a 	mul	r17,r17,r21
 200bbcc:	a085383a 	mul	r2,r20,r2
 200bbd0:	200ed43a 	srli	r7,r4,16
 200bbd4:	401cd43a 	srli	r14,r8,16
 200bbd8:	401a943a 	slli	r13,r8,16
 200bbdc:	8885883a 	add	r2,r17,r2
 200bbe0:	4a3fffcc 	andi	r8,r9,65535
 200bbe4:	11c5883a 	add	r2,r2,r7
 200bbe8:	339d883a 	add	r14,r6,r14
 200bbec:	6a11883a 	add	r8,r13,r8
 200bbf0:	a561383a 	mul	r16,r20,r21
 200bbf4:	1440022e 	bgeu	r2,r17,200bc00 <__muldf3+0x428>
 200bbf8:	00c00074 	movhi	r3,1
 200bbfc:	80e1883a 	add	r16,r16,r3
 200bc00:	1006943a 	slli	r3,r2,16
 200bc04:	213fffcc 	andi	r4,r4,65535
 200bc08:	93db883a 	add	r13,r18,r15
 200bc0c:	1909883a 	add	r4,r3,r4
 200bc10:	22c7883a 	add	r3,r4,r11
 200bc14:	6cd3803a 	cmpltu	r9,r13,r19
 200bc18:	6a09883a 	add	r4,r13,r8
 200bc1c:	1a5b883a 	add	r13,r3,r9
 200bc20:	2211803a 	cmpltu	r8,r4,r8
 200bc24:	734d883a 	add	r6,r14,r13
 200bc28:	100ed43a 	srli	r7,r2,16
 200bc2c:	6a53803a 	cmpltu	r9,r13,r9
 200bc30:	3205883a 	add	r2,r6,r8
 200bc34:	1ac7803a 	cmpltu	r3,r3,r11
 200bc38:	1211803a 	cmpltu	r8,r2,r8
 200bc3c:	48c6b03a 	or	r3,r9,r3
 200bc40:	338d803a 	cmpltu	r6,r6,r14
 200bc44:	19c7883a 	add	r3,r3,r7
 200bc48:	418cb03a 	or	r6,r8,r6
 200bc4c:	1987883a 	add	r3,r3,r6
 200bc50:	2024927a 	slli	r18,r4,9
 200bc54:	1c07883a 	add	r3,r3,r16
 200bc58:	1806927a 	slli	r3,r3,9
 200bc5c:	1020d5fa 	srli	r16,r2,23
 200bc60:	2008d5fa 	srli	r4,r4,23
 200bc64:	9294b03a 	or	r10,r18,r10
 200bc68:	1004927a 	slli	r2,r2,9
 200bc6c:	5024c03a 	cmpne	r18,r10,zero
 200bc70:	1c20b03a 	or	r16,r3,r16
 200bc74:	9108b03a 	or	r4,r18,r4
 200bc78:	80c0402c 	andhi	r3,r16,256
 200bc7c:	20a4b03a 	or	r18,r4,r2
 200bc80:	18000726 	beq	r3,zero,200bca0 <__muldf3+0x4c8>
 200bc84:	9006d07a 	srli	r3,r18,1
 200bc88:	800897fa 	slli	r4,r16,31
 200bc8c:	9080004c 	andi	r2,r18,1
 200bc90:	8020d07a 	srli	r16,r16,1
 200bc94:	10c4b03a 	or	r2,r2,r3
 200bc98:	1124b03a 	or	r18,r2,r4
 200bc9c:	600b883a 	mov	r5,r12
 200bca0:	2900ffc4 	addi	r4,r5,1023
 200bca4:	01004b0e 	bge	zero,r4,200bdd4 <__muldf3+0x5fc>
 200bca8:	908001cc 	andi	r2,r18,7
 200bcac:	10000726 	beq	r2,zero,200bccc <__muldf3+0x4f4>
 200bcb0:	90c003cc 	andi	r3,r18,15
 200bcb4:	00800104 	movi	r2,4
 200bcb8:	18800426 	beq	r3,r2,200bccc <__muldf3+0x4f4>
 200bcbc:	9087883a 	add	r3,r18,r2
 200bcc0:	1c85803a 	cmpltu	r2,r3,r18
 200bcc4:	80a1883a 	add	r16,r16,r2
 200bcc8:	1825883a 	mov	r18,r3
 200bccc:	8080402c 	andhi	r2,r16,256
 200bcd0:	10000426 	beq	r2,zero,200bce4 <__muldf3+0x50c>
 200bcd4:	00bfc034 	movhi	r2,65280
 200bcd8:	10bfffc4 	addi	r2,r2,-1
 200bcdc:	29010004 	addi	r4,r5,1024
 200bce0:	80a0703a 	and	r16,r16,r2
 200bce4:	0081ff84 	movi	r2,2046
 200bce8:	1100320e 	bge	r2,r4,200bdb4 <__muldf3+0x5dc>
 200bcec:	b4c0004c 	andi	r19,r22,1
 200bcf0:	0101ffc4 	movi	r4,2047
 200bcf4:	0021883a 	mov	r16,zero
 200bcf8:	0025883a 	mov	r18,zero
 200bcfc:	003f1006 	br	200b940 <__reset+0xfe004140>
 200bd00:	8080022c 	andhi	r2,r16,8
 200bd04:	10000926 	beq	r2,zero,200bd2c <__muldf3+0x554>
 200bd08:	8880022c 	andhi	r2,r17,8
 200bd0c:	1000071e 	bne	r2,zero,200bd2c <__muldf3+0x554>
 200bd10:	00800434 	movhi	r2,16
 200bd14:	8c000234 	orhi	r16,r17,8
 200bd18:	10bfffc4 	addi	r2,r2,-1
 200bd1c:	1827883a 	mov	r19,r3
 200bd20:	80a0703a 	and	r16,r16,r2
 200bd24:	b825883a 	mov	r18,r23
 200bd28:	003f6a06 	br	200bad4 <__reset+0xfe0042d4>
 200bd2c:	00800434 	movhi	r2,16
 200bd30:	84000234 	orhi	r16,r16,8
 200bd34:	10bfffc4 	addi	r2,r2,-1
 200bd38:	80a0703a 	and	r16,r16,r2
 200bd3c:	003f6506 	br	200bad4 <__reset+0xfe0042d4>
 200bd40:	3009883a 	mov	r4,r6
 200bd44:	d8c00215 	stw	r3,8(sp)
 200bd48:	d9800315 	stw	r6,12(sp)
 200bd4c:	da800015 	stw	r10,0(sp)
 200bd50:	dac00115 	stw	r11,4(sp)
 200bd54:	200c9240 	call	200c924 <__clzsi2>
 200bd58:	11000804 	addi	r4,r2,32
 200bd5c:	014009c4 	movi	r5,39
 200bd60:	d8c00217 	ldw	r3,8(sp)
 200bd64:	d9800317 	ldw	r6,12(sp)
 200bd68:	da800017 	ldw	r10,0(sp)
 200bd6c:	dac00117 	ldw	r11,4(sp)
 200bd70:	293f320e 	bge	r5,r4,200ba3c <__reset+0xfe00423c>
 200bd74:	10bffe04 	addi	r2,r2,-8
 200bd78:	b8a2983a 	sll	r17,r23,r2
 200bd7c:	002f883a 	mov	r23,zero
 200bd80:	003f3506 	br	200ba58 <__reset+0xfe004258>
 200bd84:	d9800315 	stw	r6,12(sp)
 200bd88:	d9c00015 	stw	r7,0(sp)
 200bd8c:	200c9240 	call	200c924 <__clzsi2>
 200bd90:	10c00804 	addi	r3,r2,32
 200bd94:	010009c4 	movi	r4,39
 200bd98:	d9800317 	ldw	r6,12(sp)
 200bd9c:	d9c00017 	ldw	r7,0(sp)
 200bda0:	20ff060e 	bge	r4,r3,200b9bc <__reset+0xfe0041bc>
 200bda4:	10bffe04 	addi	r2,r2,-8
 200bda8:	88a0983a 	sll	r16,r17,r2
 200bdac:	0025883a 	mov	r18,zero
 200bdb0:	003f0906 	br	200b9d8 <__reset+0xfe0041d8>
 200bdb4:	9004d0fa 	srli	r2,r18,3
 200bdb8:	8024977a 	slli	r18,r16,29
 200bdbc:	8020927a 	slli	r16,r16,9
 200bdc0:	2101ffcc 	andi	r4,r4,2047
 200bdc4:	90a4b03a 	or	r18,r18,r2
 200bdc8:	8020d33a 	srli	r16,r16,12
 200bdcc:	b4c0004c 	andi	r19,r22,1
 200bdd0:	003edb06 	br	200b940 <__reset+0xfe004140>
 200bdd4:	00ff0084 	movi	r3,-1022
 200bdd8:	1947c83a 	sub	r3,r3,r5
 200bddc:	00800e04 	movi	r2,56
 200bde0:	10c0080e 	bge	r2,r3,200be04 <__muldf3+0x62c>
 200bde4:	b4c0004c 	andi	r19,r22,1
 200bde8:	0009883a 	mov	r4,zero
 200bdec:	0021883a 	mov	r16,zero
 200bdf0:	0025883a 	mov	r18,zero
 200bdf4:	003ed206 	br	200b940 <__reset+0xfe004140>
 200bdf8:	600b883a 	mov	r5,r12
 200bdfc:	e02d883a 	mov	r22,fp
 200be00:	003fa706 	br	200bca0 <__reset+0xfe0044a0>
 200be04:	008007c4 	movi	r2,31
 200be08:	10c01816 	blt	r2,r3,200be6c <__muldf3+0x694>
 200be0c:	29410784 	addi	r5,r5,1054
 200be10:	8144983a 	sll	r2,r16,r5
 200be14:	90c8d83a 	srl	r4,r18,r3
 200be18:	914a983a 	sll	r5,r18,r5
 200be1c:	80c6d83a 	srl	r3,r16,r3
 200be20:	2088b03a 	or	r4,r4,r2
 200be24:	2804c03a 	cmpne	r2,r5,zero
 200be28:	2084b03a 	or	r2,r4,r2
 200be2c:	110001cc 	andi	r4,r2,7
 200be30:	20000726 	beq	r4,zero,200be50 <__muldf3+0x678>
 200be34:	114003cc 	andi	r5,r2,15
 200be38:	01000104 	movi	r4,4
 200be3c:	29000426 	beq	r5,r4,200be50 <__muldf3+0x678>
 200be40:	11000104 	addi	r4,r2,4
 200be44:	2085803a 	cmpltu	r2,r4,r2
 200be48:	1887883a 	add	r3,r3,r2
 200be4c:	2005883a 	mov	r2,r4
 200be50:	1900202c 	andhi	r4,r3,128
 200be54:	20001826 	beq	r4,zero,200beb8 <__muldf3+0x6e0>
 200be58:	b4c0004c 	andi	r19,r22,1
 200be5c:	01000044 	movi	r4,1
 200be60:	0021883a 	mov	r16,zero
 200be64:	0025883a 	mov	r18,zero
 200be68:	003eb506 	br	200b940 <__reset+0xfe004140>
 200be6c:	00bef884 	movi	r2,-1054
 200be70:	1145c83a 	sub	r2,r2,r5
 200be74:	8088d83a 	srl	r4,r16,r2
 200be78:	00800804 	movi	r2,32
 200be7c:	18801726 	beq	r3,r2,200bedc <__muldf3+0x704>
 200be80:	28810f84 	addi	r2,r5,1086
 200be84:	8084983a 	sll	r2,r16,r2
 200be88:	1484b03a 	or	r2,r2,r18
 200be8c:	1004c03a 	cmpne	r2,r2,zero
 200be90:	1104b03a 	or	r2,r2,r4
 200be94:	10c001cc 	andi	r3,r2,7
 200be98:	18000b1e 	bne	r3,zero,200bec8 <__muldf3+0x6f0>
 200be9c:	0021883a 	mov	r16,zero
 200bea0:	1004d0fa 	srli	r2,r2,3
 200bea4:	b4c0004c 	andi	r19,r22,1
 200bea8:	0009883a 	mov	r4,zero
 200beac:	10e4b03a 	or	r18,r2,r3
 200beb0:	003ea306 	br	200b940 <__reset+0xfe004140>
 200beb4:	0007883a 	mov	r3,zero
 200beb8:	1820927a 	slli	r16,r3,9
 200bebc:	1806977a 	slli	r3,r3,29
 200bec0:	8020d33a 	srli	r16,r16,12
 200bec4:	003ff606 	br	200bea0 <__reset+0xfe0046a0>
 200bec8:	110003cc 	andi	r4,r2,15
 200becc:	00c00104 	movi	r3,4
 200bed0:	20fff826 	beq	r4,r3,200beb4 <__reset+0xfe0046b4>
 200bed4:	0007883a 	mov	r3,zero
 200bed8:	003fd906 	br	200be40 <__reset+0xfe004640>
 200bedc:	0005883a 	mov	r2,zero
 200bee0:	003fe906 	br	200be88 <__reset+0xfe004688>
 200bee4:	00800434 	movhi	r2,16
 200bee8:	84000234 	orhi	r16,r16,8
 200beec:	10bfffc4 	addi	r2,r2,-1
 200bef0:	e4c0004c 	andi	r19,fp,1
 200bef4:	80a0703a 	and	r16,r16,r2
 200bef8:	003ef606 	br	200bad4 <__reset+0xfe0042d4>

0200befc <__subdf3>:
 200befc:	00c00434 	movhi	r3,16
 200bf00:	18ffffc4 	addi	r3,r3,-1
 200bf04:	defffb04 	addi	sp,sp,-20
 200bf08:	28d2703a 	and	r9,r5,r3
 200bf0c:	3814d53a 	srli	r10,r7,20
 200bf10:	38c6703a 	and	r3,r7,r3
 200bf14:	3004d77a 	srli	r2,r6,29
 200bf18:	dc800215 	stw	r18,8(sp)
 200bf1c:	dc000015 	stw	r16,0(sp)
 200bf20:	2824d7fa 	srli	r18,r5,31
 200bf24:	2820d53a 	srli	r16,r5,20
 200bf28:	481290fa 	slli	r9,r9,3
 200bf2c:	200ad77a 	srli	r5,r4,29
 200bf30:	180690fa 	slli	r3,r3,3
 200bf34:	dc400115 	stw	r17,4(sp)
 200bf38:	dfc00415 	stw	ra,16(sp)
 200bf3c:	202290fa 	slli	r17,r4,3
 200bf40:	dcc00315 	stw	r19,12(sp)
 200bf44:	5281ffcc 	andi	r10,r10,2047
 200bf48:	0101ffc4 	movi	r4,2047
 200bf4c:	9011883a 	mov	r8,r18
 200bf50:	8401ffcc 	andi	r16,r16,2047
 200bf54:	94803fcc 	andi	r18,r18,255
 200bf58:	494ab03a 	or	r5,r9,r5
 200bf5c:	380ed7fa 	srli	r7,r7,31
 200bf60:	1886b03a 	or	r3,r3,r2
 200bf64:	300c90fa 	slli	r6,r6,3
 200bf68:	51009026 	beq	r10,r4,200c1ac <__subdf3+0x2b0>
 200bf6c:	39c0005c 	xori	r7,r7,1
 200bf70:	8285c83a 	sub	r2,r16,r10
 200bf74:	91c06f26 	beq	r18,r7,200c134 <__subdf3+0x238>
 200bf78:	0080b10e 	bge	zero,r2,200c240 <__subdf3+0x344>
 200bf7c:	50002a1e 	bne	r10,zero,200c028 <__subdf3+0x12c>
 200bf80:	1988b03a 	or	r4,r3,r6
 200bf84:	2000941e 	bne	r4,zero,200c1d8 <__subdf3+0x2dc>
 200bf88:	888001cc 	andi	r2,r17,7
 200bf8c:	10005b26 	beq	r2,zero,200c0fc <__subdf3+0x200>
 200bf90:	88c003cc 	andi	r3,r17,15
 200bf94:	00800104 	movi	r2,4
 200bf98:	18805826 	beq	r3,r2,200c0fc <__subdf3+0x200>
 200bf9c:	88c00104 	addi	r3,r17,4
 200bfa0:	1c63803a 	cmpltu	r17,r3,r17
 200bfa4:	2c4b883a 	add	r5,r5,r17
 200bfa8:	2880202c 	andhi	r2,r5,128
 200bfac:	9200004c 	andi	r8,r18,1
 200bfb0:	1823883a 	mov	r17,r3
 200bfb4:	10005426 	beq	r2,zero,200c108 <__subdf3+0x20c>
 200bfb8:	84000044 	addi	r16,r16,1
 200bfbc:	0081ffc4 	movi	r2,2047
 200bfc0:	8080bf26 	beq	r16,r2,200c2c0 <__subdf3+0x3c4>
 200bfc4:	013fe034 	movhi	r4,65408
 200bfc8:	213fffc4 	addi	r4,r4,-1
 200bfcc:	290a703a 	and	r5,r5,r4
 200bfd0:	2804977a 	slli	r2,r5,29
 200bfd4:	280a927a 	slli	r5,r5,9
 200bfd8:	8822d0fa 	srli	r17,r17,3
 200bfdc:	8401ffcc 	andi	r16,r16,2047
 200bfe0:	2808d33a 	srli	r4,r5,12
 200bfe4:	1444b03a 	or	r2,r2,r17
 200bfe8:	8401ffcc 	andi	r16,r16,2047
 200bfec:	800a953a 	slli	r5,r16,20
 200bff0:	40c03fcc 	andi	r3,r8,255
 200bff4:	04000434 	movhi	r16,16
 200bff8:	180697fa 	slli	r3,r3,31
 200bffc:	843fffc4 	addi	r16,r16,-1
 200c000:	2420703a 	and	r16,r4,r16
 200c004:	8160b03a 	or	r16,r16,r5
 200c008:	80c6b03a 	or	r3,r16,r3
 200c00c:	dfc00417 	ldw	ra,16(sp)
 200c010:	dcc00317 	ldw	r19,12(sp)
 200c014:	dc800217 	ldw	r18,8(sp)
 200c018:	dc400117 	ldw	r17,4(sp)
 200c01c:	dc000017 	ldw	r16,0(sp)
 200c020:	dec00504 	addi	sp,sp,20
 200c024:	f800283a 	ret
 200c028:	0101ffc4 	movi	r4,2047
 200c02c:	813fd626 	beq	r16,r4,200bf88 <__reset+0xfe004788>
 200c030:	18c02034 	orhi	r3,r3,128
 200c034:	01000e04 	movi	r4,56
 200c038:	2080a416 	blt	r4,r2,200c2cc <__subdf3+0x3d0>
 200c03c:	010007c4 	movi	r4,31
 200c040:	2080c716 	blt	r4,r2,200c360 <__subdf3+0x464>
 200c044:	01000804 	movi	r4,32
 200c048:	2089c83a 	sub	r4,r4,r2
 200c04c:	1910983a 	sll	r8,r3,r4
 200c050:	308ed83a 	srl	r7,r6,r2
 200c054:	3108983a 	sll	r4,r6,r4
 200c058:	1884d83a 	srl	r2,r3,r2
 200c05c:	41ccb03a 	or	r6,r8,r7
 200c060:	2008c03a 	cmpne	r4,r4,zero
 200c064:	310cb03a 	or	r6,r6,r4
 200c068:	898dc83a 	sub	r6,r17,r6
 200c06c:	89a3803a 	cmpltu	r17,r17,r6
 200c070:	288bc83a 	sub	r5,r5,r2
 200c074:	2c4bc83a 	sub	r5,r5,r17
 200c078:	3023883a 	mov	r17,r6
 200c07c:	2880202c 	andhi	r2,r5,128
 200c080:	10006b26 	beq	r2,zero,200c230 <__subdf3+0x334>
 200c084:	04c02034 	movhi	r19,128
 200c088:	9cffffc4 	addi	r19,r19,-1
 200c08c:	2ce6703a 	and	r19,r5,r19
 200c090:	98007c26 	beq	r19,zero,200c284 <__subdf3+0x388>
 200c094:	9809883a 	mov	r4,r19
 200c098:	200c9240 	call	200c924 <__clzsi2>
 200c09c:	10fffe04 	addi	r3,r2,-8
 200c0a0:	010007c4 	movi	r4,31
 200c0a4:	20c07d16 	blt	r4,r3,200c29c <__subdf3+0x3a0>
 200c0a8:	01400a04 	movi	r5,40
 200c0ac:	2885c83a 	sub	r2,r5,r2
 200c0b0:	888ad83a 	srl	r5,r17,r2
 200c0b4:	98e6983a 	sll	r19,r19,r3
 200c0b8:	88e2983a 	sll	r17,r17,r3
 200c0bc:	2ce6b03a 	or	r19,r5,r19
 200c0c0:	1c007a16 	blt	r3,r16,200c2ac <__subdf3+0x3b0>
 200c0c4:	1c21c83a 	sub	r16,r3,r16
 200c0c8:	81400044 	addi	r5,r16,1
 200c0cc:	00c007c4 	movi	r3,31
 200c0d0:	19409616 	blt	r3,r5,200c32c <__subdf3+0x430>
 200c0d4:	1c21c83a 	sub	r16,r3,r16
 200c0d8:	8c08983a 	sll	r4,r17,r16
 200c0dc:	8946d83a 	srl	r3,r17,r5
 200c0e0:	9c20983a 	sll	r16,r19,r16
 200c0e4:	2008c03a 	cmpne	r4,r4,zero
 200c0e8:	994ad83a 	srl	r5,r19,r5
 200c0ec:	1c06b03a 	or	r3,r3,r16
 200c0f0:	1922b03a 	or	r17,r3,r4
 200c0f4:	0021883a 	mov	r16,zero
 200c0f8:	003fa306 	br	200bf88 <__reset+0xfe004788>
 200c0fc:	2880202c 	andhi	r2,r5,128
 200c100:	9200004c 	andi	r8,r18,1
 200c104:	103fac1e 	bne	r2,zero,200bfb8 <__reset+0xfe0047b8>
 200c108:	2804977a 	slli	r2,r5,29
 200c10c:	8822d0fa 	srli	r17,r17,3
 200c110:	00c1ffc4 	movi	r3,2047
 200c114:	280ad0fa 	srli	r5,r5,3
 200c118:	1444b03a 	or	r2,r2,r17
 200c11c:	80c02726 	beq	r16,r3,200c1bc <__subdf3+0x2c0>
 200c120:	01000434 	movhi	r4,16
 200c124:	213fffc4 	addi	r4,r4,-1
 200c128:	80e0703a 	and	r16,r16,r3
 200c12c:	2908703a 	and	r4,r5,r4
 200c130:	003fad06 	br	200bfe8 <__reset+0xfe0047e8>
 200c134:	0080690e 	bge	zero,r2,200c2dc <__subdf3+0x3e0>
 200c138:	50002f26 	beq	r10,zero,200c1f8 <__subdf3+0x2fc>
 200c13c:	0101ffc4 	movi	r4,2047
 200c140:	813f9126 	beq	r16,r4,200bf88 <__reset+0xfe004788>
 200c144:	18c02034 	orhi	r3,r3,128
 200c148:	01000e04 	movi	r4,56
 200c14c:	2080b00e 	bge	r4,r2,200c410 <__subdf3+0x514>
 200c150:	198cb03a 	or	r6,r3,r6
 200c154:	300ec03a 	cmpne	r7,r6,zero
 200c158:	0005883a 	mov	r2,zero
 200c15c:	3c4f883a 	add	r7,r7,r17
 200c160:	3c63803a 	cmpltu	r17,r7,r17
 200c164:	114b883a 	add	r5,r2,r5
 200c168:	2c4b883a 	add	r5,r5,r17
 200c16c:	3823883a 	mov	r17,r7
 200c170:	2880202c 	andhi	r2,r5,128
 200c174:	10002e26 	beq	r2,zero,200c230 <__subdf3+0x334>
 200c178:	84000044 	addi	r16,r16,1
 200c17c:	0081ffc4 	movi	r2,2047
 200c180:	8080de26 	beq	r16,r2,200c4fc <__subdf3+0x600>
 200c184:	00bfe034 	movhi	r2,65408
 200c188:	10bfffc4 	addi	r2,r2,-1
 200c18c:	288a703a 	and	r5,r5,r2
 200c190:	880cd07a 	srli	r6,r17,1
 200c194:	280897fa 	slli	r4,r5,31
 200c198:	88c0004c 	andi	r3,r17,1
 200c19c:	30e2b03a 	or	r17,r6,r3
 200c1a0:	280ad07a 	srli	r5,r5,1
 200c1a4:	8922b03a 	or	r17,r17,r4
 200c1a8:	003f7706 	br	200bf88 <__reset+0xfe004788>
 200c1ac:	1984b03a 	or	r2,r3,r6
 200c1b0:	103f6e26 	beq	r2,zero,200bf6c <__reset+0xfe00476c>
 200c1b4:	39c03fcc 	andi	r7,r7,255
 200c1b8:	003f6d06 	br	200bf70 <__reset+0xfe004770>
 200c1bc:	1146b03a 	or	r3,r2,r5
 200c1c0:	18003f26 	beq	r3,zero,200c2c0 <__subdf3+0x3c4>
 200c1c4:	00c00434 	movhi	r3,16
 200c1c8:	29000234 	orhi	r4,r5,8
 200c1cc:	18ffffc4 	addi	r3,r3,-1
 200c1d0:	20c8703a 	and	r4,r4,r3
 200c1d4:	003f8406 	br	200bfe8 <__reset+0xfe0047e8>
 200c1d8:	10bfffc4 	addi	r2,r2,-1
 200c1dc:	1000501e 	bne	r2,zero,200c320 <__subdf3+0x424>
 200c1e0:	898fc83a 	sub	r7,r17,r6
 200c1e4:	89e3803a 	cmpltu	r17,r17,r7
 200c1e8:	28cbc83a 	sub	r5,r5,r3
 200c1ec:	2c4bc83a 	sub	r5,r5,r17
 200c1f0:	3823883a 	mov	r17,r7
 200c1f4:	003fa106 	br	200c07c <__reset+0xfe00487c>
 200c1f8:	1988b03a 	or	r4,r3,r6
 200c1fc:	203f6226 	beq	r4,zero,200bf88 <__reset+0xfe004788>
 200c200:	10bfffc4 	addi	r2,r2,-1
 200c204:	10009b1e 	bne	r2,zero,200c474 <__subdf3+0x578>
 200c208:	344d883a 	add	r6,r6,r17
 200c20c:	3463803a 	cmpltu	r17,r6,r17
 200c210:	194b883a 	add	r5,r3,r5
 200c214:	2c4b883a 	add	r5,r5,r17
 200c218:	3023883a 	mov	r17,r6
 200c21c:	003fd406 	br	200c170 <__reset+0xfe004970>
 200c220:	1106b03a 	or	r3,r2,r4
 200c224:	1800b426 	beq	r3,zero,200c4f8 <__subdf3+0x5fc>
 200c228:	100b883a 	mov	r5,r2
 200c22c:	2023883a 	mov	r17,r4
 200c230:	888001cc 	andi	r2,r17,7
 200c234:	103f561e 	bne	r2,zero,200bf90 <__reset+0xfe004790>
 200c238:	9200004c 	andi	r8,r18,1
 200c23c:	003fb206 	br	200c108 <__reset+0xfe004908>
 200c240:	1000531e 	bne	r2,zero,200c390 <__subdf3+0x494>
 200c244:	80800044 	addi	r2,r16,1
 200c248:	1081ffcc 	andi	r2,r2,2047
 200c24c:	01000044 	movi	r4,1
 200c250:	2080a00e 	bge	r4,r2,200c4d4 <__subdf3+0x5d8>
 200c254:	8985c83a 	sub	r2,r17,r6
 200c258:	8889803a 	cmpltu	r4,r17,r2
 200c25c:	28e7c83a 	sub	r19,r5,r3
 200c260:	9927c83a 	sub	r19,r19,r4
 200c264:	9900202c 	andhi	r4,r19,128
 200c268:	20006226 	beq	r4,zero,200c3f4 <__subdf3+0x4f8>
 200c26c:	3463c83a 	sub	r17,r6,r17
 200c270:	194bc83a 	sub	r5,r3,r5
 200c274:	344d803a 	cmpltu	r6,r6,r17
 200c278:	29a7c83a 	sub	r19,r5,r6
 200c27c:	3825883a 	mov	r18,r7
 200c280:	983f841e 	bne	r19,zero,200c094 <__reset+0xfe004894>
 200c284:	8809883a 	mov	r4,r17
 200c288:	200c9240 	call	200c924 <__clzsi2>
 200c28c:	10800804 	addi	r2,r2,32
 200c290:	10fffe04 	addi	r3,r2,-8
 200c294:	010007c4 	movi	r4,31
 200c298:	20ff830e 	bge	r4,r3,200c0a8 <__reset+0xfe0048a8>
 200c29c:	14fff604 	addi	r19,r2,-40
 200c2a0:	8ce6983a 	sll	r19,r17,r19
 200c2a4:	0023883a 	mov	r17,zero
 200c2a8:	1c3f860e 	bge	r3,r16,200c0c4 <__reset+0xfe0048c4>
 200c2ac:	017fe034 	movhi	r5,65408
 200c2b0:	297fffc4 	addi	r5,r5,-1
 200c2b4:	80e1c83a 	sub	r16,r16,r3
 200c2b8:	994a703a 	and	r5,r19,r5
 200c2bc:	003f3206 	br	200bf88 <__reset+0xfe004788>
 200c2c0:	0009883a 	mov	r4,zero
 200c2c4:	0005883a 	mov	r2,zero
 200c2c8:	003f4706 	br	200bfe8 <__reset+0xfe0047e8>
 200c2cc:	198cb03a 	or	r6,r3,r6
 200c2d0:	300cc03a 	cmpne	r6,r6,zero
 200c2d4:	0005883a 	mov	r2,zero
 200c2d8:	003f6306 	br	200c068 <__reset+0xfe004868>
 200c2dc:	10009d1e 	bne	r2,zero,200c554 <__subdf3+0x658>
 200c2e0:	81c00044 	addi	r7,r16,1
 200c2e4:	3881ffcc 	andi	r2,r7,2047
 200c2e8:	02400044 	movi	r9,1
 200c2ec:	4880680e 	bge	r9,r2,200c490 <__subdf3+0x594>
 200c2f0:	0081ffc4 	movi	r2,2047
 200c2f4:	3880ae26 	beq	r7,r2,200c5b0 <__subdf3+0x6b4>
 200c2f8:	344d883a 	add	r6,r6,r17
 200c2fc:	3463803a 	cmpltu	r17,r6,r17
 200c300:	194b883a 	add	r5,r3,r5
 200c304:	2c4b883a 	add	r5,r5,r17
 200c308:	282297fa 	slli	r17,r5,31
 200c30c:	300cd07a 	srli	r6,r6,1
 200c310:	280ad07a 	srli	r5,r5,1
 200c314:	3821883a 	mov	r16,r7
 200c318:	89a2b03a 	or	r17,r17,r6
 200c31c:	003f1a06 	br	200bf88 <__reset+0xfe004788>
 200c320:	0101ffc4 	movi	r4,2047
 200c324:	813f431e 	bne	r16,r4,200c034 <__reset+0xfe004834>
 200c328:	003f1706 	br	200bf88 <__reset+0xfe004788>
 200c32c:	80bff844 	addi	r2,r16,-31
 200c330:	00c00804 	movi	r3,32
 200c334:	9884d83a 	srl	r2,r19,r2
 200c338:	28c05126 	beq	r5,r3,200c480 <__subdf3+0x584>
 200c33c:	00c00fc4 	movi	r3,63
 200c340:	1c21c83a 	sub	r16,r3,r16
 200c344:	9c26983a 	sll	r19,r19,r16
 200c348:	9c62b03a 	or	r17,r19,r17
 200c34c:	8822c03a 	cmpne	r17,r17,zero
 200c350:	88a2b03a 	or	r17,r17,r2
 200c354:	000b883a 	mov	r5,zero
 200c358:	0021883a 	mov	r16,zero
 200c35c:	003fb406 	br	200c230 <__reset+0xfe004a30>
 200c360:	113ff804 	addi	r4,r2,-32
 200c364:	01c00804 	movi	r7,32
 200c368:	1908d83a 	srl	r4,r3,r4
 200c36c:	11c04626 	beq	r2,r7,200c488 <__subdf3+0x58c>
 200c370:	01c01004 	movi	r7,64
 200c374:	3885c83a 	sub	r2,r7,r2
 200c378:	1884983a 	sll	r2,r3,r2
 200c37c:	118cb03a 	or	r6,r2,r6
 200c380:	300cc03a 	cmpne	r6,r6,zero
 200c384:	310cb03a 	or	r6,r6,r4
 200c388:	0005883a 	mov	r2,zero
 200c38c:	003f3606 	br	200c068 <__reset+0xfe004868>
 200c390:	80002b26 	beq	r16,zero,200c440 <__subdf3+0x544>
 200c394:	0101ffc4 	movi	r4,2047
 200c398:	51006926 	beq	r10,r4,200c540 <__subdf3+0x644>
 200c39c:	0085c83a 	sub	r2,zero,r2
 200c3a0:	29402034 	orhi	r5,r5,128
 200c3a4:	01000e04 	movi	r4,56
 200c3a8:	20807d16 	blt	r4,r2,200c5a0 <__subdf3+0x6a4>
 200c3ac:	010007c4 	movi	r4,31
 200c3b0:	2080d916 	blt	r4,r2,200c718 <__subdf3+0x81c>
 200c3b4:	01000804 	movi	r4,32
 200c3b8:	2089c83a 	sub	r4,r4,r2
 200c3bc:	2912983a 	sll	r9,r5,r4
 200c3c0:	8890d83a 	srl	r8,r17,r2
 200c3c4:	8908983a 	sll	r4,r17,r4
 200c3c8:	2884d83a 	srl	r2,r5,r2
 200c3cc:	4a22b03a 	or	r17,r9,r8
 200c3d0:	2008c03a 	cmpne	r4,r4,zero
 200c3d4:	8922b03a 	or	r17,r17,r4
 200c3d8:	3463c83a 	sub	r17,r6,r17
 200c3dc:	1885c83a 	sub	r2,r3,r2
 200c3e0:	344d803a 	cmpltu	r6,r6,r17
 200c3e4:	118bc83a 	sub	r5,r2,r6
 200c3e8:	5021883a 	mov	r16,r10
 200c3ec:	3825883a 	mov	r18,r7
 200c3f0:	003f2206 	br	200c07c <__reset+0xfe00487c>
 200c3f4:	9886b03a 	or	r3,r19,r2
 200c3f8:	18001c1e 	bne	r3,zero,200c46c <__subdf3+0x570>
 200c3fc:	0011883a 	mov	r8,zero
 200c400:	000b883a 	mov	r5,zero
 200c404:	0023883a 	mov	r17,zero
 200c408:	0021883a 	mov	r16,zero
 200c40c:	003f3e06 	br	200c108 <__reset+0xfe004908>
 200c410:	010007c4 	movi	r4,31
 200c414:	20803c16 	blt	r4,r2,200c508 <__subdf3+0x60c>
 200c418:	01000804 	movi	r4,32
 200c41c:	2089c83a 	sub	r4,r4,r2
 200c420:	1912983a 	sll	r9,r3,r4
 200c424:	308ed83a 	srl	r7,r6,r2
 200c428:	3108983a 	sll	r4,r6,r4
 200c42c:	1884d83a 	srl	r2,r3,r2
 200c430:	49ceb03a 	or	r7,r9,r7
 200c434:	2008c03a 	cmpne	r4,r4,zero
 200c438:	390eb03a 	or	r7,r7,r4
 200c43c:	003f4706 	br	200c15c <__reset+0xfe00495c>
 200c440:	2c48b03a 	or	r4,r5,r17
 200c444:	20003e26 	beq	r4,zero,200c540 <__subdf3+0x644>
 200c448:	0084303a 	nor	r2,zero,r2
 200c44c:	10003a1e 	bne	r2,zero,200c538 <__subdf3+0x63c>
 200c450:	3463c83a 	sub	r17,r6,r17
 200c454:	194bc83a 	sub	r5,r3,r5
 200c458:	344d803a 	cmpltu	r6,r6,r17
 200c45c:	298bc83a 	sub	r5,r5,r6
 200c460:	5021883a 	mov	r16,r10
 200c464:	3825883a 	mov	r18,r7
 200c468:	003f0406 	br	200c07c <__reset+0xfe00487c>
 200c46c:	1023883a 	mov	r17,r2
 200c470:	003f0706 	br	200c090 <__reset+0xfe004890>
 200c474:	0101ffc4 	movi	r4,2047
 200c478:	813f331e 	bne	r16,r4,200c148 <__reset+0xfe004948>
 200c47c:	003ec206 	br	200bf88 <__reset+0xfe004788>
 200c480:	0027883a 	mov	r19,zero
 200c484:	003fb006 	br	200c348 <__reset+0xfe004b48>
 200c488:	0005883a 	mov	r2,zero
 200c48c:	003fbb06 	br	200c37c <__reset+0xfe004b7c>
 200c490:	2c44b03a 	or	r2,r5,r17
 200c494:	80008b1e 	bne	r16,zero,200c6c4 <__subdf3+0x7c8>
 200c498:	1000b526 	beq	r2,zero,200c770 <__subdf3+0x874>
 200c49c:	1984b03a 	or	r2,r3,r6
 200c4a0:	103eb926 	beq	r2,zero,200bf88 <__reset+0xfe004788>
 200c4a4:	3449883a 	add	r4,r6,r17
 200c4a8:	2463803a 	cmpltu	r17,r4,r17
 200c4ac:	194b883a 	add	r5,r3,r5
 200c4b0:	2c4b883a 	add	r5,r5,r17
 200c4b4:	2880202c 	andhi	r2,r5,128
 200c4b8:	2023883a 	mov	r17,r4
 200c4bc:	103f5c26 	beq	r2,zero,200c230 <__reset+0xfe004a30>
 200c4c0:	00bfe034 	movhi	r2,65408
 200c4c4:	10bfffc4 	addi	r2,r2,-1
 200c4c8:	4821883a 	mov	r16,r9
 200c4cc:	288a703a 	and	r5,r5,r2
 200c4d0:	003ead06 	br	200bf88 <__reset+0xfe004788>
 200c4d4:	2c44b03a 	or	r2,r5,r17
 200c4d8:	8000291e 	bne	r16,zero,200c580 <__subdf3+0x684>
 200c4dc:	10004f1e 	bne	r2,zero,200c61c <__subdf3+0x720>
 200c4e0:	1984b03a 	or	r2,r3,r6
 200c4e4:	10000426 	beq	r2,zero,200c4f8 <__subdf3+0x5fc>
 200c4e8:	180b883a 	mov	r5,r3
 200c4ec:	3023883a 	mov	r17,r6
 200c4f0:	3825883a 	mov	r18,r7
 200c4f4:	003ea406 	br	200bf88 <__reset+0xfe004788>
 200c4f8:	0011883a 	mov	r8,zero
 200c4fc:	000b883a 	mov	r5,zero
 200c500:	0023883a 	mov	r17,zero
 200c504:	003f0006 	br	200c108 <__reset+0xfe004908>
 200c508:	11fff804 	addi	r7,r2,-32
 200c50c:	19c8d83a 	srl	r4,r3,r7
 200c510:	01c00804 	movi	r7,32
 200c514:	11c07e26 	beq	r2,r7,200c710 <__subdf3+0x814>
 200c518:	01c01004 	movi	r7,64
 200c51c:	3885c83a 	sub	r2,r7,r2
 200c520:	1884983a 	sll	r2,r3,r2
 200c524:	118cb03a 	or	r6,r2,r6
 200c528:	300ec03a 	cmpne	r7,r6,zero
 200c52c:	390eb03a 	or	r7,r7,r4
 200c530:	0005883a 	mov	r2,zero
 200c534:	003f0906 	br	200c15c <__reset+0xfe00495c>
 200c538:	0101ffc4 	movi	r4,2047
 200c53c:	513f991e 	bne	r10,r4,200c3a4 <__reset+0xfe004ba4>
 200c540:	180b883a 	mov	r5,r3
 200c544:	3023883a 	mov	r17,r6
 200c548:	5021883a 	mov	r16,r10
 200c54c:	3825883a 	mov	r18,r7
 200c550:	003e8d06 	br	200bf88 <__reset+0xfe004788>
 200c554:	80001a1e 	bne	r16,zero,200c5c0 <__subdf3+0x6c4>
 200c558:	2c48b03a 	or	r4,r5,r17
 200c55c:	20005526 	beq	r4,zero,200c6b4 <__subdf3+0x7b8>
 200c560:	0084303a 	nor	r2,zero,r2
 200c564:	1000511e 	bne	r2,zero,200c6ac <__subdf3+0x7b0>
 200c568:	89a3883a 	add	r17,r17,r6
 200c56c:	194b883a 	add	r5,r3,r5
 200c570:	898d803a 	cmpltu	r6,r17,r6
 200c574:	298b883a 	add	r5,r5,r6
 200c578:	5021883a 	mov	r16,r10
 200c57c:	003efc06 	br	200c170 <__reset+0xfe004970>
 200c580:	1000341e 	bne	r2,zero,200c654 <__subdf3+0x758>
 200c584:	1984b03a 	or	r2,r3,r6
 200c588:	10006f26 	beq	r2,zero,200c748 <__subdf3+0x84c>
 200c58c:	180b883a 	mov	r5,r3
 200c590:	3023883a 	mov	r17,r6
 200c594:	3825883a 	mov	r18,r7
 200c598:	0401ffc4 	movi	r16,2047
 200c59c:	003e7a06 	br	200bf88 <__reset+0xfe004788>
 200c5a0:	2c62b03a 	or	r17,r5,r17
 200c5a4:	8822c03a 	cmpne	r17,r17,zero
 200c5a8:	0005883a 	mov	r2,zero
 200c5ac:	003f8a06 	br	200c3d8 <__reset+0xfe004bd8>
 200c5b0:	3821883a 	mov	r16,r7
 200c5b4:	000b883a 	mov	r5,zero
 200c5b8:	0023883a 	mov	r17,zero
 200c5bc:	003ed206 	br	200c108 <__reset+0xfe004908>
 200c5c0:	0101ffc4 	movi	r4,2047
 200c5c4:	51003b26 	beq	r10,r4,200c6b4 <__subdf3+0x7b8>
 200c5c8:	0085c83a 	sub	r2,zero,r2
 200c5cc:	29402034 	orhi	r5,r5,128
 200c5d0:	01000e04 	movi	r4,56
 200c5d4:	20806216 	blt	r4,r2,200c760 <__subdf3+0x864>
 200c5d8:	010007c4 	movi	r4,31
 200c5dc:	20806b16 	blt	r4,r2,200c78c <__subdf3+0x890>
 200c5e0:	01000804 	movi	r4,32
 200c5e4:	2089c83a 	sub	r4,r4,r2
 200c5e8:	2912983a 	sll	r9,r5,r4
 200c5ec:	888ed83a 	srl	r7,r17,r2
 200c5f0:	8908983a 	sll	r4,r17,r4
 200c5f4:	2884d83a 	srl	r2,r5,r2
 200c5f8:	49e2b03a 	or	r17,r9,r7
 200c5fc:	2008c03a 	cmpne	r4,r4,zero
 200c600:	8922b03a 	or	r17,r17,r4
 200c604:	89a3883a 	add	r17,r17,r6
 200c608:	10c5883a 	add	r2,r2,r3
 200c60c:	898d803a 	cmpltu	r6,r17,r6
 200c610:	118b883a 	add	r5,r2,r6
 200c614:	5021883a 	mov	r16,r10
 200c618:	003ed506 	br	200c170 <__reset+0xfe004970>
 200c61c:	1984b03a 	or	r2,r3,r6
 200c620:	103e5926 	beq	r2,zero,200bf88 <__reset+0xfe004788>
 200c624:	8989c83a 	sub	r4,r17,r6
 200c628:	8911803a 	cmpltu	r8,r17,r4
 200c62c:	28c5c83a 	sub	r2,r5,r3
 200c630:	1205c83a 	sub	r2,r2,r8
 200c634:	1200202c 	andhi	r8,r2,128
 200c638:	403ef926 	beq	r8,zero,200c220 <__reset+0xfe004a20>
 200c63c:	3463c83a 	sub	r17,r6,r17
 200c640:	194bc83a 	sub	r5,r3,r5
 200c644:	344d803a 	cmpltu	r6,r6,r17
 200c648:	298bc83a 	sub	r5,r5,r6
 200c64c:	3825883a 	mov	r18,r7
 200c650:	003e4d06 	br	200bf88 <__reset+0xfe004788>
 200c654:	1984b03a 	or	r2,r3,r6
 200c658:	10002b26 	beq	r2,zero,200c708 <__subdf3+0x80c>
 200c65c:	2808d0fa 	srli	r4,r5,3
 200c660:	8822d0fa 	srli	r17,r17,3
 200c664:	280a977a 	slli	r5,r5,29
 200c668:	2080022c 	andhi	r2,r4,8
 200c66c:	2c62b03a 	or	r17,r5,r17
 200c670:	10000826 	beq	r2,zero,200c694 <__subdf3+0x798>
 200c674:	1810d0fa 	srli	r8,r3,3
 200c678:	4080022c 	andhi	r2,r8,8
 200c67c:	1000051e 	bne	r2,zero,200c694 <__subdf3+0x798>
 200c680:	300cd0fa 	srli	r6,r6,3
 200c684:	1804977a 	slli	r2,r3,29
 200c688:	4009883a 	mov	r4,r8
 200c68c:	3825883a 	mov	r18,r7
 200c690:	11a2b03a 	or	r17,r2,r6
 200c694:	880ad77a 	srli	r5,r17,29
 200c698:	200890fa 	slli	r4,r4,3
 200c69c:	882290fa 	slli	r17,r17,3
 200c6a0:	0401ffc4 	movi	r16,2047
 200c6a4:	290ab03a 	or	r5,r5,r4
 200c6a8:	003e3706 	br	200bf88 <__reset+0xfe004788>
 200c6ac:	0101ffc4 	movi	r4,2047
 200c6b0:	513fc71e 	bne	r10,r4,200c5d0 <__reset+0xfe004dd0>
 200c6b4:	180b883a 	mov	r5,r3
 200c6b8:	3023883a 	mov	r17,r6
 200c6bc:	5021883a 	mov	r16,r10
 200c6c0:	003e3106 	br	200bf88 <__reset+0xfe004788>
 200c6c4:	10002d26 	beq	r2,zero,200c77c <__subdf3+0x880>
 200c6c8:	1984b03a 	or	r2,r3,r6
 200c6cc:	10000e26 	beq	r2,zero,200c708 <__subdf3+0x80c>
 200c6d0:	2808d0fa 	srli	r4,r5,3
 200c6d4:	8822d0fa 	srli	r17,r17,3
 200c6d8:	280a977a 	slli	r5,r5,29
 200c6dc:	2080022c 	andhi	r2,r4,8
 200c6e0:	2c62b03a 	or	r17,r5,r17
 200c6e4:	103feb26 	beq	r2,zero,200c694 <__reset+0xfe004e94>
 200c6e8:	180ed0fa 	srli	r7,r3,3
 200c6ec:	3880022c 	andhi	r2,r7,8
 200c6f0:	103fe81e 	bne	r2,zero,200c694 <__reset+0xfe004e94>
 200c6f4:	300cd0fa 	srli	r6,r6,3
 200c6f8:	1804977a 	slli	r2,r3,29
 200c6fc:	3809883a 	mov	r4,r7
 200c700:	11a2b03a 	or	r17,r2,r6
 200c704:	003fe306 	br	200c694 <__reset+0xfe004e94>
 200c708:	0401ffc4 	movi	r16,2047
 200c70c:	003e1e06 	br	200bf88 <__reset+0xfe004788>
 200c710:	0005883a 	mov	r2,zero
 200c714:	003f8306 	br	200c524 <__reset+0xfe004d24>
 200c718:	113ff804 	addi	r4,r2,-32
 200c71c:	02000804 	movi	r8,32
 200c720:	2908d83a 	srl	r4,r5,r4
 200c724:	12002526 	beq	r2,r8,200c7bc <__subdf3+0x8c0>
 200c728:	02001004 	movi	r8,64
 200c72c:	4085c83a 	sub	r2,r8,r2
 200c730:	288a983a 	sll	r5,r5,r2
 200c734:	2c62b03a 	or	r17,r5,r17
 200c738:	8822c03a 	cmpne	r17,r17,zero
 200c73c:	8922b03a 	or	r17,r17,r4
 200c740:	0005883a 	mov	r2,zero
 200c744:	003f2406 	br	200c3d8 <__reset+0xfe004bd8>
 200c748:	01402034 	movhi	r5,128
 200c74c:	0011883a 	mov	r8,zero
 200c750:	297fffc4 	addi	r5,r5,-1
 200c754:	047ffe04 	movi	r17,-8
 200c758:	0401ffc4 	movi	r16,2047
 200c75c:	003e6a06 	br	200c108 <__reset+0xfe004908>
 200c760:	2c62b03a 	or	r17,r5,r17
 200c764:	8822c03a 	cmpne	r17,r17,zero
 200c768:	0005883a 	mov	r2,zero
 200c76c:	003fa506 	br	200c604 <__reset+0xfe004e04>
 200c770:	180b883a 	mov	r5,r3
 200c774:	3023883a 	mov	r17,r6
 200c778:	003e0306 	br	200bf88 <__reset+0xfe004788>
 200c77c:	180b883a 	mov	r5,r3
 200c780:	3023883a 	mov	r17,r6
 200c784:	0401ffc4 	movi	r16,2047
 200c788:	003dff06 	br	200bf88 <__reset+0xfe004788>
 200c78c:	113ff804 	addi	r4,r2,-32
 200c790:	01c00804 	movi	r7,32
 200c794:	2908d83a 	srl	r4,r5,r4
 200c798:	11c00a26 	beq	r2,r7,200c7c4 <__subdf3+0x8c8>
 200c79c:	01c01004 	movi	r7,64
 200c7a0:	3885c83a 	sub	r2,r7,r2
 200c7a4:	288a983a 	sll	r5,r5,r2
 200c7a8:	2c62b03a 	or	r17,r5,r17
 200c7ac:	8822c03a 	cmpne	r17,r17,zero
 200c7b0:	8922b03a 	or	r17,r17,r4
 200c7b4:	0005883a 	mov	r2,zero
 200c7b8:	003f9206 	br	200c604 <__reset+0xfe004e04>
 200c7bc:	000b883a 	mov	r5,zero
 200c7c0:	003fdc06 	br	200c734 <__reset+0xfe004f34>
 200c7c4:	000b883a 	mov	r5,zero
 200c7c8:	003ff706 	br	200c7a8 <__reset+0xfe004fa8>

0200c7cc <__fixdfsi>:
 200c7cc:	2806d53a 	srli	r3,r5,20
 200c7d0:	00800434 	movhi	r2,16
 200c7d4:	10bfffc4 	addi	r2,r2,-1
 200c7d8:	18c1ffcc 	andi	r3,r3,2047
 200c7dc:	0180ff84 	movi	r6,1022
 200c7e0:	2884703a 	and	r2,r5,r2
 200c7e4:	280ad7fa 	srli	r5,r5,31
 200c7e8:	30c0130e 	bge	r6,r3,200c838 <__fixdfsi+0x6c>
 200c7ec:	01810744 	movi	r6,1053
 200c7f0:	30c00d16 	blt	r6,r3,200c828 <__fixdfsi+0x5c>
 200c7f4:	01810cc4 	movi	r6,1075
 200c7f8:	30cdc83a 	sub	r6,r6,r3
 200c7fc:	01c007c4 	movi	r7,31
 200c800:	10800434 	orhi	r2,r2,16
 200c804:	39800e0e 	bge	r7,r6,200c840 <__fixdfsi+0x74>
 200c808:	010104c4 	movi	r4,1043
 200c80c:	20c7c83a 	sub	r3,r4,r3
 200c810:	10c6d83a 	srl	r3,r2,r3
 200c814:	29403fcc 	andi	r5,r5,255
 200c818:	0145c83a 	sub	r2,zero,r5
 200c81c:	1884f03a 	xor	r2,r3,r2
 200c820:	1145883a 	add	r2,r2,r5
 200c824:	f800283a 	ret
 200c828:	00a00034 	movhi	r2,32768
 200c82c:	10bfffc4 	addi	r2,r2,-1
 200c830:	2885883a 	add	r2,r5,r2
 200c834:	f800283a 	ret
 200c838:	0005883a 	mov	r2,zero
 200c83c:	f800283a 	ret
 200c840:	18fefb44 	addi	r3,r3,-1043
 200c844:	2188d83a 	srl	r4,r4,r6
 200c848:	10c6983a 	sll	r3,r2,r3
 200c84c:	20c6b03a 	or	r3,r4,r3
 200c850:	003ff006 	br	200c814 <__reset+0xfe005014>

0200c854 <__floatsidf>:
 200c854:	defffd04 	addi	sp,sp,-12
 200c858:	dc400115 	stw	r17,4(sp)
 200c85c:	dfc00215 	stw	ra,8(sp)
 200c860:	dc000015 	stw	r16,0(sp)
 200c864:	2023883a 	mov	r17,r4
 200c868:	20001426 	beq	r4,zero,200c8bc <__floatsidf+0x68>
 200c86c:	2020d7fa 	srli	r16,r4,31
 200c870:	80000126 	beq	r16,zero,200c878 <__floatsidf+0x24>
 200c874:	0123c83a 	sub	r17,zero,r4
 200c878:	8809883a 	mov	r4,r17
 200c87c:	200c9240 	call	200c924 <__clzsi2>
 200c880:	01410784 	movi	r5,1054
 200c884:	00c00284 	movi	r3,10
 200c888:	288bc83a 	sub	r5,r5,r2
 200c88c:	18801c16 	blt	r3,r2,200c900 <__floatsidf+0xac>
 200c890:	00c002c4 	movi	r3,11
 200c894:	1887c83a 	sub	r3,r3,r2
 200c898:	88c8d83a 	srl	r4,r17,r3
 200c89c:	00c00434 	movhi	r3,16
 200c8a0:	18ffffc4 	addi	r3,r3,-1
 200c8a4:	10800544 	addi	r2,r2,21
 200c8a8:	20c8703a 	and	r4,r4,r3
 200c8ac:	8884983a 	sll	r2,r17,r2
 200c8b0:	28c1ffcc 	andi	r3,r5,2047
 200c8b4:	800d883a 	mov	r6,r16
 200c8b8:	00000406 	br	200c8cc <__floatsidf+0x78>
 200c8bc:	000d883a 	mov	r6,zero
 200c8c0:	0007883a 	mov	r3,zero
 200c8c4:	0009883a 	mov	r4,zero
 200c8c8:	0005883a 	mov	r2,zero
 200c8cc:	180a953a 	slli	r5,r3,20
 200c8d0:	31803fcc 	andi	r6,r6,255
 200c8d4:	00c00434 	movhi	r3,16
 200c8d8:	300c97fa 	slli	r6,r6,31
 200c8dc:	18ffffc4 	addi	r3,r3,-1
 200c8e0:	20c6703a 	and	r3,r4,r3
 200c8e4:	1946b03a 	or	r3,r3,r5
 200c8e8:	1986b03a 	or	r3,r3,r6
 200c8ec:	dfc00217 	ldw	ra,8(sp)
 200c8f0:	dc400117 	ldw	r17,4(sp)
 200c8f4:	dc000017 	ldw	r16,0(sp)
 200c8f8:	dec00304 	addi	sp,sp,12
 200c8fc:	f800283a 	ret
 200c900:	10fffd44 	addi	r3,r2,-11
 200c904:	88c8983a 	sll	r4,r17,r3
 200c908:	00800434 	movhi	r2,16
 200c90c:	10bfffc4 	addi	r2,r2,-1
 200c910:	2088703a 	and	r4,r4,r2
 200c914:	28c1ffcc 	andi	r3,r5,2047
 200c918:	800d883a 	mov	r6,r16
 200c91c:	0005883a 	mov	r2,zero
 200c920:	003fea06 	br	200c8cc <__reset+0xfe0050cc>

0200c924 <__clzsi2>:
 200c924:	00bfffd4 	movui	r2,65535
 200c928:	11000b36 	bltu	r2,r4,200c958 <__clzsi2+0x34>
 200c92c:	00803fc4 	movi	r2,255
 200c930:	1100122e 	bgeu	r2,r4,200c97c <__clzsi2+0x58>
 200c934:	00c00204 	movi	r3,8
 200c938:	01400604 	movi	r5,24
 200c93c:	20c8d83a 	srl	r4,r4,r3
 200c940:	008080f4 	movhi	r2,515
 200c944:	10af3d44 	addi	r2,r2,-17163
 200c948:	1109883a 	add	r4,r2,r4
 200c94c:	20800003 	ldbu	r2,0(r4)
 200c950:	2885c83a 	sub	r2,r5,r2
 200c954:	f800283a 	ret
 200c958:	00804034 	movhi	r2,256
 200c95c:	10bfffc4 	addi	r2,r2,-1
 200c960:	11000336 	bltu	r2,r4,200c970 <__clzsi2+0x4c>
 200c964:	00c00404 	movi	r3,16
 200c968:	180b883a 	mov	r5,r3
 200c96c:	003ff306 	br	200c93c <__reset+0xfe00513c>
 200c970:	00c00604 	movi	r3,24
 200c974:	01400204 	movi	r5,8
 200c978:	003ff006 	br	200c93c <__reset+0xfe00513c>
 200c97c:	0007883a 	mov	r3,zero
 200c980:	01400804 	movi	r5,32
 200c984:	003fed06 	br	200c93c <__reset+0xfe00513c>

0200c988 <__errno>:
 200c988:	008080f4 	movhi	r2,515
 200c98c:	10bc6d04 	addi	r2,r2,-3660
 200c990:	10800017 	ldw	r2,0(r2)
 200c994:	f800283a 	ret

0200c998 <malloc>:
 200c998:	008080f4 	movhi	r2,515
 200c99c:	10bc6d04 	addi	r2,r2,-3660
 200c9a0:	200b883a 	mov	r5,r4
 200c9a4:	11000017 	ldw	r4,0(r2)
 200c9a8:	200c9c01 	jmpi	200c9c0 <_malloc_r>

0200c9ac <free>:
 200c9ac:	008080f4 	movhi	r2,515
 200c9b0:	10bc6d04 	addi	r2,r2,-3660
 200c9b4:	200b883a 	mov	r5,r4
 200c9b8:	11000017 	ldw	r4,0(r2)
 200c9bc:	200dfe81 	jmpi	200dfe8 <_free_r>

0200c9c0 <_malloc_r>:
 200c9c0:	defff604 	addi	sp,sp,-40
 200c9c4:	dfc00915 	stw	ra,36(sp)
 200c9c8:	df000815 	stw	fp,32(sp)
 200c9cc:	ddc00715 	stw	r23,28(sp)
 200c9d0:	dd800615 	stw	r22,24(sp)
 200c9d4:	dd400515 	stw	r21,20(sp)
 200c9d8:	dd000415 	stw	r20,16(sp)
 200c9dc:	dcc00315 	stw	r19,12(sp)
 200c9e0:	dc800215 	stw	r18,8(sp)
 200c9e4:	dc400115 	stw	r17,4(sp)
 200c9e8:	dc000015 	stw	r16,0(sp)
 200c9ec:	288002c4 	addi	r2,r5,11
 200c9f0:	00c00584 	movi	r3,22
 200c9f4:	1880042e 	bgeu	r3,r2,200ca08 <_malloc_r+0x48>
 200c9f8:	047ffe04 	movi	r17,-8
 200c9fc:	1462703a 	and	r17,r2,r17
 200ca00:	8800020e 	bge	r17,zero,200ca0c <_malloc_r+0x4c>
 200ca04:	00000206 	br	200ca10 <_malloc_r+0x50>
 200ca08:	04400404 	movi	r17,16
 200ca0c:	8940032e 	bgeu	r17,r5,200ca1c <_malloc_r+0x5c>
 200ca10:	00800304 	movi	r2,12
 200ca14:	20800015 	stw	r2,0(r4)
 200ca18:	00017206 	br	200cfe4 <_malloc_r+0x624>
 200ca1c:	2027883a 	mov	r19,r4
 200ca20:	200e9dc0 	call	200e9dc <__malloc_lock>
 200ca24:	048080f4 	movhi	r18,515
 200ca28:	00807dc4 	movi	r2,503
 200ca2c:	94b6b304 	addi	r18,r18,-9524
 200ca30:	14401536 	bltu	r2,r17,200ca88 <_malloc_r+0xc8>
 200ca34:	8804d0fa 	srli	r2,r17,3
 200ca38:	1087883a 	add	r3,r2,r2
 200ca3c:	18c7883a 	add	r3,r3,r3
 200ca40:	18c7883a 	add	r3,r3,r3
 200ca44:	90c7883a 	add	r3,r18,r3
 200ca48:	1c000317 	ldw	r16,12(r3)
 200ca4c:	80c0031e 	bne	r16,r3,200ca5c <_malloc_r+0x9c>
 200ca50:	80c00204 	addi	r3,r16,8
 200ca54:	84000517 	ldw	r16,20(r16)
 200ca58:	80c00926 	beq	r16,r3,200ca80 <_malloc_r+0xc0>
 200ca5c:	80c00117 	ldw	r3,4(r16)
 200ca60:	00bfff04 	movi	r2,-4
 200ca64:	81000217 	ldw	r4,8(r16)
 200ca68:	1884703a 	and	r2,r3,r2
 200ca6c:	80c00317 	ldw	r3,12(r16)
 200ca70:	8085883a 	add	r2,r16,r2
 200ca74:	20c00315 	stw	r3,12(r4)
 200ca78:	19000215 	stw	r4,8(r3)
 200ca7c:	00002d06 	br	200cb34 <_malloc_r+0x174>
 200ca80:	10800084 	addi	r2,r2,2
 200ca84:	00003506 	br	200cb5c <_malloc_r+0x19c>
 200ca88:	8804d27a 	srli	r2,r17,9
 200ca8c:	10001826 	beq	r2,zero,200caf0 <_malloc_r+0x130>
 200ca90:	00c00104 	movi	r3,4
 200ca94:	18800336 	bltu	r3,r2,200caa4 <_malloc_r+0xe4>
 200ca98:	8804d1ba 	srli	r2,r17,6
 200ca9c:	10800e04 	addi	r2,r2,56
 200caa0:	00001606 	br	200cafc <_malloc_r+0x13c>
 200caa4:	00c00504 	movi	r3,20
 200caa8:	18800236 	bltu	r3,r2,200cab4 <_malloc_r+0xf4>
 200caac:	108016c4 	addi	r2,r2,91
 200cab0:	00001206 	br	200cafc <_malloc_r+0x13c>
 200cab4:	00c01504 	movi	r3,84
 200cab8:	18800336 	bltu	r3,r2,200cac8 <_malloc_r+0x108>
 200cabc:	8804d33a 	srli	r2,r17,12
 200cac0:	10801b84 	addi	r2,r2,110
 200cac4:	00000d06 	br	200cafc <_malloc_r+0x13c>
 200cac8:	00c05504 	movi	r3,340
 200cacc:	18800336 	bltu	r3,r2,200cadc <_malloc_r+0x11c>
 200cad0:	8804d3fa 	srli	r2,r17,15
 200cad4:	10801dc4 	addi	r2,r2,119
 200cad8:	00000806 	br	200cafc <_malloc_r+0x13c>
 200cadc:	00c15504 	movi	r3,1364
 200cae0:	18800536 	bltu	r3,r2,200caf8 <_malloc_r+0x138>
 200cae4:	8804d4ba 	srli	r2,r17,18
 200cae8:	10801f04 	addi	r2,r2,124
 200caec:	00000306 	br	200cafc <_malloc_r+0x13c>
 200caf0:	00800fc4 	movi	r2,63
 200caf4:	00000106 	br	200cafc <_malloc_r+0x13c>
 200caf8:	00801f84 	movi	r2,126
 200cafc:	1087883a 	add	r3,r2,r2
 200cb00:	18c7883a 	add	r3,r3,r3
 200cb04:	18c7883a 	add	r3,r3,r3
 200cb08:	90c7883a 	add	r3,r18,r3
 200cb0c:	1c000317 	ldw	r16,12(r3)
 200cb10:	01bfff04 	movi	r6,-4
 200cb14:	01c003c4 	movi	r7,15
 200cb18:	00000906 	br	200cb40 <_malloc_r+0x180>
 200cb1c:	28000716 	blt	r5,zero,200cb3c <_malloc_r+0x17c>
 200cb20:	80800317 	ldw	r2,12(r16)
 200cb24:	80c00217 	ldw	r3,8(r16)
 200cb28:	18800315 	stw	r2,12(r3)
 200cb2c:	10c00215 	stw	r3,8(r2)
 200cb30:	8105883a 	add	r2,r16,r4
 200cb34:	10c00117 	ldw	r3,4(r2)
 200cb38:	00013106 	br	200d000 <_malloc_r+0x640>
 200cb3c:	84000317 	ldw	r16,12(r16)
 200cb40:	80c00526 	beq	r16,r3,200cb58 <_malloc_r+0x198>
 200cb44:	81000117 	ldw	r4,4(r16)
 200cb48:	2188703a 	and	r4,r4,r6
 200cb4c:	244bc83a 	sub	r5,r4,r17
 200cb50:	397ff20e 	bge	r7,r5,200cb1c <__reset+0xfe00531c>
 200cb54:	10bfffc4 	addi	r2,r2,-1
 200cb58:	10800044 	addi	r2,r2,1
 200cb5c:	010080f4 	movhi	r4,515
 200cb60:	94000417 	ldw	r16,16(r18)
 200cb64:	2136b304 	addi	r4,r4,-9524
 200cb68:	21800204 	addi	r6,r4,8
 200cb6c:	81805c26 	beq	r16,r6,200cce0 <_malloc_r+0x320>
 200cb70:	81400117 	ldw	r5,4(r16)
 200cb74:	00ffff04 	movi	r3,-4
 200cb78:	01c003c4 	movi	r7,15
 200cb7c:	28c6703a 	and	r3,r5,r3
 200cb80:	1c4bc83a 	sub	r5,r3,r17
 200cb84:	3940060e 	bge	r7,r5,200cba0 <_malloc_r+0x1e0>
 200cb88:	88800054 	ori	r2,r17,1
 200cb8c:	8447883a 	add	r3,r16,r17
 200cb90:	80800115 	stw	r2,4(r16)
 200cb94:	20c00515 	stw	r3,20(r4)
 200cb98:	20c00415 	stw	r3,16(r4)
 200cb9c:	00007706 	br	200cd7c <_malloc_r+0x3bc>
 200cba0:	21800515 	stw	r6,20(r4)
 200cba4:	21800415 	stw	r6,16(r4)
 200cba8:	28000516 	blt	r5,zero,200cbc0 <_malloc_r+0x200>
 200cbac:	80c7883a 	add	r3,r16,r3
 200cbb0:	18800117 	ldw	r2,4(r3)
 200cbb4:	10800054 	ori	r2,r2,1
 200cbb8:	18800115 	stw	r2,4(r3)
 200cbbc:	00011206 	br	200d008 <_malloc_r+0x648>
 200cbc0:	01407fc4 	movi	r5,511
 200cbc4:	28c01136 	bltu	r5,r3,200cc0c <_malloc_r+0x24c>
 200cbc8:	1806d0fa 	srli	r3,r3,3
 200cbcc:	01400044 	movi	r5,1
 200cbd0:	180fd0ba 	srai	r7,r3,2
 200cbd4:	18c7883a 	add	r3,r3,r3
 200cbd8:	18c7883a 	add	r3,r3,r3
 200cbdc:	29ce983a 	sll	r7,r5,r7
 200cbe0:	21400117 	ldw	r5,4(r4)
 200cbe4:	18c7883a 	add	r3,r3,r3
 200cbe8:	394ab03a 	or	r5,r7,r5
 200cbec:	21400115 	stw	r5,4(r4)
 200cbf0:	1909883a 	add	r4,r3,r4
 200cbf4:	20c00217 	ldw	r3,8(r4)
 200cbf8:	81000315 	stw	r4,12(r16)
 200cbfc:	80c00215 	stw	r3,8(r16)
 200cc00:	24000215 	stw	r16,8(r4)
 200cc04:	1c000315 	stw	r16,12(r3)
 200cc08:	00003506 	br	200cce0 <_malloc_r+0x320>
 200cc0c:	180ad27a 	srli	r5,r3,9
 200cc10:	01000104 	movi	r4,4
 200cc14:	21400336 	bltu	r4,r5,200cc24 <_malloc_r+0x264>
 200cc18:	180ad1ba 	srli	r5,r3,6
 200cc1c:	29400e04 	addi	r5,r5,56
 200cc20:	00001406 	br	200cc74 <_malloc_r+0x2b4>
 200cc24:	01000504 	movi	r4,20
 200cc28:	21400236 	bltu	r4,r5,200cc34 <_malloc_r+0x274>
 200cc2c:	294016c4 	addi	r5,r5,91
 200cc30:	00001006 	br	200cc74 <_malloc_r+0x2b4>
 200cc34:	01001504 	movi	r4,84
 200cc38:	21400336 	bltu	r4,r5,200cc48 <_malloc_r+0x288>
 200cc3c:	180ad33a 	srli	r5,r3,12
 200cc40:	29401b84 	addi	r5,r5,110
 200cc44:	00000b06 	br	200cc74 <_malloc_r+0x2b4>
 200cc48:	01005504 	movi	r4,340
 200cc4c:	21400336 	bltu	r4,r5,200cc5c <_malloc_r+0x29c>
 200cc50:	180ad3fa 	srli	r5,r3,15
 200cc54:	29401dc4 	addi	r5,r5,119
 200cc58:	00000606 	br	200cc74 <_malloc_r+0x2b4>
 200cc5c:	01015504 	movi	r4,1364
 200cc60:	21400336 	bltu	r4,r5,200cc70 <_malloc_r+0x2b0>
 200cc64:	180ad4ba 	srli	r5,r3,18
 200cc68:	29401f04 	addi	r5,r5,124
 200cc6c:	00000106 	br	200cc74 <_malloc_r+0x2b4>
 200cc70:	01401f84 	movi	r5,126
 200cc74:	2949883a 	add	r4,r5,r5
 200cc78:	2109883a 	add	r4,r4,r4
 200cc7c:	2109883a 	add	r4,r4,r4
 200cc80:	9109883a 	add	r4,r18,r4
 200cc84:	21c00217 	ldw	r7,8(r4)
 200cc88:	020080f4 	movhi	r8,515
 200cc8c:	4236b304 	addi	r8,r8,-9524
 200cc90:	3900081e 	bne	r7,r4,200ccb4 <_malloc_r+0x2f4>
 200cc94:	280bd0ba 	srai	r5,r5,2
 200cc98:	00c00044 	movi	r3,1
 200cc9c:	194a983a 	sll	r5,r3,r5
 200cca0:	40c00117 	ldw	r3,4(r8)
 200cca4:	28cab03a 	or	r5,r5,r3
 200cca8:	41400115 	stw	r5,4(r8)
 200ccac:	3807883a 	mov	r3,r7
 200ccb0:	00000706 	br	200ccd0 <_malloc_r+0x310>
 200ccb4:	023fff04 	movi	r8,-4
 200ccb8:	39400117 	ldw	r5,4(r7)
 200ccbc:	2a0a703a 	and	r5,r5,r8
 200ccc0:	1940022e 	bgeu	r3,r5,200cccc <_malloc_r+0x30c>
 200ccc4:	39c00217 	ldw	r7,8(r7)
 200ccc8:	393ffb1e 	bne	r7,r4,200ccb8 <__reset+0xfe0054b8>
 200cccc:	38c00317 	ldw	r3,12(r7)
 200ccd0:	80c00315 	stw	r3,12(r16)
 200ccd4:	81c00215 	stw	r7,8(r16)
 200ccd8:	1c000215 	stw	r16,8(r3)
 200ccdc:	3c000315 	stw	r16,12(r7)
 200cce0:	1007d0ba 	srai	r3,r2,2
 200cce4:	02000044 	movi	r8,1
 200cce8:	40d0983a 	sll	r8,r8,r3
 200ccec:	90c00117 	ldw	r3,4(r18)
 200ccf0:	1a004d36 	bltu	r3,r8,200ce28 <_malloc_r+0x468>
 200ccf4:	40c8703a 	and	r4,r8,r3
 200ccf8:	2000061e 	bne	r4,zero,200cd14 <_malloc_r+0x354>
 200ccfc:	013fff04 	movi	r4,-4
 200cd00:	1104703a 	and	r2,r2,r4
 200cd04:	4211883a 	add	r8,r8,r8
 200cd08:	40c8703a 	and	r4,r8,r3
 200cd0c:	10800104 	addi	r2,r2,4
 200cd10:	203ffc26 	beq	r4,zero,200cd04 <__reset+0xfe005504>
 200cd14:	02bfff04 	movi	r10,-4
 200cd18:	02c003c4 	movi	r11,15
 200cd1c:	1087883a 	add	r3,r2,r2
 200cd20:	18c7883a 	add	r3,r3,r3
 200cd24:	18c7883a 	add	r3,r3,r3
 200cd28:	90c7883a 	add	r3,r18,r3
 200cd2c:	19c00304 	addi	r7,r3,12
 200cd30:	1013883a 	mov	r9,r2
 200cd34:	3b3ffd04 	addi	r12,r7,-12
 200cd38:	3c000017 	ldw	r16,0(r7)
 200cd3c:	00000106 	br	200cd44 <_malloc_r+0x384>
 200cd40:	84000317 	ldw	r16,12(r16)
 200cd44:	83001e26 	beq	r16,r12,200cdc0 <_malloc_r+0x400>
 200cd48:	81000117 	ldw	r4,4(r16)
 200cd4c:	2288703a 	and	r4,r4,r10
 200cd50:	244bc83a 	sub	r5,r4,r17
 200cd54:	5940100e 	bge	r11,r5,200cd98 <_malloc_r+0x3d8>
 200cd58:	88800054 	ori	r2,r17,1
 200cd5c:	80800115 	stw	r2,4(r16)
 200cd60:	81000217 	ldw	r4,8(r16)
 200cd64:	80800317 	ldw	r2,12(r16)
 200cd68:	8447883a 	add	r3,r16,r17
 200cd6c:	20800315 	stw	r2,12(r4)
 200cd70:	11000215 	stw	r4,8(r2)
 200cd74:	90c00515 	stw	r3,20(r18)
 200cd78:	90c00415 	stw	r3,16(r18)
 200cd7c:	28800054 	ori	r2,r5,1
 200cd80:	19800315 	stw	r6,12(r3)
 200cd84:	19800215 	stw	r6,8(r3)
 200cd88:	18800115 	stw	r2,4(r3)
 200cd8c:	1947883a 	add	r3,r3,r5
 200cd90:	19400015 	stw	r5,0(r3)
 200cd94:	00009c06 	br	200d008 <_malloc_r+0x648>
 200cd98:	283fe916 	blt	r5,zero,200cd40 <__reset+0xfe005540>
 200cd9c:	8105883a 	add	r2,r16,r4
 200cda0:	10c00117 	ldw	r3,4(r2)
 200cda4:	18c00054 	ori	r3,r3,1
 200cda8:	10c00115 	stw	r3,4(r2)
 200cdac:	80800317 	ldw	r2,12(r16)
 200cdb0:	80c00217 	ldw	r3,8(r16)
 200cdb4:	18800315 	stw	r2,12(r3)
 200cdb8:	10c00215 	stw	r3,8(r2)
 200cdbc:	00009206 	br	200d008 <_malloc_r+0x648>
 200cdc0:	4a400044 	addi	r9,r9,1
 200cdc4:	490000cc 	andi	r4,r9,3
 200cdc8:	39c00204 	addi	r7,r7,8
 200cdcc:	203fd91e 	bne	r4,zero,200cd34 <__reset+0xfe005534>
 200cdd0:	110000cc 	andi	r4,r2,3
 200cdd4:	2000051e 	bne	r4,zero,200cdec <_malloc_r+0x42c>
 200cdd8:	90c00117 	ldw	r3,4(r18)
 200cddc:	0204303a 	nor	r2,zero,r8
 200cde0:	10c4703a 	and	r2,r2,r3
 200cde4:	90800115 	stw	r2,4(r18)
 200cde8:	00000406 	br	200cdfc <_malloc_r+0x43c>
 200cdec:	193ffe04 	addi	r4,r3,-8
 200cdf0:	18c00017 	ldw	r3,0(r3)
 200cdf4:	10bfffc4 	addi	r2,r2,-1
 200cdf8:	193ff526 	beq	r3,r4,200cdd0 <__reset+0xfe0055d0>
 200cdfc:	90800117 	ldw	r2,4(r18)
 200ce00:	4211883a 	add	r8,r8,r8
 200ce04:	12000836 	bltu	r2,r8,200ce28 <_malloc_r+0x468>
 200ce08:	40000726 	beq	r8,zero,200ce28 <_malloc_r+0x468>
 200ce0c:	4086703a 	and	r3,r8,r2
 200ce10:	1800031e 	bne	r3,zero,200ce20 <_malloc_r+0x460>
 200ce14:	4a400104 	addi	r9,r9,4
 200ce18:	4211883a 	add	r8,r8,r8
 200ce1c:	003ffb06 	br	200ce0c <__reset+0xfe00560c>
 200ce20:	4805883a 	mov	r2,r9
 200ce24:	003fbd06 	br	200cd1c <__reset+0xfe00551c>
 200ce28:	95c00217 	ldw	r23,8(r18)
 200ce2c:	00bfff04 	movi	r2,-4
 200ce30:	bd400117 	ldw	r21,4(r23)
 200ce34:	a8aa703a 	and	r21,r21,r2
 200ce38:	ac400336 	bltu	r21,r17,200ce48 <_malloc_r+0x488>
 200ce3c:	ac47c83a 	sub	r3,r21,r17
 200ce40:	008003c4 	movi	r2,15
 200ce44:	10c06916 	blt	r2,r3,200cfec <_malloc_r+0x62c>
 200ce48:	d0acfe17 	ldw	r2,-19464(gp)
 200ce4c:	d0e00417 	ldw	r3,-32752(gp)
 200ce50:	05bfffc4 	movi	r22,-1
 200ce54:	bd61883a 	add	r16,r23,r21
 200ce58:	8885883a 	add	r2,r17,r2
 200ce5c:	1d80021e 	bne	r3,r22,200ce68 <_malloc_r+0x4a8>
 200ce60:	17000404 	addi	fp,r2,16
 200ce64:	00000306 	br	200ce74 <_malloc_r+0x4b4>
 200ce68:	108023c4 	addi	r2,r2,143
 200ce6c:	073fe004 	movi	fp,-128
 200ce70:	1738703a 	and	fp,r2,fp
 200ce74:	9809883a 	mov	r4,r19
 200ce78:	e00b883a 	mov	r5,fp
 200ce7c:	200d1a80 	call	200d1a8 <_sbrk_r>
 200ce80:	1029883a 	mov	r20,r2
 200ce84:	15804d26 	beq	r2,r22,200cfbc <_malloc_r+0x5fc>
 200ce88:	1400012e 	bgeu	r2,r16,200ce90 <_malloc_r+0x4d0>
 200ce8c:	bc804b1e 	bne	r23,r18,200cfbc <_malloc_r+0x5fc>
 200ce90:	058080f4 	movhi	r22,515
 200ce94:	b5897004 	addi	r22,r22,9664
 200ce98:	b1000017 	ldw	r4,0(r22)
 200ce9c:	e109883a 	add	r4,fp,r4
 200cea0:	b1000015 	stw	r4,0(r22)
 200cea4:	a400071e 	bne	r20,r16,200cec4 <_malloc_r+0x504>
 200cea8:	a0801fcc 	andi	r2,r20,127
 200ceac:	1000051e 	bne	r2,zero,200cec4 <_malloc_r+0x504>
 200ceb0:	90c00217 	ldw	r3,8(r18)
 200ceb4:	e545883a 	add	r2,fp,r21
 200ceb8:	10800054 	ori	r2,r2,1
 200cebc:	18800115 	stw	r2,4(r3)
 200cec0:	00003706 	br	200cfa0 <_malloc_r+0x5e0>
 200cec4:	d0e00417 	ldw	r3,-32752(gp)
 200cec8:	00bfffc4 	movi	r2,-1
 200cecc:	1880021e 	bne	r3,r2,200ced8 <_malloc_r+0x518>
 200ced0:	d5200415 	stw	r20,-32752(gp)
 200ced4:	00000306 	br	200cee4 <_malloc_r+0x524>
 200ced8:	a407c83a 	sub	r3,r20,r16
 200cedc:	20c7883a 	add	r3,r4,r3
 200cee0:	b0c00015 	stw	r3,0(r22)
 200cee4:	a40001cc 	andi	r16,r20,7
 200cee8:	80000426 	beq	r16,zero,200cefc <_malloc_r+0x53c>
 200ceec:	00c00204 	movi	r3,8
 200cef0:	1c21c83a 	sub	r16,r3,r16
 200cef4:	a429883a 	add	r20,r20,r16
 200cef8:	00000106 	br	200cf00 <_malloc_r+0x540>
 200cefc:	0021883a 	mov	r16,zero
 200cf00:	a705883a 	add	r2,r20,fp
 200cf04:	10801fcc 	andi	r2,r2,127
 200cf08:	84002004 	addi	r16,r16,128
 200cf0c:	80a1c83a 	sub	r16,r16,r2
 200cf10:	9809883a 	mov	r4,r19
 200cf14:	800b883a 	mov	r5,r16
 200cf18:	200d1a80 	call	200d1a8 <_sbrk_r>
 200cf1c:	00ffffc4 	movi	r3,-1
 200cf20:	10c0021e 	bne	r2,r3,200cf2c <_malloc_r+0x56c>
 200cf24:	a005883a 	mov	r2,r20
 200cf28:	0021883a 	mov	r16,zero
 200cf2c:	b0c00017 	ldw	r3,0(r22)
 200cf30:	1505c83a 	sub	r2,r2,r20
 200cf34:	95000215 	stw	r20,8(r18)
 200cf38:	80c7883a 	add	r3,r16,r3
 200cf3c:	1421883a 	add	r16,r2,r16
 200cf40:	84000054 	ori	r16,r16,1
 200cf44:	b0c00015 	stw	r3,0(r22)
 200cf48:	a4000115 	stw	r16,4(r20)
 200cf4c:	bc801426 	beq	r23,r18,200cfa0 <_malloc_r+0x5e0>
 200cf50:	00c003c4 	movi	r3,15
 200cf54:	1d400336 	bltu	r3,r21,200cf64 <_malloc_r+0x5a4>
 200cf58:	00800044 	movi	r2,1
 200cf5c:	a0800115 	stw	r2,4(r20)
 200cf60:	00001606 	br	200cfbc <_malloc_r+0x5fc>
 200cf64:	00bffe04 	movi	r2,-8
 200cf68:	ad7ffd04 	addi	r21,r21,-12
 200cf6c:	a8aa703a 	and	r21,r21,r2
 200cf70:	b8800117 	ldw	r2,4(r23)
 200cf74:	01000144 	movi	r4,5
 200cf78:	1080004c 	andi	r2,r2,1
 200cf7c:	a884b03a 	or	r2,r21,r2
 200cf80:	b8800115 	stw	r2,4(r23)
 200cf84:	bd45883a 	add	r2,r23,r21
 200cf88:	11000115 	stw	r4,4(r2)
 200cf8c:	11000215 	stw	r4,8(r2)
 200cf90:	1d40032e 	bgeu	r3,r21,200cfa0 <_malloc_r+0x5e0>
 200cf94:	9809883a 	mov	r4,r19
 200cf98:	b9400204 	addi	r5,r23,8
 200cf9c:	200dfe80 	call	200dfe8 <_free_r>
 200cfa0:	b0800017 	ldw	r2,0(r22)
 200cfa4:	d0ecfd17 	ldw	r3,-19468(gp)
 200cfa8:	1880012e 	bgeu	r3,r2,200cfb0 <_malloc_r+0x5f0>
 200cfac:	d0acfd15 	stw	r2,-19468(gp)
 200cfb0:	d0ecfc17 	ldw	r3,-19472(gp)
 200cfb4:	1880012e 	bgeu	r3,r2,200cfbc <_malloc_r+0x5fc>
 200cfb8:	d0acfc15 	stw	r2,-19472(gp)
 200cfbc:	90800217 	ldw	r2,8(r18)
 200cfc0:	10c00117 	ldw	r3,4(r2)
 200cfc4:	00bfff04 	movi	r2,-4
 200cfc8:	1884703a 	and	r2,r3,r2
 200cfcc:	1447c83a 	sub	r3,r2,r17
 200cfd0:	14400236 	bltu	r2,r17,200cfdc <_malloc_r+0x61c>
 200cfd4:	008003c4 	movi	r2,15
 200cfd8:	10c00416 	blt	r2,r3,200cfec <_malloc_r+0x62c>
 200cfdc:	9809883a 	mov	r4,r19
 200cfe0:	200e9fc0 	call	200e9fc <__malloc_unlock>
 200cfe4:	0005883a 	mov	r2,zero
 200cfe8:	00000a06 	br	200d014 <_malloc_r+0x654>
 200cfec:	94000217 	ldw	r16,8(r18)
 200cff0:	88800054 	ori	r2,r17,1
 200cff4:	80800115 	stw	r2,4(r16)
 200cff8:	8445883a 	add	r2,r16,r17
 200cffc:	90800215 	stw	r2,8(r18)
 200d000:	18c00054 	ori	r3,r3,1
 200d004:	10c00115 	stw	r3,4(r2)
 200d008:	9809883a 	mov	r4,r19
 200d00c:	200e9fc0 	call	200e9fc <__malloc_unlock>
 200d010:	80800204 	addi	r2,r16,8
 200d014:	dfc00917 	ldw	ra,36(sp)
 200d018:	df000817 	ldw	fp,32(sp)
 200d01c:	ddc00717 	ldw	r23,28(sp)
 200d020:	dd800617 	ldw	r22,24(sp)
 200d024:	dd400517 	ldw	r21,20(sp)
 200d028:	dd000417 	ldw	r20,16(sp)
 200d02c:	dcc00317 	ldw	r19,12(sp)
 200d030:	dc800217 	ldw	r18,8(sp)
 200d034:	dc400117 	ldw	r17,4(sp)
 200d038:	dc000017 	ldw	r16,0(sp)
 200d03c:	dec00a04 	addi	sp,sp,40
 200d040:	f800283a 	ret

0200d044 <memcpy>:
 200d044:	2005883a 	mov	r2,r4
 200d048:	0007883a 	mov	r3,zero
 200d04c:	19800626 	beq	r3,r6,200d068 <memcpy+0x24>
 200d050:	28c9883a 	add	r4,r5,r3
 200d054:	21c00003 	ldbu	r7,0(r4)
 200d058:	10c9883a 	add	r4,r2,r3
 200d05c:	18c00044 	addi	r3,r3,1
 200d060:	21c00005 	stb	r7,0(r4)
 200d064:	003ff906 	br	200d04c <__reset+0xfe00584c>
 200d068:	f800283a 	ret

0200d06c <memset>:
 200d06c:	2005883a 	mov	r2,r4
 200d070:	2007883a 	mov	r3,r4
 200d074:	218d883a 	add	r6,r4,r6
 200d078:	19800326 	beq	r3,r6,200d088 <memset+0x1c>
 200d07c:	19400005 	stb	r5,0(r3)
 200d080:	18c00044 	addi	r3,r3,1
 200d084:	003ffc06 	br	200d078 <__reset+0xfe005878>
 200d088:	f800283a 	ret

0200d08c <_printf_r>:
 200d08c:	defffd04 	addi	sp,sp,-12
 200d090:	dfc00015 	stw	ra,0(sp)
 200d094:	d9800115 	stw	r6,4(sp)
 200d098:	d9c00215 	stw	r7,8(sp)
 200d09c:	20c00217 	ldw	r3,8(r4)
 200d0a0:	280d883a 	mov	r6,r5
 200d0a4:	01408074 	movhi	r5,513
 200d0a8:	29789c04 	addi	r5,r5,-7568
 200d0ac:	19400115 	stw	r5,4(r3)
 200d0b0:	21400217 	ldw	r5,8(r4)
 200d0b4:	d9c00104 	addi	r7,sp,4
 200d0b8:	200d95c0 	call	200d95c <___vfprintf_internal_r>
 200d0bc:	dfc00017 	ldw	ra,0(sp)
 200d0c0:	dec00304 	addi	sp,sp,12
 200d0c4:	f800283a 	ret

0200d0c8 <printf>:
 200d0c8:	defffc04 	addi	sp,sp,-16
 200d0cc:	dfc00015 	stw	ra,0(sp)
 200d0d0:	d9400115 	stw	r5,4(sp)
 200d0d4:	d9800215 	stw	r6,8(sp)
 200d0d8:	d9c00315 	stw	r7,12(sp)
 200d0dc:	008080f4 	movhi	r2,515
 200d0e0:	10bc6d04 	addi	r2,r2,-3660
 200d0e4:	10800017 	ldw	r2,0(r2)
 200d0e8:	200b883a 	mov	r5,r4
 200d0ec:	01008074 	movhi	r4,513
 200d0f0:	10c00217 	ldw	r3,8(r2)
 200d0f4:	21389c04 	addi	r4,r4,-7568
 200d0f8:	d9800104 	addi	r6,sp,4
 200d0fc:	19000115 	stw	r4,4(r3)
 200d100:	11000217 	ldw	r4,8(r2)
 200d104:	200dea00 	call	200dea0 <__vfprintf_internal>
 200d108:	dfc00017 	ldw	ra,0(sp)
 200d10c:	dec00404 	addi	sp,sp,16
 200d110:	f800283a 	ret

0200d114 <_puts_r>:
 200d114:	defffd04 	addi	sp,sp,-12
 200d118:	dc000015 	stw	r16,0(sp)
 200d11c:	2021883a 	mov	r16,r4
 200d120:	2809883a 	mov	r4,r5
 200d124:	dfc00215 	stw	ra,8(sp)
 200d128:	dc400115 	stw	r17,4(sp)
 200d12c:	2823883a 	mov	r17,r5
 200d130:	200d3000 	call	200d300 <strlen>
 200d134:	81400217 	ldw	r5,8(r16)
 200d138:	00c08074 	movhi	r3,513
 200d13c:	18f89c04 	addi	r3,r3,-7568
 200d140:	28c00115 	stw	r3,4(r5)
 200d144:	8009883a 	mov	r4,r16
 200d148:	880d883a 	mov	r6,r17
 200d14c:	100f883a 	mov	r7,r2
 200d150:	200e2700 	call	200e270 <__sfvwrite_small_dev>
 200d154:	00ffffc4 	movi	r3,-1
 200d158:	10c00926 	beq	r2,r3,200d180 <_puts_r+0x6c>
 200d15c:	81400217 	ldw	r5,8(r16)
 200d160:	018080f4 	movhi	r6,515
 200d164:	8009883a 	mov	r4,r16
 200d168:	28800117 	ldw	r2,4(r5)
 200d16c:	31af7e04 	addi	r6,r6,-16904
 200d170:	01c00044 	movi	r7,1
 200d174:	103ee83a 	callr	r2
 200d178:	10bfffe0 	cmpeqi	r2,r2,-1
 200d17c:	0085c83a 	sub	r2,zero,r2
 200d180:	dfc00217 	ldw	ra,8(sp)
 200d184:	dc400117 	ldw	r17,4(sp)
 200d188:	dc000017 	ldw	r16,0(sp)
 200d18c:	dec00304 	addi	sp,sp,12
 200d190:	f800283a 	ret

0200d194 <puts>:
 200d194:	008080f4 	movhi	r2,515
 200d198:	10bc6d04 	addi	r2,r2,-3660
 200d19c:	200b883a 	mov	r5,r4
 200d1a0:	11000017 	ldw	r4,0(r2)
 200d1a4:	200d1141 	jmpi	200d114 <_puts_r>

0200d1a8 <_sbrk_r>:
 200d1a8:	defffd04 	addi	sp,sp,-12
 200d1ac:	dc000015 	stw	r16,0(sp)
 200d1b0:	040080f4 	movhi	r16,515
 200d1b4:	dc400115 	stw	r17,4(sp)
 200d1b8:	84096904 	addi	r16,r16,9636
 200d1bc:	2023883a 	mov	r17,r4
 200d1c0:	2809883a 	mov	r4,r5
 200d1c4:	dfc00215 	stw	ra,8(sp)
 200d1c8:	80000015 	stw	zero,0(r16)
 200d1cc:	200ea1c0 	call	200ea1c <sbrk>
 200d1d0:	00ffffc4 	movi	r3,-1
 200d1d4:	10c0031e 	bne	r2,r3,200d1e4 <_sbrk_r+0x3c>
 200d1d8:	80c00017 	ldw	r3,0(r16)
 200d1dc:	18000126 	beq	r3,zero,200d1e4 <_sbrk_r+0x3c>
 200d1e0:	88c00015 	stw	r3,0(r17)
 200d1e4:	dfc00217 	ldw	ra,8(sp)
 200d1e8:	dc400117 	ldw	r17,4(sp)
 200d1ec:	dc000017 	ldw	r16,0(sp)
 200d1f0:	dec00304 	addi	sp,sp,12
 200d1f4:	f800283a 	ret

0200d1f8 <_sprintf_r>:
 200d1f8:	defff704 	addi	sp,sp,-36
 200d1fc:	dfc00715 	stw	ra,28(sp)
 200d200:	d9c00815 	stw	r7,32(sp)
 200d204:	00808204 	movi	r2,520
 200d208:	d880000d 	sth	r2,0(sp)
 200d20c:	00a00034 	movhi	r2,32768
 200d210:	10bfffc4 	addi	r2,r2,-1
 200d214:	d8800515 	stw	r2,20(sp)
 200d218:	d8800315 	stw	r2,12(sp)
 200d21c:	00bfffc4 	movi	r2,-1
 200d220:	d880008d 	sth	r2,2(sp)
 200d224:	00808074 	movhi	r2,513
 200d228:	d9400415 	stw	r5,16(sp)
 200d22c:	d9400215 	stw	r5,8(sp)
 200d230:	10b8c704 	addi	r2,r2,-7396
 200d234:	d80b883a 	mov	r5,sp
 200d238:	d9c00804 	addi	r7,sp,32
 200d23c:	d8800115 	stw	r2,4(sp)
 200d240:	d8000615 	stw	zero,24(sp)
 200d244:	200d3880 	call	200d388 <___svfprintf_internal_r>
 200d248:	d8c00417 	ldw	r3,16(sp)
 200d24c:	18000005 	stb	zero,0(r3)
 200d250:	dfc00717 	ldw	ra,28(sp)
 200d254:	dec00904 	addi	sp,sp,36
 200d258:	f800283a 	ret

0200d25c <sprintf>:
 200d25c:	defff604 	addi	sp,sp,-40
 200d260:	dfc00715 	stw	ra,28(sp)
 200d264:	d9800815 	stw	r6,32(sp)
 200d268:	d9c00915 	stw	r7,36(sp)
 200d26c:	00808204 	movi	r2,520
 200d270:	d880000d 	sth	r2,0(sp)
 200d274:	00a00034 	movhi	r2,32768
 200d278:	10bfffc4 	addi	r2,r2,-1
 200d27c:	d8800515 	stw	r2,20(sp)
 200d280:	d8800315 	stw	r2,12(sp)
 200d284:	00bfffc4 	movi	r2,-1
 200d288:	d880008d 	sth	r2,2(sp)
 200d28c:	00808074 	movhi	r2,513
 200d290:	10b8c704 	addi	r2,r2,-7396
 200d294:	d8800115 	stw	r2,4(sp)
 200d298:	008080f4 	movhi	r2,515
 200d29c:	10bc6d04 	addi	r2,r2,-3660
 200d2a0:	d9000415 	stw	r4,16(sp)
 200d2a4:	d9000215 	stw	r4,8(sp)
 200d2a8:	11000017 	ldw	r4,0(r2)
 200d2ac:	280d883a 	mov	r6,r5
 200d2b0:	d9c00804 	addi	r7,sp,32
 200d2b4:	d80b883a 	mov	r5,sp
 200d2b8:	d8000615 	stw	zero,24(sp)
 200d2bc:	200d3880 	call	200d388 <___svfprintf_internal_r>
 200d2c0:	d8c00417 	ldw	r3,16(sp)
 200d2c4:	18000005 	stb	zero,0(r3)
 200d2c8:	dfc00717 	ldw	ra,28(sp)
 200d2cc:	dec00a04 	addi	sp,sp,40
 200d2d0:	f800283a 	ret

0200d2d4 <strcpy>:
 200d2d4:	2005883a 	mov	r2,r4
 200d2d8:	200d883a 	mov	r6,r4
 200d2dc:	28c00003 	ldbu	r3,0(r5)
 200d2e0:	31800044 	addi	r6,r6,1
 200d2e4:	29400044 	addi	r5,r5,1
 200d2e8:	30ffffc5 	stb	r3,-1(r6)
 200d2ec:	18c03fcc 	andi	r3,r3,255
 200d2f0:	18c0201c 	xori	r3,r3,128
 200d2f4:	18ffe004 	addi	r3,r3,-128
 200d2f8:	183ff81e 	bne	r3,zero,200d2dc <__reset+0xfe005adc>
 200d2fc:	f800283a 	ret

0200d300 <strlen>:
 200d300:	2005883a 	mov	r2,r4
 200d304:	10c00007 	ldb	r3,0(r2)
 200d308:	18000226 	beq	r3,zero,200d314 <strlen+0x14>
 200d30c:	10800044 	addi	r2,r2,1
 200d310:	003ffc06 	br	200d304 <__reset+0xfe005b04>
 200d314:	1105c83a 	sub	r2,r2,r4
 200d318:	f800283a 	ret

0200d31c <print_repeat>:
 200d31c:	defffb04 	addi	sp,sp,-20
 200d320:	dc800315 	stw	r18,12(sp)
 200d324:	dc400215 	stw	r17,8(sp)
 200d328:	dc000115 	stw	r16,4(sp)
 200d32c:	dfc00415 	stw	ra,16(sp)
 200d330:	2025883a 	mov	r18,r4
 200d334:	2823883a 	mov	r17,r5
 200d338:	d9800005 	stb	r6,0(sp)
 200d33c:	3821883a 	mov	r16,r7
 200d340:	04000a0e 	bge	zero,r16,200d36c <print_repeat+0x50>
 200d344:	88800117 	ldw	r2,4(r17)
 200d348:	9009883a 	mov	r4,r18
 200d34c:	880b883a 	mov	r5,r17
 200d350:	d80d883a 	mov	r6,sp
 200d354:	01c00044 	movi	r7,1
 200d358:	103ee83a 	callr	r2
 200d35c:	843fffc4 	addi	r16,r16,-1
 200d360:	103ff726 	beq	r2,zero,200d340 <__reset+0xfe005b40>
 200d364:	00bfffc4 	movi	r2,-1
 200d368:	00000106 	br	200d370 <print_repeat+0x54>
 200d36c:	0005883a 	mov	r2,zero
 200d370:	dfc00417 	ldw	ra,16(sp)
 200d374:	dc800317 	ldw	r18,12(sp)
 200d378:	dc400217 	ldw	r17,8(sp)
 200d37c:	dc000117 	ldw	r16,4(sp)
 200d380:	dec00504 	addi	sp,sp,20
 200d384:	f800283a 	ret

0200d388 <___svfprintf_internal_r>:
 200d388:	deffe404 	addi	sp,sp,-112
 200d38c:	d8c00804 	addi	r3,sp,32
 200d390:	df001a15 	stw	fp,104(sp)
 200d394:	ddc01915 	stw	r23,100(sp)
 200d398:	dd801815 	stw	r22,96(sp)
 200d39c:	dd401715 	stw	r21,92(sp)
 200d3a0:	dd001615 	stw	r20,88(sp)
 200d3a4:	dcc01515 	stw	r19,84(sp)
 200d3a8:	dc801415 	stw	r18,80(sp)
 200d3ac:	dc401315 	stw	r17,76(sp)
 200d3b0:	dc001215 	stw	r16,72(sp)
 200d3b4:	dfc01b15 	stw	ra,108(sp)
 200d3b8:	2027883a 	mov	r19,r4
 200d3bc:	2839883a 	mov	fp,r5
 200d3c0:	382f883a 	mov	r23,r7
 200d3c4:	d9800f15 	stw	r6,60(sp)
 200d3c8:	0021883a 	mov	r16,zero
 200d3cc:	d8000e15 	stw	zero,56(sp)
 200d3d0:	002d883a 	mov	r22,zero
 200d3d4:	0029883a 	mov	r20,zero
 200d3d8:	0025883a 	mov	r18,zero
 200d3dc:	0023883a 	mov	r17,zero
 200d3e0:	d8000c15 	stw	zero,48(sp)
 200d3e4:	d8000b15 	stw	zero,44(sp)
 200d3e8:	002b883a 	mov	r21,zero
 200d3ec:	d8c00915 	stw	r3,36(sp)
 200d3f0:	d8c00f17 	ldw	r3,60(sp)
 200d3f4:	19000003 	ldbu	r4,0(r3)
 200d3f8:	20803fcc 	andi	r2,r4,255
 200d3fc:	1080201c 	xori	r2,r2,128
 200d400:	10bfe004 	addi	r2,r2,-128
 200d404:	10012426 	beq	r2,zero,200d898 <___svfprintf_internal_r+0x510>
 200d408:	00c00044 	movi	r3,1
 200d40c:	a8c01426 	beq	r21,r3,200d460 <___svfprintf_internal_r+0xd8>
 200d410:	1d400216 	blt	r3,r21,200d41c <___svfprintf_internal_r+0x94>
 200d414:	a8000626 	beq	r21,zero,200d430 <___svfprintf_internal_r+0xa8>
 200d418:	00011b06 	br	200d888 <___svfprintf_internal_r+0x500>
 200d41c:	01400084 	movi	r5,2
 200d420:	a9401d26 	beq	r21,r5,200d498 <___svfprintf_internal_r+0x110>
 200d424:	014000c4 	movi	r5,3
 200d428:	a9402926 	beq	r21,r5,200d4d0 <___svfprintf_internal_r+0x148>
 200d42c:	00011606 	br	200d888 <___svfprintf_internal_r+0x500>
 200d430:	01400944 	movi	r5,37
 200d434:	11410326 	beq	r2,r5,200d844 <___svfprintf_internal_r+0x4bc>
 200d438:	e0800117 	ldw	r2,4(fp)
 200d43c:	d9000005 	stb	r4,0(sp)
 200d440:	e00b883a 	mov	r5,fp
 200d444:	9809883a 	mov	r4,r19
 200d448:	d80d883a 	mov	r6,sp
 200d44c:	01c00044 	movi	r7,1
 200d450:	103ee83a 	callr	r2
 200d454:	1000de1e 	bne	r2,zero,200d7d0 <___svfprintf_internal_r+0x448>
 200d458:	84000044 	addi	r16,r16,1
 200d45c:	00010a06 	br	200d888 <___svfprintf_internal_r+0x500>
 200d460:	01400c04 	movi	r5,48
 200d464:	11410026 	beq	r2,r5,200d868 <___svfprintf_internal_r+0x4e0>
 200d468:	01400944 	movi	r5,37
 200d46c:	11400a1e 	bne	r2,r5,200d498 <___svfprintf_internal_r+0x110>
 200d470:	d8800005 	stb	r2,0(sp)
 200d474:	e0800117 	ldw	r2,4(fp)
 200d478:	9809883a 	mov	r4,r19
 200d47c:	e00b883a 	mov	r5,fp
 200d480:	d80d883a 	mov	r6,sp
 200d484:	a80f883a 	mov	r7,r21
 200d488:	103ee83a 	callr	r2
 200d48c:	1000d01e 	bne	r2,zero,200d7d0 <___svfprintf_internal_r+0x448>
 200d490:	84000044 	addi	r16,r16,1
 200d494:	0000fb06 	br	200d884 <___svfprintf_internal_r+0x4fc>
 200d498:	217ff404 	addi	r5,r4,-48
 200d49c:	29403fcc 	andi	r5,r5,255
 200d4a0:	00c00244 	movi	r3,9
 200d4a4:	19400736 	bltu	r3,r5,200d4c4 <___svfprintf_internal_r+0x13c>
 200d4a8:	00bfffc4 	movi	r2,-1
 200d4ac:	88800226 	beq	r17,r2,200d4b8 <___svfprintf_internal_r+0x130>
 200d4b0:	8c4002a4 	muli	r17,r17,10
 200d4b4:	00000106 	br	200d4bc <___svfprintf_internal_r+0x134>
 200d4b8:	0023883a 	mov	r17,zero
 200d4bc:	8963883a 	add	r17,r17,r5
 200d4c0:	0000ea06 	br	200d86c <___svfprintf_internal_r+0x4e4>
 200d4c4:	01400b84 	movi	r5,46
 200d4c8:	1140ec26 	beq	r2,r5,200d87c <___svfprintf_internal_r+0x4f4>
 200d4cc:	05400084 	movi	r21,2
 200d4d0:	213ff404 	addi	r4,r4,-48
 200d4d4:	21003fcc 	andi	r4,r4,255
 200d4d8:	00c00244 	movi	r3,9
 200d4dc:	19000736 	bltu	r3,r4,200d4fc <___svfprintf_internal_r+0x174>
 200d4e0:	00bfffc4 	movi	r2,-1
 200d4e4:	90800226 	beq	r18,r2,200d4f0 <___svfprintf_internal_r+0x168>
 200d4e8:	948002a4 	muli	r18,r18,10
 200d4ec:	00000106 	br	200d4f4 <___svfprintf_internal_r+0x16c>
 200d4f0:	0025883a 	mov	r18,zero
 200d4f4:	9125883a 	add	r18,r18,r4
 200d4f8:	0000e306 	br	200d888 <___svfprintf_internal_r+0x500>
 200d4fc:	00c01b04 	movi	r3,108
 200d500:	10c0dc26 	beq	r2,r3,200d874 <___svfprintf_internal_r+0x4ec>
 200d504:	013fffc4 	movi	r4,-1
 200d508:	91000226 	beq	r18,r4,200d514 <___svfprintf_internal_r+0x18c>
 200d50c:	d8000b15 	stw	zero,44(sp)
 200d510:	00000106 	br	200d518 <___svfprintf_internal_r+0x190>
 200d514:	04800044 	movi	r18,1
 200d518:	01001a44 	movi	r4,105
 200d51c:	11001626 	beq	r2,r4,200d578 <___svfprintf_internal_r+0x1f0>
 200d520:	20800916 	blt	r4,r2,200d548 <___svfprintf_internal_r+0x1c0>
 200d524:	010018c4 	movi	r4,99
 200d528:	11009226 	beq	r2,r4,200d774 <___svfprintf_internal_r+0x3ec>
 200d52c:	01001904 	movi	r4,100
 200d530:	11001126 	beq	r2,r4,200d578 <___svfprintf_internal_r+0x1f0>
 200d534:	01001604 	movi	r4,88
 200d538:	1100d21e 	bne	r2,r4,200d884 <___svfprintf_internal_r+0x4fc>
 200d53c:	00c00044 	movi	r3,1
 200d540:	d8c00e15 	stw	r3,56(sp)
 200d544:	00001406 	br	200d598 <___svfprintf_internal_r+0x210>
 200d548:	01001cc4 	movi	r4,115
 200d54c:	1100a226 	beq	r2,r4,200d7d8 <___svfprintf_internal_r+0x450>
 200d550:	20800416 	blt	r4,r2,200d564 <___svfprintf_internal_r+0x1dc>
 200d554:	01001bc4 	movi	r4,111
 200d558:	1100ca1e 	bne	r2,r4,200d884 <___svfprintf_internal_r+0x4fc>
 200d55c:	05000204 	movi	r20,8
 200d560:	00000e06 	br	200d59c <___svfprintf_internal_r+0x214>
 200d564:	01001d44 	movi	r4,117
 200d568:	11000c26 	beq	r2,r4,200d59c <___svfprintf_internal_r+0x214>
 200d56c:	01001e04 	movi	r4,120
 200d570:	11000926 	beq	r2,r4,200d598 <___svfprintf_internal_r+0x210>
 200d574:	0000c306 	br	200d884 <___svfprintf_internal_r+0x4fc>
 200d578:	b8800104 	addi	r2,r23,4
 200d57c:	b0000726 	beq	r22,zero,200d59c <___svfprintf_internal_r+0x214>
 200d580:	d8800d15 	stw	r2,52(sp)
 200d584:	bdc00017 	ldw	r23,0(r23)
 200d588:	b800080e 	bge	r23,zero,200d5ac <___svfprintf_internal_r+0x224>
 200d58c:	05efc83a 	sub	r23,zero,r23
 200d590:	02400044 	movi	r9,1
 200d594:	00000606 	br	200d5b0 <___svfprintf_internal_r+0x228>
 200d598:	05000404 	movi	r20,16
 200d59c:	b8c00104 	addi	r3,r23,4
 200d5a0:	d8c00d15 	stw	r3,52(sp)
 200d5a4:	bdc00017 	ldw	r23,0(r23)
 200d5a8:	002d883a 	mov	r22,zero
 200d5ac:	0013883a 	mov	r9,zero
 200d5b0:	002b883a 	mov	r21,zero
 200d5b4:	dd4d883a 	add	r6,sp,r21
 200d5b8:	b8001626 	beq	r23,zero,200d614 <___svfprintf_internal_r+0x28c>
 200d5bc:	b809883a 	mov	r4,r23
 200d5c0:	a00b883a 	mov	r5,r20
 200d5c4:	d9801015 	stw	r6,64(sp)
 200d5c8:	da401115 	stw	r9,68(sp)
 200d5cc:	200a5800 	call	200a580 <__udivsi3>
 200d5d0:	a089383a 	mul	r4,r20,r2
 200d5d4:	00c00244 	movi	r3,9
 200d5d8:	d9801017 	ldw	r6,64(sp)
 200d5dc:	b92fc83a 	sub	r23,r23,r4
 200d5e0:	da401117 	ldw	r9,68(sp)
 200d5e4:	1dc00216 	blt	r3,r23,200d5f0 <___svfprintf_internal_r+0x268>
 200d5e8:	bdc00c04 	addi	r23,r23,48
 200d5ec:	00000506 	br	200d604 <___svfprintf_internal_r+0x27c>
 200d5f0:	d8c00e17 	ldw	r3,56(sp)
 200d5f4:	18000226 	beq	r3,zero,200d600 <___svfprintf_internal_r+0x278>
 200d5f8:	bdc00dc4 	addi	r23,r23,55
 200d5fc:	00000106 	br	200d604 <___svfprintf_internal_r+0x27c>
 200d600:	bdc015c4 	addi	r23,r23,87
 200d604:	35c00005 	stb	r23,0(r6)
 200d608:	ad400044 	addi	r21,r21,1
 200d60c:	102f883a 	mov	r23,r2
 200d610:	003fe806 	br	200d5b4 <__reset+0xfe005db4>
 200d614:	36c7c83a 	sub	r3,r6,sp
 200d618:	d8c00a15 	stw	r3,40(sp)
 200d61c:	90c5c83a 	sub	r2,r18,r3
 200d620:	302f883a 	mov	r23,r6
 200d624:	00800e0e 	bge	zero,r2,200d660 <___svfprintf_internal_r+0x2d8>
 200d628:	302b883a 	mov	r21,r6
 200d62c:	3085883a 	add	r2,r6,r2
 200d630:	01400c04 	movi	r5,48
 200d634:	d8c00917 	ldw	r3,36(sp)
 200d638:	a809883a 	mov	r4,r21
 200d63c:	a8c0052e 	bgeu	r21,r3,200d654 <___svfprintf_internal_r+0x2cc>
 200d640:	ad400044 	addi	r21,r21,1
 200d644:	21400005 	stb	r5,0(r4)
 200d648:	a82f883a 	mov	r23,r21
 200d64c:	a8bff91e 	bne	r21,r2,200d634 <__reset+0xfe005e34>
 200d650:	00000106 	br	200d658 <___svfprintf_internal_r+0x2d0>
 200d654:	a82f883a 	mov	r23,r21
 200d658:	aeebc83a 	sub	r21,r21,sp
 200d65c:	dd400a15 	stw	r21,40(sp)
 200d660:	d8c00a17 	ldw	r3,40(sp)
 200d664:	1a51883a 	add	r8,r3,r9
 200d668:	d8c00b17 	ldw	r3,44(sp)
 200d66c:	8a2bc83a 	sub	r21,r17,r8
 200d670:	18001726 	beq	r3,zero,200d6d0 <___svfprintf_internal_r+0x348>
 200d674:	48000a26 	beq	r9,zero,200d6a0 <___svfprintf_internal_r+0x318>
 200d678:	00800b44 	movi	r2,45
 200d67c:	d8800805 	stb	r2,32(sp)
 200d680:	e0800117 	ldw	r2,4(fp)
 200d684:	9809883a 	mov	r4,r19
 200d688:	e00b883a 	mov	r5,fp
 200d68c:	d9800804 	addi	r6,sp,32
 200d690:	01c00044 	movi	r7,1
 200d694:	103ee83a 	callr	r2
 200d698:	10004d1e 	bne	r2,zero,200d7d0 <___svfprintf_internal_r+0x448>
 200d69c:	84000044 	addi	r16,r16,1
 200d6a0:	0540070e 	bge	zero,r21,200d6c0 <___svfprintf_internal_r+0x338>
 200d6a4:	9809883a 	mov	r4,r19
 200d6a8:	e00b883a 	mov	r5,fp
 200d6ac:	01800c04 	movi	r6,48
 200d6b0:	a80f883a 	mov	r7,r21
 200d6b4:	200d31c0 	call	200d31c <print_repeat>
 200d6b8:	1000451e 	bne	r2,zero,200d7d0 <___svfprintf_internal_r+0x448>
 200d6bc:	8561883a 	add	r16,r16,r21
 200d6c0:	d8c00a17 	ldw	r3,40(sp)
 200d6c4:	b811883a 	mov	r8,r23
 200d6c8:	1debc83a 	sub	r21,r3,r23
 200d6cc:	00002206 	br	200d758 <___svfprintf_internal_r+0x3d0>
 200d6d0:	0540090e 	bge	zero,r21,200d6f8 <___svfprintf_internal_r+0x370>
 200d6d4:	9809883a 	mov	r4,r19
 200d6d8:	e00b883a 	mov	r5,fp
 200d6dc:	01800804 	movi	r6,32
 200d6e0:	a80f883a 	mov	r7,r21
 200d6e4:	da401115 	stw	r9,68(sp)
 200d6e8:	200d31c0 	call	200d31c <print_repeat>
 200d6ec:	da401117 	ldw	r9,68(sp)
 200d6f0:	1000371e 	bne	r2,zero,200d7d0 <___svfprintf_internal_r+0x448>
 200d6f4:	8561883a 	add	r16,r16,r21
 200d6f8:	483ff126 	beq	r9,zero,200d6c0 <__reset+0xfe005ec0>
 200d6fc:	00800b44 	movi	r2,45
 200d700:	d8800805 	stb	r2,32(sp)
 200d704:	e0800117 	ldw	r2,4(fp)
 200d708:	9809883a 	mov	r4,r19
 200d70c:	e00b883a 	mov	r5,fp
 200d710:	d9800804 	addi	r6,sp,32
 200d714:	01c00044 	movi	r7,1
 200d718:	103ee83a 	callr	r2
 200d71c:	10002c1e 	bne	r2,zero,200d7d0 <___svfprintf_internal_r+0x448>
 200d720:	84000044 	addi	r16,r16,1
 200d724:	003fe606 	br	200d6c0 <__reset+0xfe005ec0>
 200d728:	423fffc4 	addi	r8,r8,-1
 200d72c:	40800003 	ldbu	r2,0(r8)
 200d730:	9809883a 	mov	r4,r19
 200d734:	e00b883a 	mov	r5,fp
 200d738:	d8800805 	stb	r2,32(sp)
 200d73c:	e0800117 	ldw	r2,4(fp)
 200d740:	d9800804 	addi	r6,sp,32
 200d744:	da001015 	stw	r8,64(sp)
 200d748:	01c00044 	movi	r7,1
 200d74c:	103ee83a 	callr	r2
 200d750:	da001017 	ldw	r8,64(sp)
 200d754:	10001e1e 	bne	r2,zero,200d7d0 <___svfprintf_internal_r+0x448>
 200d758:	8205c83a 	sub	r2,r16,r8
 200d75c:	4549883a 	add	r4,r8,r21
 200d760:	b885883a 	add	r2,r23,r2
 200d764:	013ff016 	blt	zero,r4,200d728 <__reset+0xfe005f28>
 200d768:	1021883a 	mov	r16,r2
 200d76c:	ddc00d17 	ldw	r23,52(sp)
 200d770:	00004406 	br	200d884 <___svfprintf_internal_r+0x4fc>
 200d774:	00800044 	movi	r2,1
 200d778:	1440080e 	bge	r2,r17,200d79c <___svfprintf_internal_r+0x414>
 200d77c:	8d7fffc4 	addi	r21,r17,-1
 200d780:	9809883a 	mov	r4,r19
 200d784:	e00b883a 	mov	r5,fp
 200d788:	01800804 	movi	r6,32
 200d78c:	a80f883a 	mov	r7,r21
 200d790:	200d31c0 	call	200d31c <print_repeat>
 200d794:	10000e1e 	bne	r2,zero,200d7d0 <___svfprintf_internal_r+0x448>
 200d798:	8561883a 	add	r16,r16,r21
 200d79c:	b8800017 	ldw	r2,0(r23)
 200d7a0:	9809883a 	mov	r4,r19
 200d7a4:	e00b883a 	mov	r5,fp
 200d7a8:	d8800005 	stb	r2,0(sp)
 200d7ac:	e0800117 	ldw	r2,4(fp)
 200d7b0:	d80d883a 	mov	r6,sp
 200d7b4:	01c00044 	movi	r7,1
 200d7b8:	bd400104 	addi	r21,r23,4
 200d7bc:	103ee83a 	callr	r2
 200d7c0:	1000031e 	bne	r2,zero,200d7d0 <___svfprintf_internal_r+0x448>
 200d7c4:	84000044 	addi	r16,r16,1
 200d7c8:	a82f883a 	mov	r23,r21
 200d7cc:	00002d06 	br	200d884 <___svfprintf_internal_r+0x4fc>
 200d7d0:	00bfffc4 	movi	r2,-1
 200d7d4:	00003106 	br	200d89c <___svfprintf_internal_r+0x514>
 200d7d8:	bd400017 	ldw	r21,0(r23)
 200d7dc:	b8c00104 	addi	r3,r23,4
 200d7e0:	d8c00a15 	stw	r3,40(sp)
 200d7e4:	a809883a 	mov	r4,r21
 200d7e8:	200d3000 	call	200d300 <strlen>
 200d7ec:	8893c83a 	sub	r9,r17,r2
 200d7f0:	102f883a 	mov	r23,r2
 200d7f4:	0240090e 	bge	zero,r9,200d81c <___svfprintf_internal_r+0x494>
 200d7f8:	480f883a 	mov	r7,r9
 200d7fc:	9809883a 	mov	r4,r19
 200d800:	e00b883a 	mov	r5,fp
 200d804:	01800804 	movi	r6,32
 200d808:	da401115 	stw	r9,68(sp)
 200d80c:	200d31c0 	call	200d31c <print_repeat>
 200d810:	da401117 	ldw	r9,68(sp)
 200d814:	103fee1e 	bne	r2,zero,200d7d0 <__reset+0xfe005fd0>
 200d818:	8261883a 	add	r16,r16,r9
 200d81c:	e0800117 	ldw	r2,4(fp)
 200d820:	9809883a 	mov	r4,r19
 200d824:	e00b883a 	mov	r5,fp
 200d828:	a80d883a 	mov	r6,r21
 200d82c:	b80f883a 	mov	r7,r23
 200d830:	103ee83a 	callr	r2
 200d834:	103fe61e 	bne	r2,zero,200d7d0 <__reset+0xfe005fd0>
 200d838:	85e1883a 	add	r16,r16,r23
 200d83c:	ddc00a17 	ldw	r23,40(sp)
 200d840:	00001006 	br	200d884 <___svfprintf_internal_r+0x4fc>
 200d844:	05800044 	movi	r22,1
 200d848:	04bfffc4 	movi	r18,-1
 200d84c:	d8000e15 	stw	zero,56(sp)
 200d850:	05000284 	movi	r20,10
 200d854:	9023883a 	mov	r17,r18
 200d858:	d8000c15 	stw	zero,48(sp)
 200d85c:	d8000b15 	stw	zero,44(sp)
 200d860:	b02b883a 	mov	r21,r22
 200d864:	00000806 	br	200d888 <___svfprintf_internal_r+0x500>
 200d868:	dd400b15 	stw	r21,44(sp)
 200d86c:	05400084 	movi	r21,2
 200d870:	00000506 	br	200d888 <___svfprintf_internal_r+0x500>
 200d874:	00c00044 	movi	r3,1
 200d878:	d8c00c15 	stw	r3,48(sp)
 200d87c:	054000c4 	movi	r21,3
 200d880:	00000106 	br	200d888 <___svfprintf_internal_r+0x500>
 200d884:	002b883a 	mov	r21,zero
 200d888:	d8c00f17 	ldw	r3,60(sp)
 200d88c:	18c00044 	addi	r3,r3,1
 200d890:	d8c00f15 	stw	r3,60(sp)
 200d894:	003ed606 	br	200d3f0 <__reset+0xfe005bf0>
 200d898:	8005883a 	mov	r2,r16
 200d89c:	dfc01b17 	ldw	ra,108(sp)
 200d8a0:	df001a17 	ldw	fp,104(sp)
 200d8a4:	ddc01917 	ldw	r23,100(sp)
 200d8a8:	dd801817 	ldw	r22,96(sp)
 200d8ac:	dd401717 	ldw	r21,92(sp)
 200d8b0:	dd001617 	ldw	r20,88(sp)
 200d8b4:	dcc01517 	ldw	r19,84(sp)
 200d8b8:	dc801417 	ldw	r18,80(sp)
 200d8bc:	dc401317 	ldw	r17,76(sp)
 200d8c0:	dc001217 	ldw	r16,72(sp)
 200d8c4:	dec01c04 	addi	sp,sp,112
 200d8c8:	f800283a 	ret

0200d8cc <__vfprintf_internal_unused>:
 200d8cc:	2007883a 	mov	r3,r4
 200d8d0:	010080f4 	movhi	r4,515
 200d8d4:	213c6d04 	addi	r4,r4,-3660
 200d8d8:	21000017 	ldw	r4,0(r4)
 200d8dc:	2805883a 	mov	r2,r5
 200d8e0:	300f883a 	mov	r7,r6
 200d8e4:	180b883a 	mov	r5,r3
 200d8e8:	100d883a 	mov	r6,r2
 200d8ec:	200d3881 	jmpi	200d388 <___svfprintf_internal_r>

0200d8f0 <print_repeat>:
 200d8f0:	defffb04 	addi	sp,sp,-20
 200d8f4:	dc800315 	stw	r18,12(sp)
 200d8f8:	dc400215 	stw	r17,8(sp)
 200d8fc:	dc000115 	stw	r16,4(sp)
 200d900:	dfc00415 	stw	ra,16(sp)
 200d904:	2025883a 	mov	r18,r4
 200d908:	2823883a 	mov	r17,r5
 200d90c:	d9800005 	stb	r6,0(sp)
 200d910:	3821883a 	mov	r16,r7
 200d914:	04000a0e 	bge	zero,r16,200d940 <print_repeat+0x50>
 200d918:	88800117 	ldw	r2,4(r17)
 200d91c:	9009883a 	mov	r4,r18
 200d920:	880b883a 	mov	r5,r17
 200d924:	d80d883a 	mov	r6,sp
 200d928:	01c00044 	movi	r7,1
 200d92c:	103ee83a 	callr	r2
 200d930:	843fffc4 	addi	r16,r16,-1
 200d934:	103ff726 	beq	r2,zero,200d914 <__reset+0xfe006114>
 200d938:	00bfffc4 	movi	r2,-1
 200d93c:	00000106 	br	200d944 <print_repeat+0x54>
 200d940:	0005883a 	mov	r2,zero
 200d944:	dfc00417 	ldw	ra,16(sp)
 200d948:	dc800317 	ldw	r18,12(sp)
 200d94c:	dc400217 	ldw	r17,8(sp)
 200d950:	dc000117 	ldw	r16,4(sp)
 200d954:	dec00504 	addi	sp,sp,20
 200d958:	f800283a 	ret

0200d95c <___vfprintf_internal_r>:
 200d95c:	deffe404 	addi	sp,sp,-112
 200d960:	d8c00804 	addi	r3,sp,32
 200d964:	df001a15 	stw	fp,104(sp)
 200d968:	ddc01915 	stw	r23,100(sp)
 200d96c:	dd801815 	stw	r22,96(sp)
 200d970:	dd401715 	stw	r21,92(sp)
 200d974:	dd001615 	stw	r20,88(sp)
 200d978:	dcc01515 	stw	r19,84(sp)
 200d97c:	dc801415 	stw	r18,80(sp)
 200d980:	dc401315 	stw	r17,76(sp)
 200d984:	dc001215 	stw	r16,72(sp)
 200d988:	dfc01b15 	stw	ra,108(sp)
 200d98c:	2027883a 	mov	r19,r4
 200d990:	2839883a 	mov	fp,r5
 200d994:	382f883a 	mov	r23,r7
 200d998:	d9800f15 	stw	r6,60(sp)
 200d99c:	0021883a 	mov	r16,zero
 200d9a0:	d8000e15 	stw	zero,56(sp)
 200d9a4:	002d883a 	mov	r22,zero
 200d9a8:	0029883a 	mov	r20,zero
 200d9ac:	0025883a 	mov	r18,zero
 200d9b0:	0023883a 	mov	r17,zero
 200d9b4:	d8000c15 	stw	zero,48(sp)
 200d9b8:	d8000b15 	stw	zero,44(sp)
 200d9bc:	002b883a 	mov	r21,zero
 200d9c0:	d8c00915 	stw	r3,36(sp)
 200d9c4:	d8c00f17 	ldw	r3,60(sp)
 200d9c8:	19000003 	ldbu	r4,0(r3)
 200d9cc:	20803fcc 	andi	r2,r4,255
 200d9d0:	1080201c 	xori	r2,r2,128
 200d9d4:	10bfe004 	addi	r2,r2,-128
 200d9d8:	10012426 	beq	r2,zero,200de6c <___vfprintf_internal_r+0x510>
 200d9dc:	00c00044 	movi	r3,1
 200d9e0:	a8c01426 	beq	r21,r3,200da34 <___vfprintf_internal_r+0xd8>
 200d9e4:	1d400216 	blt	r3,r21,200d9f0 <___vfprintf_internal_r+0x94>
 200d9e8:	a8000626 	beq	r21,zero,200da04 <___vfprintf_internal_r+0xa8>
 200d9ec:	00011b06 	br	200de5c <___vfprintf_internal_r+0x500>
 200d9f0:	01400084 	movi	r5,2
 200d9f4:	a9401d26 	beq	r21,r5,200da6c <___vfprintf_internal_r+0x110>
 200d9f8:	014000c4 	movi	r5,3
 200d9fc:	a9402926 	beq	r21,r5,200daa4 <___vfprintf_internal_r+0x148>
 200da00:	00011606 	br	200de5c <___vfprintf_internal_r+0x500>
 200da04:	01400944 	movi	r5,37
 200da08:	11410326 	beq	r2,r5,200de18 <___vfprintf_internal_r+0x4bc>
 200da0c:	e0800117 	ldw	r2,4(fp)
 200da10:	d9000005 	stb	r4,0(sp)
 200da14:	e00b883a 	mov	r5,fp
 200da18:	9809883a 	mov	r4,r19
 200da1c:	d80d883a 	mov	r6,sp
 200da20:	01c00044 	movi	r7,1
 200da24:	103ee83a 	callr	r2
 200da28:	1000de1e 	bne	r2,zero,200dda4 <___vfprintf_internal_r+0x448>
 200da2c:	84000044 	addi	r16,r16,1
 200da30:	00010a06 	br	200de5c <___vfprintf_internal_r+0x500>
 200da34:	01400c04 	movi	r5,48
 200da38:	11410026 	beq	r2,r5,200de3c <___vfprintf_internal_r+0x4e0>
 200da3c:	01400944 	movi	r5,37
 200da40:	11400a1e 	bne	r2,r5,200da6c <___vfprintf_internal_r+0x110>
 200da44:	d8800005 	stb	r2,0(sp)
 200da48:	e0800117 	ldw	r2,4(fp)
 200da4c:	9809883a 	mov	r4,r19
 200da50:	e00b883a 	mov	r5,fp
 200da54:	d80d883a 	mov	r6,sp
 200da58:	a80f883a 	mov	r7,r21
 200da5c:	103ee83a 	callr	r2
 200da60:	1000d01e 	bne	r2,zero,200dda4 <___vfprintf_internal_r+0x448>
 200da64:	84000044 	addi	r16,r16,1
 200da68:	0000fb06 	br	200de58 <___vfprintf_internal_r+0x4fc>
 200da6c:	217ff404 	addi	r5,r4,-48
 200da70:	29403fcc 	andi	r5,r5,255
 200da74:	00c00244 	movi	r3,9
 200da78:	19400736 	bltu	r3,r5,200da98 <___vfprintf_internal_r+0x13c>
 200da7c:	00bfffc4 	movi	r2,-1
 200da80:	88800226 	beq	r17,r2,200da8c <___vfprintf_internal_r+0x130>
 200da84:	8c4002a4 	muli	r17,r17,10
 200da88:	00000106 	br	200da90 <___vfprintf_internal_r+0x134>
 200da8c:	0023883a 	mov	r17,zero
 200da90:	8963883a 	add	r17,r17,r5
 200da94:	0000ea06 	br	200de40 <___vfprintf_internal_r+0x4e4>
 200da98:	01400b84 	movi	r5,46
 200da9c:	1140ec26 	beq	r2,r5,200de50 <___vfprintf_internal_r+0x4f4>
 200daa0:	05400084 	movi	r21,2
 200daa4:	213ff404 	addi	r4,r4,-48
 200daa8:	21003fcc 	andi	r4,r4,255
 200daac:	00c00244 	movi	r3,9
 200dab0:	19000736 	bltu	r3,r4,200dad0 <___vfprintf_internal_r+0x174>
 200dab4:	00bfffc4 	movi	r2,-1
 200dab8:	90800226 	beq	r18,r2,200dac4 <___vfprintf_internal_r+0x168>
 200dabc:	948002a4 	muli	r18,r18,10
 200dac0:	00000106 	br	200dac8 <___vfprintf_internal_r+0x16c>
 200dac4:	0025883a 	mov	r18,zero
 200dac8:	9125883a 	add	r18,r18,r4
 200dacc:	0000e306 	br	200de5c <___vfprintf_internal_r+0x500>
 200dad0:	00c01b04 	movi	r3,108
 200dad4:	10c0dc26 	beq	r2,r3,200de48 <___vfprintf_internal_r+0x4ec>
 200dad8:	013fffc4 	movi	r4,-1
 200dadc:	91000226 	beq	r18,r4,200dae8 <___vfprintf_internal_r+0x18c>
 200dae0:	d8000b15 	stw	zero,44(sp)
 200dae4:	00000106 	br	200daec <___vfprintf_internal_r+0x190>
 200dae8:	04800044 	movi	r18,1
 200daec:	01001a44 	movi	r4,105
 200daf0:	11001626 	beq	r2,r4,200db4c <___vfprintf_internal_r+0x1f0>
 200daf4:	20800916 	blt	r4,r2,200db1c <___vfprintf_internal_r+0x1c0>
 200daf8:	010018c4 	movi	r4,99
 200dafc:	11009226 	beq	r2,r4,200dd48 <___vfprintf_internal_r+0x3ec>
 200db00:	01001904 	movi	r4,100
 200db04:	11001126 	beq	r2,r4,200db4c <___vfprintf_internal_r+0x1f0>
 200db08:	01001604 	movi	r4,88
 200db0c:	1100d21e 	bne	r2,r4,200de58 <___vfprintf_internal_r+0x4fc>
 200db10:	00c00044 	movi	r3,1
 200db14:	d8c00e15 	stw	r3,56(sp)
 200db18:	00001406 	br	200db6c <___vfprintf_internal_r+0x210>
 200db1c:	01001cc4 	movi	r4,115
 200db20:	1100a226 	beq	r2,r4,200ddac <___vfprintf_internal_r+0x450>
 200db24:	20800416 	blt	r4,r2,200db38 <___vfprintf_internal_r+0x1dc>
 200db28:	01001bc4 	movi	r4,111
 200db2c:	1100ca1e 	bne	r2,r4,200de58 <___vfprintf_internal_r+0x4fc>
 200db30:	05000204 	movi	r20,8
 200db34:	00000e06 	br	200db70 <___vfprintf_internal_r+0x214>
 200db38:	01001d44 	movi	r4,117
 200db3c:	11000c26 	beq	r2,r4,200db70 <___vfprintf_internal_r+0x214>
 200db40:	01001e04 	movi	r4,120
 200db44:	11000926 	beq	r2,r4,200db6c <___vfprintf_internal_r+0x210>
 200db48:	0000c306 	br	200de58 <___vfprintf_internal_r+0x4fc>
 200db4c:	b8800104 	addi	r2,r23,4
 200db50:	b0000726 	beq	r22,zero,200db70 <___vfprintf_internal_r+0x214>
 200db54:	d8800d15 	stw	r2,52(sp)
 200db58:	bdc00017 	ldw	r23,0(r23)
 200db5c:	b800080e 	bge	r23,zero,200db80 <___vfprintf_internal_r+0x224>
 200db60:	05efc83a 	sub	r23,zero,r23
 200db64:	02400044 	movi	r9,1
 200db68:	00000606 	br	200db84 <___vfprintf_internal_r+0x228>
 200db6c:	05000404 	movi	r20,16
 200db70:	b8c00104 	addi	r3,r23,4
 200db74:	d8c00d15 	stw	r3,52(sp)
 200db78:	bdc00017 	ldw	r23,0(r23)
 200db7c:	002d883a 	mov	r22,zero
 200db80:	0013883a 	mov	r9,zero
 200db84:	002b883a 	mov	r21,zero
 200db88:	dd4d883a 	add	r6,sp,r21
 200db8c:	b8001626 	beq	r23,zero,200dbe8 <___vfprintf_internal_r+0x28c>
 200db90:	b809883a 	mov	r4,r23
 200db94:	a00b883a 	mov	r5,r20
 200db98:	d9801015 	stw	r6,64(sp)
 200db9c:	da401115 	stw	r9,68(sp)
 200dba0:	200a5800 	call	200a580 <__udivsi3>
 200dba4:	a089383a 	mul	r4,r20,r2
 200dba8:	00c00244 	movi	r3,9
 200dbac:	d9801017 	ldw	r6,64(sp)
 200dbb0:	b92fc83a 	sub	r23,r23,r4
 200dbb4:	da401117 	ldw	r9,68(sp)
 200dbb8:	1dc00216 	blt	r3,r23,200dbc4 <___vfprintf_internal_r+0x268>
 200dbbc:	bdc00c04 	addi	r23,r23,48
 200dbc0:	00000506 	br	200dbd8 <___vfprintf_internal_r+0x27c>
 200dbc4:	d8c00e17 	ldw	r3,56(sp)
 200dbc8:	18000226 	beq	r3,zero,200dbd4 <___vfprintf_internal_r+0x278>
 200dbcc:	bdc00dc4 	addi	r23,r23,55
 200dbd0:	00000106 	br	200dbd8 <___vfprintf_internal_r+0x27c>
 200dbd4:	bdc015c4 	addi	r23,r23,87
 200dbd8:	35c00005 	stb	r23,0(r6)
 200dbdc:	ad400044 	addi	r21,r21,1
 200dbe0:	102f883a 	mov	r23,r2
 200dbe4:	003fe806 	br	200db88 <__reset+0xfe006388>
 200dbe8:	36c7c83a 	sub	r3,r6,sp
 200dbec:	d8c00a15 	stw	r3,40(sp)
 200dbf0:	90c5c83a 	sub	r2,r18,r3
 200dbf4:	302f883a 	mov	r23,r6
 200dbf8:	00800e0e 	bge	zero,r2,200dc34 <___vfprintf_internal_r+0x2d8>
 200dbfc:	302b883a 	mov	r21,r6
 200dc00:	3085883a 	add	r2,r6,r2
 200dc04:	01400c04 	movi	r5,48
 200dc08:	d8c00917 	ldw	r3,36(sp)
 200dc0c:	a809883a 	mov	r4,r21
 200dc10:	a8c0052e 	bgeu	r21,r3,200dc28 <___vfprintf_internal_r+0x2cc>
 200dc14:	ad400044 	addi	r21,r21,1
 200dc18:	21400005 	stb	r5,0(r4)
 200dc1c:	a82f883a 	mov	r23,r21
 200dc20:	a8bff91e 	bne	r21,r2,200dc08 <__reset+0xfe006408>
 200dc24:	00000106 	br	200dc2c <___vfprintf_internal_r+0x2d0>
 200dc28:	a82f883a 	mov	r23,r21
 200dc2c:	aeebc83a 	sub	r21,r21,sp
 200dc30:	dd400a15 	stw	r21,40(sp)
 200dc34:	d8c00a17 	ldw	r3,40(sp)
 200dc38:	1a51883a 	add	r8,r3,r9
 200dc3c:	d8c00b17 	ldw	r3,44(sp)
 200dc40:	8a2bc83a 	sub	r21,r17,r8
 200dc44:	18001726 	beq	r3,zero,200dca4 <___vfprintf_internal_r+0x348>
 200dc48:	48000a26 	beq	r9,zero,200dc74 <___vfprintf_internal_r+0x318>
 200dc4c:	00800b44 	movi	r2,45
 200dc50:	d8800805 	stb	r2,32(sp)
 200dc54:	e0800117 	ldw	r2,4(fp)
 200dc58:	9809883a 	mov	r4,r19
 200dc5c:	e00b883a 	mov	r5,fp
 200dc60:	d9800804 	addi	r6,sp,32
 200dc64:	01c00044 	movi	r7,1
 200dc68:	103ee83a 	callr	r2
 200dc6c:	10004d1e 	bne	r2,zero,200dda4 <___vfprintf_internal_r+0x448>
 200dc70:	84000044 	addi	r16,r16,1
 200dc74:	0540070e 	bge	zero,r21,200dc94 <___vfprintf_internal_r+0x338>
 200dc78:	9809883a 	mov	r4,r19
 200dc7c:	e00b883a 	mov	r5,fp
 200dc80:	01800c04 	movi	r6,48
 200dc84:	a80f883a 	mov	r7,r21
 200dc88:	200d8f00 	call	200d8f0 <print_repeat>
 200dc8c:	1000451e 	bne	r2,zero,200dda4 <___vfprintf_internal_r+0x448>
 200dc90:	8561883a 	add	r16,r16,r21
 200dc94:	d8c00a17 	ldw	r3,40(sp)
 200dc98:	b811883a 	mov	r8,r23
 200dc9c:	1debc83a 	sub	r21,r3,r23
 200dca0:	00002206 	br	200dd2c <___vfprintf_internal_r+0x3d0>
 200dca4:	0540090e 	bge	zero,r21,200dccc <___vfprintf_internal_r+0x370>
 200dca8:	9809883a 	mov	r4,r19
 200dcac:	e00b883a 	mov	r5,fp
 200dcb0:	01800804 	movi	r6,32
 200dcb4:	a80f883a 	mov	r7,r21
 200dcb8:	da401115 	stw	r9,68(sp)
 200dcbc:	200d8f00 	call	200d8f0 <print_repeat>
 200dcc0:	da401117 	ldw	r9,68(sp)
 200dcc4:	1000371e 	bne	r2,zero,200dda4 <___vfprintf_internal_r+0x448>
 200dcc8:	8561883a 	add	r16,r16,r21
 200dccc:	483ff126 	beq	r9,zero,200dc94 <__reset+0xfe006494>
 200dcd0:	00800b44 	movi	r2,45
 200dcd4:	d8800805 	stb	r2,32(sp)
 200dcd8:	e0800117 	ldw	r2,4(fp)
 200dcdc:	9809883a 	mov	r4,r19
 200dce0:	e00b883a 	mov	r5,fp
 200dce4:	d9800804 	addi	r6,sp,32
 200dce8:	01c00044 	movi	r7,1
 200dcec:	103ee83a 	callr	r2
 200dcf0:	10002c1e 	bne	r2,zero,200dda4 <___vfprintf_internal_r+0x448>
 200dcf4:	84000044 	addi	r16,r16,1
 200dcf8:	003fe606 	br	200dc94 <__reset+0xfe006494>
 200dcfc:	423fffc4 	addi	r8,r8,-1
 200dd00:	40800003 	ldbu	r2,0(r8)
 200dd04:	9809883a 	mov	r4,r19
 200dd08:	e00b883a 	mov	r5,fp
 200dd0c:	d8800805 	stb	r2,32(sp)
 200dd10:	e0800117 	ldw	r2,4(fp)
 200dd14:	d9800804 	addi	r6,sp,32
 200dd18:	da001015 	stw	r8,64(sp)
 200dd1c:	01c00044 	movi	r7,1
 200dd20:	103ee83a 	callr	r2
 200dd24:	da001017 	ldw	r8,64(sp)
 200dd28:	10001e1e 	bne	r2,zero,200dda4 <___vfprintf_internal_r+0x448>
 200dd2c:	8205c83a 	sub	r2,r16,r8
 200dd30:	4549883a 	add	r4,r8,r21
 200dd34:	b885883a 	add	r2,r23,r2
 200dd38:	013ff016 	blt	zero,r4,200dcfc <__reset+0xfe0064fc>
 200dd3c:	1021883a 	mov	r16,r2
 200dd40:	ddc00d17 	ldw	r23,52(sp)
 200dd44:	00004406 	br	200de58 <___vfprintf_internal_r+0x4fc>
 200dd48:	00800044 	movi	r2,1
 200dd4c:	1440080e 	bge	r2,r17,200dd70 <___vfprintf_internal_r+0x414>
 200dd50:	8d7fffc4 	addi	r21,r17,-1
 200dd54:	9809883a 	mov	r4,r19
 200dd58:	e00b883a 	mov	r5,fp
 200dd5c:	01800804 	movi	r6,32
 200dd60:	a80f883a 	mov	r7,r21
 200dd64:	200d8f00 	call	200d8f0 <print_repeat>
 200dd68:	10000e1e 	bne	r2,zero,200dda4 <___vfprintf_internal_r+0x448>
 200dd6c:	8561883a 	add	r16,r16,r21
 200dd70:	b8800017 	ldw	r2,0(r23)
 200dd74:	9809883a 	mov	r4,r19
 200dd78:	e00b883a 	mov	r5,fp
 200dd7c:	d8800005 	stb	r2,0(sp)
 200dd80:	e0800117 	ldw	r2,4(fp)
 200dd84:	d80d883a 	mov	r6,sp
 200dd88:	01c00044 	movi	r7,1
 200dd8c:	bd400104 	addi	r21,r23,4
 200dd90:	103ee83a 	callr	r2
 200dd94:	1000031e 	bne	r2,zero,200dda4 <___vfprintf_internal_r+0x448>
 200dd98:	84000044 	addi	r16,r16,1
 200dd9c:	a82f883a 	mov	r23,r21
 200dda0:	00002d06 	br	200de58 <___vfprintf_internal_r+0x4fc>
 200dda4:	00bfffc4 	movi	r2,-1
 200dda8:	00003106 	br	200de70 <___vfprintf_internal_r+0x514>
 200ddac:	bd400017 	ldw	r21,0(r23)
 200ddb0:	b8c00104 	addi	r3,r23,4
 200ddb4:	d8c00a15 	stw	r3,40(sp)
 200ddb8:	a809883a 	mov	r4,r21
 200ddbc:	200d3000 	call	200d300 <strlen>
 200ddc0:	8893c83a 	sub	r9,r17,r2
 200ddc4:	102f883a 	mov	r23,r2
 200ddc8:	0240090e 	bge	zero,r9,200ddf0 <___vfprintf_internal_r+0x494>
 200ddcc:	480f883a 	mov	r7,r9
 200ddd0:	9809883a 	mov	r4,r19
 200ddd4:	e00b883a 	mov	r5,fp
 200ddd8:	01800804 	movi	r6,32
 200dddc:	da401115 	stw	r9,68(sp)
 200dde0:	200d8f00 	call	200d8f0 <print_repeat>
 200dde4:	da401117 	ldw	r9,68(sp)
 200dde8:	103fee1e 	bne	r2,zero,200dda4 <__reset+0xfe0065a4>
 200ddec:	8261883a 	add	r16,r16,r9
 200ddf0:	e0800117 	ldw	r2,4(fp)
 200ddf4:	9809883a 	mov	r4,r19
 200ddf8:	e00b883a 	mov	r5,fp
 200ddfc:	a80d883a 	mov	r6,r21
 200de00:	b80f883a 	mov	r7,r23
 200de04:	103ee83a 	callr	r2
 200de08:	103fe61e 	bne	r2,zero,200dda4 <__reset+0xfe0065a4>
 200de0c:	85e1883a 	add	r16,r16,r23
 200de10:	ddc00a17 	ldw	r23,40(sp)
 200de14:	00001006 	br	200de58 <___vfprintf_internal_r+0x4fc>
 200de18:	05800044 	movi	r22,1
 200de1c:	04bfffc4 	movi	r18,-1
 200de20:	d8000e15 	stw	zero,56(sp)
 200de24:	05000284 	movi	r20,10
 200de28:	9023883a 	mov	r17,r18
 200de2c:	d8000c15 	stw	zero,48(sp)
 200de30:	d8000b15 	stw	zero,44(sp)
 200de34:	b02b883a 	mov	r21,r22
 200de38:	00000806 	br	200de5c <___vfprintf_internal_r+0x500>
 200de3c:	dd400b15 	stw	r21,44(sp)
 200de40:	05400084 	movi	r21,2
 200de44:	00000506 	br	200de5c <___vfprintf_internal_r+0x500>
 200de48:	00c00044 	movi	r3,1
 200de4c:	d8c00c15 	stw	r3,48(sp)
 200de50:	054000c4 	movi	r21,3
 200de54:	00000106 	br	200de5c <___vfprintf_internal_r+0x500>
 200de58:	002b883a 	mov	r21,zero
 200de5c:	d8c00f17 	ldw	r3,60(sp)
 200de60:	18c00044 	addi	r3,r3,1
 200de64:	d8c00f15 	stw	r3,60(sp)
 200de68:	003ed606 	br	200d9c4 <__reset+0xfe0061c4>
 200de6c:	8005883a 	mov	r2,r16
 200de70:	dfc01b17 	ldw	ra,108(sp)
 200de74:	df001a17 	ldw	fp,104(sp)
 200de78:	ddc01917 	ldw	r23,100(sp)
 200de7c:	dd801817 	ldw	r22,96(sp)
 200de80:	dd401717 	ldw	r21,92(sp)
 200de84:	dd001617 	ldw	r20,88(sp)
 200de88:	dcc01517 	ldw	r19,84(sp)
 200de8c:	dc801417 	ldw	r18,80(sp)
 200de90:	dc401317 	ldw	r17,76(sp)
 200de94:	dc001217 	ldw	r16,72(sp)
 200de98:	dec01c04 	addi	sp,sp,112
 200de9c:	f800283a 	ret

0200dea0 <__vfprintf_internal>:
 200dea0:	2007883a 	mov	r3,r4
 200dea4:	010080f4 	movhi	r4,515
 200dea8:	213c6d04 	addi	r4,r4,-3660
 200deac:	21000017 	ldw	r4,0(r4)
 200deb0:	2805883a 	mov	r2,r5
 200deb4:	300f883a 	mov	r7,r6
 200deb8:	180b883a 	mov	r5,r3
 200debc:	100d883a 	mov	r6,r2
 200dec0:	200d95c1 	jmpi	200d95c <___vfprintf_internal_r>

0200dec4 <_malloc_trim_r>:
 200dec4:	defffb04 	addi	sp,sp,-20
 200dec8:	dcc00315 	stw	r19,12(sp)
 200decc:	04c080f4 	movhi	r19,515
 200ded0:	dc800215 	stw	r18,8(sp)
 200ded4:	dc400115 	stw	r17,4(sp)
 200ded8:	dc000015 	stw	r16,0(sp)
 200dedc:	dfc00415 	stw	ra,16(sp)
 200dee0:	2821883a 	mov	r16,r5
 200dee4:	2025883a 	mov	r18,r4
 200dee8:	9cf6b304 	addi	r19,r19,-9524
 200deec:	200e9dc0 	call	200e9dc <__malloc_lock>
 200def0:	98800217 	ldw	r2,8(r19)
 200def4:	14400117 	ldw	r17,4(r2)
 200def8:	00bfff04 	movi	r2,-4
 200defc:	88a2703a 	and	r17,r17,r2
 200df00:	8c21c83a 	sub	r16,r17,r16
 200df04:	84001bc4 	addi	r16,r16,111
 200df08:	8020d1fa 	srli	r16,r16,7
 200df0c:	00801fc4 	movi	r2,127
 200df10:	843fffc4 	addi	r16,r16,-1
 200df14:	802091fa 	slli	r16,r16,7
 200df18:	14000416 	blt	r2,r16,200df2c <_malloc_trim_r+0x68>
 200df1c:	9009883a 	mov	r4,r18
 200df20:	200e9fc0 	call	200e9fc <__malloc_unlock>
 200df24:	0005883a 	mov	r2,zero
 200df28:	00002806 	br	200dfcc <_malloc_trim_r+0x108>
 200df2c:	9009883a 	mov	r4,r18
 200df30:	000b883a 	mov	r5,zero
 200df34:	200d1a80 	call	200d1a8 <_sbrk_r>
 200df38:	98c00217 	ldw	r3,8(r19)
 200df3c:	1c47883a 	add	r3,r3,r17
 200df40:	10fff61e 	bne	r2,r3,200df1c <__reset+0xfe00671c>
 200df44:	9009883a 	mov	r4,r18
 200df48:	040bc83a 	sub	r5,zero,r16
 200df4c:	200d1a80 	call	200d1a8 <_sbrk_r>
 200df50:	00ffffc4 	movi	r3,-1
 200df54:	10c0111e 	bne	r2,r3,200df9c <_malloc_trim_r+0xd8>
 200df58:	9009883a 	mov	r4,r18
 200df5c:	000b883a 	mov	r5,zero
 200df60:	200d1a80 	call	200d1a8 <_sbrk_r>
 200df64:	99000217 	ldw	r4,8(r19)
 200df68:	014003c4 	movi	r5,15
 200df6c:	1107c83a 	sub	r3,r2,r4
 200df70:	28ffea0e 	bge	r5,r3,200df1c <__reset+0xfe00671c>
 200df74:	014080f4 	movhi	r5,515
 200df78:	297c6e04 	addi	r5,r5,-3656
 200df7c:	29400017 	ldw	r5,0(r5)
 200df80:	18c00054 	ori	r3,r3,1
 200df84:	20c00115 	stw	r3,4(r4)
 200df88:	1145c83a 	sub	r2,r2,r5
 200df8c:	014080f4 	movhi	r5,515
 200df90:	29497004 	addi	r5,r5,9664
 200df94:	28800015 	stw	r2,0(r5)
 200df98:	003fe006 	br	200df1c <__reset+0xfe00671c>
 200df9c:	98800217 	ldw	r2,8(r19)
 200dfa0:	8c23c83a 	sub	r17,r17,r16
 200dfa4:	00c080f4 	movhi	r3,515
 200dfa8:	18c97004 	addi	r3,r3,9664
 200dfac:	8c400054 	ori	r17,r17,1
 200dfb0:	14400115 	stw	r17,4(r2)
 200dfb4:	18800017 	ldw	r2,0(r3)
 200dfb8:	9009883a 	mov	r4,r18
 200dfbc:	1421c83a 	sub	r16,r2,r16
 200dfc0:	1c000015 	stw	r16,0(r3)
 200dfc4:	200e9fc0 	call	200e9fc <__malloc_unlock>
 200dfc8:	00800044 	movi	r2,1
 200dfcc:	dfc00417 	ldw	ra,16(sp)
 200dfd0:	dcc00317 	ldw	r19,12(sp)
 200dfd4:	dc800217 	ldw	r18,8(sp)
 200dfd8:	dc400117 	ldw	r17,4(sp)
 200dfdc:	dc000017 	ldw	r16,0(sp)
 200dfe0:	dec00504 	addi	sp,sp,20
 200dfe4:	f800283a 	ret

0200dfe8 <_free_r>:
 200dfe8:	2800a026 	beq	r5,zero,200e26c <_free_r+0x284>
 200dfec:	defffd04 	addi	sp,sp,-12
 200dff0:	dc400115 	stw	r17,4(sp)
 200dff4:	dc000015 	stw	r16,0(sp)
 200dff8:	2823883a 	mov	r17,r5
 200dffc:	2021883a 	mov	r16,r4
 200e000:	dfc00215 	stw	ra,8(sp)
 200e004:	200e9dc0 	call	200e9dc <__malloc_lock>
 200e008:	8a3fff17 	ldw	r8,-4(r17)
 200e00c:	00bfff84 	movi	r2,-2
 200e010:	893ffe04 	addi	r4,r17,-8
 200e014:	4084703a 	and	r2,r8,r2
 200e018:	208d883a 	add	r6,r4,r2
 200e01c:	31400117 	ldw	r5,4(r6)
 200e020:	00ffff04 	movi	r3,-4
 200e024:	28c6703a 	and	r3,r5,r3
 200e028:	014080f4 	movhi	r5,515
 200e02c:	2976b304 	addi	r5,r5,-9524
 200e030:	2a400217 	ldw	r9,8(r5)
 200e034:	280f883a 	mov	r7,r5
 200e038:	4140004c 	andi	r5,r8,1
 200e03c:	32401b1e 	bne	r6,r9,200e0ac <_free_r+0xc4>
 200e040:	1885883a 	add	r2,r3,r2
 200e044:	2800071e 	bne	r5,zero,200e064 <_free_r+0x7c>
 200e048:	88fffe17 	ldw	r3,-8(r17)
 200e04c:	20c9c83a 	sub	r4,r4,r3
 200e050:	21400217 	ldw	r5,8(r4)
 200e054:	10c5883a 	add	r2,r2,r3
 200e058:	20c00317 	ldw	r3,12(r4)
 200e05c:	28c00315 	stw	r3,12(r5)
 200e060:	19400215 	stw	r5,8(r3)
 200e064:	10c00054 	ori	r3,r2,1
 200e068:	20c00115 	stw	r3,4(r4)
 200e06c:	00c080f4 	movhi	r3,515
 200e070:	18fc6f04 	addi	r3,r3,-3652
 200e074:	18c00017 	ldw	r3,0(r3)
 200e078:	39000215 	stw	r4,8(r7)
 200e07c:	10c00536 	bltu	r2,r3,200e094 <_free_r+0xac>
 200e080:	008080f4 	movhi	r2,515
 200e084:	10896804 	addi	r2,r2,9632
 200e088:	11400017 	ldw	r5,0(r2)
 200e08c:	8009883a 	mov	r4,r16
 200e090:	200dec40 	call	200dec4 <_malloc_trim_r>
 200e094:	8009883a 	mov	r4,r16
 200e098:	dfc00217 	ldw	ra,8(sp)
 200e09c:	dc400117 	ldw	r17,4(sp)
 200e0a0:	dc000017 	ldw	r16,0(sp)
 200e0a4:	dec00304 	addi	sp,sp,12
 200e0a8:	200e9fc1 	jmpi	200e9fc <__malloc_unlock>
 200e0ac:	30c00115 	stw	r3,4(r6)
 200e0b0:	2800091e 	bne	r5,zero,200e0d8 <_free_r+0xf0>
 200e0b4:	897ffe17 	ldw	r5,-8(r17)
 200e0b8:	3a000204 	addi	r8,r7,8
 200e0bc:	2149c83a 	sub	r4,r4,r5
 200e0c0:	1145883a 	add	r2,r2,r5
 200e0c4:	21400217 	ldw	r5,8(r4)
 200e0c8:	2a000526 	beq	r5,r8,200e0e0 <_free_r+0xf8>
 200e0cc:	22000317 	ldw	r8,12(r4)
 200e0d0:	2a000315 	stw	r8,12(r5)
 200e0d4:	41400215 	stw	r5,8(r8)
 200e0d8:	000b883a 	mov	r5,zero
 200e0dc:	00000106 	br	200e0e4 <_free_r+0xfc>
 200e0e0:	01400044 	movi	r5,1
 200e0e4:	30d1883a 	add	r8,r6,r3
 200e0e8:	42000117 	ldw	r8,4(r8)
 200e0ec:	4200004c 	andi	r8,r8,1
 200e0f0:	4000101e 	bne	r8,zero,200e134 <_free_r+0x14c>
 200e0f4:	10c5883a 	add	r2,r2,r3
 200e0f8:	28000a1e 	bne	r5,zero,200e124 <_free_r+0x13c>
 200e0fc:	30c00217 	ldw	r3,8(r6)
 200e100:	020080f4 	movhi	r8,515
 200e104:	4236b504 	addi	r8,r8,-9516
 200e108:	1a00061e 	bne	r3,r8,200e124 <_free_r+0x13c>
 200e10c:	39000515 	stw	r4,20(r7)
 200e110:	39000415 	stw	r4,16(r7)
 200e114:	20c00315 	stw	r3,12(r4)
 200e118:	20c00215 	stw	r3,8(r4)
 200e11c:	01400044 	movi	r5,1
 200e120:	00000406 	br	200e134 <_free_r+0x14c>
 200e124:	30c00317 	ldw	r3,12(r6)
 200e128:	31800217 	ldw	r6,8(r6)
 200e12c:	30c00315 	stw	r3,12(r6)
 200e130:	19800215 	stw	r6,8(r3)
 200e134:	10c00054 	ori	r3,r2,1
 200e138:	20c00115 	stw	r3,4(r4)
 200e13c:	2087883a 	add	r3,r4,r2
 200e140:	18800015 	stw	r2,0(r3)
 200e144:	283fd31e 	bne	r5,zero,200e094 <__reset+0xfe006894>
 200e148:	00c07fc4 	movi	r3,511
 200e14c:	18801036 	bltu	r3,r2,200e190 <_free_r+0x1a8>
 200e150:	1006d0fa 	srli	r3,r2,3
 200e154:	00800044 	movi	r2,1
 200e158:	180bd0ba 	srai	r5,r3,2
 200e15c:	18c7883a 	add	r3,r3,r3
 200e160:	18c7883a 	add	r3,r3,r3
 200e164:	114a983a 	sll	r5,r2,r5
 200e168:	38800117 	ldw	r2,4(r7)
 200e16c:	18c7883a 	add	r3,r3,r3
 200e170:	2884b03a 	or	r2,r5,r2
 200e174:	38800115 	stw	r2,4(r7)
 200e178:	38c5883a 	add	r2,r7,r3
 200e17c:	10c00217 	ldw	r3,8(r2)
 200e180:	20800315 	stw	r2,12(r4)
 200e184:	20c00215 	stw	r3,8(r4)
 200e188:	11000215 	stw	r4,8(r2)
 200e18c:	00003506 	br	200e264 <_free_r+0x27c>
 200e190:	1006d27a 	srli	r3,r2,9
 200e194:	01400104 	movi	r5,4
 200e198:	28c00336 	bltu	r5,r3,200e1a8 <_free_r+0x1c0>
 200e19c:	1006d1ba 	srli	r3,r2,6
 200e1a0:	18c00e04 	addi	r3,r3,56
 200e1a4:	00001406 	br	200e1f8 <_free_r+0x210>
 200e1a8:	01400504 	movi	r5,20
 200e1ac:	28c00236 	bltu	r5,r3,200e1b8 <_free_r+0x1d0>
 200e1b0:	18c016c4 	addi	r3,r3,91
 200e1b4:	00001006 	br	200e1f8 <_free_r+0x210>
 200e1b8:	01401504 	movi	r5,84
 200e1bc:	28c00336 	bltu	r5,r3,200e1cc <_free_r+0x1e4>
 200e1c0:	1006d33a 	srli	r3,r2,12
 200e1c4:	18c01b84 	addi	r3,r3,110
 200e1c8:	00000b06 	br	200e1f8 <_free_r+0x210>
 200e1cc:	01405504 	movi	r5,340
 200e1d0:	28c00336 	bltu	r5,r3,200e1e0 <_free_r+0x1f8>
 200e1d4:	1006d3fa 	srli	r3,r2,15
 200e1d8:	18c01dc4 	addi	r3,r3,119
 200e1dc:	00000606 	br	200e1f8 <_free_r+0x210>
 200e1e0:	01415504 	movi	r5,1364
 200e1e4:	28c00336 	bltu	r5,r3,200e1f4 <_free_r+0x20c>
 200e1e8:	1006d4ba 	srli	r3,r2,18
 200e1ec:	18c01f04 	addi	r3,r3,124
 200e1f0:	00000106 	br	200e1f8 <_free_r+0x210>
 200e1f4:	00c01f84 	movi	r3,126
 200e1f8:	18cd883a 	add	r6,r3,r3
 200e1fc:	318d883a 	add	r6,r6,r6
 200e200:	318d883a 	add	r6,r6,r6
 200e204:	398b883a 	add	r5,r7,r6
 200e208:	29800217 	ldw	r6,8(r5)
 200e20c:	020080f4 	movhi	r8,515
 200e210:	4236b304 	addi	r8,r8,-9524
 200e214:	3140081e 	bne	r6,r5,200e238 <_free_r+0x250>
 200e218:	1807d0ba 	srai	r3,r3,2
 200e21c:	00800044 	movi	r2,1
 200e220:	10c6983a 	sll	r3,r2,r3
 200e224:	40800117 	ldw	r2,4(r8)
 200e228:	1886b03a 	or	r3,r3,r2
 200e22c:	40c00115 	stw	r3,4(r8)
 200e230:	3007883a 	mov	r3,r6
 200e234:	00000806 	br	200e258 <_free_r+0x270>
 200e238:	3007883a 	mov	r3,r6
 200e23c:	01ffff04 	movi	r7,-4
 200e240:	19800117 	ldw	r6,4(r3)
 200e244:	31cc703a 	and	r6,r6,r7
 200e248:	1180022e 	bgeu	r2,r6,200e254 <_free_r+0x26c>
 200e24c:	18c00217 	ldw	r3,8(r3)
 200e250:	197ffb1e 	bne	r3,r5,200e240 <__reset+0xfe006a40>
 200e254:	19800317 	ldw	r6,12(r3)
 200e258:	21800315 	stw	r6,12(r4)
 200e25c:	20c00215 	stw	r3,8(r4)
 200e260:	31000215 	stw	r4,8(r6)
 200e264:	19000315 	stw	r4,12(r3)
 200e268:	003f8a06 	br	200e094 <__reset+0xfe006894>
 200e26c:	f800283a 	ret

0200e270 <__sfvwrite_small_dev>:
 200e270:	2880000b 	ldhu	r2,0(r5)
 200e274:	defffa04 	addi	sp,sp,-24
 200e278:	dc000015 	stw	r16,0(sp)
 200e27c:	dfc00515 	stw	ra,20(sp)
 200e280:	dd000415 	stw	r20,16(sp)
 200e284:	dcc00315 	stw	r19,12(sp)
 200e288:	dc800215 	stw	r18,8(sp)
 200e28c:	dc400115 	stw	r17,4(sp)
 200e290:	1080020c 	andi	r2,r2,8
 200e294:	2821883a 	mov	r16,r5
 200e298:	10001726 	beq	r2,zero,200e2f8 <__sfvwrite_small_dev+0x88>
 200e29c:	2880008f 	ldh	r2,2(r5)
 200e2a0:	10001216 	blt	r2,zero,200e2ec <__sfvwrite_small_dev+0x7c>
 200e2a4:	2027883a 	mov	r19,r4
 200e2a8:	3025883a 	mov	r18,r6
 200e2ac:	3823883a 	mov	r17,r7
 200e2b0:	05010004 	movi	r20,1024
 200e2b4:	04400b0e 	bge	zero,r17,200e2e4 <__sfvwrite_small_dev+0x74>
 200e2b8:	8140008f 	ldh	r5,2(r16)
 200e2bc:	880f883a 	mov	r7,r17
 200e2c0:	a440010e 	bge	r20,r17,200e2c8 <__sfvwrite_small_dev+0x58>
 200e2c4:	01c10004 	movi	r7,1024
 200e2c8:	9809883a 	mov	r4,r19
 200e2cc:	900d883a 	mov	r6,r18
 200e2d0:	200e4180 	call	200e418 <_write_r>
 200e2d4:	0080050e 	bge	zero,r2,200e2ec <__sfvwrite_small_dev+0x7c>
 200e2d8:	88a3c83a 	sub	r17,r17,r2
 200e2dc:	90a5883a 	add	r18,r18,r2
 200e2e0:	003ff406 	br	200e2b4 <__reset+0xfe006ab4>
 200e2e4:	0005883a 	mov	r2,zero
 200e2e8:	00000406 	br	200e2fc <__sfvwrite_small_dev+0x8c>
 200e2ec:	8080000b 	ldhu	r2,0(r16)
 200e2f0:	10801014 	ori	r2,r2,64
 200e2f4:	8080000d 	sth	r2,0(r16)
 200e2f8:	00bfffc4 	movi	r2,-1
 200e2fc:	dfc00517 	ldw	ra,20(sp)
 200e300:	dd000417 	ldw	r20,16(sp)
 200e304:	dcc00317 	ldw	r19,12(sp)
 200e308:	dc800217 	ldw	r18,8(sp)
 200e30c:	dc400117 	ldw	r17,4(sp)
 200e310:	dc000017 	ldw	r16,0(sp)
 200e314:	dec00604 	addi	sp,sp,24
 200e318:	f800283a 	ret

0200e31c <__sfvwrite_small_str>:
 200e31c:	2880000b 	ldhu	r2,0(r5)
 200e320:	defffd04 	addi	sp,sp,-12
 200e324:	dc000015 	stw	r16,0(sp)
 200e328:	dfc00215 	stw	ra,8(sp)
 200e32c:	dc400115 	stw	r17,4(sp)
 200e330:	10c0020c 	andi	r3,r2,8
 200e334:	2821883a 	mov	r16,r5
 200e338:	18001926 	beq	r3,zero,200e3a0 <__sfvwrite_small_str+0x84>
 200e33c:	28c0008f 	ldh	r3,2(r5)
 200e340:	1800150e 	bge	r3,zero,200e398 <__sfvwrite_small_str+0x7c>
 200e344:	10c0800c 	andi	r3,r2,512
 200e348:	18001326 	beq	r3,zero,200e398 <__sfvwrite_small_str+0x7c>
 200e34c:	2c400517 	ldw	r17,20(r5)
 200e350:	89c0030e 	bge	r17,r7,200e360 <__sfvwrite_small_str+0x44>
 200e354:	10c0200c 	andi	r3,r2,128
 200e358:	18000326 	beq	r3,zero,200e368 <__sfvwrite_small_str+0x4c>
 200e35c:	00000e06 	br	200e398 <__sfvwrite_small_str+0x7c>
 200e360:	3c40010e 	bge	r7,r17,200e368 <__sfvwrite_small_str+0x4c>
 200e364:	3823883a 	mov	r17,r7
 200e368:	81000417 	ldw	r4,16(r16)
 200e36c:	300b883a 	mov	r5,r6
 200e370:	880d883a 	mov	r6,r17
 200e374:	200e3b80 	call	200e3b8 <memmove>
 200e378:	80800517 	ldw	r2,20(r16)
 200e37c:	1445c83a 	sub	r2,r2,r17
 200e380:	80800515 	stw	r2,20(r16)
 200e384:	80800417 	ldw	r2,16(r16)
 200e388:	1463883a 	add	r17,r2,r17
 200e38c:	84400415 	stw	r17,16(r16)
 200e390:	0005883a 	mov	r2,zero
 200e394:	00000306 	br	200e3a4 <__sfvwrite_small_str+0x88>
 200e398:	10801014 	ori	r2,r2,64
 200e39c:	8080000d 	sth	r2,0(r16)
 200e3a0:	00bfffc4 	movi	r2,-1
 200e3a4:	dfc00217 	ldw	ra,8(sp)
 200e3a8:	dc400117 	ldw	r17,4(sp)
 200e3ac:	dc000017 	ldw	r16,0(sp)
 200e3b0:	dec00304 	addi	sp,sp,12
 200e3b4:	f800283a 	ret

0200e3b8 <memmove>:
 200e3b8:	2005883a 	mov	r2,r4
 200e3bc:	29000d2e 	bgeu	r5,r4,200e3f4 <memmove+0x3c>
 200e3c0:	298f883a 	add	r7,r5,r6
 200e3c4:	21c00b2e 	bgeu	r4,r7,200e3f4 <memmove+0x3c>
 200e3c8:	3007883a 	mov	r3,r6
 200e3cc:	017fffc4 	movi	r5,-1
 200e3d0:	18ffffc4 	addi	r3,r3,-1
 200e3d4:	19400626 	beq	r3,r5,200e3f0 <memmove+0x38>
 200e3d8:	1989c83a 	sub	r4,r3,r6
 200e3dc:	3909883a 	add	r4,r7,r4
 200e3e0:	22000003 	ldbu	r8,0(r4)
 200e3e4:	10c9883a 	add	r4,r2,r3
 200e3e8:	22000005 	stb	r8,0(r4)
 200e3ec:	003ff806 	br	200e3d0 <__reset+0xfe006bd0>
 200e3f0:	f800283a 	ret
 200e3f4:	0007883a 	mov	r3,zero
 200e3f8:	19800626 	beq	r3,r6,200e414 <memmove+0x5c>
 200e3fc:	28c9883a 	add	r4,r5,r3
 200e400:	21c00003 	ldbu	r7,0(r4)
 200e404:	10c9883a 	add	r4,r2,r3
 200e408:	18c00044 	addi	r3,r3,1
 200e40c:	21c00005 	stb	r7,0(r4)
 200e410:	003ff906 	br	200e3f8 <__reset+0xfe006bf8>
 200e414:	f800283a 	ret

0200e418 <_write_r>:
 200e418:	defffd04 	addi	sp,sp,-12
 200e41c:	dc000015 	stw	r16,0(sp)
 200e420:	040080f4 	movhi	r16,515
 200e424:	dc400115 	stw	r17,4(sp)
 200e428:	84096904 	addi	r16,r16,9636
 200e42c:	2023883a 	mov	r17,r4
 200e430:	2809883a 	mov	r4,r5
 200e434:	300b883a 	mov	r5,r6
 200e438:	380d883a 	mov	r6,r7
 200e43c:	dfc00215 	stw	ra,8(sp)
 200e440:	80000015 	stw	zero,0(r16)
 200e444:	200ece80 	call	200ece8 <write>
 200e448:	00ffffc4 	movi	r3,-1
 200e44c:	10c0031e 	bne	r2,r3,200e45c <_write_r+0x44>
 200e450:	80c00017 	ldw	r3,0(r16)
 200e454:	18000126 	beq	r3,zero,200e45c <_write_r+0x44>
 200e458:	88c00015 	stw	r3,0(r17)
 200e45c:	dfc00217 	ldw	ra,8(sp)
 200e460:	dc400117 	ldw	r17,4(sp)
 200e464:	dc000017 	ldw	r16,0(sp)
 200e468:	dec00304 	addi	sp,sp,12
 200e46c:	f800283a 	ret

0200e470 <alt_alarm_start>:
 */ 

int alt_alarm_start (alt_alarm* alarm, alt_u32 nticks,
                     alt_u32 (*callback) (void* context),
                     void* context)
{
 200e470:	defff504 	addi	sp,sp,-44
 200e474:	df000a15 	stw	fp,40(sp)
 200e478:	df000a04 	addi	fp,sp,40
 200e47c:	e13ffc15 	stw	r4,-16(fp)
 200e480:	e17ffd15 	stw	r5,-12(fp)
 200e484:	e1bffe15 	stw	r6,-8(fp)
 200e488:	e1ffff15 	stw	r7,-4(fp)
  alt_irq_context irq_context;
  alt_u32 current_nticks = 0;
 200e48c:	e03ff615 	stw	zero,-40(fp)
 * Obtain the system clock rate in ticks/s. 
 */

static ALT_INLINE alt_u32 ALT_ALWAYS_INLINE alt_ticks_per_second (void)
{
  return _alt_tick_rate;
 200e490:	008080f4 	movhi	r2,515
 200e494:	10896e04 	addi	r2,r2,9656
 200e498:	10800017 	ldw	r2,0(r2)
  
  if (alt_ticks_per_second ())
 200e49c:	10003f26 	beq	r2,zero,200e59c <alt_alarm_start+0x12c>
  {
    if (alarm)
 200e4a0:	e0bffc17 	ldw	r2,-16(fp)
 200e4a4:	10003b26 	beq	r2,zero,200e594 <alt_alarm_start+0x124>
    {
      alarm->callback = callback;
 200e4a8:	e0bffc17 	ldw	r2,-16(fp)
 200e4ac:	e0fffe17 	ldw	r3,-8(fp)
 200e4b0:	10c00315 	stw	r3,12(r2)
      alarm->context  = context;
 200e4b4:	e0bffc17 	ldw	r2,-16(fp)
 200e4b8:	e0ffff17 	ldw	r3,-4(fp)
 200e4bc:	10c00515 	stw	r3,20(r2)
static ALT_INLINE alt_irq_context ALT_ALWAYS_INLINE 
       alt_irq_disable_all (void)
{
  alt_irq_context context;

  NIOS2_READ_STATUS (context);
 200e4c0:	0005303a 	rdctl	r2,status
 200e4c4:	e0bff815 	stw	r2,-32(fp)

  NIOS2_WRITE_STATUS (context & ~NIOS2_STATUS_PIE_MSK);
 200e4c8:	e0fff817 	ldw	r3,-32(fp)
 200e4cc:	00bfff84 	movi	r2,-2
 200e4d0:	1884703a 	and	r2,r3,r2
 200e4d4:	1001703a 	wrctl	status,r2
  
  return context;
 200e4d8:	e0bff817 	ldw	r2,-32(fp)
 
      irq_context = alt_irq_disable_all ();
 200e4dc:	e0bff715 	stw	r2,-36(fp)
 * alt_nticks() returns the elapsed number of system clock ticks since reset.
 */

static ALT_INLINE alt_u32 ALT_ALWAYS_INLINE alt_nticks (void)
{
  return _alt_nticks;
 200e4e0:	008080f4 	movhi	r2,515
 200e4e4:	10896f04 	addi	r2,r2,9660
 200e4e8:	10800017 	ldw	r2,0(r2)
      
      current_nticks = alt_nticks();
 200e4ec:	e0bff615 	stw	r2,-40(fp)
      
      alarm->time = nticks + current_nticks + 1; 
 200e4f0:	e0fffd17 	ldw	r3,-12(fp)
 200e4f4:	e0bff617 	ldw	r2,-40(fp)
 200e4f8:	1885883a 	add	r2,r3,r2
 200e4fc:	10c00044 	addi	r3,r2,1
 200e500:	e0bffc17 	ldw	r2,-16(fp)
 200e504:	10c00215 	stw	r3,8(r2)
      /* 
       * If the desired alarm time causes a roll-over, set the rollover
       * flag. This will prevent the subsequent tick event from causing
       * an alarm too early.
       */
      if(alarm->time < current_nticks)
 200e508:	e0bffc17 	ldw	r2,-16(fp)
 200e50c:	10c00217 	ldw	r3,8(r2)
 200e510:	e0bff617 	ldw	r2,-40(fp)
 200e514:	1880042e 	bgeu	r3,r2,200e528 <alt_alarm_start+0xb8>
      {
        alarm->rollover = 1;
 200e518:	e0bffc17 	ldw	r2,-16(fp)
 200e51c:	00c00044 	movi	r3,1
 200e520:	10c00405 	stb	r3,16(r2)
 200e524:	00000206 	br	200e530 <alt_alarm_start+0xc0>
      }
      else
      {
        alarm->rollover = 0;
 200e528:	e0bffc17 	ldw	r2,-16(fp)
 200e52c:	10000405 	stb	zero,16(r2)
      }
    
      alt_llist_insert (&alt_alarm_list, &alarm->llist);
 200e530:	e0fffc17 	ldw	r3,-16(fp)
 200e534:	008080f4 	movhi	r2,515
 200e538:	10bc7204 	addi	r2,r2,-3640
 200e53c:	e0bff915 	stw	r2,-28(fp)
 200e540:	e0fffa15 	stw	r3,-24(fp)
 */

static ALT_INLINE void ALT_ALWAYS_INLINE alt_llist_insert(alt_llist* list, 
                alt_llist* entry)
{
  entry->previous = list;
 200e544:	e0bffa17 	ldw	r2,-24(fp)
 200e548:	e0fff917 	ldw	r3,-28(fp)
 200e54c:	10c00115 	stw	r3,4(r2)
  entry->next     = list->next;
 200e550:	e0bff917 	ldw	r2,-28(fp)
 200e554:	10c00017 	ldw	r3,0(r2)
 200e558:	e0bffa17 	ldw	r2,-24(fp)
 200e55c:	10c00015 	stw	r3,0(r2)

  list->next->previous = entry;
 200e560:	e0bff917 	ldw	r2,-28(fp)
 200e564:	10800017 	ldw	r2,0(r2)
 200e568:	e0fffa17 	ldw	r3,-24(fp)
 200e56c:	10c00115 	stw	r3,4(r2)
  list->next           = entry;
 200e570:	e0bff917 	ldw	r2,-28(fp)
 200e574:	e0fffa17 	ldw	r3,-24(fp)
 200e578:	10c00015 	stw	r3,0(r2)
 200e57c:	e0bff717 	ldw	r2,-36(fp)
 200e580:	e0bffb15 	stw	r2,-20(fp)
  status &= ~NIOS2_STATUS_PIE_MSK;
  status |= (context & NIOS2_STATUS_PIE_MSK);
  
  NIOS2_WRITE_STATUS (status);
#else
  NIOS2_WRITE_STATUS (context);
 200e584:	e0bffb17 	ldw	r2,-20(fp)
 200e588:	1001703a 	wrctl	status,r2
      alt_irq_enable_all (irq_context);

      return 0;
 200e58c:	0005883a 	mov	r2,zero
 200e590:	00000306 	br	200e5a0 <alt_alarm_start+0x130>
    }
    else
    {
      return -EINVAL;
 200e594:	00bffa84 	movi	r2,-22
 200e598:	00000106 	br	200e5a0 <alt_alarm_start+0x130>
    }
  }
  else
  {
    return -ENOTSUP;
 200e59c:	00bfde84 	movi	r2,-134
  }
}
 200e5a0:	e037883a 	mov	sp,fp
 200e5a4:	df000017 	ldw	fp,0(sp)
 200e5a8:	dec00104 	addi	sp,sp,4
 200e5ac:	f800283a 	ret

0200e5b0 <alt_ic_isr_register>:
  * @param irq              IRQ number
  * @return                 0 if successful, else error (-1)
  */
int alt_ic_isr_register(alt_u32 ic_id, alt_u32 irq, alt_isr_func isr, 
  void *isr_context, void *flags)
{
 200e5b0:	defff904 	addi	sp,sp,-28
 200e5b4:	dfc00615 	stw	ra,24(sp)
 200e5b8:	df000515 	stw	fp,20(sp)
 200e5bc:	df000504 	addi	fp,sp,20
 200e5c0:	e13ffc15 	stw	r4,-16(fp)
 200e5c4:	e17ffd15 	stw	r5,-12(fp)
 200e5c8:	e1bffe15 	stw	r6,-8(fp)
 200e5cc:	e1ffff15 	stw	r7,-4(fp)
    return alt_iic_isr_register(ic_id, irq, isr, isr_context, flags);
 200e5d0:	e0800217 	ldw	r2,8(fp)
 200e5d4:	d8800015 	stw	r2,0(sp)
 200e5d8:	e13ffc17 	ldw	r4,-16(fp)
 200e5dc:	e17ffd17 	ldw	r5,-12(fp)
 200e5e0:	e1bffe17 	ldw	r6,-8(fp)
 200e5e4:	e1ffff17 	ldw	r7,-4(fp)
 200e5e8:	200e7900 	call	200e790 <alt_iic_isr_register>
}  
 200e5ec:	e037883a 	mov	sp,fp
 200e5f0:	dfc00117 	ldw	ra,4(sp)
 200e5f4:	df000017 	ldw	fp,0(sp)
 200e5f8:	dec00204 	addi	sp,sp,8
 200e5fc:	f800283a 	ret

0200e600 <alt_ic_irq_enable>:
  * @param ic_id            Ignored.
  * @param irq              IRQ number
  * @return                 0 if successful, else error (-1)
  */
int alt_ic_irq_enable (alt_u32 ic_id, alt_u32 irq)
{
 200e600:	defff904 	addi	sp,sp,-28
 200e604:	df000615 	stw	fp,24(sp)
 200e608:	df000604 	addi	fp,sp,24
 200e60c:	e13ffe15 	stw	r4,-8(fp)
 200e610:	e17fff15 	stw	r5,-4(fp)
 200e614:	e0bfff17 	ldw	r2,-4(fp)
 200e618:	e0bffa15 	stw	r2,-24(fp)
static ALT_INLINE alt_irq_context ALT_ALWAYS_INLINE 
       alt_irq_disable_all (void)
{
  alt_irq_context context;

  NIOS2_READ_STATUS (context);
 200e61c:	0005303a 	rdctl	r2,status
 200e620:	e0bffb15 	stw	r2,-20(fp)

  NIOS2_WRITE_STATUS (context & ~NIOS2_STATUS_PIE_MSK);
 200e624:	e0fffb17 	ldw	r3,-20(fp)
 200e628:	00bfff84 	movi	r2,-2
 200e62c:	1884703a 	and	r2,r3,r2
 200e630:	1001703a 	wrctl	status,r2
  
  return context;
 200e634:	e0bffb17 	ldw	r2,-20(fp)
static ALT_INLINE int ALT_ALWAYS_INLINE alt_irq_enable (alt_u32 id)
{
  alt_irq_context  status;
  extern volatile alt_u32 alt_irq_active;

  status = alt_irq_disable_all ();
 200e638:	e0bffc15 	stw	r2,-16(fp)

  alt_irq_active |= (1 << id);
 200e63c:	e0bffa17 	ldw	r2,-24(fp)
 200e640:	00c00044 	movi	r3,1
 200e644:	1884983a 	sll	r2,r3,r2
 200e648:	1007883a 	mov	r3,r2
 200e64c:	008080f4 	movhi	r2,515
 200e650:	10896a04 	addi	r2,r2,9640
 200e654:	10800017 	ldw	r2,0(r2)
 200e658:	1886b03a 	or	r3,r3,r2
 200e65c:	008080f4 	movhi	r2,515
 200e660:	10896a04 	addi	r2,r2,9640
 200e664:	10c00015 	stw	r3,0(r2)
  NIOS2_WRITE_IENABLE (alt_irq_active);
 200e668:	008080f4 	movhi	r2,515
 200e66c:	10896a04 	addi	r2,r2,9640
 200e670:	10800017 	ldw	r2,0(r2)
 200e674:	100170fa 	wrctl	ienable,r2
 200e678:	e0bffc17 	ldw	r2,-16(fp)
 200e67c:	e0bffd15 	stw	r2,-12(fp)
  status &= ~NIOS2_STATUS_PIE_MSK;
  status |= (context & NIOS2_STATUS_PIE_MSK);
  
  NIOS2_WRITE_STATUS (status);
#else
  NIOS2_WRITE_STATUS (context);
 200e680:	e0bffd17 	ldw	r2,-12(fp)
 200e684:	1001703a 	wrctl	status,r2

  alt_irq_enable_all(status);

  return 0;
 200e688:	0005883a 	mov	r2,zero
    return alt_irq_enable(irq);
 200e68c:	0001883a 	nop
}
 200e690:	e037883a 	mov	sp,fp
 200e694:	df000017 	ldw	fp,0(sp)
 200e698:	dec00104 	addi	sp,sp,4
 200e69c:	f800283a 	ret

0200e6a0 <alt_ic_irq_disable>:
  * @param ic_id            Ignored.
  * @param irq              IRQ number
  * @return                 0 if successful, else error (-1)
  */
int alt_ic_irq_disable(alt_u32 ic_id, alt_u32 irq)
{
 200e6a0:	defff904 	addi	sp,sp,-28
 200e6a4:	df000615 	stw	fp,24(sp)
 200e6a8:	df000604 	addi	fp,sp,24
 200e6ac:	e13ffe15 	stw	r4,-8(fp)
 200e6b0:	e17fff15 	stw	r5,-4(fp)
 200e6b4:	e0bfff17 	ldw	r2,-4(fp)
 200e6b8:	e0bffa15 	stw	r2,-24(fp)
static ALT_INLINE alt_irq_context ALT_ALWAYS_INLINE 
       alt_irq_disable_all (void)
{
  alt_irq_context context;

  NIOS2_READ_STATUS (context);
 200e6bc:	0005303a 	rdctl	r2,status
 200e6c0:	e0bffb15 	stw	r2,-20(fp)

  NIOS2_WRITE_STATUS (context & ~NIOS2_STATUS_PIE_MSK);
 200e6c4:	e0fffb17 	ldw	r3,-20(fp)
 200e6c8:	00bfff84 	movi	r2,-2
 200e6cc:	1884703a 	and	r2,r3,r2
 200e6d0:	1001703a 	wrctl	status,r2
  
  return context;
 200e6d4:	e0bffb17 	ldw	r2,-20(fp)
static ALT_INLINE int ALT_ALWAYS_INLINE alt_irq_disable (alt_u32 id)
{
  alt_irq_context  status;
  extern volatile alt_u32 alt_irq_active;

  status = alt_irq_disable_all ();
 200e6d8:	e0bffc15 	stw	r2,-16(fp)

  alt_irq_active &= ~(1 << id);
 200e6dc:	e0bffa17 	ldw	r2,-24(fp)
 200e6e0:	00c00044 	movi	r3,1
 200e6e4:	1884983a 	sll	r2,r3,r2
 200e6e8:	0084303a 	nor	r2,zero,r2
 200e6ec:	1007883a 	mov	r3,r2
 200e6f0:	008080f4 	movhi	r2,515
 200e6f4:	10896a04 	addi	r2,r2,9640
 200e6f8:	10800017 	ldw	r2,0(r2)
 200e6fc:	1886703a 	and	r3,r3,r2
 200e700:	008080f4 	movhi	r2,515
 200e704:	10896a04 	addi	r2,r2,9640
 200e708:	10c00015 	stw	r3,0(r2)
  NIOS2_WRITE_IENABLE (alt_irq_active);
 200e70c:	008080f4 	movhi	r2,515
 200e710:	10896a04 	addi	r2,r2,9640
 200e714:	10800017 	ldw	r2,0(r2)
 200e718:	100170fa 	wrctl	ienable,r2
 200e71c:	e0bffc17 	ldw	r2,-16(fp)
 200e720:	e0bffd15 	stw	r2,-12(fp)
  status &= ~NIOS2_STATUS_PIE_MSK;
  status |= (context & NIOS2_STATUS_PIE_MSK);
  
  NIOS2_WRITE_STATUS (status);
#else
  NIOS2_WRITE_STATUS (context);
 200e724:	e0bffd17 	ldw	r2,-12(fp)
 200e728:	1001703a 	wrctl	status,r2

  alt_irq_enable_all(status);

  return 0;
 200e72c:	0005883a 	mov	r2,zero
    return alt_irq_disable(irq);
 200e730:	0001883a 	nop
}
 200e734:	e037883a 	mov	sp,fp
 200e738:	df000017 	ldw	fp,0(sp)
 200e73c:	dec00104 	addi	sp,sp,4
 200e740:	f800283a 	ret

0200e744 <alt_ic_irq_enabled>:
  * @param irq              IRQ number
  * @return                 Zero if corresponding interrupt is disabled and
  *                         non-zero otherwise.
  */
alt_u32 alt_ic_irq_enabled(alt_u32 ic_id, alt_u32 irq)
{
 200e744:	defffc04 	addi	sp,sp,-16
 200e748:	df000315 	stw	fp,12(sp)
 200e74c:	df000304 	addi	fp,sp,12
 200e750:	e13ffe15 	stw	r4,-8(fp)
 200e754:	e17fff15 	stw	r5,-4(fp)
    alt_u32 irq_enabled;

    NIOS2_READ_IENABLE(irq_enabled);
 200e758:	000530fa 	rdctl	r2,ienable
 200e75c:	e0bffd15 	stw	r2,-12(fp)

    return (irq_enabled & (1 << irq)) ? 1: 0;
 200e760:	e0bfff17 	ldw	r2,-4(fp)
 200e764:	00c00044 	movi	r3,1
 200e768:	1884983a 	sll	r2,r3,r2
 200e76c:	1007883a 	mov	r3,r2
 200e770:	e0bffd17 	ldw	r2,-12(fp)
 200e774:	1884703a 	and	r2,r3,r2
 200e778:	1004c03a 	cmpne	r2,r2,zero
 200e77c:	10803fcc 	andi	r2,r2,255
}
 200e780:	e037883a 	mov	sp,fp
 200e784:	df000017 	ldw	fp,0(sp)
 200e788:	dec00104 	addi	sp,sp,4
 200e78c:	f800283a 	ret

0200e790 <alt_iic_isr_register>:
  * @param flags            
  * @return                 0 if successful, else error (-1)
  */
int alt_iic_isr_register(alt_u32 ic_id, alt_u32 irq, alt_isr_func isr, 
  void *isr_context, void *flags)
{
 200e790:	defff504 	addi	sp,sp,-44
 200e794:	dfc00a15 	stw	ra,40(sp)
 200e798:	df000915 	stw	fp,36(sp)
 200e79c:	df000904 	addi	fp,sp,36
 200e7a0:	e13ffc15 	stw	r4,-16(fp)
 200e7a4:	e17ffd15 	stw	r5,-12(fp)
 200e7a8:	e1bffe15 	stw	r6,-8(fp)
 200e7ac:	e1ffff15 	stw	r7,-4(fp)
  int rc = -EINVAL;  
 200e7b0:	00bffa84 	movi	r2,-22
 200e7b4:	e0bff715 	stw	r2,-36(fp)
  int id = irq;             /* IRQ interpreted as the interrupt ID. */
 200e7b8:	e0bffd17 	ldw	r2,-12(fp)
 200e7bc:	e0bff815 	stw	r2,-32(fp)
  alt_irq_context status;

  if (id < ALT_NIRQ)
 200e7c0:	e0bff817 	ldw	r2,-32(fp)
 200e7c4:	10800808 	cmpgei	r2,r2,32
 200e7c8:	1000271e 	bne	r2,zero,200e868 <alt_iic_isr_register+0xd8>
static ALT_INLINE alt_irq_context ALT_ALWAYS_INLINE 
       alt_irq_disable_all (void)
{
  alt_irq_context context;

  NIOS2_READ_STATUS (context);
 200e7cc:	0005303a 	rdctl	r2,status
 200e7d0:	e0bffa15 	stw	r2,-24(fp)

  NIOS2_WRITE_STATUS (context & ~NIOS2_STATUS_PIE_MSK);
 200e7d4:	e0fffa17 	ldw	r3,-24(fp)
 200e7d8:	00bfff84 	movi	r2,-2
 200e7dc:	1884703a 	and	r2,r3,r2
 200e7e0:	1001703a 	wrctl	status,r2
  
  return context;
 200e7e4:	e0bffa17 	ldw	r2,-24(fp)
     * interrupts are disabled while the handler tables are updated to ensure
     * that an interrupt doesn't occur while the tables are in an inconsistant
     * state.
     */

    status = alt_irq_disable_all();
 200e7e8:	e0bff915 	stw	r2,-28(fp)

    alt_irq[id].handler = isr;
 200e7ec:	008080f4 	movhi	r2,515
 200e7f0:	10897a04 	addi	r2,r2,9704
 200e7f4:	e0fff817 	ldw	r3,-32(fp)
 200e7f8:	180690fa 	slli	r3,r3,3
 200e7fc:	10c5883a 	add	r2,r2,r3
 200e800:	e0fffe17 	ldw	r3,-8(fp)
 200e804:	10c00015 	stw	r3,0(r2)
    alt_irq[id].context = isr_context;
 200e808:	008080f4 	movhi	r2,515
 200e80c:	10897a04 	addi	r2,r2,9704
 200e810:	e0fff817 	ldw	r3,-32(fp)
 200e814:	180690fa 	slli	r3,r3,3
 200e818:	10c5883a 	add	r2,r2,r3
 200e81c:	10800104 	addi	r2,r2,4
 200e820:	e0ffff17 	ldw	r3,-4(fp)
 200e824:	10c00015 	stw	r3,0(r2)

    rc = (isr) ? alt_ic_irq_enable(ic_id, id) : alt_ic_irq_disable(ic_id, id);
 200e828:	e0bffe17 	ldw	r2,-8(fp)
 200e82c:	10000526 	beq	r2,zero,200e844 <alt_iic_isr_register+0xb4>
 200e830:	e0bff817 	ldw	r2,-32(fp)
 200e834:	e13ffc17 	ldw	r4,-16(fp)
 200e838:	100b883a 	mov	r5,r2
 200e83c:	200e6000 	call	200e600 <alt_ic_irq_enable>
 200e840:	00000406 	br	200e854 <alt_iic_isr_register+0xc4>
 200e844:	e0bff817 	ldw	r2,-32(fp)
 200e848:	e13ffc17 	ldw	r4,-16(fp)
 200e84c:	100b883a 	mov	r5,r2
 200e850:	200e6a00 	call	200e6a0 <alt_ic_irq_disable>
 200e854:	e0bff715 	stw	r2,-36(fp)
 200e858:	e0bff917 	ldw	r2,-28(fp)
 200e85c:	e0bffb15 	stw	r2,-20(fp)
  status &= ~NIOS2_STATUS_PIE_MSK;
  status |= (context & NIOS2_STATUS_PIE_MSK);
  
  NIOS2_WRITE_STATUS (status);
#else
  NIOS2_WRITE_STATUS (context);
 200e860:	e0bffb17 	ldw	r2,-20(fp)
 200e864:	1001703a 	wrctl	status,r2

    alt_irq_enable_all(status);
  }

  return rc; 
 200e868:	e0bff717 	ldw	r2,-36(fp)
}
 200e86c:	e037883a 	mov	sp,fp
 200e870:	dfc00117 	ldw	ra,4(sp)
 200e874:	df000017 	ldw	fp,0(sp)
 200e878:	dec00204 	addi	sp,sp,8
 200e87c:	f800283a 	ret

0200e880 <alt_load_section>:
 */

static void ALT_INLINE alt_load_section (alt_u32* from, 
                                         alt_u32* to, 
                                         alt_u32* end)
{
 200e880:	defffc04 	addi	sp,sp,-16
 200e884:	df000315 	stw	fp,12(sp)
 200e888:	df000304 	addi	fp,sp,12
 200e88c:	e13ffd15 	stw	r4,-12(fp)
 200e890:	e17ffe15 	stw	r5,-8(fp)
 200e894:	e1bfff15 	stw	r6,-4(fp)
  if (to != from)
 200e898:	e0fffe17 	ldw	r3,-8(fp)
 200e89c:	e0bffd17 	ldw	r2,-12(fp)
 200e8a0:	18800c26 	beq	r3,r2,200e8d4 <alt_load_section+0x54>
  {
    while( to != end )
 200e8a4:	00000806 	br	200e8c8 <alt_load_section+0x48>
    {
      *to++ = *from++;
 200e8a8:	e0bffe17 	ldw	r2,-8(fp)
 200e8ac:	10c00104 	addi	r3,r2,4
 200e8b0:	e0fffe15 	stw	r3,-8(fp)
 200e8b4:	e0fffd17 	ldw	r3,-12(fp)
 200e8b8:	19000104 	addi	r4,r3,4
 200e8bc:	e13ffd15 	stw	r4,-12(fp)
 200e8c0:	18c00017 	ldw	r3,0(r3)
 200e8c4:	10c00015 	stw	r3,0(r2)
                                         alt_u32* to, 
                                         alt_u32* end)
{
  if (to != from)
  {
    while( to != end )
 200e8c8:	e0fffe17 	ldw	r3,-8(fp)
 200e8cc:	e0bfff17 	ldw	r2,-4(fp)
 200e8d0:	18bff51e 	bne	r3,r2,200e8a8 <__reset+0xfe0070a8>
    {
      *to++ = *from++;
    }
  }
}
 200e8d4:	e037883a 	mov	sp,fp
 200e8d8:	df000017 	ldw	fp,0(sp)
 200e8dc:	dec00104 	addi	sp,sp,4
 200e8e0:	f800283a 	ret

0200e8e4 <alt_load>:
 * there is no bootloader, so this application is responsible for loading to
 * RAM any sections that are required.
 */  

void alt_load (void)
{
 200e8e4:	defffe04 	addi	sp,sp,-8
 200e8e8:	dfc00115 	stw	ra,4(sp)
 200e8ec:	df000015 	stw	fp,0(sp)
 200e8f0:	d839883a 	mov	fp,sp
  /* 
   * Copy the .rwdata section. 
   */

  alt_load_section (&__flash_rwdata_start, 
 200e8f4:	010080f4 	movhi	r4,515
 200e8f8:	213c7c04 	addi	r4,r4,-3600
 200e8fc:	014080f4 	movhi	r5,515
 200e900:	296f9204 	addi	r5,r5,-16824
 200e904:	018080f4 	movhi	r6,515
 200e908:	31bc7c04 	addi	r6,r6,-3600
 200e90c:	200e8800 	call	200e880 <alt_load_section>

  /*
   * Copy the exception handler.
   */

  alt_load_section (&__flash_exceptions_start, 
 200e910:	01008034 	movhi	r4,512
 200e914:	21000804 	addi	r4,r4,32
 200e918:	01408034 	movhi	r5,512
 200e91c:	29400804 	addi	r5,r5,32
 200e920:	01808034 	movhi	r6,512
 200e924:	31806f04 	addi	r6,r6,444
 200e928:	200e8800 	call	200e880 <alt_load_section>

  /*
   * Copy the .rodata section.
   */

  alt_load_section (&__flash_rodata_start, 
 200e92c:	01008074 	movhi	r4,513
 200e930:	21074b04 	addi	r4,r4,7468
 200e934:	01408074 	movhi	r5,513
 200e938:	29474b04 	addi	r5,r5,7468
 200e93c:	018080f4 	movhi	r6,515
 200e940:	31af9204 	addi	r6,r6,-16824
 200e944:	200e8800 	call	200e880 <alt_load_section>
  
  /*
   * Now ensure that the caches are in synch.
   */
  
  alt_dcache_flush_all();
 200e948:	2010fa00 	call	2010fa0 <alt_dcache_flush_all>
  alt_icache_flush_all();
 200e94c:	20112740 	call	2011274 <alt_icache_flush_all>
}
 200e950:	e037883a 	mov	sp,fp
 200e954:	dfc00117 	ldw	ra,4(sp)
 200e958:	df000017 	ldw	fp,0(sp)
 200e95c:	dec00204 	addi	sp,sp,8
 200e960:	f800283a 	ret

0200e964 <alt_main>:
 * devices/filesystems/components in the system; and call the entry point for
 * the users application, i.e. main().
 */

void alt_main (void)
{
 200e964:	defffd04 	addi	sp,sp,-12
 200e968:	dfc00215 	stw	ra,8(sp)
 200e96c:	df000115 	stw	fp,4(sp)
 200e970:	df000104 	addi	fp,sp,4
#endif

  /* ALT LOG - please see HAL/sys/alt_log_printf.h for details */
  ALT_LOG_PRINT_BOOT("[alt_main.c] Entering alt_main, calling alt_irq_init.\r\n");
  /* Initialize the interrupt controller. */
  alt_irq_init (NULL);
 200e974:	0009883a 	mov	r4,zero
 200e978:	200ee180 	call	200ee18 <alt_irq_init>

  /* Initialize the operating system */
  ALT_LOG_PRINT_BOOT("[alt_main.c] Done alt_irq_init, calling alt_os_init.\r\n");
  ALT_OS_INIT();
 200e97c:	0001883a 	nop
  ALT_LOG_PRINT_BOOT("[alt_main.c] Done OS Init, calling alt_sem_create.\r\n");
  ALT_SEM_CREATE (&alt_fd_list_lock, 1);

  /* Initialize the device drivers/software components. */
  ALT_LOG_PRINT_BOOT("[alt_main.c] Calling alt_sys_init.\r\n");
  alt_sys_init();
 200e980:	200ee4c0 	call	200ee4c <alt_sys_init>
   * devices be present (not equal to /dev/null) and if direct drivers
   * aren't being used.
   */

    ALT_LOG_PRINT_BOOT("[alt_main.c] Redirecting IO.\r\n");
    alt_io_redirect(ALT_STDOUT, ALT_STDIN, ALT_STDERR);
 200e984:	010080f4 	movhi	r4,515
 200e988:	212f7f04 	addi	r4,r4,-16900
 200e98c:	014080f4 	movhi	r5,515
 200e990:	296f7f04 	addi	r5,r5,-16900
 200e994:	018080f4 	movhi	r6,515
 200e998:	31af7f04 	addi	r6,r6,-16900
 200e99c:	20113640 	call	2011364 <alt_io_redirect>
  /* 
   * Call the C++ constructors 
   */

  ALT_LOG_PRINT_BOOT("[alt_main.c] Calling C++ constructors.\r\n");
  _do_ctors ();
 200e9a0:	20111040 	call	2011104 <_do_ctors>
   * redefined as _exit()). This is in the interest of reducing code footprint,
   * in that the atexit() overhead is removed when it's not needed.
   */

  ALT_LOG_PRINT_BOOT("[alt_main.c] Calling atexit.\r\n");
  atexit (_do_dtors);
 200e9a4:	01008074 	movhi	r4,513
 200e9a8:	21045804 	addi	r4,r4,4448
 200e9ac:	20119b40 	call	20119b4 <atexit>
  ALT_LOG_PRINT_BOOT("[alt_main.c] Calling main.\r\n");

#ifdef ALT_NO_EXIT
  main (alt_argc, alt_argv, alt_envp);
#else
  result = main (alt_argc, alt_argv, alt_envp);
 200e9b0:	d12d0117 	ldw	r4,-19452(gp)
 200e9b4:	d0ed0217 	ldw	r3,-19448(gp)
 200e9b8:	d0ad0317 	ldw	r2,-19444(gp)
 200e9bc:	180b883a 	mov	r5,r3
 200e9c0:	100d883a 	mov	r6,r2
 200e9c4:	20095280 	call	2009528 <main>
 200e9c8:	e0bfff15 	stw	r2,-4(fp)
  close(STDOUT_FILENO);
 200e9cc:	01000044 	movi	r4,1
 200e9d0:	2010ed00 	call	2010ed0 <close>
  exit (result);
 200e9d4:	e13fff17 	ldw	r4,-4(fp)
 200e9d8:	20119c80 	call	20119c8 <exit>

0200e9dc <__malloc_lock>:
 * configuration is single threaded, so there is nothing to do here. Note that 
 * this requires that malloc is never called by an interrupt service routine.
 */

void __malloc_lock ( struct _reent *_r )
{
 200e9dc:	defffe04 	addi	sp,sp,-8
 200e9e0:	df000115 	stw	fp,4(sp)
 200e9e4:	df000104 	addi	fp,sp,4
 200e9e8:	e13fff15 	stw	r4,-4(fp)
}
 200e9ec:	e037883a 	mov	sp,fp
 200e9f0:	df000017 	ldw	fp,0(sp)
 200e9f4:	dec00104 	addi	sp,sp,4
 200e9f8:	f800283a 	ret

0200e9fc <__malloc_unlock>:
/*
 *
 */

void __malloc_unlock ( struct _reent *_r )
{
 200e9fc:	defffe04 	addi	sp,sp,-8
 200ea00:	df000115 	stw	fp,4(sp)
 200ea04:	df000104 	addi	fp,sp,4
 200ea08:	e13fff15 	stw	r4,-4(fp)
}
 200ea0c:	e037883a 	mov	sp,fp
 200ea10:	df000017 	ldw	fp,0(sp)
 200ea14:	dec00104 	addi	sp,sp,4
 200ea18:	f800283a 	ret

0200ea1c <sbrk>:
#endif
 
caddr_t ALT_SBRK (int incr) __attribute__ ((no_instrument_function ));

caddr_t ALT_SBRK (int incr)
{ 
 200ea1c:	defff904 	addi	sp,sp,-28
 200ea20:	df000615 	stw	fp,24(sp)
 200ea24:	df000604 	addi	fp,sp,24
 200ea28:	e13fff15 	stw	r4,-4(fp)
static ALT_INLINE alt_irq_context ALT_ALWAYS_INLINE 
       alt_irq_disable_all (void)
{
  alt_irq_context context;

  NIOS2_READ_STATUS (context);
 200ea2c:	0005303a 	rdctl	r2,status
 200ea30:	e0bffc15 	stw	r2,-16(fp)

  NIOS2_WRITE_STATUS (context & ~NIOS2_STATUS_PIE_MSK);
 200ea34:	e0fffc17 	ldw	r3,-16(fp)
 200ea38:	00bfff84 	movi	r2,-2
 200ea3c:	1884703a 	and	r2,r3,r2
 200ea40:	1001703a 	wrctl	status,r2
  
  return context;
 200ea44:	e0bffc17 	ldw	r2,-16(fp)
  alt_irq_context context;
  char *prev_heap_end; 

  context = alt_irq_disable_all();
 200ea48:	e0bffa15 	stw	r2,-24(fp)

  /* Always return data aligned on a word boundary */
  heap_end = (char *)(((unsigned int)heap_end + 3) & ~3);
 200ea4c:	d0a00717 	ldw	r2,-32740(gp)
 200ea50:	10c000c4 	addi	r3,r2,3
 200ea54:	00bfff04 	movi	r2,-4
 200ea58:	1884703a 	and	r2,r3,r2
 200ea5c:	d0a00715 	stw	r2,-32740(gp)
  if (((heap_end + incr) - __alt_heap_start) > ALT_MAX_HEAP_BYTES) {
    alt_irq_enable_all(context);
    return (caddr_t)-1;
  }
#else
  if ((heap_end + incr) > __alt_heap_limit) {
 200ea60:	d0e00717 	ldw	r3,-32740(gp)
 200ea64:	e0bfff17 	ldw	r2,-4(fp)
 200ea68:	1887883a 	add	r3,r3,r2
 200ea6c:	00810034 	movhi	r2,1024
 200ea70:	10800004 	addi	r2,r2,0
 200ea74:	10c0062e 	bgeu	r2,r3,200ea90 <sbrk+0x74>
 200ea78:	e0bffa17 	ldw	r2,-24(fp)
 200ea7c:	e0bffd15 	stw	r2,-12(fp)
  status &= ~NIOS2_STATUS_PIE_MSK;
  status |= (context & NIOS2_STATUS_PIE_MSK);
  
  NIOS2_WRITE_STATUS (status);
#else
  NIOS2_WRITE_STATUS (context);
 200ea80:	e0bffd17 	ldw	r2,-12(fp)
 200ea84:	1001703a 	wrctl	status,r2
    alt_irq_enable_all(context);
    return (caddr_t)-1;
 200ea88:	00bfffc4 	movi	r2,-1
 200ea8c:	00000b06 	br	200eabc <sbrk+0xa0>
  }
#endif

  prev_heap_end = heap_end; 
 200ea90:	d0a00717 	ldw	r2,-32740(gp)
 200ea94:	e0bffb15 	stw	r2,-20(fp)
  heap_end += incr; 
 200ea98:	d0e00717 	ldw	r3,-32740(gp)
 200ea9c:	e0bfff17 	ldw	r2,-4(fp)
 200eaa0:	1885883a 	add	r2,r3,r2
 200eaa4:	d0a00715 	stw	r2,-32740(gp)
 200eaa8:	e0bffa17 	ldw	r2,-24(fp)
 200eaac:	e0bffe15 	stw	r2,-8(fp)
 200eab0:	e0bffe17 	ldw	r2,-8(fp)
 200eab4:	1001703a 	wrctl	status,r2

#endif

  alt_irq_enable_all(context);

  return (caddr_t) prev_heap_end; 
 200eab8:	e0bffb17 	ldw	r2,-20(fp)
} 
 200eabc:	e037883a 	mov	sp,fp
 200eac0:	df000017 	ldw	fp,0(sp)
 200eac4:	dec00104 	addi	sp,sp,4
 200eac8:	f800283a 	ret

0200eacc <alt_alarm_stop>:
 * alarms. Alternatively an alarm can unregister itself by returning zero when 
 * the alarm executes.
 */

void alt_alarm_stop (alt_alarm* alarm)
{
 200eacc:	defffa04 	addi	sp,sp,-24
 200ead0:	df000515 	stw	fp,20(sp)
 200ead4:	df000504 	addi	fp,sp,20
 200ead8:	e13fff15 	stw	r4,-4(fp)
static ALT_INLINE alt_irq_context ALT_ALWAYS_INLINE 
       alt_irq_disable_all (void)
{
  alt_irq_context context;

  NIOS2_READ_STATUS (context);
 200eadc:	0005303a 	rdctl	r2,status
 200eae0:	e0bffc15 	stw	r2,-16(fp)

  NIOS2_WRITE_STATUS (context & ~NIOS2_STATUS_PIE_MSK);
 200eae4:	e0fffc17 	ldw	r3,-16(fp)
 200eae8:	00bfff84 	movi	r2,-2
 200eaec:	1884703a 	and	r2,r3,r2
 200eaf0:	1001703a 	wrctl	status,r2
  
  return context;
 200eaf4:	e0bffc17 	ldw	r2,-16(fp)
  alt_irq_context irq_context;

  irq_context = alt_irq_disable_all();
 200eaf8:	e0bffb15 	stw	r2,-20(fp)
  alt_llist_remove (&alarm->llist);
 200eafc:	e0bfff17 	ldw	r2,-4(fp)
 200eb00:	e0bffd15 	stw	r2,-12(fp)
 * input argument is the element to remove.
 */
     
static ALT_INLINE void ALT_ALWAYS_INLINE alt_llist_remove(alt_llist* entry)
{
  entry->next->previous = entry->previous;
 200eb04:	e0bffd17 	ldw	r2,-12(fp)
 200eb08:	10800017 	ldw	r2,0(r2)
 200eb0c:	e0fffd17 	ldw	r3,-12(fp)
 200eb10:	18c00117 	ldw	r3,4(r3)
 200eb14:	10c00115 	stw	r3,4(r2)
  entry->previous->next = entry->next;
 200eb18:	e0bffd17 	ldw	r2,-12(fp)
 200eb1c:	10800117 	ldw	r2,4(r2)
 200eb20:	e0fffd17 	ldw	r3,-12(fp)
 200eb24:	18c00017 	ldw	r3,0(r3)
 200eb28:	10c00015 	stw	r3,0(r2)
  /* 
   * Set the entry to point to itself, so that any further calls to
   * alt_llist_remove() are harmless.
   */

  entry->previous = entry;
 200eb2c:	e0bffd17 	ldw	r2,-12(fp)
 200eb30:	e0fffd17 	ldw	r3,-12(fp)
 200eb34:	10c00115 	stw	r3,4(r2)
  entry->next     = entry;
 200eb38:	e0bffd17 	ldw	r2,-12(fp)
 200eb3c:	e0fffd17 	ldw	r3,-12(fp)
 200eb40:	10c00015 	stw	r3,0(r2)
 200eb44:	e0bffb17 	ldw	r2,-20(fp)
 200eb48:	e0bffe15 	stw	r2,-8(fp)
  status &= ~NIOS2_STATUS_PIE_MSK;
  status |= (context & NIOS2_STATUS_PIE_MSK);
  
  NIOS2_WRITE_STATUS (status);
#else
  NIOS2_WRITE_STATUS (context);
 200eb4c:	e0bffe17 	ldw	r2,-8(fp)
 200eb50:	1001703a 	wrctl	status,r2
  alt_irq_enable_all (irq_context);
}
 200eb54:	e037883a 	mov	sp,fp
 200eb58:	df000017 	ldw	fp,0(sp)
 200eb5c:	dec00104 	addi	sp,sp,4
 200eb60:	f800283a 	ret

0200eb64 <alt_tick>:
 * 
 * alt_tick() is expected to run at interrupt level.
 */

void alt_tick (void)
{
 200eb64:	defffb04 	addi	sp,sp,-20
 200eb68:	dfc00415 	stw	ra,16(sp)
 200eb6c:	df000315 	stw	fp,12(sp)
 200eb70:	df000304 	addi	fp,sp,12
  alt_alarm* next;
  alt_alarm* alarm = (alt_alarm*) alt_alarm_list.next;
 200eb74:	d0a00817 	ldw	r2,-32736(gp)
 200eb78:	e0bffd15 	stw	r2,-12(fp)

  alt_u32    next_callback;

  /* update the tick counter */

  _alt_nticks++;
 200eb7c:	d0ad0517 	ldw	r2,-19436(gp)
 200eb80:	10800044 	addi	r2,r2,1
 200eb84:	d0ad0515 	stw	r2,-19436(gp)

  /* process the registered callbacks */

  while (alarm != (alt_alarm*) &alt_alarm_list)
 200eb88:	00002e06 	br	200ec44 <alt_tick+0xe0>
  {
    next = (alt_alarm*) alarm->llist.next;
 200eb8c:	e0bffd17 	ldw	r2,-12(fp)
 200eb90:	10800017 	ldw	r2,0(r2)
 200eb94:	e0bffe15 	stw	r2,-8(fp)
    /* 
     * Upon the tick-counter rolling over it is safe to clear the 
     * roll-over flag; once the flag is cleared this (or subsequnt)
     * tick events are enabled to generate an alarm event. 
     */
    if ((alarm->rollover) && (_alt_nticks == 0))
 200eb98:	e0bffd17 	ldw	r2,-12(fp)
 200eb9c:	10800403 	ldbu	r2,16(r2)
 200eba0:	10803fcc 	andi	r2,r2,255
 200eba4:	10000426 	beq	r2,zero,200ebb8 <alt_tick+0x54>
 200eba8:	d0ad0517 	ldw	r2,-19436(gp)
 200ebac:	1000021e 	bne	r2,zero,200ebb8 <alt_tick+0x54>
    {
      alarm->rollover = 0;
 200ebb0:	e0bffd17 	ldw	r2,-12(fp)
 200ebb4:	10000405 	stb	zero,16(r2)
    }
    
    /* if the alarm period has expired, make the callback */    
    if ((alarm->time <= _alt_nticks) && (alarm->rollover == 0))
 200ebb8:	e0bffd17 	ldw	r2,-12(fp)
 200ebbc:	10800217 	ldw	r2,8(r2)
 200ebc0:	d0ed0517 	ldw	r3,-19436(gp)
 200ebc4:	18801d36 	bltu	r3,r2,200ec3c <alt_tick+0xd8>
 200ebc8:	e0bffd17 	ldw	r2,-12(fp)
 200ebcc:	10800403 	ldbu	r2,16(r2)
 200ebd0:	10803fcc 	andi	r2,r2,255
 200ebd4:	1000191e 	bne	r2,zero,200ec3c <alt_tick+0xd8>
    {
      next_callback = alarm->callback (alarm->context);
 200ebd8:	e0bffd17 	ldw	r2,-12(fp)
 200ebdc:	10800317 	ldw	r2,12(r2)
 200ebe0:	e0fffd17 	ldw	r3,-12(fp)
 200ebe4:	18c00517 	ldw	r3,20(r3)
 200ebe8:	1809883a 	mov	r4,r3
 200ebec:	103ee83a 	callr	r2
 200ebf0:	e0bfff15 	stw	r2,-4(fp)

      /* deactivate the alarm if the return value is zero */

      if (next_callback == 0)
 200ebf4:	e0bfff17 	ldw	r2,-4(fp)
 200ebf8:	1000031e 	bne	r2,zero,200ec08 <alt_tick+0xa4>
      {
        alt_alarm_stop (alarm);
 200ebfc:	e13ffd17 	ldw	r4,-12(fp)
 200ec00:	200eacc0 	call	200eacc <alt_alarm_stop>
 200ec04:	00000d06 	br	200ec3c <alt_tick+0xd8>
      }
      else
      {
        alarm->time += next_callback;
 200ec08:	e0bffd17 	ldw	r2,-12(fp)
 200ec0c:	10c00217 	ldw	r3,8(r2)
 200ec10:	e0bfff17 	ldw	r2,-4(fp)
 200ec14:	1887883a 	add	r3,r3,r2
 200ec18:	e0bffd17 	ldw	r2,-12(fp)
 200ec1c:	10c00215 	stw	r3,8(r2)
        /* 
         * If the desired alarm time causes a roll-over, set the rollover
         * flag. This will prevent the subsequent tick event from causing
         * an alarm too early.
         */
        if(alarm->time < _alt_nticks)
 200ec20:	e0bffd17 	ldw	r2,-12(fp)
 200ec24:	10c00217 	ldw	r3,8(r2)
 200ec28:	d0ad0517 	ldw	r2,-19436(gp)
 200ec2c:	1880032e 	bgeu	r3,r2,200ec3c <alt_tick+0xd8>
        {
          alarm->rollover = 1;
 200ec30:	e0bffd17 	ldw	r2,-12(fp)
 200ec34:	00c00044 	movi	r3,1
 200ec38:	10c00405 	stb	r3,16(r2)
        }
      }
    }
    alarm = next;
 200ec3c:	e0bffe17 	ldw	r2,-8(fp)
 200ec40:	e0bffd15 	stw	r2,-12(fp)

  _alt_nticks++;

  /* process the registered callbacks */

  while (alarm != (alt_alarm*) &alt_alarm_list)
 200ec44:	e0fffd17 	ldw	r3,-12(fp)
 200ec48:	d0a00804 	addi	r2,gp,-32736
 200ec4c:	18bfcf1e 	bne	r3,r2,200eb8c <__reset+0xfe00738c>

  /* 
   * Update the operating system specific timer facilities.
   */

  ALT_OS_TIME_TICK();
 200ec50:	0001883a 	nop
}
 200ec54:	e037883a 	mov	sp,fp
 200ec58:	dfc00117 	ldw	ra,4(sp)
 200ec5c:	df000017 	ldw	fp,0(sp)
 200ec60:	dec00204 	addi	sp,sp,8
 200ec64:	f800283a 	ret

0200ec68 <usleep>:
#if defined (__GNUC__) && __GNUC__ >= 4
int ALT_USLEEP (useconds_t us)
#else
unsigned int ALT_USLEEP (unsigned int us)
#endif
{
 200ec68:	defffd04 	addi	sp,sp,-12
 200ec6c:	dfc00215 	stw	ra,8(sp)
 200ec70:	df000115 	stw	fp,4(sp)
 200ec74:	df000104 	addi	fp,sp,4
 200ec78:	e13fff15 	stw	r4,-4(fp)
  return alt_busy_sleep(us);
 200ec7c:	e13fff17 	ldw	r4,-4(fp)
 200ec80:	2010d280 	call	2010d28 <alt_busy_sleep>
}
 200ec84:	e037883a 	mov	sp,fp
 200ec88:	dfc00117 	ldw	ra,4(sp)
 200ec8c:	df000017 	ldw	fp,0(sp)
 200ec90:	dec00204 	addi	sp,sp,8
 200ec94:	f800283a 	ret

0200ec98 <alt_get_errno>:
#undef errno

extern int errno;

static ALT_INLINE int* alt_get_errno(void)
{
 200ec98:	defffe04 	addi	sp,sp,-8
 200ec9c:	dfc00115 	stw	ra,4(sp)
 200eca0:	df000015 	stw	fp,0(sp)
 200eca4:	d839883a 	mov	fp,sp
  return ((alt_errno) ? alt_errno() : &errno);
 200eca8:	008080f4 	movhi	r2,515
 200ecac:	10bc7904 	addi	r2,r2,-3612
 200ecb0:	10800017 	ldw	r2,0(r2)
 200ecb4:	10000526 	beq	r2,zero,200eccc <alt_get_errno+0x34>
 200ecb8:	008080f4 	movhi	r2,515
 200ecbc:	10bc7904 	addi	r2,r2,-3612
 200ecc0:	10800017 	ldw	r2,0(r2)
 200ecc4:	103ee83a 	callr	r2
 200ecc8:	00000206 	br	200ecd4 <alt_get_errno+0x3c>
 200eccc:	008080f4 	movhi	r2,515
 200ecd0:	10896904 	addi	r2,r2,9636
}
 200ecd4:	e037883a 	mov	sp,fp
 200ecd8:	dfc00117 	ldw	ra,4(sp)
 200ecdc:	df000017 	ldw	fp,0(sp)
 200ece0:	dec00204 	addi	sp,sp,8
 200ece4:	f800283a 	ret

0200ece8 <write>:
}

#else /* !ALT_USE_DIRECT_DRIVERS */

int ALT_WRITE (int file, const void *ptr, size_t len)
{
 200ece8:	defff904 	addi	sp,sp,-28
 200ecec:	dfc00615 	stw	ra,24(sp)
 200ecf0:	df000515 	stw	fp,20(sp)
 200ecf4:	df000504 	addi	fp,sp,20
 200ecf8:	e13ffd15 	stw	r4,-12(fp)
 200ecfc:	e17ffe15 	stw	r5,-8(fp)
 200ed00:	e1bfff15 	stw	r6,-4(fp)
   * A common error case is that when the file descriptor was created, the call
   * to open() failed resulting in a negative file descriptor. This is trapped
   * below so that we don't try and process an invalid file descriptor.
   */

  fd = (file < 0) ? NULL : &alt_fd_list[file];
 200ed04:	e0bffd17 	ldw	r2,-12(fp)
 200ed08:	10000616 	blt	r2,zero,200ed24 <write+0x3c>
 200ed0c:	e0bffd17 	ldw	r2,-12(fp)
 200ed10:	10c00324 	muli	r3,r2,12
 200ed14:	008080f4 	movhi	r2,515
 200ed18:	10bc0a04 	addi	r2,r2,-4056
 200ed1c:	1885883a 	add	r2,r3,r2
 200ed20:	00000106 	br	200ed28 <write+0x40>
 200ed24:	0005883a 	mov	r2,zero
 200ed28:	e0bffb15 	stw	r2,-20(fp)
  
  if (fd)
 200ed2c:	e0bffb17 	ldw	r2,-20(fp)
 200ed30:	10002126 	beq	r2,zero,200edb8 <write+0xd0>
     * If the file has not been opened with write access, or if the driver does
     * not provide an implementation of write(), generate an error. Otherwise
     * call the drivers write() function to process the request.
     */

    if (((fd->fd_flags & O_ACCMODE) != O_RDONLY) && fd->dev->write)
 200ed34:	e0bffb17 	ldw	r2,-20(fp)
 200ed38:	10800217 	ldw	r2,8(r2)
 200ed3c:	108000cc 	andi	r2,r2,3
 200ed40:	10001826 	beq	r2,zero,200eda4 <write+0xbc>
 200ed44:	e0bffb17 	ldw	r2,-20(fp)
 200ed48:	10800017 	ldw	r2,0(r2)
 200ed4c:	10800617 	ldw	r2,24(r2)
 200ed50:	10001426 	beq	r2,zero,200eda4 <write+0xbc>
    {
      
      /* ALT_LOG - see altera_hal/HAL/inc/sys/alt_log_printf.h */
      ALT_LOG_WRITE_FUNCTION(ptr,len);

      if ((rval = fd->dev->write(fd, ptr, len)) < 0)
 200ed54:	e0bffb17 	ldw	r2,-20(fp)
 200ed58:	10800017 	ldw	r2,0(r2)
 200ed5c:	10800617 	ldw	r2,24(r2)
 200ed60:	e0ffff17 	ldw	r3,-4(fp)
 200ed64:	e13ffb17 	ldw	r4,-20(fp)
 200ed68:	e17ffe17 	ldw	r5,-8(fp)
 200ed6c:	180d883a 	mov	r6,r3
 200ed70:	103ee83a 	callr	r2
 200ed74:	e0bffc15 	stw	r2,-16(fp)
 200ed78:	e0bffc17 	ldw	r2,-16(fp)
 200ed7c:	1000070e 	bge	r2,zero,200ed9c <write+0xb4>
      {
        ALT_ERRNO = -rval;
 200ed80:	200ec980 	call	200ec98 <alt_get_errno>
 200ed84:	1007883a 	mov	r3,r2
 200ed88:	e0bffc17 	ldw	r2,-16(fp)
 200ed8c:	0085c83a 	sub	r2,zero,r2
 200ed90:	18800015 	stw	r2,0(r3)
        return -1;
 200ed94:	00bfffc4 	movi	r2,-1
 200ed98:	00000c06 	br	200edcc <write+0xe4>
      }
      return rval;
 200ed9c:	e0bffc17 	ldw	r2,-16(fp)
 200eda0:	00000a06 	br	200edcc <write+0xe4>
    }
    else
    {
      ALT_ERRNO = EACCES;
 200eda4:	200ec980 	call	200ec98 <alt_get_errno>
 200eda8:	1007883a 	mov	r3,r2
 200edac:	00800344 	movi	r2,13
 200edb0:	18800015 	stw	r2,0(r3)
 200edb4:	00000406 	br	200edc8 <write+0xe0>
    }
  }
  else  
  {
    ALT_ERRNO = EBADFD;
 200edb8:	200ec980 	call	200ec98 <alt_get_errno>
 200edbc:	1007883a 	mov	r3,r2
 200edc0:	00801444 	movi	r2,81
 200edc4:	18800015 	stw	r2,0(r3)
  }
  return -1;
 200edc8:	00bfffc4 	movi	r2,-1
}
 200edcc:	e037883a 	mov	sp,fp
 200edd0:	dfc00117 	ldw	ra,4(sp)
 200edd4:	df000017 	ldw	fp,0(sp)
 200edd8:	dec00204 	addi	sp,sp,8
 200eddc:	f800283a 	ret

0200ede0 <alt_dev_reg>:
 */

extern int alt_fs_reg  (alt_dev* dev); 

static ALT_INLINE int alt_dev_reg (alt_dev* dev)
{
 200ede0:	defffd04 	addi	sp,sp,-12
 200ede4:	dfc00215 	stw	ra,8(sp)
 200ede8:	df000115 	stw	fp,4(sp)
 200edec:	df000104 	addi	fp,sp,4
 200edf0:	e13fff15 	stw	r4,-4(fp)
  extern alt_llist alt_dev_list;

  return alt_dev_llist_insert ((alt_dev_llist*) dev, &alt_dev_list);
 200edf4:	e13fff17 	ldw	r4,-4(fp)
 200edf8:	014080f4 	movhi	r5,515
 200edfc:	297c7604 	addi	r5,r5,-3624
 200ee00:	20110600 	call	2011060 <alt_dev_llist_insert>
}
 200ee04:	e037883a 	mov	sp,fp
 200ee08:	dfc00117 	ldw	ra,4(sp)
 200ee0c:	df000017 	ldw	fp,0(sp)
 200ee10:	dec00204 	addi	sp,sp,8
 200ee14:	f800283a 	ret

0200ee18 <alt_irq_init>:
 * The "base" parameter is ignored and only
 * present for backwards-compatibility.
 */

void alt_irq_init ( const void* base )
{
 200ee18:	defffd04 	addi	sp,sp,-12
 200ee1c:	dfc00215 	stw	ra,8(sp)
 200ee20:	df000115 	stw	fp,4(sp)
 200ee24:	df000104 	addi	fp,sp,4
 200ee28:	e13fff15 	stw	r4,-4(fp)
    ALTERA_NIOS2_GEN2_IRQ_INIT ( CPU, CPU);
 200ee2c:	20116b00 	call	20116b0 <altera_nios2_gen2_irq_init>
 * alt_irq_cpu_enable_interrupts() enables the CPU to start taking interrupts.
 */
static ALT_INLINE void ALT_ALWAYS_INLINE 
       alt_irq_cpu_enable_interrupts (void)
{
    NIOS2_WRITE_STATUS(NIOS2_STATUS_PIE_MSK
 200ee30:	00800044 	movi	r2,1
 200ee34:	1001703a 	wrctl	status,r2
    alt_irq_cpu_enable_interrupts();
}
 200ee38:	e037883a 	mov	sp,fp
 200ee3c:	dfc00117 	ldw	ra,4(sp)
 200ee40:	df000017 	ldw	fp,0(sp)
 200ee44:	dec00204 	addi	sp,sp,8
 200ee48:	f800283a 	ret

0200ee4c <alt_sys_init>:
 * Initialize the non-interrupt controller devices.
 * Called after alt_irq_init().
 */

void alt_sys_init( void )
{
 200ee4c:	defffe04 	addi	sp,sp,-8
 200ee50:	dfc00115 	stw	ra,4(sp)
 200ee54:	df000015 	stw	fp,0(sp)
 200ee58:	d839883a 	mov	fp,sp
    ALTERA_AVALON_TIMER_INIT ( TIMER, TIMER);
 200ee5c:	01010074 	movhi	r4,1025
 200ee60:	21210804 	addi	r4,r4,-31712
 200ee64:	000b883a 	mov	r5,zero
 200ee68:	01800084 	movi	r6,2
 200ee6c:	01c07d04 	movi	r7,500
 200ee70:	20106740 	call	2010674 <alt_avalon_timer_sc_init>
    ALTERA_AVALON_EPCS_FLASH_CONTROLLER_INIT ( EPCS_FLASH_CONTROLLER_0, epcs_flash_controller_0);
 200ee74:	010080f4 	movhi	r4,515
 200ee78:	2137b504 	addi	r4,r4,-8492
 200ee7c:	200eef00 	call	200eef0 <alt_epcs_flash_init>
    ALTERA_AVALON_JTAG_UART_INIT ( JTAG_UART, JTAG_UART);
 200ee80:	010080f4 	movhi	r4,515
 200ee84:	2137f204 	addi	r4,r4,-8248
 200ee88:	000b883a 	mov	r5,zero
 200ee8c:	01800044 	movi	r6,1
 200ee90:	200fb140 	call	200fb14 <altera_avalon_jtag_uart_init>
 200ee94:	010080f4 	movhi	r4,515
 200ee98:	2137e804 	addi	r4,r4,-8288
 200ee9c:	200ede00 	call	200ede0 <alt_dev_reg>
    ALTERA_AVALON_SPI_INIT ( LT24_TOUCH_SPI, LT24_TOUCH_SPI);
 200eea0:	0001883a 	nop
}
 200eea4:	e037883a 	mov	sp,fp
 200eea8:	dfc00117 	ldw	ra,4(sp)
 200eeac:	df000017 	ldw	fp,0(sp)
 200eeb0:	dec00204 	addi	sp,sp,8
 200eeb4:	f800283a 	ret

0200eeb8 <alt_flash_device_register>:

typedef struct alt_flash_dev alt_flash_dev; 
typedef alt_flash_dev alt_flash_fd;

static ALT_INLINE int alt_flash_device_register( alt_flash_fd* fd)
{
 200eeb8:	defffd04 	addi	sp,sp,-12
 200eebc:	dfc00215 	stw	ra,8(sp)
 200eec0:	df000115 	stw	fp,4(sp)
 200eec4:	df000104 	addi	fp,sp,4
 200eec8:	e13fff15 	stw	r4,-4(fp)
  extern alt_llist alt_flash_dev_list;

  return alt_dev_llist_insert ((alt_dev_llist*) fd, &alt_flash_dev_list);
 200eecc:	e13fff17 	ldw	r4,-4(fp)
 200eed0:	014080f4 	movhi	r5,515
 200eed4:	297c7a04 	addi	r5,r5,-3608
 200eed8:	20110600 	call	2011060 <alt_dev_llist_insert>
}
 200eedc:	e037883a 	mov	sp,fp
 200eee0:	dfc00117 	ldw	ra,4(sp)
 200eee4:	df000017 	ldw	fp,0(sp)
 200eee8:	dec00204 	addi	sp,sp,8
 200eeec:	f800283a 	ret

0200eef0 <alt_epcs_flash_init>:
/*
 * alt_epcs_flash_init
 *
 */
int alt_epcs_flash_init(alt_flash_epcs_dev* flash)
{
 200eef0:	defffc04 	addi	sp,sp,-16
 200eef4:	dfc00315 	stw	ra,12(sp)
 200eef8:	df000215 	stw	fp,8(sp)
 200eefc:	df000204 	addi	fp,sp,8
 200ef00:	e13fff15 	stw	r4,-4(fp)
  int ret_code = 0;
 200ef04:	e03ffe15 	stw	zero,-8(fp)

  /* Set up function pointers and/or data structures as needed. */
  ret_code = alt_epcs_flash_query(flash);
 200ef08:	e13fff17 	ldw	r4,-4(fp)
 200ef0c:	200ef440 	call	200ef44 <alt_epcs_flash_query>
 200ef10:	e0bffe15 	stw	r2,-8(fp)
  */

  /*
  *  Register this device as a valid flash device type
  */
  if (!ret_code)
 200ef14:	e0bffe17 	ldw	r2,-8(fp)
 200ef18:	1000041e 	bne	r2,zero,200ef2c <alt_epcs_flash_init+0x3c>
    ret_code = alt_flash_device_register(&(flash->dev));
 200ef1c:	e0bfff17 	ldw	r2,-4(fp)
 200ef20:	1009883a 	mov	r4,r2
 200ef24:	200eeb80 	call	200eeb8 <alt_flash_device_register>
 200ef28:	e0bffe15 	stw	r2,-8(fp)

  return ret_code;
 200ef2c:	e0bffe17 	ldw	r2,-8(fp)
}
 200ef30:	e037883a 	mov	sp,fp
 200ef34:	dfc00117 	ldw	ra,4(sp)
 200ef38:	df000017 	ldw	fp,0(sp)
 200ef3c:	dec00204 	addi	sp,sp,8
 200ef40:	f800283a 	ret

0200ef44 <alt_epcs_flash_query>:


static int alt_epcs_flash_query(alt_flash_epcs_dev* flash)
{
 200ef44:	defffc04 	addi	sp,sp,-16
 200ef48:	dfc00315 	stw	ra,12(sp)
 200ef4c:	df000215 	stw	fp,8(sp)
 200ef50:	df000204 	addi	fp,sp,8
 200ef54:	e13fff15 	stw	r4,-4(fp)
  int ret_code = 0;
 200ef58:	e03ffe15 	stw	zero,-8(fp)
   * reset the device, or whatever, to ensure that
   * it's in a known working state.
  */
  
  /* Disable 4-bytes address mode. */
  flash->four_bytes_mode = 0;
 200ef5c:	e0bfff17 	ldw	r2,-4(fp)
 200ef60:	10003215 	stw	zero,200(r2)
  
  /* Send the RES command sequence */
  flash->silicon_id =
    epcs_read_electronic_signature(flash->register_base);
 200ef64:	e0bfff17 	ldw	r2,-4(fp)
 200ef68:	10802e17 	ldw	r2,184(r2)
 200ef6c:	1009883a 	mov	r4,r2
 200ef70:	2010b880 	call	2010b88 <epcs_read_electronic_signature>
  
  /* Disable 4-bytes address mode. */
  flash->four_bytes_mode = 0;
  
  /* Send the RES command sequence */
  flash->silicon_id =
 200ef74:	10c03fcc 	andi	r3,r2,255
 200ef78:	e0bfff17 	ldw	r2,-4(fp)
 200ef7c:	10c03015 	stw	r3,192(r2)
    epcs_read_electronic_signature(flash->register_base);

  /* Fill in all device-specific parameters. */
  if (flash->silicon_id == 0x16) /* EPCS64 */
 200ef80:	e0bfff17 	ldw	r2,-4(fp)
 200ef84:	10803017 	ldw	r2,192(r2)
 200ef88:	10800598 	cmpnei	r2,r2,22
 200ef8c:	10000a1e 	bne	r2,zero,200efb8 <alt_epcs_flash_query+0x74>
  {
    flash->dev.region_info[0].region_size = 64 * 1024 * 1024 / 8;
 200ef90:	e0bfff17 	ldw	r2,-4(fp)
 200ef94:	00c02034 	movhi	r3,128
 200ef98:	10c00e15 	stw	r3,56(r2)
    flash->dev.region_info[0].number_of_blocks = 128;
 200ef9c:	e0bfff17 	ldw	r2,-4(fp)
 200efa0:	00c02004 	movi	r3,128
 200efa4:	10c00f15 	stw	r3,60(r2)
    flash->dev.region_info[0].block_size = 65536;
 200efa8:	e0bfff17 	ldw	r2,-4(fp)
 200efac:	00c00074 	movhi	r3,1
 200efb0:	10c01015 	stw	r3,64(r2)
 200efb4:	0000ce06 	br	200f2f0 <alt_epcs_flash_query+0x3ac>
  }
  else if (flash->silicon_id == 0x14) /* EPCS16 */
 200efb8:	e0bfff17 	ldw	r2,-4(fp)
 200efbc:	10803017 	ldw	r2,192(r2)
 200efc0:	10800518 	cmpnei	r2,r2,20
 200efc4:	10000a1e 	bne	r2,zero,200eff0 <alt_epcs_flash_query+0xac>
  {
    flash->dev.region_info[0].region_size = 16 * 1024 * 1024 / 8;
 200efc8:	e0bfff17 	ldw	r2,-4(fp)
 200efcc:	00c00834 	movhi	r3,32
 200efd0:	10c00e15 	stw	r3,56(r2)
    flash->dev.region_info[0].number_of_blocks = 32;
 200efd4:	e0bfff17 	ldw	r2,-4(fp)
 200efd8:	00c00804 	movi	r3,32
 200efdc:	10c00f15 	stw	r3,60(r2)
    flash->dev.region_info[0].block_size = 65536;
 200efe0:	e0bfff17 	ldw	r2,-4(fp)
 200efe4:	00c00074 	movhi	r3,1
 200efe8:	10c01015 	stw	r3,64(r2)
 200efec:	0000c006 	br	200f2f0 <alt_epcs_flash_query+0x3ac>
  }
  else if (flash->silicon_id == 0x13) /* EPCS8 */
 200eff0:	e0bfff17 	ldw	r2,-4(fp)
 200eff4:	10803017 	ldw	r2,192(r2)
 200eff8:	108004d8 	cmpnei	r2,r2,19
 200effc:	10000a1e 	bne	r2,zero,200f028 <alt_epcs_flash_query+0xe4>
  {
    flash->dev.region_info[0].region_size = 8 * 1024 * 1024 / 8;
 200f000:	e0bfff17 	ldw	r2,-4(fp)
 200f004:	00c00434 	movhi	r3,16
 200f008:	10c00e15 	stw	r3,56(r2)
    flash->dev.region_info[0].number_of_blocks = 16;
 200f00c:	e0bfff17 	ldw	r2,-4(fp)
 200f010:	00c00404 	movi	r3,16
 200f014:	10c00f15 	stw	r3,60(r2)
    flash->dev.region_info[0].block_size = 65536;
 200f018:	e0bfff17 	ldw	r2,-4(fp)
 200f01c:	00c00074 	movhi	r3,1
 200f020:	10c01015 	stw	r3,64(r2)
 200f024:	0000b206 	br	200f2f0 <alt_epcs_flash_query+0x3ac>
  }
  else if (flash->silicon_id == 0x12) /* EPCS4 */
 200f028:	e0bfff17 	ldw	r2,-4(fp)
 200f02c:	10803017 	ldw	r2,192(r2)
 200f030:	10800498 	cmpnei	r2,r2,18
 200f034:	10000a1e 	bne	r2,zero,200f060 <alt_epcs_flash_query+0x11c>
  {
    flash->dev.region_info[0].region_size = 4 * 1024 * 1024 / 8;
 200f038:	e0bfff17 	ldw	r2,-4(fp)
 200f03c:	00c00234 	movhi	r3,8
 200f040:	10c00e15 	stw	r3,56(r2)
    flash->dev.region_info[0].number_of_blocks = 8;
 200f044:	e0bfff17 	ldw	r2,-4(fp)
 200f048:	00c00204 	movi	r3,8
 200f04c:	10c00f15 	stw	r3,60(r2)
    flash->dev.region_info[0].block_size = 65536;
 200f050:	e0bfff17 	ldw	r2,-4(fp)
 200f054:	00c00074 	movhi	r3,1
 200f058:	10c01015 	stw	r3,64(r2)
 200f05c:	0000a406 	br	200f2f0 <alt_epcs_flash_query+0x3ac>
  }
  else if (flash->silicon_id == 0x10) /* EPCS1 */
 200f060:	e0bfff17 	ldw	r2,-4(fp)
 200f064:	10803017 	ldw	r2,192(r2)
 200f068:	10800418 	cmpnei	r2,r2,16
 200f06c:	10000a1e 	bne	r2,zero,200f098 <alt_epcs_flash_query+0x154>
  {
    flash->dev.region_info[0].region_size = 1 * 1024 * 1024 / 8;
 200f070:	e0bfff17 	ldw	r2,-4(fp)
 200f074:	00c000b4 	movhi	r3,2
 200f078:	10c00e15 	stw	r3,56(r2)
    flash->dev.region_info[0].number_of_blocks = 4;
 200f07c:	e0bfff17 	ldw	r2,-4(fp)
 200f080:	00c00104 	movi	r3,4
 200f084:	10c00f15 	stw	r3,60(r2)
    flash->dev.region_info[0].block_size = 32768;
 200f088:	e0bfff17 	ldw	r2,-4(fp)
 200f08c:	00e00014 	movui	r3,32768
 200f090:	10c01015 	stw	r3,64(r2)
 200f094:	00009606 	br	200f2f0 <alt_epcs_flash_query+0x3ac>
  {
    /* 
     * Read electronic signature doesn't work for newer devices; try 
     * the "Read Device ID" command" before giving up.
     */
    flash->silicon_id = epcs_read_device_id(flash->register_base);
 200f098:	e0bfff17 	ldw	r2,-4(fp)
 200f09c:	10802e17 	ldw	r2,184(r2)
 200f0a0:	1009883a 	mov	r4,r2
 200f0a4:	2010bf00 	call	2010bf0 <epcs_read_device_id>
 200f0a8:	1007883a 	mov	r3,r2
 200f0ac:	e0bfff17 	ldw	r2,-4(fp)
 200f0b0:	10c03015 	stw	r3,192(r2)
    /*
     * Last byte is the density ID. Note the difference between
     * EPCS128 and EPCQ128 -- arranged differently, though the 
     * least significant byte of each is '0x18'.
     */
    if((flash->silicon_id & 0xFFFFFF) == 0x20BA15) /* EPCQ16 */
 200f0b4:	e0bfff17 	ldw	r2,-4(fp)
 200f0b8:	10c03017 	ldw	r3,192(r2)
 200f0bc:	00804034 	movhi	r2,256
 200f0c0:	10bfffc4 	addi	r2,r2,-1
 200f0c4:	1886703a 	and	r3,r3,r2
 200f0c8:	00800874 	movhi	r2,33
 200f0cc:	10ae8544 	addi	r2,r2,-17899
 200f0d0:	18800a1e 	bne	r3,r2,200f0fc <alt_epcs_flash_query+0x1b8>
    {
      flash->dev.region_info[0].region_size = 16 * 1024 * 1024 / 8;
 200f0d4:	e0bfff17 	ldw	r2,-4(fp)
 200f0d8:	00c00834 	movhi	r3,32
 200f0dc:	10c00e15 	stw	r3,56(r2)
      flash->dev.region_info[0].number_of_blocks = 32; /* number of sectors */
 200f0e0:	e0bfff17 	ldw	r2,-4(fp)
 200f0e4:	00c00804 	movi	r3,32
 200f0e8:	10c00f15 	stw	r3,60(r2)
      flash->dev.region_info[0].block_size = 65536;  /* sector size */
 200f0ec:	e0bfff17 	ldw	r2,-4(fp)
 200f0f0:	00c00074 	movhi	r3,1
 200f0f4:	10c01015 	stw	r3,64(r2)
 200f0f8:	00007d06 	br	200f2f0 <alt_epcs_flash_query+0x3ac>
    }
    else if((flash->silicon_id & 0xFFFFFF) == 0x20BA16) /* EPCQ32 */
 200f0fc:	e0bfff17 	ldw	r2,-4(fp)
 200f100:	10c03017 	ldw	r3,192(r2)
 200f104:	00804034 	movhi	r2,256
 200f108:	10bfffc4 	addi	r2,r2,-1
 200f10c:	1886703a 	and	r3,r3,r2
 200f110:	00800874 	movhi	r2,33
 200f114:	10ae8584 	addi	r2,r2,-17898
 200f118:	18800a1e 	bne	r3,r2,200f144 <alt_epcs_flash_query+0x200>
    {
      flash->dev.region_info[0].region_size = 32 * 1024 * 1024 / 8;
 200f11c:	e0bfff17 	ldw	r2,-4(fp)
 200f120:	00c01034 	movhi	r3,64
 200f124:	10c00e15 	stw	r3,56(r2)
      flash->dev.region_info[0].number_of_blocks = 64; /* number of sectors */
 200f128:	e0bfff17 	ldw	r2,-4(fp)
 200f12c:	00c01004 	movi	r3,64
 200f130:	10c00f15 	stw	r3,60(r2)
      flash->dev.region_info[0].block_size = 65536;  /* sector size */
 200f134:	e0bfff17 	ldw	r2,-4(fp)
 200f138:	00c00074 	movhi	r3,1
 200f13c:	10c01015 	stw	r3,64(r2)
 200f140:	00006b06 	br	200f2f0 <alt_epcs_flash_query+0x3ac>
    }
    else if((flash->silicon_id & 0xFFFFFF) == 0x20BA17) /* EPCQ64 */
 200f144:	e0bfff17 	ldw	r2,-4(fp)
 200f148:	10c03017 	ldw	r3,192(r2)
 200f14c:	00804034 	movhi	r2,256
 200f150:	10bfffc4 	addi	r2,r2,-1
 200f154:	1886703a 	and	r3,r3,r2
 200f158:	00800874 	movhi	r2,33
 200f15c:	10ae85c4 	addi	r2,r2,-17897
 200f160:	18800a1e 	bne	r3,r2,200f18c <alt_epcs_flash_query+0x248>
    {
      flash->dev.region_info[0].region_size = 64 * 1024 * 1024 / 8;
 200f164:	e0bfff17 	ldw	r2,-4(fp)
 200f168:	00c02034 	movhi	r3,128
 200f16c:	10c00e15 	stw	r3,56(r2)
      flash->dev.region_info[0].number_of_blocks = 128; /* number of sectors */
 200f170:	e0bfff17 	ldw	r2,-4(fp)
 200f174:	00c02004 	movi	r3,128
 200f178:	10c00f15 	stw	r3,60(r2)
      flash->dev.region_info[0].block_size = 65536;  /* sector size */
 200f17c:	e0bfff17 	ldw	r2,-4(fp)
 200f180:	00c00074 	movhi	r3,1
 200f184:	10c01015 	stw	r3,64(r2)
 200f188:	00005906 	br	200f2f0 <alt_epcs_flash_query+0x3ac>
    }
    else if((flash->silicon_id & 0xFFFFFF) == 0x20BA18) /* EPCQ128 */
 200f18c:	e0bfff17 	ldw	r2,-4(fp)
 200f190:	10c03017 	ldw	r3,192(r2)
 200f194:	00804034 	movhi	r2,256
 200f198:	10bfffc4 	addi	r2,r2,-1
 200f19c:	1886703a 	and	r3,r3,r2
 200f1a0:	00800874 	movhi	r2,33
 200f1a4:	10ae8604 	addi	r2,r2,-17896
 200f1a8:	18800a1e 	bne	r3,r2,200f1d4 <alt_epcs_flash_query+0x290>
    {
      flash->dev.region_info[0].region_size = 128 * 1024 * 1024 / 8;
 200f1ac:	e0bfff17 	ldw	r2,-4(fp)
 200f1b0:	00c04034 	movhi	r3,256
 200f1b4:	10c00e15 	stw	r3,56(r2)
      flash->dev.region_info[0].number_of_blocks = 256; /* number of sectors */
 200f1b8:	e0bfff17 	ldw	r2,-4(fp)
 200f1bc:	00c04004 	movi	r3,256
 200f1c0:	10c00f15 	stw	r3,60(r2)
      flash->dev.region_info[0].block_size = 65536;  /* sector size */
 200f1c4:	e0bfff17 	ldw	r2,-4(fp)
 200f1c8:	00c00074 	movhi	r3,1
 200f1cc:	10c01015 	stw	r3,64(r2)
 200f1d0:	00004706 	br	200f2f0 <alt_epcs_flash_query+0x3ac>
    }
    else if((flash->silicon_id & 0xFF) == 0x18) /* EPCS128 */
 200f1d4:	e0bfff17 	ldw	r2,-4(fp)
 200f1d8:	10803017 	ldw	r2,192(r2)
 200f1dc:	10803fcc 	andi	r2,r2,255
 200f1e0:	10800618 	cmpnei	r2,r2,24
 200f1e4:	10000a1e 	bne	r2,zero,200f210 <alt_epcs_flash_query+0x2cc>
    {
      flash->dev.region_info[0].region_size = 128 * 1024 * 1024 / 8;
 200f1e8:	e0bfff17 	ldw	r2,-4(fp)
 200f1ec:	00c04034 	movhi	r3,256
 200f1f0:	10c00e15 	stw	r3,56(r2)
      flash->dev.region_info[0].number_of_blocks = 64;
 200f1f4:	e0bfff17 	ldw	r2,-4(fp)
 200f1f8:	00c01004 	movi	r3,64
 200f1fc:	10c00f15 	stw	r3,60(r2)
      flash->dev.region_info[0].block_size = 262144;
 200f200:	e0bfff17 	ldw	r2,-4(fp)
 200f204:	00c00134 	movhi	r3,4
 200f208:	10c01015 	stw	r3,64(r2)
 200f20c:	00003806 	br	200f2f0 <alt_epcs_flash_query+0x3ac>
    }
    else if((flash->silicon_id & 0xFF ) == 0x19) /* EPCQ256 */
 200f210:	e0bfff17 	ldw	r2,-4(fp)
 200f214:	10803017 	ldw	r2,192(r2)
 200f218:	10803fcc 	andi	r2,r2,255
 200f21c:	10800658 	cmpnei	r2,r2,25
 200f220:	10000d1e 	bne	r2,zero,200f258 <alt_epcs_flash_query+0x314>
    {
      flash->dev.region_info[0].region_size = 256 * 1024 * 1024 / 8;
 200f224:	e0bfff17 	ldw	r2,-4(fp)
 200f228:	00c08034 	movhi	r3,512
 200f22c:	10c00e15 	stw	r3,56(r2)
      flash->dev.region_info[0].number_of_blocks = 512; /* number of sectors */
 200f230:	e0bfff17 	ldw	r2,-4(fp)
 200f234:	00c08004 	movi	r3,512
 200f238:	10c00f15 	stw	r3,60(r2)
      flash->dev.region_info[0].block_size = 65536;  /* sector size */
 200f23c:	e0bfff17 	ldw	r2,-4(fp)
 200f240:	00c00074 	movhi	r3,1
 200f244:	10c01015 	stw	r3,64(r2)
       * must first be programmed into the device, though. To complicate things, 
       * other Altera IP expects the chip to be in 3 byte address mode when they 
       * start using it. To be nice, we'll place the device into 4-byte address mode
       * when we need to, and take it back out when we're done.
       */
      flash->four_bytes_mode = 1;
 200f248:	e0bfff17 	ldw	r2,-4(fp)
 200f24c:	00c00044 	movi	r3,1
 200f250:	10c03215 	stw	r3,200(r2)
 200f254:	00002606 	br	200f2f0 <alt_epcs_flash_query+0x3ac>
    }
    else if((flash->silicon_id & 0xFF ) == 0x20) /* EPCQ512 */
 200f258:	e0bfff17 	ldw	r2,-4(fp)
 200f25c:	10803017 	ldw	r2,192(r2)
 200f260:	10803fcc 	andi	r2,r2,255
 200f264:	10800818 	cmpnei	r2,r2,32
 200f268:	10000d1e 	bne	r2,zero,200f2a0 <alt_epcs_flash_query+0x35c>
    {
      flash->dev.region_info[0].region_size = 512 * 1024 * 1024 / 8;
 200f26c:	e0bfff17 	ldw	r2,-4(fp)
 200f270:	00c10034 	movhi	r3,1024
 200f274:	10c00e15 	stw	r3,56(r2)
      flash->dev.region_info[0].number_of_blocks = 1024; /* number of sectors */
 200f278:	e0bfff17 	ldw	r2,-4(fp)
 200f27c:	00c10004 	movi	r3,1024
 200f280:	10c00f15 	stw	r3,60(r2)
      flash->dev.region_info[0].block_size = 65536;  /* sector size */
 200f284:	e0bfff17 	ldw	r2,-4(fp)
 200f288:	00c00074 	movhi	r3,1
 200f28c:	10c01015 	stw	r3,64(r2)

      /* Enable 4-bytes address mode if the device density is greater than 256Mbit. */
      flash->four_bytes_mode = 1;
 200f290:	e0bfff17 	ldw	r2,-4(fp)
 200f294:	00c00044 	movi	r3,1
 200f298:	10c03215 	stw	r3,200(r2)
 200f29c:	00001406 	br	200f2f0 <alt_epcs_flash_query+0x3ac>
    }
    else if((flash->silicon_id & 0xFF ) == 0x21) /* EPCQ1024 */
 200f2a0:	e0bfff17 	ldw	r2,-4(fp)
 200f2a4:	10803017 	ldw	r2,192(r2)
 200f2a8:	10803fcc 	andi	r2,r2,255
 200f2ac:	10800858 	cmpnei	r2,r2,33
 200f2b0:	10000d1e 	bne	r2,zero,200f2e8 <alt_epcs_flash_query+0x3a4>
    {
      flash->dev.region_info[0].region_size = 1024 * 1024 * 1024 / 8;
 200f2b4:	e0bfff17 	ldw	r2,-4(fp)
 200f2b8:	00c20034 	movhi	r3,2048
 200f2bc:	10c00e15 	stw	r3,56(r2)
      flash->dev.region_info[0].number_of_blocks = 2048; /* number of sectors */
 200f2c0:	e0bfff17 	ldw	r2,-4(fp)
 200f2c4:	00c20004 	movi	r3,2048
 200f2c8:	10c00f15 	stw	r3,60(r2)
      flash->dev.region_info[0].block_size = 65536;  /* sector size */
 200f2cc:	e0bfff17 	ldw	r2,-4(fp)
 200f2d0:	00c00074 	movhi	r3,1
 200f2d4:	10c01015 	stw	r3,64(r2)

      /* Enable 4-bytes address mode if the device density is greater than 256Mbit. */
      flash->four_bytes_mode = 1;
 200f2d8:	e0bfff17 	ldw	r2,-4(fp)
 200f2dc:	00c00044 	movi	r3,1
 200f2e0:	10c03215 	stw	r3,200(r2)
 200f2e4:	00000206 	br	200f2f0 <alt_epcs_flash_query+0x3ac>
    }
    else 
    {
      ret_code = -ENODEV; /* No known device found! */
 200f2e8:	00bffb44 	movi	r2,-19
 200f2ec:	e0bffe15 	stw	r2,-8(fp)
    }
  }
  
  flash->size_in_bytes = flash->dev.region_info[0].region_size;
 200f2f0:	e0bfff17 	ldw	r2,-4(fp)
 200f2f4:	10800e17 	ldw	r2,56(r2)
 200f2f8:	1007883a 	mov	r3,r2
 200f2fc:	e0bfff17 	ldw	r2,-4(fp)
 200f300:	10c02f15 	stw	r3,188(r2)
  flash->dev.number_of_regions = 1;
 200f304:	e0bfff17 	ldw	r2,-4(fp)
 200f308:	00c00044 	movi	r3,1
 200f30c:	10c00c15 	stw	r3,48(r2)
  flash->dev.region_info[0].offset = 0;
 200f310:	e0bfff17 	ldw	r2,-4(fp)
 200f314:	10000d15 	stw	zero,52(r2)
  flash->page_size = 256;
 200f318:	e0bfff17 	ldw	r2,-4(fp)
 200f31c:	00c04004 	movi	r3,256
 200f320:	10c03115 	stw	r3,196(r2)

  /* Consider clearing all BP bits here. */
  return ret_code;
 200f324:	e0bffe17 	ldw	r2,-8(fp)
}
 200f328:	e037883a 	mov	sp,fp
 200f32c:	dfc00117 	ldw	ra,4(sp)
 200f330:	df000017 	ldw	fp,0(sp)
 200f334:	dec00204 	addi	sp,sp,8
 200f338:	f800283a 	ret

0200f33c <alt_epcs_flash_memcmp>:
  alt_flash_dev* flash_info,
  const void* src_buffer,
  int offset,
  size_t n
)
{
 200f33c:	deffee04 	addi	sp,sp,-72
 200f340:	dfc01115 	stw	ra,68(sp)
 200f344:	df001015 	stw	fp,64(sp)
 200f348:	df001004 	addi	fp,sp,64
 200f34c:	e13ffc15 	stw	r4,-16(fp)
 200f350:	e17ffd15 	stw	r5,-12(fp)
 200f354:	e1bffe15 	stw	r6,-8(fp)
 200f358:	e1ffff15 	stw	r7,-4(fp)
  /*
   * Compare chunks of memory at a time, for better serial-flash
   * read efficiency.
   */
  alt_u8 chunk_buffer[32];
  const int chunk_size = sizeof(chunk_buffer) / sizeof(*chunk_buffer);
 200f35c:	00800804 	movi	r2,32
 200f360:	e0bff115 	stw	r2,-60(fp)
  int current_offset = 0;
 200f364:	e03ff015 	stw	zero,-64(fp)

  while (n > 0)
 200f368:	00002606 	br	200f404 <alt_epcs_flash_memcmp+0xc8>
  {
    int this_chunk_size = n > chunk_size ? chunk_size : n;
 200f36c:	e0bff117 	ldw	r2,-60(fp)
 200f370:	e0ffff17 	ldw	r3,-4(fp)
 200f374:	1880012e 	bgeu	r3,r2,200f37c <alt_epcs_flash_memcmp+0x40>
 200f378:	1805883a 	mov	r2,r3
 200f37c:	e0bff215 	stw	r2,-56(fp)
    int this_chunk_cmp;

    if (
      alt_epcs_flash_read(
 200f380:	e0fffe17 	ldw	r3,-8(fp)
 200f384:	e0bff017 	ldw	r2,-64(fp)
 200f388:	1887883a 	add	r3,r3,r2
 200f38c:	e0bff404 	addi	r2,fp,-48
 200f390:	e13ffc17 	ldw	r4,-16(fp)
 200f394:	180b883a 	mov	r5,r3
 200f398:	100d883a 	mov	r6,r2
 200f39c:	e1fff217 	ldw	r7,-56(fp)
 200f3a0:	200f9180 	call	200f918 <alt_epcs_flash_read>
  while (n > 0)
  {
    int this_chunk_size = n > chunk_size ? chunk_size : n;
    int this_chunk_cmp;

    if (
 200f3a4:	1000020e 	bge	r2,zero,200f3b0 <alt_epcs_flash_memcmp+0x74>
    {
      /*
      * If the read fails, I'm not sure what the appropriate action is.
      * Compare success seems wrong, so make it compare fail.
      */
      return -1;
 200f3a8:	00bfffc4 	movi	r2,-1
 200f3ac:	00001806 	br	200f410 <alt_epcs_flash_memcmp+0xd4>
    }

    /* Compare this chunk against the source memory buffer. */
    this_chunk_cmp = memcmp(&((unsigned char*)(src_buffer))[current_offset], chunk_buffer, this_chunk_size);
 200f3b0:	e0bff017 	ldw	r2,-64(fp)
 200f3b4:	e0fffd17 	ldw	r3,-12(fp)
 200f3b8:	1889883a 	add	r4,r3,r2
 200f3bc:	e0bff217 	ldw	r2,-56(fp)
 200f3c0:	e0fff404 	addi	r3,fp,-48
 200f3c4:	180b883a 	mov	r5,r3
 200f3c8:	100d883a 	mov	r6,r2
 200f3cc:	20119e80 	call	20119e8 <memcmp>
 200f3d0:	e0bff315 	stw	r2,-52(fp)
    if (this_chunk_cmp)
 200f3d4:	e0bff317 	ldw	r2,-52(fp)
 200f3d8:	10000226 	beq	r2,zero,200f3e4 <alt_epcs_flash_memcmp+0xa8>
    {
      return this_chunk_cmp;
 200f3dc:	e0bff317 	ldw	r2,-52(fp)
 200f3e0:	00000b06 	br	200f410 <alt_epcs_flash_memcmp+0xd4>
    }

    n -= this_chunk_size;
 200f3e4:	e0bff217 	ldw	r2,-56(fp)
 200f3e8:	e0ffff17 	ldw	r3,-4(fp)
 200f3ec:	1885c83a 	sub	r2,r3,r2
 200f3f0:	e0bfff15 	stw	r2,-4(fp)
    current_offset += this_chunk_size;
 200f3f4:	e0fff017 	ldw	r3,-64(fp)
 200f3f8:	e0bff217 	ldw	r2,-56(fp)
 200f3fc:	1885883a 	add	r2,r3,r2
 200f400:	e0bff015 	stw	r2,-64(fp)
   */
  alt_u8 chunk_buffer[32];
  const int chunk_size = sizeof(chunk_buffer) / sizeof(*chunk_buffer);
  int current_offset = 0;

  while (n > 0)
 200f404:	e0bfff17 	ldw	r2,-4(fp)
 200f408:	103fd81e 	bne	r2,zero,200f36c <__reset+0xfe007b6c>
  }

  /*
   * If execution made it to this point, compare is successful.
   */
  return 0;
 200f40c:	0005883a 	mov	r2,zero
}
 200f410:	e037883a 	mov	sp,fp
 200f414:	dfc00117 	ldw	ra,4(sp)
 200f418:	df000017 	ldw	fp,0(sp)
 200f41c:	dec00204 	addi	sp,sp,8
 200f420:	f800283a 	ret

0200f424 <alt_epcs_flash_write>:
 * large buffer to tie up in our programming library, when not all users will
 * want that functionality.
 */
int alt_epcs_flash_write(alt_flash_dev* flash_info, int offset,
                          const void* src_addr, int length)
{
 200f424:	defff404 	addi	sp,sp,-48
 200f428:	dfc00b15 	stw	ra,44(sp)
 200f42c:	df000a15 	stw	fp,40(sp)
 200f430:	df000a04 	addi	fp,sp,40
 200f434:	e13ffc15 	stw	r4,-16(fp)
 200f438:	e17ffd15 	stw	r5,-12(fp)
 200f43c:	e1bffe15 	stw	r6,-8(fp)
 200f440:	e1ffff15 	stw	r7,-4(fp)
  int         ret_code = 0;
 200f444:	e03ff715 	stw	zero,-36(fp)
  int         current_offset;

  /*
   * First and foremost which sectors are affected?
   */
  for(i = 0; i < flash_info->number_of_regions; i++)
 200f448:	e03ff815 	stw	zero,-32(fp)
 200f44c:	00008306 	br	200f65c <alt_epcs_flash_write+0x238>
  {
    /* Is it in this erase block region?*/
    if((offset >= flash_info->region_info[i].offset) &&
 200f450:	e0fffc17 	ldw	r3,-16(fp)
 200f454:	e0bff817 	ldw	r2,-32(fp)
 200f458:	1004913a 	slli	r2,r2,4
 200f45c:	1885883a 	add	r2,r3,r2
 200f460:	10800d04 	addi	r2,r2,52
 200f464:	10800017 	ldw	r2,0(r2)
 200f468:	e0fffd17 	ldw	r3,-12(fp)
 200f46c:	18807816 	blt	r3,r2,200f650 <alt_epcs_flash_write+0x22c>
      (offset < (flash_info->region_info[i].offset +
 200f470:	e0fffc17 	ldw	r3,-16(fp)
 200f474:	e0bff817 	ldw	r2,-32(fp)
 200f478:	1004913a 	slli	r2,r2,4
 200f47c:	1885883a 	add	r2,r3,r2
 200f480:	10800d04 	addi	r2,r2,52
 200f484:	10c00017 	ldw	r3,0(r2)
      flash_info->region_info[i].region_size)))
 200f488:	e13ffc17 	ldw	r4,-16(fp)
 200f48c:	e0bff817 	ldw	r2,-32(fp)
 200f490:	1004913a 	slli	r2,r2,4
 200f494:	2085883a 	add	r2,r4,r2
 200f498:	10800e04 	addi	r2,r2,56
 200f49c:	10800017 	ldw	r2,0(r2)
   */
  for(i = 0; i < flash_info->number_of_regions; i++)
  {
    /* Is it in this erase block region?*/
    if((offset >= flash_info->region_info[i].offset) &&
      (offset < (flash_info->region_info[i].offset +
 200f4a0:	1885883a 	add	r2,r3,r2
   * First and foremost which sectors are affected?
   */
  for(i = 0; i < flash_info->number_of_regions; i++)
  {
    /* Is it in this erase block region?*/
    if((offset >= flash_info->region_info[i].offset) &&
 200f4a4:	e0fffd17 	ldw	r3,-12(fp)
 200f4a8:	1880690e 	bge	r3,r2,200f650 <alt_epcs_flash_write+0x22c>
      (offset < (flash_info->region_info[i].offset +
      flash_info->region_info[i].region_size)))
    {
      current_offset = flash_info->region_info[i].offset;
 200f4ac:	e0fffc17 	ldw	r3,-16(fp)
 200f4b0:	e0bff817 	ldw	r2,-32(fp)
 200f4b4:	1004913a 	slli	r2,r2,4
 200f4b8:	1885883a 	add	r2,r3,r2
 200f4bc:	10800d04 	addi	r2,r2,52
 200f4c0:	10800017 	ldw	r2,0(r2)
 200f4c4:	e0bffa15 	stw	r2,-24(fp)

      for(j=0;j<flash_info->region_info[i].number_of_blocks;j++)
 200f4c8:	e03ff915 	stw	zero,-28(fp)
 200f4cc:	00005806 	br	200f630 <alt_epcs_flash_write+0x20c>
      {
        if ((offset >= current_offset ) &&
 200f4d0:	e0fffd17 	ldw	r3,-12(fp)
 200f4d4:	e0bffa17 	ldw	r2,-24(fp)
 200f4d8:	18804916 	blt	r3,r2,200f600 <alt_epcs_flash_write+0x1dc>
            (offset < (current_offset +
            flash_info->region_info[i].block_size)))
 200f4dc:	e0fffc17 	ldw	r3,-16(fp)
 200f4e0:	e0bff817 	ldw	r2,-32(fp)
 200f4e4:	10800104 	addi	r2,r2,4
 200f4e8:	1004913a 	slli	r2,r2,4
 200f4ec:	1885883a 	add	r2,r3,r2
 200f4f0:	10c00017 	ldw	r3,0(r2)
      current_offset = flash_info->region_info[i].offset;

      for(j=0;j<flash_info->region_info[i].number_of_blocks;j++)
      {
        if ((offset >= current_offset ) &&
            (offset < (current_offset +
 200f4f4:	e0bffa17 	ldw	r2,-24(fp)
 200f4f8:	1885883a 	add	r2,r3,r2
    {
      current_offset = flash_info->region_info[i].offset;

      for(j=0;j<flash_info->region_info[i].number_of_blocks;j++)
      {
        if ((offset >= current_offset ) &&
 200f4fc:	e0fffd17 	ldw	r3,-12(fp)
 200f500:	18803f0e 	bge	r3,r2,200f600 <alt_epcs_flash_write+0x1dc>
        {
          /*
           * Check if the contents of the block are different
           * from the data we wish to put there
           */
          data_to_write = ( current_offset + flash_info->region_info[i].block_size
 200f504:	e0fffc17 	ldw	r3,-16(fp)
 200f508:	e0bff817 	ldw	r2,-32(fp)
 200f50c:	10800104 	addi	r2,r2,4
 200f510:	1004913a 	slli	r2,r2,4
 200f514:	1885883a 	add	r2,r3,r2
 200f518:	10c00017 	ldw	r3,0(r2)
 200f51c:	e0bffa17 	ldw	r2,-24(fp)
 200f520:	1887883a 	add	r3,r3,r2
 200f524:	e0bffd17 	ldw	r2,-12(fp)
 200f528:	1885c83a 	sub	r2,r3,r2
 200f52c:	e0bffb15 	stw	r2,-20(fp)
                            - offset);
          data_to_write = MIN(data_to_write, length);
 200f530:	e0fffb17 	ldw	r3,-20(fp)
 200f534:	e0bfff17 	ldw	r2,-4(fp)
 200f538:	1880010e 	bge	r3,r2,200f540 <alt_epcs_flash_write+0x11c>
 200f53c:	1805883a 	mov	r2,r3
 200f540:	e0bffb15 	stw	r2,-20(fp)

          if(alt_epcs_flash_memcmp(flash_info, src_addr, offset, data_to_write))
 200f544:	e0bffb17 	ldw	r2,-20(fp)
 200f548:	e13ffc17 	ldw	r4,-16(fp)
 200f54c:	e17ffe17 	ldw	r5,-8(fp)
 200f550:	e1bffd17 	ldw	r6,-12(fp)
 200f554:	100f883a 	mov	r7,r2
 200f558:	200f33c0 	call	200f33c <alt_epcs_flash_memcmp>
 200f55c:	10001226 	beq	r2,zero,200f5a8 <alt_epcs_flash_write+0x184>
          {
            ret_code = (*flash_info->erase_block)(flash_info, current_offset);
 200f560:	e0bffc17 	ldw	r2,-16(fp)
 200f564:	10800817 	ldw	r2,32(r2)
 200f568:	e13ffc17 	ldw	r4,-16(fp)
 200f56c:	e17ffa17 	ldw	r5,-24(fp)
 200f570:	103ee83a 	callr	r2
 200f574:	e0bff715 	stw	r2,-36(fp)

            if (!ret_code)
 200f578:	e0bff717 	ldw	r2,-36(fp)
 200f57c:	10000a1e 	bne	r2,zero,200f5a8 <alt_epcs_flash_write+0x184>
            {
              ret_code = (*flash_info->write_block)(
 200f580:	e0bffc17 	ldw	r2,-16(fp)
 200f584:	10800917 	ldw	r2,36(r2)
 200f588:	e0fffb17 	ldw	r3,-20(fp)
 200f58c:	d8c00015 	stw	r3,0(sp)
 200f590:	e13ffc17 	ldw	r4,-16(fp)
 200f594:	e17ffa17 	ldw	r5,-24(fp)
 200f598:	e1bffd17 	ldw	r6,-12(fp)
 200f59c:	e1fffe17 	ldw	r7,-8(fp)
 200f5a0:	103ee83a 	callr	r2
 200f5a4:	e0bff715 	stw	r2,-36(fp)
                                                  data_to_write);
            }
          }

          /* Was this the last block? */
          if ((length == data_to_write) || ret_code)
 200f5a8:	e0ffff17 	ldw	r3,-4(fp)
 200f5ac:	e0bffb17 	ldw	r2,-20(fp)
 200f5b0:	18802e26 	beq	r3,r2,200f66c <alt_epcs_flash_write+0x248>
 200f5b4:	e0bff717 	ldw	r2,-36(fp)
 200f5b8:	10002c1e 	bne	r2,zero,200f66c <alt_epcs_flash_write+0x248>
          {
            goto finished;
          }

          length -= data_to_write;
 200f5bc:	e0ffff17 	ldw	r3,-4(fp)
 200f5c0:	e0bffb17 	ldw	r2,-20(fp)
 200f5c4:	1885c83a 	sub	r2,r3,r2
 200f5c8:	e0bfff15 	stw	r2,-4(fp)
          offset = current_offset + flash_info->region_info[i].block_size;
 200f5cc:	e0fffc17 	ldw	r3,-16(fp)
 200f5d0:	e0bff817 	ldw	r2,-32(fp)
 200f5d4:	10800104 	addi	r2,r2,4
 200f5d8:	1004913a 	slli	r2,r2,4
 200f5dc:	1885883a 	add	r2,r3,r2
 200f5e0:	10c00017 	ldw	r3,0(r2)
 200f5e4:	e0bffa17 	ldw	r2,-24(fp)
 200f5e8:	1885883a 	add	r2,r3,r2
 200f5ec:	e0bffd15 	stw	r2,-12(fp)
          src_addr = (alt_u8*)src_addr + data_to_write;
 200f5f0:	e0bffb17 	ldw	r2,-20(fp)
 200f5f4:	e0fffe17 	ldw	r3,-8(fp)
 200f5f8:	1885883a 	add	r2,r3,r2
 200f5fc:	e0bffe15 	stw	r2,-8(fp)
        }
        current_offset += flash_info->region_info[i].block_size;
 200f600:	e0fffc17 	ldw	r3,-16(fp)
 200f604:	e0bff817 	ldw	r2,-32(fp)
 200f608:	10800104 	addi	r2,r2,4
 200f60c:	1004913a 	slli	r2,r2,4
 200f610:	1885883a 	add	r2,r3,r2
 200f614:	10800017 	ldw	r2,0(r2)
 200f618:	e0fffa17 	ldw	r3,-24(fp)
 200f61c:	1885883a 	add	r2,r3,r2
 200f620:	e0bffa15 	stw	r2,-24(fp)
      (offset < (flash_info->region_info[i].offset +
      flash_info->region_info[i].region_size)))
    {
      current_offset = flash_info->region_info[i].offset;

      for(j=0;j<flash_info->region_info[i].number_of_blocks;j++)
 200f624:	e0bff917 	ldw	r2,-28(fp)
 200f628:	10800044 	addi	r2,r2,1
 200f62c:	e0bff915 	stw	r2,-28(fp)
 200f630:	e0fffc17 	ldw	r3,-16(fp)
 200f634:	e0bff817 	ldw	r2,-32(fp)
 200f638:	1004913a 	slli	r2,r2,4
 200f63c:	1885883a 	add	r2,r3,r2
 200f640:	10800f04 	addi	r2,r2,60
 200f644:	10800017 	ldw	r2,0(r2)
 200f648:	e0fff917 	ldw	r3,-28(fp)
 200f64c:	18bfa016 	blt	r3,r2,200f4d0 <__reset+0xfe007cd0>
  int         current_offset;

  /*
   * First and foremost which sectors are affected?
   */
  for(i = 0; i < flash_info->number_of_regions; i++)
 200f650:	e0bff817 	ldw	r2,-32(fp)
 200f654:	10800044 	addi	r2,r2,1
 200f658:	e0bff815 	stw	r2,-32(fp)
 200f65c:	e0bffc17 	ldw	r2,-16(fp)
 200f660:	10800c17 	ldw	r2,48(r2)
 200f664:	e0fff817 	ldw	r3,-32(fp)
 200f668:	18bf7916 	blt	r3,r2,200f450 <__reset+0xfe007c50>
      }
    }
  }

finished:
  return ret_code;
 200f66c:	e0bff717 	ldw	r2,-36(fp)
}
 200f670:	e037883a 	mov	sp,fp
 200f674:	dfc00117 	ldw	ra,4(sp)
 200f678:	df000017 	ldw	fp,0(sp)
 200f67c:	dec00204 	addi	sp,sp,8
 200f680:	f800283a 	ret

0200f684 <alt_epcs_flash_get_info>:
 *
 *  Pass the table of erase blocks to the user
 */
int alt_epcs_flash_get_info(alt_flash_fd* fd, flash_region** info,
                            int* number_of_regions)
{
 200f684:	defffa04 	addi	sp,sp,-24
 200f688:	df000515 	stw	fp,20(sp)
 200f68c:	df000504 	addi	fp,sp,20
 200f690:	e13ffd15 	stw	r4,-12(fp)
 200f694:	e17ffe15 	stw	r5,-8(fp)
 200f698:	e1bfff15 	stw	r6,-4(fp)
  int ret_code = 0;
 200f69c:	e03ffb15 	stw	zero,-20(fp)

  alt_flash_dev* flash = (alt_flash_dev*)fd;
 200f6a0:	e0bffd17 	ldw	r2,-12(fp)
 200f6a4:	e0bffc15 	stw	r2,-16(fp)

  *number_of_regions = flash->number_of_regions;
 200f6a8:	e0bffc17 	ldw	r2,-16(fp)
 200f6ac:	10c00c17 	ldw	r3,48(r2)
 200f6b0:	e0bfff17 	ldw	r2,-4(fp)
 200f6b4:	10c00015 	stw	r3,0(r2)

  if (!flash->number_of_regions)
 200f6b8:	e0bffc17 	ldw	r2,-16(fp)
 200f6bc:	10800c17 	ldw	r2,48(r2)
 200f6c0:	1000031e 	bne	r2,zero,200f6d0 <alt_epcs_flash_get_info+0x4c>
  {
    ret_code = -EIO;
 200f6c4:	00bffec4 	movi	r2,-5
 200f6c8:	e0bffb15 	stw	r2,-20(fp)
 200f6cc:	00000b06 	br	200f6fc <alt_epcs_flash_get_info+0x78>
  }
  else if (flash->number_of_regions > ALT_MAX_NUMBER_OF_FLASH_REGIONS)
 200f6d0:	e0bffc17 	ldw	r2,-16(fp)
 200f6d4:	10800c17 	ldw	r2,48(r2)
 200f6d8:	10800250 	cmplti	r2,r2,9
 200f6dc:	1000031e 	bne	r2,zero,200f6ec <alt_epcs_flash_get_info+0x68>
  {
    ret_code = -ENOMEM;
 200f6e0:	00bffd04 	movi	r2,-12
 200f6e4:	e0bffb15 	stw	r2,-20(fp)
 200f6e8:	00000406 	br	200f6fc <alt_epcs_flash_get_info+0x78>
  }
  else
  {
    *info = &flash->region_info[0];
 200f6ec:	e0bffc17 	ldw	r2,-16(fp)
 200f6f0:	10c00d04 	addi	r3,r2,52
 200f6f4:	e0bffe17 	ldw	r2,-8(fp)
 200f6f8:	10c00015 	stw	r3,0(r2)
  }

  return ret_code;
 200f6fc:	e0bffb17 	ldw	r2,-20(fp)
}
 200f700:	e037883a 	mov	sp,fp
 200f704:	df000017 	ldw	fp,0(sp)
 200f708:	dec00104 	addi	sp,sp,4
 200f70c:	f800283a 	ret

0200f710 <alt_epcs_test_address>:


/* This might be a candidate for optimization.  Precompute the last-address? */
static ALT_INLINE int alt_epcs_test_address(alt_flash_dev* flash_info, int offset)
{
 200f710:	defff904 	addi	sp,sp,-28
 200f714:	df000615 	stw	fp,24(sp)
 200f718:	df000604 	addi	fp,sp,24
 200f71c:	e13ffe15 	stw	r4,-8(fp)
 200f720:	e17fff15 	stw	r5,-4(fp)
  int ret_code = 0;
 200f724:	e03ffa15 	stw	zero,-24(fp)
  /* Error checking:
   * if the block offset is outside of the memory, return -EIO.
   */
  alt_flash_epcs_dev *f = (alt_flash_epcs_dev*)flash_info;
 200f728:	e0bffe17 	ldw	r2,-8(fp)
 200f72c:	e0bffb15 	stw	r2,-20(fp)

  const alt_u32 last_region_index = f->dev.number_of_regions - 1;
 200f730:	e0bffb17 	ldw	r2,-20(fp)
 200f734:	10800c17 	ldw	r2,48(r2)
 200f738:	10bfffc4 	addi	r2,r2,-1
 200f73c:	e0bffc15 	stw	r2,-16(fp)
  alt_u32 last_device_address =
    -1 +
    f->dev.region_info[last_region_index].offset +
 200f740:	e0fffb17 	ldw	r3,-20(fp)
 200f744:	e0bffc17 	ldw	r2,-16(fp)
 200f748:	1004913a 	slli	r2,r2,4
 200f74c:	1885883a 	add	r2,r3,r2
 200f750:	10800d04 	addi	r2,r2,52
 200f754:	10800017 	ldw	r2,0(r2)
   */
  alt_flash_epcs_dev *f = (alt_flash_epcs_dev*)flash_info;

  const alt_u32 last_region_index = f->dev.number_of_regions - 1;
  alt_u32 last_device_address =
    -1 +
 200f758:	10ffffc4 	addi	r3,r2,-1
    f->dev.region_info[last_region_index].offset +
    f->dev.region_info[last_region_index].region_size;
 200f75c:	e13ffb17 	ldw	r4,-20(fp)
 200f760:	e0bffc17 	ldw	r2,-16(fp)
 200f764:	1004913a 	slli	r2,r2,4
 200f768:	2085883a 	add	r2,r4,r2
 200f76c:	10800e04 	addi	r2,r2,56
 200f770:	10800017 	ldw	r2,0(r2)
  alt_flash_epcs_dev *f = (alt_flash_epcs_dev*)flash_info;

  const alt_u32 last_region_index = f->dev.number_of_regions - 1;
  alt_u32 last_device_address =
    -1 +
    f->dev.region_info[last_region_index].offset +
 200f774:	1885883a 	add	r2,r3,r2
   * if the block offset is outside of the memory, return -EIO.
   */
  alt_flash_epcs_dev *f = (alt_flash_epcs_dev*)flash_info;

  const alt_u32 last_region_index = f->dev.number_of_regions - 1;
  alt_u32 last_device_address =
 200f778:	e0bffd15 	stw	r2,-12(fp)
    -1 +
    f->dev.region_info[last_region_index].offset +
    f->dev.region_info[last_region_index].region_size;

  if (offset > last_device_address)
 200f77c:	e0bfff17 	ldw	r2,-4(fp)
 200f780:	e0fffd17 	ldw	r3,-12(fp)
 200f784:	1880022e 	bgeu	r3,r2,200f790 <alt_epcs_test_address+0x80>
  {
    /* Someone tried to erase a block outside of this device's range. */
    ret_code = -EIO;
 200f788:	00bffec4 	movi	r2,-5
 200f78c:	e0bffa15 	stw	r2,-24(fp)
  }
  return ret_code;
 200f790:	e0bffa17 	ldw	r2,-24(fp)
}
 200f794:	e037883a 	mov	sp,fp
 200f798:	df000017 	ldw	fp,0(sp)
 200f79c:	dec00104 	addi	sp,sp,4
 200f7a0:	f800283a 	ret

0200f7a4 <alt_epcs_flash_erase_block>:
 *
 * Erase the selected erase block ("sector erase", from the POV
 * of the EPCS data sheet).
 */
int alt_epcs_flash_erase_block(alt_flash_dev* flash_info, int block_offset)
{
 200f7a4:	defffa04 	addi	sp,sp,-24
 200f7a8:	dfc00515 	stw	ra,20(sp)
 200f7ac:	df000415 	stw	fp,16(sp)
 200f7b0:	df000404 	addi	fp,sp,16
 200f7b4:	e13ffe15 	stw	r4,-8(fp)
 200f7b8:	e17fff15 	stw	r5,-4(fp)
  int ret_code = 0;
 200f7bc:	e03ffc15 	stw	zero,-16(fp)
  alt_flash_epcs_dev *f = (alt_flash_epcs_dev*)flash_info;
 200f7c0:	e0bffe17 	ldw	r2,-8(fp)
 200f7c4:	e0bffd15 	stw	r2,-12(fp)

  ret_code = alt_epcs_test_address(flash_info, block_offset);
 200f7c8:	e13ffe17 	ldw	r4,-8(fp)
 200f7cc:	e17fff17 	ldw	r5,-4(fp)
 200f7d0:	200f7100 	call	200f710 <alt_epcs_test_address>
 200f7d4:	e0bffc15 	stw	r2,-16(fp)

  if (ret_code >= 0)
 200f7d8:	e0bffc17 	ldw	r2,-16(fp)
 200f7dc:	10000816 	blt	r2,zero,200f800 <alt_epcs_flash_erase_block+0x5c>
  {
    /* Send the Sector Erase command, whose 3 address bytes are anywhere
     * within the chosen sector.
     */
    epcs_sector_erase(f->register_base, block_offset, f->four_bytes_mode);
 200f7e0:	e0bffd17 	ldw	r2,-12(fp)
 200f7e4:	11002e17 	ldw	r4,184(r2)
 200f7e8:	e0ffff17 	ldw	r3,-4(fp)
 200f7ec:	e0bffd17 	ldw	r2,-12(fp)
 200f7f0:	10803217 	ldw	r2,200(r2)
 200f7f4:	180b883a 	mov	r5,r3
 200f7f8:	100d883a 	mov	r6,r2
 200f7fc:	20107c80 	call	20107c8 <epcs_sector_erase>
  }
  return ret_code;
 200f800:	e0bffc17 	ldw	r2,-16(fp)
}
 200f804:	e037883a 	mov	sp,fp
 200f808:	dfc00117 	ldw	ra,4(sp)
 200f80c:	df000017 	ldw	fp,0(sp)
 200f810:	dec00204 	addi	sp,sp,8
 200f814:	f800283a 	ret

0200f818 <alt_epcs_flash_write_block>:
 * function type compatibility.
 */
int alt_epcs_flash_write_block(alt_flash_dev* flash_info, int block_offset,
                                      int data_offset, const void* data,
                                      int length)
{
 200f818:	defff404 	addi	sp,sp,-48
 200f81c:	dfc00b15 	stw	ra,44(sp)
 200f820:	df000a15 	stw	fp,40(sp)
 200f824:	df000a04 	addi	fp,sp,40
 200f828:	e13ffc15 	stw	r4,-16(fp)
 200f82c:	e17ffd15 	stw	r5,-12(fp)
 200f830:	e1bffe15 	stw	r6,-8(fp)
 200f834:	e1ffff15 	stw	r7,-4(fp)
  int ret_code;
  alt_flash_epcs_dev *f = (alt_flash_epcs_dev*)flash_info;
 200f838:	e0bffc17 	ldw	r2,-16(fp)
 200f83c:	e0bff815 	stw	r2,-32(fp)

  int buffer_offset = 0;
 200f840:	e03ff715 	stw	zero,-36(fp)
  int length_of_current_write;
  ret_code = alt_epcs_test_address(flash_info, data_offset);
 200f844:	e13ffc17 	ldw	r4,-16(fp)
 200f848:	e17ffe17 	ldw	r5,-8(fp)
 200f84c:	200f7100 	call	200f710 <alt_epcs_test_address>
 200f850:	e0bff915 	stw	r2,-28(fp)

  if (ret_code >= 0)
 200f854:	e0bff917 	ldw	r2,-28(fp)
 200f858:	10002916 	blt	r2,zero,200f900 <alt_epcs_flash_write_block+0xe8>
  {

    /* "Block" writes must be broken up into the page writes that
     * the device understands.  Partial page writes are allowed.
     */
    while (length)
 200f85c:	00002606 	br	200f8f8 <alt_epcs_flash_write_block+0xe0>
    {
      int next_page_start = (data_offset + f->page_size) & ~(f->page_size - 1);
 200f860:	e0bff817 	ldw	r2,-32(fp)
 200f864:	10c03117 	ldw	r3,196(r2)
 200f868:	e0bffe17 	ldw	r2,-8(fp)
 200f86c:	1887883a 	add	r3,r3,r2
 200f870:	e0bff817 	ldw	r2,-32(fp)
 200f874:	10803117 	ldw	r2,196(r2)
 200f878:	0085c83a 	sub	r2,zero,r2
 200f87c:	1884703a 	and	r2,r3,r2
 200f880:	e0bffa15 	stw	r2,-24(fp)
      length_of_current_write = MIN(length, next_page_start - data_offset);
 200f884:	e0fffa17 	ldw	r3,-24(fp)
 200f888:	e0bffe17 	ldw	r2,-8(fp)
 200f88c:	1885c83a 	sub	r2,r3,r2
 200f890:	e0c00217 	ldw	r3,8(fp)
 200f894:	1880010e 	bge	r3,r2,200f89c <alt_epcs_flash_write_block+0x84>
 200f898:	1805883a 	mov	r2,r3
 200f89c:	e0bffb15 	stw	r2,-20(fp)

      epcs_write_buffer(f->register_base, data_offset, &((const alt_u8*)data)[buffer_offset], length_of_current_write,
 200f8a0:	e0bff817 	ldw	r2,-32(fp)
 200f8a4:	11002e17 	ldw	r4,184(r2)
 200f8a8:	e0bff717 	ldw	r2,-36(fp)
 200f8ac:	e0ffff17 	ldw	r3,-4(fp)
 200f8b0:	1887883a 	add	r3,r3,r2
 200f8b4:	e0bff817 	ldw	r2,-32(fp)
 200f8b8:	10803217 	ldw	r2,200(r2)
 200f8bc:	d8800015 	stw	r2,0(sp)
 200f8c0:	e17ffe17 	ldw	r5,-8(fp)
 200f8c4:	180d883a 	mov	r6,r3
 200f8c8:	e1fffb17 	ldw	r7,-20(fp)
 200f8cc:	2010a6c0 	call	2010a6c <epcs_write_buffer>
          f->four_bytes_mode);

      length -= length_of_current_write;
 200f8d0:	e0c00217 	ldw	r3,8(fp)
 200f8d4:	e0bffb17 	ldw	r2,-20(fp)
 200f8d8:	1885c83a 	sub	r2,r3,r2
 200f8dc:	e0800215 	stw	r2,8(fp)
      buffer_offset += length_of_current_write;
 200f8e0:	e0fff717 	ldw	r3,-36(fp)
 200f8e4:	e0bffb17 	ldw	r2,-20(fp)
 200f8e8:	1885883a 	add	r2,r3,r2
 200f8ec:	e0bff715 	stw	r2,-36(fp)
      data_offset = next_page_start;
 200f8f0:	e0bffa17 	ldw	r2,-24(fp)
 200f8f4:	e0bffe15 	stw	r2,-8(fp)
  {

    /* "Block" writes must be broken up into the page writes that
     * the device understands.  Partial page writes are allowed.
     */
    while (length)
 200f8f8:	e0800217 	ldw	r2,8(fp)
 200f8fc:	103fd81e 	bne	r2,zero,200f860 <__reset+0xfe008060>
      length -= length_of_current_write;
      buffer_offset += length_of_current_write;
      data_offset = next_page_start;
    }
  }
  return ret_code;
 200f900:	e0bff917 	ldw	r2,-28(fp)
}
 200f904:	e037883a 	mov	sp,fp
 200f908:	dfc00117 	ldw	ra,4(sp)
 200f90c:	df000017 	ldw	fp,0(sp)
 200f910:	dec00204 	addi	sp,sp,8
 200f914:	f800283a 	ret

0200f918 <alt_epcs_flash_read>:
 *  to the beginning.  Reads that start beyond the end of the memory are
 *  flagged as errors with EIO (is there a better error code?).
 */
int alt_epcs_flash_read(alt_flash_dev* flash_info, int offset,
                        void* dest_addr, int length)
{
 200f918:	defff704 	addi	sp,sp,-36
 200f91c:	dfc00815 	stw	ra,32(sp)
 200f920:	df000715 	stw	fp,28(sp)
 200f924:	df000704 	addi	fp,sp,28
 200f928:	e13ffc15 	stw	r4,-16(fp)
 200f92c:	e17ffd15 	stw	r5,-12(fp)
 200f930:	e1bffe15 	stw	r6,-8(fp)
 200f934:	e1ffff15 	stw	r7,-4(fp)
  int ret_code = 0;
 200f938:	e03ffa15 	stw	zero,-24(fp)

  alt_flash_epcs_dev *f = (alt_flash_epcs_dev*)flash_info;
 200f93c:	e0bffc17 	ldw	r2,-16(fp)
 200f940:	e0bffb15 	stw	r2,-20(fp)

  ret_code = alt_epcs_test_address(flash_info, offset);
 200f944:	e13ffc17 	ldw	r4,-16(fp)
 200f948:	e17ffd17 	ldw	r5,-12(fp)
 200f94c:	200f7100 	call	200f710 <alt_epcs_test_address>
 200f950:	e0bffa15 	stw	r2,-24(fp)

  if (ret_code >= 0)
 200f954:	e0bffa17 	ldw	r2,-24(fp)
 200f958:	10000f16 	blt	r2,zero,200f998 <alt_epcs_flash_read+0x80>
  {
    ret_code = epcs_read_buffer(f->register_base, offset, dest_addr, length,
 200f95c:	e0bffb17 	ldw	r2,-20(fp)
 200f960:	10c02e17 	ldw	r3,184(r2)
 200f964:	e0bffb17 	ldw	r2,-20(fp)
 200f968:	10803217 	ldw	r2,200(r2)
 200f96c:	d8800015 	stw	r2,0(sp)
 200f970:	1809883a 	mov	r4,r3
 200f974:	e17ffd17 	ldw	r5,-12(fp)
 200f978:	e1bffe17 	ldw	r6,-8(fp)
 200f97c:	e1ffff17 	ldw	r7,-4(fp)
 200f980:	20108c00 	call	20108c0 <epcs_read_buffer>
 200f984:	e0bffa15 	stw	r2,-24(fp)
                                f->four_bytes_mode);

    /* epcs_read_buffer returns the number of buffers read, but
     * alt_epcs_flash_read returns 0 on success, <0 on failure.
     */
    if (ret_code == length)
 200f988:	e0fffa17 	ldw	r3,-24(fp)
 200f98c:	e0bfff17 	ldw	r2,-4(fp)
 200f990:	1880011e 	bne	r3,r2,200f998 <alt_epcs_flash_read+0x80>
    {
      ret_code = 0;
 200f994:	e03ffa15 	stw	zero,-24(fp)
    }
  }
  return ret_code;
 200f998:	e0bffa17 	ldw	r2,-24(fp)
}
 200f99c:	e037883a 	mov	sp,fp
 200f9a0:	dfc00117 	ldw	ra,4(sp)
 200f9a4:	df000017 	ldw	fp,0(sp)
 200f9a8:	dec00204 	addi	sp,sp,8
 200f9ac:	f800283a 	ret

0200f9b0 <altera_avalon_jtag_uart_read_fd>:
 *
 */

int 
altera_avalon_jtag_uart_read_fd(alt_fd* fd, char* buffer, int space)
{
 200f9b0:	defffa04 	addi	sp,sp,-24
 200f9b4:	dfc00515 	stw	ra,20(sp)
 200f9b8:	df000415 	stw	fp,16(sp)
 200f9bc:	df000404 	addi	fp,sp,16
 200f9c0:	e13ffd15 	stw	r4,-12(fp)
 200f9c4:	e17ffe15 	stw	r5,-8(fp)
 200f9c8:	e1bfff15 	stw	r6,-4(fp)
    altera_avalon_jtag_uart_dev* dev = (altera_avalon_jtag_uart_dev*) fd->dev; 
 200f9cc:	e0bffd17 	ldw	r2,-12(fp)
 200f9d0:	10800017 	ldw	r2,0(r2)
 200f9d4:	e0bffc15 	stw	r2,-16(fp)

    return altera_avalon_jtag_uart_read(&dev->state, buffer, space,
 200f9d8:	e0bffc17 	ldw	r2,-16(fp)
 200f9dc:	10c00a04 	addi	r3,r2,40
 200f9e0:	e0bffd17 	ldw	r2,-12(fp)
 200f9e4:	10800217 	ldw	r2,8(r2)
 200f9e8:	1809883a 	mov	r4,r3
 200f9ec:	e17ffe17 	ldw	r5,-8(fp)
 200f9f0:	e1bfff17 	ldw	r6,-4(fp)
 200f9f4:	100f883a 	mov	r7,r2
 200f9f8:	200ffd80 	call	200ffd8 <altera_avalon_jtag_uart_read>
      fd->fd_flags);
}
 200f9fc:	e037883a 	mov	sp,fp
 200fa00:	dfc00117 	ldw	ra,4(sp)
 200fa04:	df000017 	ldw	fp,0(sp)
 200fa08:	dec00204 	addi	sp,sp,8
 200fa0c:	f800283a 	ret

0200fa10 <altera_avalon_jtag_uart_write_fd>:

int 
altera_avalon_jtag_uart_write_fd(alt_fd* fd, const char* buffer, int space)
{
 200fa10:	defffa04 	addi	sp,sp,-24
 200fa14:	dfc00515 	stw	ra,20(sp)
 200fa18:	df000415 	stw	fp,16(sp)
 200fa1c:	df000404 	addi	fp,sp,16
 200fa20:	e13ffd15 	stw	r4,-12(fp)
 200fa24:	e17ffe15 	stw	r5,-8(fp)
 200fa28:	e1bfff15 	stw	r6,-4(fp)
    altera_avalon_jtag_uart_dev* dev = (altera_avalon_jtag_uart_dev*) fd->dev; 
 200fa2c:	e0bffd17 	ldw	r2,-12(fp)
 200fa30:	10800017 	ldw	r2,0(r2)
 200fa34:	e0bffc15 	stw	r2,-16(fp)

    return altera_avalon_jtag_uart_write(&dev->state, buffer, space,
 200fa38:	e0bffc17 	ldw	r2,-16(fp)
 200fa3c:	10c00a04 	addi	r3,r2,40
 200fa40:	e0bffd17 	ldw	r2,-12(fp)
 200fa44:	10800217 	ldw	r2,8(r2)
 200fa48:	1809883a 	mov	r4,r3
 200fa4c:	e17ffe17 	ldw	r5,-8(fp)
 200fa50:	e1bfff17 	ldw	r6,-4(fp)
 200fa54:	100f883a 	mov	r7,r2
 200fa58:	20101e40 	call	20101e4 <altera_avalon_jtag_uart_write>
      fd->fd_flags);
}
 200fa5c:	e037883a 	mov	sp,fp
 200fa60:	dfc00117 	ldw	ra,4(sp)
 200fa64:	df000017 	ldw	fp,0(sp)
 200fa68:	dec00204 	addi	sp,sp,8
 200fa6c:	f800283a 	ret

0200fa70 <altera_avalon_jtag_uart_close_fd>:

#ifndef ALTERA_AVALON_JTAG_UART_SMALL

int 
altera_avalon_jtag_uart_close_fd(alt_fd* fd)
{
 200fa70:	defffc04 	addi	sp,sp,-16
 200fa74:	dfc00315 	stw	ra,12(sp)
 200fa78:	df000215 	stw	fp,8(sp)
 200fa7c:	df000204 	addi	fp,sp,8
 200fa80:	e13fff15 	stw	r4,-4(fp)
    altera_avalon_jtag_uart_dev* dev = (altera_avalon_jtag_uart_dev*) fd->dev; 
 200fa84:	e0bfff17 	ldw	r2,-4(fp)
 200fa88:	10800017 	ldw	r2,0(r2)
 200fa8c:	e0bffe15 	stw	r2,-8(fp)

    return altera_avalon_jtag_uart_close(&dev->state, fd->fd_flags);
 200fa90:	e0bffe17 	ldw	r2,-8(fp)
 200fa94:	10c00a04 	addi	r3,r2,40
 200fa98:	e0bfff17 	ldw	r2,-4(fp)
 200fa9c:	10800217 	ldw	r2,8(r2)
 200faa0:	1809883a 	mov	r4,r3
 200faa4:	100b883a 	mov	r5,r2
 200faa8:	200fe840 	call	200fe84 <altera_avalon_jtag_uart_close>
}
 200faac:	e037883a 	mov	sp,fp
 200fab0:	dfc00117 	ldw	ra,4(sp)
 200fab4:	df000017 	ldw	fp,0(sp)
 200fab8:	dec00204 	addi	sp,sp,8
 200fabc:	f800283a 	ret

0200fac0 <altera_avalon_jtag_uart_ioctl_fd>:

int 
altera_avalon_jtag_uart_ioctl_fd(alt_fd* fd, int req, void* arg)
{
 200fac0:	defffa04 	addi	sp,sp,-24
 200fac4:	dfc00515 	stw	ra,20(sp)
 200fac8:	df000415 	stw	fp,16(sp)
 200facc:	df000404 	addi	fp,sp,16
 200fad0:	e13ffd15 	stw	r4,-12(fp)
 200fad4:	e17ffe15 	stw	r5,-8(fp)
 200fad8:	e1bfff15 	stw	r6,-4(fp)
    altera_avalon_jtag_uart_dev* dev = (altera_avalon_jtag_uart_dev*) fd->dev;
 200fadc:	e0bffd17 	ldw	r2,-12(fp)
 200fae0:	10800017 	ldw	r2,0(r2)
 200fae4:	e0bffc15 	stw	r2,-16(fp)

    return altera_avalon_jtag_uart_ioctl(&dev->state, req, arg);
 200fae8:	e0bffc17 	ldw	r2,-16(fp)
 200faec:	10800a04 	addi	r2,r2,40
 200faf0:	1009883a 	mov	r4,r2
 200faf4:	e17ffe17 	ldw	r5,-8(fp)
 200faf8:	e1bfff17 	ldw	r6,-4(fp)
 200fafc:	200feec0 	call	200feec <altera_avalon_jtag_uart_ioctl>
}
 200fb00:	e037883a 	mov	sp,fp
 200fb04:	dfc00117 	ldw	ra,4(sp)
 200fb08:	df000017 	ldw	fp,0(sp)
 200fb0c:	dec00204 	addi	sp,sp,8
 200fb10:	f800283a 	ret

0200fb14 <altera_avalon_jtag_uart_init>:
 * Return 1 on sucessful IRQ register and 0 on failure.
 */

void altera_avalon_jtag_uart_init(altera_avalon_jtag_uart_state* sp, 
                                  int irq_controller_id, int irq)
{
 200fb14:	defffa04 	addi	sp,sp,-24
 200fb18:	dfc00515 	stw	ra,20(sp)
 200fb1c:	df000415 	stw	fp,16(sp)
 200fb20:	df000404 	addi	fp,sp,16
 200fb24:	e13ffd15 	stw	r4,-12(fp)
 200fb28:	e17ffe15 	stw	r5,-8(fp)
 200fb2c:	e1bfff15 	stw	r6,-4(fp)
  ALT_FLAG_CREATE(&sp->events, 0);
  ALT_SEM_CREATE(&sp->read_lock, 1);
  ALT_SEM_CREATE(&sp->write_lock, 1);

  /* enable read interrupts at the device */
  sp->irq_enable = ALTERA_AVALON_JTAG_UART_CONTROL_RE_MSK;
 200fb30:	e0bffd17 	ldw	r2,-12(fp)
 200fb34:	00c00044 	movi	r3,1
 200fb38:	10c00815 	stw	r3,32(r2)

  IOWR_ALTERA_AVALON_JTAG_UART_CONTROL(sp->base, sp->irq_enable); 
 200fb3c:	e0bffd17 	ldw	r2,-12(fp)
 200fb40:	10800017 	ldw	r2,0(r2)
 200fb44:	10800104 	addi	r2,r2,4
 200fb48:	1007883a 	mov	r3,r2
 200fb4c:	e0bffd17 	ldw	r2,-12(fp)
 200fb50:	10800817 	ldw	r2,32(r2)
 200fb54:	18800035 	stwio	r2,0(r3)
  
  /* register the interrupt handler */
#ifdef ALT_ENHANCED_INTERRUPT_API_PRESENT
  alt_ic_isr_register(irq_controller_id, irq, altera_avalon_jtag_uart_irq, 
 200fb58:	e0fffe17 	ldw	r3,-8(fp)
 200fb5c:	e0bfff17 	ldw	r2,-4(fp)
 200fb60:	d8000015 	stw	zero,0(sp)
 200fb64:	1809883a 	mov	r4,r3
 200fb68:	100b883a 	mov	r5,r2
 200fb6c:	01808074 	movhi	r6,513
 200fb70:	31bef604 	addi	r6,r6,-1064
 200fb74:	e1fffd17 	ldw	r7,-12(fp)
 200fb78:	200e5b00 	call	200e5b0 <alt_ic_isr_register>
#else
  alt_irq_register(irq, sp, altera_avalon_jtag_uart_irq);
#endif  

  /* Register an alarm to go off every second to check for presence of host */
  sp->host_inactive = 0;
 200fb7c:	e0bffd17 	ldw	r2,-12(fp)
 200fb80:	10000915 	stw	zero,36(r2)

  if (alt_alarm_start(&sp->alarm, alt_ticks_per_second(), 
 200fb84:	e0bffd17 	ldw	r2,-12(fp)
 200fb88:	10c00204 	addi	r3,r2,8
 * Obtain the system clock rate in ticks/s. 
 */

static ALT_INLINE alt_u32 ALT_ALWAYS_INLINE alt_ticks_per_second (void)
{
  return _alt_tick_rate;
 200fb8c:	008080f4 	movhi	r2,515
 200fb90:	10896e04 	addi	r2,r2,9656
 200fb94:	10800017 	ldw	r2,0(r2)
 200fb98:	1809883a 	mov	r4,r3
 200fb9c:	100b883a 	mov	r5,r2
 200fba0:	01808074 	movhi	r6,513
 200fba4:	31bf7704 	addi	r6,r6,-548
 200fba8:	e1fffd17 	ldw	r7,-12(fp)
 200fbac:	200e4700 	call	200e470 <alt_alarm_start>
 200fbb0:	1000040e 	bge	r2,zero,200fbc4 <altera_avalon_jtag_uart_init+0xb0>
    &altera_avalon_jtag_uart_timeout, sp) < 0)
  {
    /* If we can't set the alarm then record "don't know if host present" 
     * and behave as though the host is present.
     */
    sp->timeout = INT_MAX;
 200fbb4:	e0fffd17 	ldw	r3,-12(fp)
 200fbb8:	00a00034 	movhi	r2,32768
 200fbbc:	10bfffc4 	addi	r2,r2,-1
 200fbc0:	18800115 	stw	r2,4(r3)
  }

  /* ALT_LOG - see altera_hal/HAL/inc/sys/alt_log_printf.h */ 
  ALT_LOG_JTAG_UART_ALARM_REGISTER(sp, sp->base);
}
 200fbc4:	e037883a 	mov	sp,fp
 200fbc8:	dfc00117 	ldw	ra,4(sp)
 200fbcc:	df000017 	ldw	fp,0(sp)
 200fbd0:	dec00204 	addi	sp,sp,8
 200fbd4:	f800283a 	ret

0200fbd8 <altera_avalon_jtag_uart_irq>:
#ifdef ALT_ENHANCED_INTERRUPT_API_PRESENT
static void altera_avalon_jtag_uart_irq(void* context)
#else
static void altera_avalon_jtag_uart_irq(void* context, alt_u32 id)
#endif
{
 200fbd8:	defff804 	addi	sp,sp,-32
 200fbdc:	df000715 	stw	fp,28(sp)
 200fbe0:	df000704 	addi	fp,sp,28
 200fbe4:	e13fff15 	stw	r4,-4(fp)
  altera_avalon_jtag_uart_state* sp = (altera_avalon_jtag_uart_state*) context;
 200fbe8:	e0bfff17 	ldw	r2,-4(fp)
 200fbec:	e0bffb15 	stw	r2,-20(fp)
  unsigned int base = sp->base;
 200fbf0:	e0bffb17 	ldw	r2,-20(fp)
 200fbf4:	10800017 	ldw	r2,0(r2)
 200fbf8:	e0bffc15 	stw	r2,-16(fp)
  /* ALT_LOG - see altera_hal/HAL/inc/sys/alt_log_printf.h */ 
  ALT_LOG_JTAG_UART_ISR_FUNCTION(base, sp);

  for ( ; ; )
  {
    unsigned int control = IORD_ALTERA_AVALON_JTAG_UART_CONTROL(base);
 200fbfc:	e0bffc17 	ldw	r2,-16(fp)
 200fc00:	10800104 	addi	r2,r2,4
 200fc04:	10800037 	ldwio	r2,0(r2)
 200fc08:	e0bffd15 	stw	r2,-12(fp)

    /* Return once nothing more to do */
    if ((control & (ALTERA_AVALON_JTAG_UART_CONTROL_RI_MSK | ALTERA_AVALON_JTAG_UART_CONTROL_WI_MSK)) == 0)
 200fc0c:	e0bffd17 	ldw	r2,-12(fp)
 200fc10:	1080c00c 	andi	r2,r2,768
 200fc14:	1000011e 	bne	r2,zero,200fc1c <altera_avalon_jtag_uart_irq+0x44>
      break;
 200fc18:	00006c06 	br	200fdcc <altera_avalon_jtag_uart_irq+0x1f4>

    if (control & ALTERA_AVALON_JTAG_UART_CONTROL_RI_MSK)
 200fc1c:	e0bffd17 	ldw	r2,-12(fp)
 200fc20:	1080400c 	andi	r2,r2,256
 200fc24:	10003426 	beq	r2,zero,200fcf8 <altera_avalon_jtag_uart_irq+0x120>
    {
      /* process a read irq.  Start by assuming that there is data in the
       * receive FIFO (otherwise why would we have been interrupted?)
       */
      unsigned int data = 1 << ALTERA_AVALON_JTAG_UART_DATA_RAVAIL_OFST;
 200fc28:	00800074 	movhi	r2,1
 200fc2c:	e0bff915 	stw	r2,-28(fp)
      for ( ; ; )
      {
        /* Check whether there is space in the buffer.  If not then we must not
         * read any characters from the buffer as they will be lost.
         */
        unsigned int next = (sp->rx_in + 1) % ALTERA_AVALON_JTAG_UART_BUF_LEN;
 200fc30:	e0bffb17 	ldw	r2,-20(fp)
 200fc34:	10800a17 	ldw	r2,40(r2)
 200fc38:	10800044 	addi	r2,r2,1
 200fc3c:	1081ffcc 	andi	r2,r2,2047
 200fc40:	e0bffe15 	stw	r2,-8(fp)
        if (next == sp->rx_out)
 200fc44:	e0bffb17 	ldw	r2,-20(fp)
 200fc48:	10c00b17 	ldw	r3,44(r2)
 200fc4c:	e0bffe17 	ldw	r2,-8(fp)
 200fc50:	1880011e 	bne	r3,r2,200fc58 <altera_avalon_jtag_uart_irq+0x80>
          break;
 200fc54:	00001606 	br	200fcb0 <altera_avalon_jtag_uart_irq+0xd8>

        /* Try to remove a character from the FIFO and find out whether there
         * are any more characters remaining.
         */
        data = IORD_ALTERA_AVALON_JTAG_UART_DATA(base);
 200fc58:	e0bffc17 	ldw	r2,-16(fp)
 200fc5c:	10800037 	ldwio	r2,0(r2)
 200fc60:	e0bff915 	stw	r2,-28(fp)
        
        if ((data & ALTERA_AVALON_JTAG_UART_DATA_RVALID_MSK) == 0)
 200fc64:	e0bff917 	ldw	r2,-28(fp)
 200fc68:	10a0000c 	andi	r2,r2,32768
 200fc6c:	1000011e 	bne	r2,zero,200fc74 <altera_avalon_jtag_uart_irq+0x9c>
          break;
 200fc70:	00000f06 	br	200fcb0 <altera_avalon_jtag_uart_irq+0xd8>

        sp->rx_buf[sp->rx_in] = (data & ALTERA_AVALON_JTAG_UART_DATA_DATA_MSK) >> ALTERA_AVALON_JTAG_UART_DATA_DATA_OFST;
 200fc74:	e0bffb17 	ldw	r2,-20(fp)
 200fc78:	10800a17 	ldw	r2,40(r2)
 200fc7c:	e0fff917 	ldw	r3,-28(fp)
 200fc80:	1809883a 	mov	r4,r3
 200fc84:	e0fffb17 	ldw	r3,-20(fp)
 200fc88:	1885883a 	add	r2,r3,r2
 200fc8c:	10800e04 	addi	r2,r2,56
 200fc90:	11000005 	stb	r4,0(r2)
        sp->rx_in = (sp->rx_in + 1) % ALTERA_AVALON_JTAG_UART_BUF_LEN;
 200fc94:	e0bffb17 	ldw	r2,-20(fp)
 200fc98:	10800a17 	ldw	r2,40(r2)
 200fc9c:	10800044 	addi	r2,r2,1
 200fca0:	10c1ffcc 	andi	r3,r2,2047
 200fca4:	e0bffb17 	ldw	r2,-20(fp)
 200fca8:	10c00a15 	stw	r3,40(r2)

        /* Post an event to notify jtag_uart_read that a character has been read */
        ALT_FLAG_POST (sp->events, ALT_JTAG_UART_READ_RDY, OS_FLAG_SET);
      }
 200fcac:	003fe006 	br	200fc30 <__reset+0xfe008430>

      if (data & ALTERA_AVALON_JTAG_UART_DATA_RAVAIL_MSK)
 200fcb0:	e0bff917 	ldw	r2,-28(fp)
 200fcb4:	10bfffec 	andhi	r2,r2,65535
 200fcb8:	10000f26 	beq	r2,zero,200fcf8 <altera_avalon_jtag_uart_irq+0x120>
      {
        /* If there is still data available here then the buffer is full 
         * so turn off receive interrupts until some space becomes available.
         */
        sp->irq_enable &= ~ALTERA_AVALON_JTAG_UART_CONTROL_RE_MSK;
 200fcbc:	e0bffb17 	ldw	r2,-20(fp)
 200fcc0:	10c00817 	ldw	r3,32(r2)
 200fcc4:	00bfff84 	movi	r2,-2
 200fcc8:	1886703a 	and	r3,r3,r2
 200fccc:	e0bffb17 	ldw	r2,-20(fp)
 200fcd0:	10c00815 	stw	r3,32(r2)
        IOWR_ALTERA_AVALON_JTAG_UART_CONTROL(base, sp->irq_enable);
 200fcd4:	e0bffc17 	ldw	r2,-16(fp)
 200fcd8:	10800104 	addi	r2,r2,4
 200fcdc:	1007883a 	mov	r3,r2
 200fce0:	e0bffb17 	ldw	r2,-20(fp)
 200fce4:	10800817 	ldw	r2,32(r2)
 200fce8:	18800035 	stwio	r2,0(r3)
        
        /* Dummy read to ensure IRQ is cleared prior to ISR completion */
        IORD_ALTERA_AVALON_JTAG_UART_CONTROL(base);
 200fcec:	e0bffc17 	ldw	r2,-16(fp)
 200fcf0:	10800104 	addi	r2,r2,4
 200fcf4:	10800037 	ldwio	r2,0(r2)
      }
    }

    if (control & ALTERA_AVALON_JTAG_UART_CONTROL_WI_MSK)
 200fcf8:	e0bffd17 	ldw	r2,-12(fp)
 200fcfc:	1080800c 	andi	r2,r2,512
 200fd00:	10003126 	beq	r2,zero,200fdc8 <altera_avalon_jtag_uart_irq+0x1f0>
    {
      /* process a write irq */
      unsigned int space = (control & ALTERA_AVALON_JTAG_UART_CONTROL_WSPACE_MSK) >> ALTERA_AVALON_JTAG_UART_CONTROL_WSPACE_OFST;
 200fd04:	e0bffd17 	ldw	r2,-12(fp)
 200fd08:	1004d43a 	srli	r2,r2,16
 200fd0c:	e0bffa15 	stw	r2,-24(fp)

      while (space > 0 && sp->tx_out != sp->tx_in)
 200fd10:	00001406 	br	200fd64 <altera_avalon_jtag_uart_irq+0x18c>
      {
        IOWR_ALTERA_AVALON_JTAG_UART_DATA(base, sp->tx_buf[sp->tx_out]);
 200fd14:	e0bffc17 	ldw	r2,-16(fp)
 200fd18:	e0fffb17 	ldw	r3,-20(fp)
 200fd1c:	18c00d17 	ldw	r3,52(r3)
 200fd20:	e13ffb17 	ldw	r4,-20(fp)
 200fd24:	20c7883a 	add	r3,r4,r3
 200fd28:	18c20e04 	addi	r3,r3,2104
 200fd2c:	18c00003 	ldbu	r3,0(r3)
 200fd30:	18c03fcc 	andi	r3,r3,255
 200fd34:	18c0201c 	xori	r3,r3,128
 200fd38:	18ffe004 	addi	r3,r3,-128
 200fd3c:	10c00035 	stwio	r3,0(r2)

        sp->tx_out = (sp->tx_out + 1) % ALTERA_AVALON_JTAG_UART_BUF_LEN;
 200fd40:	e0bffb17 	ldw	r2,-20(fp)
 200fd44:	10800d17 	ldw	r2,52(r2)
 200fd48:	10800044 	addi	r2,r2,1
 200fd4c:	10c1ffcc 	andi	r3,r2,2047
 200fd50:	e0bffb17 	ldw	r2,-20(fp)
 200fd54:	10c00d15 	stw	r3,52(r2)

        /* Post an event to notify jtag_uart_write that a character has been written */
        ALT_FLAG_POST (sp->events, ALT_JTAG_UART_WRITE_RDY, OS_FLAG_SET);

        space--;
 200fd58:	e0bffa17 	ldw	r2,-24(fp)
 200fd5c:	10bfffc4 	addi	r2,r2,-1
 200fd60:	e0bffa15 	stw	r2,-24(fp)
    if (control & ALTERA_AVALON_JTAG_UART_CONTROL_WI_MSK)
    {
      /* process a write irq */
      unsigned int space = (control & ALTERA_AVALON_JTAG_UART_CONTROL_WSPACE_MSK) >> ALTERA_AVALON_JTAG_UART_CONTROL_WSPACE_OFST;

      while (space > 0 && sp->tx_out != sp->tx_in)
 200fd64:	e0bffa17 	ldw	r2,-24(fp)
 200fd68:	10000526 	beq	r2,zero,200fd80 <altera_avalon_jtag_uart_irq+0x1a8>
 200fd6c:	e0bffb17 	ldw	r2,-20(fp)
 200fd70:	10c00d17 	ldw	r3,52(r2)
 200fd74:	e0bffb17 	ldw	r2,-20(fp)
 200fd78:	10800c17 	ldw	r2,48(r2)
 200fd7c:	18bfe51e 	bne	r3,r2,200fd14 <__reset+0xfe008514>
        ALT_FLAG_POST (sp->events, ALT_JTAG_UART_WRITE_RDY, OS_FLAG_SET);

        space--;
      }

      if (space > 0)
 200fd80:	e0bffa17 	ldw	r2,-24(fp)
 200fd84:	10001026 	beq	r2,zero,200fdc8 <altera_avalon_jtag_uart_irq+0x1f0>
      {
        /* If we don't have any more data available then turn off the TX interrupt */
        sp->irq_enable &= ~ALTERA_AVALON_JTAG_UART_CONTROL_WE_MSK;
 200fd88:	e0bffb17 	ldw	r2,-20(fp)
 200fd8c:	10c00817 	ldw	r3,32(r2)
 200fd90:	00bfff44 	movi	r2,-3
 200fd94:	1886703a 	and	r3,r3,r2
 200fd98:	e0bffb17 	ldw	r2,-20(fp)
 200fd9c:	10c00815 	stw	r3,32(r2)
        IOWR_ALTERA_AVALON_JTAG_UART_CONTROL(sp->base, sp->irq_enable);
 200fda0:	e0bffb17 	ldw	r2,-20(fp)
 200fda4:	10800017 	ldw	r2,0(r2)
 200fda8:	10800104 	addi	r2,r2,4
 200fdac:	1007883a 	mov	r3,r2
 200fdb0:	e0bffb17 	ldw	r2,-20(fp)
 200fdb4:	10800817 	ldw	r2,32(r2)
 200fdb8:	18800035 	stwio	r2,0(r3)
        
        /* Dummy read to ensure IRQ is cleared prior to ISR completion */
        IORD_ALTERA_AVALON_JTAG_UART_CONTROL(base);
 200fdbc:	e0bffc17 	ldw	r2,-16(fp)
 200fdc0:	10800104 	addi	r2,r2,4
 200fdc4:	10800037 	ldwio	r2,0(r2)
      }
    }
  }
 200fdc8:	003f8c06 	br	200fbfc <__reset+0xfe0083fc>
}
 200fdcc:	e037883a 	mov	sp,fp
 200fdd0:	df000017 	ldw	fp,0(sp)
 200fdd4:	dec00104 	addi	sp,sp,4
 200fdd8:	f800283a 	ret

0200fddc <altera_avalon_jtag_uart_timeout>:
 * Timeout routine is called every second
 */

static alt_u32 
altera_avalon_jtag_uart_timeout(void* context) 
{
 200fddc:	defff804 	addi	sp,sp,-32
 200fde0:	df000715 	stw	fp,28(sp)
 200fde4:	df000704 	addi	fp,sp,28
 200fde8:	e13ffb15 	stw	r4,-20(fp)
  altera_avalon_jtag_uart_state* sp = (altera_avalon_jtag_uart_state *) context;
 200fdec:	e0bffb17 	ldw	r2,-20(fp)
 200fdf0:	e0bff915 	stw	r2,-28(fp)

  unsigned int control = IORD_ALTERA_AVALON_JTAG_UART_CONTROL(sp->base);
 200fdf4:	e0bff917 	ldw	r2,-28(fp)
 200fdf8:	10800017 	ldw	r2,0(r2)
 200fdfc:	10800104 	addi	r2,r2,4
 200fe00:	10800037 	ldwio	r2,0(r2)
 200fe04:	e0bffa15 	stw	r2,-24(fp)

  if (control & ALTERA_AVALON_JTAG_UART_CONTROL_AC_MSK)
 200fe08:	e0bffa17 	ldw	r2,-24(fp)
 200fe0c:	1081000c 	andi	r2,r2,1024
 200fe10:	10000b26 	beq	r2,zero,200fe40 <altera_avalon_jtag_uart_timeout+0x64>
  {
    IOWR_ALTERA_AVALON_JTAG_UART_CONTROL(sp->base, sp->irq_enable | ALTERA_AVALON_JTAG_UART_CONTROL_AC_MSK);
 200fe14:	e0bff917 	ldw	r2,-28(fp)
 200fe18:	10800017 	ldw	r2,0(r2)
 200fe1c:	10800104 	addi	r2,r2,4
 200fe20:	1007883a 	mov	r3,r2
 200fe24:	e0bff917 	ldw	r2,-28(fp)
 200fe28:	10800817 	ldw	r2,32(r2)
 200fe2c:	10810014 	ori	r2,r2,1024
 200fe30:	18800035 	stwio	r2,0(r3)
    sp->host_inactive = 0;
 200fe34:	e0bff917 	ldw	r2,-28(fp)
 200fe38:	10000915 	stw	zero,36(r2)
 200fe3c:	00000a06 	br	200fe68 <altera_avalon_jtag_uart_timeout+0x8c>
  }
  else if (sp->host_inactive < INT_MAX - 2) {
 200fe40:	e0bff917 	ldw	r2,-28(fp)
 200fe44:	10c00917 	ldw	r3,36(r2)
 200fe48:	00a00034 	movhi	r2,32768
 200fe4c:	10bfff04 	addi	r2,r2,-4
 200fe50:	10c00536 	bltu	r2,r3,200fe68 <altera_avalon_jtag_uart_timeout+0x8c>
    sp->host_inactive++;
 200fe54:	e0bff917 	ldw	r2,-28(fp)
 200fe58:	10800917 	ldw	r2,36(r2)
 200fe5c:	10c00044 	addi	r3,r2,1
 200fe60:	e0bff917 	ldw	r2,-28(fp)
 200fe64:	10c00915 	stw	r3,36(r2)
 200fe68:	008080f4 	movhi	r2,515
 200fe6c:	10896e04 	addi	r2,r2,9656
 200fe70:	10800017 	ldw	r2,0(r2)
      ALT_FLAG_POST (sp->events, ALT_JTAG_UART_TIMEOUT, OS_FLAG_SET);
    }
  }

  return alt_ticks_per_second();
}
 200fe74:	e037883a 	mov	sp,fp
 200fe78:	df000017 	ldw	fp,0(sp)
 200fe7c:	dec00104 	addi	sp,sp,4
 200fe80:	f800283a 	ret

0200fe84 <altera_avalon_jtag_uart_close>:
 * The close routine is not implemented for the small driver; instead it will
 * map to null. This is because the small driver simply waits while characters
 * are transmitted; there is no interrupt-serviced buffer to empty 
 */
int altera_avalon_jtag_uart_close(altera_avalon_jtag_uart_state* sp, int flags)
{
 200fe84:	defffd04 	addi	sp,sp,-12
 200fe88:	df000215 	stw	fp,8(sp)
 200fe8c:	df000204 	addi	fp,sp,8
 200fe90:	e13ffe15 	stw	r4,-8(fp)
 200fe94:	e17fff15 	stw	r5,-4(fp)
  /* 
   * Wait for all transmit data to be emptied by the JTAG UART ISR, or
   * for a host-inactivity timeout, in which case transmit data will be lost
   */
  while ( (sp->tx_out != sp->tx_in) && (sp->host_inactive < sp->timeout) ) {
 200fe98:	00000506 	br	200feb0 <altera_avalon_jtag_uart_close+0x2c>
    if (flags & O_NONBLOCK) {
 200fe9c:	e0bfff17 	ldw	r2,-4(fp)
 200fea0:	1090000c 	andi	r2,r2,16384
 200fea4:	10000226 	beq	r2,zero,200feb0 <altera_avalon_jtag_uart_close+0x2c>
      return -EWOULDBLOCK; 
 200fea8:	00bffd44 	movi	r2,-11
 200feac:	00000b06 	br	200fedc <altera_avalon_jtag_uart_close+0x58>
{
  /* 
   * Wait for all transmit data to be emptied by the JTAG UART ISR, or
   * for a host-inactivity timeout, in which case transmit data will be lost
   */
  while ( (sp->tx_out != sp->tx_in) && (sp->host_inactive < sp->timeout) ) {
 200feb0:	e0bffe17 	ldw	r2,-8(fp)
 200feb4:	10c00d17 	ldw	r3,52(r2)
 200feb8:	e0bffe17 	ldw	r2,-8(fp)
 200febc:	10800c17 	ldw	r2,48(r2)
 200fec0:	18800526 	beq	r3,r2,200fed8 <altera_avalon_jtag_uart_close+0x54>
 200fec4:	e0bffe17 	ldw	r2,-8(fp)
 200fec8:	10c00917 	ldw	r3,36(r2)
 200fecc:	e0bffe17 	ldw	r2,-8(fp)
 200fed0:	10800117 	ldw	r2,4(r2)
 200fed4:	18bff136 	bltu	r3,r2,200fe9c <__reset+0xfe00869c>
    if (flags & O_NONBLOCK) {
      return -EWOULDBLOCK; 
    }
  }

  return 0;
 200fed8:	0005883a 	mov	r2,zero
}
 200fedc:	e037883a 	mov	sp,fp
 200fee0:	df000017 	ldw	fp,0(sp)
 200fee4:	dec00104 	addi	sp,sp,4
 200fee8:	f800283a 	ret

0200feec <altera_avalon_jtag_uart_ioctl>:
/* ----------------------------------------------------------- */

int 
altera_avalon_jtag_uart_ioctl(altera_avalon_jtag_uart_state* sp, int req,
  void* arg)
{
 200feec:	defffa04 	addi	sp,sp,-24
 200fef0:	df000515 	stw	fp,20(sp)
 200fef4:	df000504 	addi	fp,sp,20
 200fef8:	e13ffd15 	stw	r4,-12(fp)
 200fefc:	e17ffe15 	stw	r5,-8(fp)
 200ff00:	e1bfff15 	stw	r6,-4(fp)
  int rc = -ENOTTY;
 200ff04:	00bff9c4 	movi	r2,-25
 200ff08:	e0bffb15 	stw	r2,-20(fp)

  switch (req)
 200ff0c:	e0bffe17 	ldw	r2,-8(fp)
 200ff10:	10da8060 	cmpeqi	r3,r2,27137
 200ff14:	1800031e 	bne	r3,zero,200ff24 <altera_avalon_jtag_uart_ioctl+0x38>
 200ff18:	109a80a0 	cmpeqi	r2,r2,27138
 200ff1c:	1000191e 	bne	r2,zero,200ff84 <altera_avalon_jtag_uart_ioctl+0x98>
      rc = 0;
    }
    break;

  default:
    break;
 200ff20:	00002806 	br	200ffc4 <altera_avalon_jtag_uart_ioctl+0xd8>

  switch (req)
  {
  case TIOCSTIMEOUT:
    /* Set the time to wait until assuming host is not connected */
    if (sp->timeout != INT_MAX)
 200ff24:	e0bffd17 	ldw	r2,-12(fp)
 200ff28:	10c00117 	ldw	r3,4(r2)
 200ff2c:	00a00034 	movhi	r2,32768
 200ff30:	10bfffc4 	addi	r2,r2,-1
 200ff34:	18801226 	beq	r3,r2,200ff80 <altera_avalon_jtag_uart_ioctl+0x94>
    {
      int timeout = *((int *)arg);
 200ff38:	e0bfff17 	ldw	r2,-4(fp)
 200ff3c:	10800017 	ldw	r2,0(r2)
 200ff40:	e0bffc15 	stw	r2,-16(fp)
      sp->timeout = (timeout >= 2 && timeout < INT_MAX) ? timeout : INT_MAX - 1;
 200ff44:	e0bffc17 	ldw	r2,-16(fp)
 200ff48:	10800090 	cmplti	r2,r2,2
 200ff4c:	1000061e 	bne	r2,zero,200ff68 <altera_avalon_jtag_uart_ioctl+0x7c>
 200ff50:	e0fffc17 	ldw	r3,-16(fp)
 200ff54:	00a00034 	movhi	r2,32768
 200ff58:	10bfffc4 	addi	r2,r2,-1
 200ff5c:	18800226 	beq	r3,r2,200ff68 <altera_avalon_jtag_uart_ioctl+0x7c>
 200ff60:	e0bffc17 	ldw	r2,-16(fp)
 200ff64:	00000206 	br	200ff70 <altera_avalon_jtag_uart_ioctl+0x84>
 200ff68:	00a00034 	movhi	r2,32768
 200ff6c:	10bfff84 	addi	r2,r2,-2
 200ff70:	e0fffd17 	ldw	r3,-12(fp)
 200ff74:	18800115 	stw	r2,4(r3)
      rc = 0;
 200ff78:	e03ffb15 	stw	zero,-20(fp)
    }
    break;
 200ff7c:	00001106 	br	200ffc4 <altera_avalon_jtag_uart_ioctl+0xd8>
 200ff80:	00001006 	br	200ffc4 <altera_avalon_jtag_uart_ioctl+0xd8>

  case TIOCGCONNECTED:
    /* Find out whether host is connected */
    if (sp->timeout != INT_MAX)
 200ff84:	e0bffd17 	ldw	r2,-12(fp)
 200ff88:	10c00117 	ldw	r3,4(r2)
 200ff8c:	00a00034 	movhi	r2,32768
 200ff90:	10bfffc4 	addi	r2,r2,-1
 200ff94:	18800a26 	beq	r3,r2,200ffc0 <altera_avalon_jtag_uart_ioctl+0xd4>
    {
      *((int *)arg) = (sp->host_inactive < sp->timeout) ? 1 : 0;
 200ff98:	e0bffd17 	ldw	r2,-12(fp)
 200ff9c:	10c00917 	ldw	r3,36(r2)
 200ffa0:	e0bffd17 	ldw	r2,-12(fp)
 200ffa4:	10800117 	ldw	r2,4(r2)
 200ffa8:	1885803a 	cmpltu	r2,r3,r2
 200ffac:	10c03fcc 	andi	r3,r2,255
 200ffb0:	e0bfff17 	ldw	r2,-4(fp)
 200ffb4:	10c00015 	stw	r3,0(r2)
      rc = 0;
 200ffb8:	e03ffb15 	stw	zero,-20(fp)
    }
    break;
 200ffbc:	00000006 	br	200ffc0 <altera_avalon_jtag_uart_ioctl+0xd4>
 200ffc0:	0001883a 	nop

  default:
    break;
  }

  return rc;
 200ffc4:	e0bffb17 	ldw	r2,-20(fp)
}
 200ffc8:	e037883a 	mov	sp,fp
 200ffcc:	df000017 	ldw	fp,0(sp)
 200ffd0:	dec00104 	addi	sp,sp,4
 200ffd4:	f800283a 	ret

0200ffd8 <altera_avalon_jtag_uart_read>:
/* ----------------------------------------------------------- */

int 
altera_avalon_jtag_uart_read(altera_avalon_jtag_uart_state* sp, 
  char * buffer, int space, int flags)
{
 200ffd8:	defff304 	addi	sp,sp,-52
 200ffdc:	dfc00c15 	stw	ra,48(sp)
 200ffe0:	df000b15 	stw	fp,44(sp)
 200ffe4:	df000b04 	addi	fp,sp,44
 200ffe8:	e13ffc15 	stw	r4,-16(fp)
 200ffec:	e17ffd15 	stw	r5,-12(fp)
 200fff0:	e1bffe15 	stw	r6,-8(fp)
 200fff4:	e1ffff15 	stw	r7,-4(fp)
  char * ptr = buffer;
 200fff8:	e0bffd17 	ldw	r2,-12(fp)
 200fffc:	e0bff515 	stw	r2,-44(fp)
   * When running in a multi threaded environment, obtain the "read_lock"
   * semaphore. This ensures that reading from the device is thread-safe.
   */
  ALT_SEM_PEND (sp->read_lock, 0);

  while (space > 0)
 2010000:	00004906 	br	2010128 <altera_avalon_jtag_uart_read+0x150>
    unsigned int in, out;

    /* Read as much data as possible */
    do
    {
      in  = sp->rx_in;
 2010004:	e0bffc17 	ldw	r2,-16(fp)
 2010008:	10800a17 	ldw	r2,40(r2)
 201000c:	e0bff715 	stw	r2,-36(fp)
      out = sp->rx_out;
 2010010:	e0bffc17 	ldw	r2,-16(fp)
 2010014:	10800b17 	ldw	r2,44(r2)
 2010018:	e0bff815 	stw	r2,-32(fp)

      if (in >= out)
 201001c:	e0fff717 	ldw	r3,-36(fp)
 2010020:	e0bff817 	ldw	r2,-32(fp)
 2010024:	18800536 	bltu	r3,r2,201003c <altera_avalon_jtag_uart_read+0x64>
        n = in - out;
 2010028:	e0fff717 	ldw	r3,-36(fp)
 201002c:	e0bff817 	ldw	r2,-32(fp)
 2010030:	1885c83a 	sub	r2,r3,r2
 2010034:	e0bff615 	stw	r2,-40(fp)
 2010038:	00000406 	br	201004c <altera_avalon_jtag_uart_read+0x74>
      else
        n = ALTERA_AVALON_JTAG_UART_BUF_LEN - out;
 201003c:	00c20004 	movi	r3,2048
 2010040:	e0bff817 	ldw	r2,-32(fp)
 2010044:	1885c83a 	sub	r2,r3,r2
 2010048:	e0bff615 	stw	r2,-40(fp)

      if (n == 0)
 201004c:	e0bff617 	ldw	r2,-40(fp)
 2010050:	1000011e 	bne	r2,zero,2010058 <altera_avalon_jtag_uart_read+0x80>
        break; /* No more data available */
 2010054:	00001d06 	br	20100cc <altera_avalon_jtag_uart_read+0xf4>

      if (n > space)
 2010058:	e0fffe17 	ldw	r3,-8(fp)
 201005c:	e0bff617 	ldw	r2,-40(fp)
 2010060:	1880022e 	bgeu	r3,r2,201006c <altera_avalon_jtag_uart_read+0x94>
        n = space;
 2010064:	e0bffe17 	ldw	r2,-8(fp)
 2010068:	e0bff615 	stw	r2,-40(fp)

      memcpy(ptr, sp->rx_buf + out, n);
 201006c:	e0bff817 	ldw	r2,-32(fp)
 2010070:	10800e04 	addi	r2,r2,56
 2010074:	e0fffc17 	ldw	r3,-16(fp)
 2010078:	1885883a 	add	r2,r3,r2
 201007c:	e13ff517 	ldw	r4,-44(fp)
 2010080:	100b883a 	mov	r5,r2
 2010084:	e1bff617 	ldw	r6,-40(fp)
 2010088:	200d0440 	call	200d044 <memcpy>
      ptr   += n;
 201008c:	e0fff517 	ldw	r3,-44(fp)
 2010090:	e0bff617 	ldw	r2,-40(fp)
 2010094:	1885883a 	add	r2,r3,r2
 2010098:	e0bff515 	stw	r2,-44(fp)
      space -= n;
 201009c:	e0fffe17 	ldw	r3,-8(fp)
 20100a0:	e0bff617 	ldw	r2,-40(fp)
 20100a4:	1885c83a 	sub	r2,r3,r2
 20100a8:	e0bffe15 	stw	r2,-8(fp)

      sp->rx_out = (out + n) % ALTERA_AVALON_JTAG_UART_BUF_LEN;
 20100ac:	e0fff817 	ldw	r3,-32(fp)
 20100b0:	e0bff617 	ldw	r2,-40(fp)
 20100b4:	1885883a 	add	r2,r3,r2
 20100b8:	10c1ffcc 	andi	r3,r2,2047
 20100bc:	e0bffc17 	ldw	r2,-16(fp)
 20100c0:	10c00b15 	stw	r3,44(r2)
    }
    while (space > 0);
 20100c4:	e0bffe17 	ldw	r2,-8(fp)
 20100c8:	00bfce16 	blt	zero,r2,2010004 <__reset+0xfe008804>

    /* If we read any data then return it */
    if (ptr != buffer)
 20100cc:	e0fff517 	ldw	r3,-44(fp)
 20100d0:	e0bffd17 	ldw	r2,-12(fp)
 20100d4:	18800126 	beq	r3,r2,20100dc <altera_avalon_jtag_uart_read+0x104>
      break;
 20100d8:	00001506 	br	2010130 <altera_avalon_jtag_uart_read+0x158>

    /* If in non-blocking mode then return error */
    if (flags & O_NONBLOCK)
 20100dc:	e0bfff17 	ldw	r2,-4(fp)
 20100e0:	1090000c 	andi	r2,r2,16384
 20100e4:	10000126 	beq	r2,zero,20100ec <altera_avalon_jtag_uart_read+0x114>
      break;
 20100e8:	00001106 	br	2010130 <altera_avalon_jtag_uart_read+0x158>
      while (in == sp->rx_in && sp->host_inactive < sp->timeout)
        ;
    }
#else
    /* No OS: Always spin */
    while (in == sp->rx_in && sp->host_inactive < sp->timeout)
 20100ec:	0001883a 	nop
 20100f0:	e0bffc17 	ldw	r2,-16(fp)
 20100f4:	10c00a17 	ldw	r3,40(r2)
 20100f8:	e0bff717 	ldw	r2,-36(fp)
 20100fc:	1880051e 	bne	r3,r2,2010114 <altera_avalon_jtag_uart_read+0x13c>
 2010100:	e0bffc17 	ldw	r2,-16(fp)
 2010104:	10c00917 	ldw	r3,36(r2)
 2010108:	e0bffc17 	ldw	r2,-16(fp)
 201010c:	10800117 	ldw	r2,4(r2)
 2010110:	18bff736 	bltu	r3,r2,20100f0 <__reset+0xfe0088f0>
      ;
#endif /* __ucosii__ */

    if (in == sp->rx_in)
 2010114:	e0bffc17 	ldw	r2,-16(fp)
 2010118:	10c00a17 	ldw	r3,40(r2)
 201011c:	e0bff717 	ldw	r2,-36(fp)
 2010120:	1880011e 	bne	r3,r2,2010128 <altera_avalon_jtag_uart_read+0x150>
      break;
 2010124:	00000206 	br	2010130 <altera_avalon_jtag_uart_read+0x158>
   * When running in a multi threaded environment, obtain the "read_lock"
   * semaphore. This ensures that reading from the device is thread-safe.
   */
  ALT_SEM_PEND (sp->read_lock, 0);

  while (space > 0)
 2010128:	e0bffe17 	ldw	r2,-8(fp)
 201012c:	00bfb516 	blt	zero,r2,2010004 <__reset+0xfe008804>
   * semaphore so that other threads can access the buffer.
   */

  ALT_SEM_POST (sp->read_lock);

  if (ptr != buffer)
 2010130:	e0fff517 	ldw	r3,-44(fp)
 2010134:	e0bffd17 	ldw	r2,-12(fp)
 2010138:	18801826 	beq	r3,r2,201019c <altera_avalon_jtag_uart_read+0x1c4>
static ALT_INLINE alt_irq_context ALT_ALWAYS_INLINE 
       alt_irq_disable_all (void)
{
  alt_irq_context context;

  NIOS2_READ_STATUS (context);
 201013c:	0005303a 	rdctl	r2,status
 2010140:	e0bffa15 	stw	r2,-24(fp)

  NIOS2_WRITE_STATUS (context & ~NIOS2_STATUS_PIE_MSK);
 2010144:	e0fffa17 	ldw	r3,-24(fp)
 2010148:	00bfff84 	movi	r2,-2
 201014c:	1884703a 	and	r2,r3,r2
 2010150:	1001703a 	wrctl	status,r2
  
  return context;
 2010154:	e0bffa17 	ldw	r2,-24(fp)
  {
    /* If we read any data then there is space in the buffer so enable interrupts */
    context = alt_irq_disable_all();
 2010158:	e0bff915 	stw	r2,-28(fp)
    sp->irq_enable |= ALTERA_AVALON_JTAG_UART_CONTROL_RE_MSK;
 201015c:	e0bffc17 	ldw	r2,-16(fp)
 2010160:	10800817 	ldw	r2,32(r2)
 2010164:	10c00054 	ori	r3,r2,1
 2010168:	e0bffc17 	ldw	r2,-16(fp)
 201016c:	10c00815 	stw	r3,32(r2)
    IOWR_ALTERA_AVALON_JTAG_UART_CONTROL(sp->base, sp->irq_enable);
 2010170:	e0bffc17 	ldw	r2,-16(fp)
 2010174:	10800017 	ldw	r2,0(r2)
 2010178:	10800104 	addi	r2,r2,4
 201017c:	1007883a 	mov	r3,r2
 2010180:	e0bffc17 	ldw	r2,-16(fp)
 2010184:	10800817 	ldw	r2,32(r2)
 2010188:	18800035 	stwio	r2,0(r3)
 201018c:	e0bff917 	ldw	r2,-28(fp)
 2010190:	e0bffb15 	stw	r2,-20(fp)
  status &= ~NIOS2_STATUS_PIE_MSK;
  status |= (context & NIOS2_STATUS_PIE_MSK);
  
  NIOS2_WRITE_STATUS (status);
#else
  NIOS2_WRITE_STATUS (context);
 2010194:	e0bffb17 	ldw	r2,-20(fp)
 2010198:	1001703a 	wrctl	status,r2
    alt_irq_enable_all(context);
  }

  if (ptr != buffer)
 201019c:	e0fff517 	ldw	r3,-44(fp)
 20101a0:	e0bffd17 	ldw	r2,-12(fp)
 20101a4:	18800426 	beq	r3,r2,20101b8 <altera_avalon_jtag_uart_read+0x1e0>
    return ptr - buffer;
 20101a8:	e0fff517 	ldw	r3,-44(fp)
 20101ac:	e0bffd17 	ldw	r2,-12(fp)
 20101b0:	1885c83a 	sub	r2,r3,r2
 20101b4:	00000606 	br	20101d0 <altera_avalon_jtag_uart_read+0x1f8>
  else if (flags & O_NONBLOCK)
 20101b8:	e0bfff17 	ldw	r2,-4(fp)
 20101bc:	1090000c 	andi	r2,r2,16384
 20101c0:	10000226 	beq	r2,zero,20101cc <altera_avalon_jtag_uart_read+0x1f4>
    return -EWOULDBLOCK;
 20101c4:	00bffd44 	movi	r2,-11
 20101c8:	00000106 	br	20101d0 <altera_avalon_jtag_uart_read+0x1f8>
  else
    return -EIO;
 20101cc:	00bffec4 	movi	r2,-5
}
 20101d0:	e037883a 	mov	sp,fp
 20101d4:	dfc00117 	ldw	ra,4(sp)
 20101d8:	df000017 	ldw	fp,0(sp)
 20101dc:	dec00204 	addi	sp,sp,8
 20101e0:	f800283a 	ret

020101e4 <altera_avalon_jtag_uart_write>:
/* ----------------------------------------------------------- */

int 
altera_avalon_jtag_uart_write(altera_avalon_jtag_uart_state* sp, 
  const char * ptr, int count, int flags)
{
 20101e4:	defff304 	addi	sp,sp,-52
 20101e8:	dfc00c15 	stw	ra,48(sp)
 20101ec:	df000b15 	stw	fp,44(sp)
 20101f0:	df000b04 	addi	fp,sp,44
 20101f4:	e13ffc15 	stw	r4,-16(fp)
 20101f8:	e17ffd15 	stw	r5,-12(fp)
 20101fc:	e1bffe15 	stw	r6,-8(fp)
 2010200:	e1ffff15 	stw	r7,-4(fp)
  /* Remove warning at optimisation level 03 by seting out to 0 */
  unsigned int in, out=0;
 2010204:	e03ff515 	stw	zero,-44(fp)
  unsigned int n;
  alt_irq_context context;

  const char * start = ptr;
 2010208:	e0bffd17 	ldw	r2,-12(fp)
 201020c:	e0bff715 	stw	r2,-36(fp)
  ALT_SEM_PEND (sp->write_lock, 0);

  do
  {
    /* Copy as much as we can into the transmit buffer */
    while (count > 0)
 2010210:	00003806 	br	20102f4 <altera_avalon_jtag_uart_write+0x110>
    {
      /* We need a stable value of the out pointer to calculate the space available */
      in  = sp->tx_in;
 2010214:	e0bffc17 	ldw	r2,-16(fp)
 2010218:	10800c17 	ldw	r2,48(r2)
 201021c:	e0bff815 	stw	r2,-32(fp)
      out = sp->tx_out;
 2010220:	e0bffc17 	ldw	r2,-16(fp)
 2010224:	10800d17 	ldw	r2,52(r2)
 2010228:	e0bff515 	stw	r2,-44(fp)

      if (in < out)
 201022c:	e0fff817 	ldw	r3,-32(fp)
 2010230:	e0bff517 	ldw	r2,-44(fp)
 2010234:	1880062e 	bgeu	r3,r2,2010250 <altera_avalon_jtag_uart_write+0x6c>
        n = out - 1 - in;
 2010238:	e0fff517 	ldw	r3,-44(fp)
 201023c:	e0bff817 	ldw	r2,-32(fp)
 2010240:	1885c83a 	sub	r2,r3,r2
 2010244:	10bfffc4 	addi	r2,r2,-1
 2010248:	e0bff615 	stw	r2,-40(fp)
 201024c:	00000b06 	br	201027c <altera_avalon_jtag_uart_write+0x98>
      else if (out > 0)
 2010250:	e0bff517 	ldw	r2,-44(fp)
 2010254:	10000526 	beq	r2,zero,201026c <altera_avalon_jtag_uart_write+0x88>
        n = ALTERA_AVALON_JTAG_UART_BUF_LEN - in;
 2010258:	00c20004 	movi	r3,2048
 201025c:	e0bff817 	ldw	r2,-32(fp)
 2010260:	1885c83a 	sub	r2,r3,r2
 2010264:	e0bff615 	stw	r2,-40(fp)
 2010268:	00000406 	br	201027c <altera_avalon_jtag_uart_write+0x98>
      else
        n = ALTERA_AVALON_JTAG_UART_BUF_LEN - 1 - in;
 201026c:	00c1ffc4 	movi	r3,2047
 2010270:	e0bff817 	ldw	r2,-32(fp)
 2010274:	1885c83a 	sub	r2,r3,r2
 2010278:	e0bff615 	stw	r2,-40(fp)

      if (n == 0)
 201027c:	e0bff617 	ldw	r2,-40(fp)
 2010280:	1000011e 	bne	r2,zero,2010288 <altera_avalon_jtag_uart_write+0xa4>
        break;
 2010284:	00001d06 	br	20102fc <altera_avalon_jtag_uart_write+0x118>

      if (n > count)
 2010288:	e0fffe17 	ldw	r3,-8(fp)
 201028c:	e0bff617 	ldw	r2,-40(fp)
 2010290:	1880022e 	bgeu	r3,r2,201029c <altera_avalon_jtag_uart_write+0xb8>
        n = count;
 2010294:	e0bffe17 	ldw	r2,-8(fp)
 2010298:	e0bff615 	stw	r2,-40(fp)

      memcpy(sp->tx_buf + in, ptr, n);
 201029c:	e0bff817 	ldw	r2,-32(fp)
 20102a0:	10820e04 	addi	r2,r2,2104
 20102a4:	e0fffc17 	ldw	r3,-16(fp)
 20102a8:	1885883a 	add	r2,r3,r2
 20102ac:	1009883a 	mov	r4,r2
 20102b0:	e17ffd17 	ldw	r5,-12(fp)
 20102b4:	e1bff617 	ldw	r6,-40(fp)
 20102b8:	200d0440 	call	200d044 <memcpy>
      ptr   += n;
 20102bc:	e0fffd17 	ldw	r3,-12(fp)
 20102c0:	e0bff617 	ldw	r2,-40(fp)
 20102c4:	1885883a 	add	r2,r3,r2
 20102c8:	e0bffd15 	stw	r2,-12(fp)
      count -= n;
 20102cc:	e0fffe17 	ldw	r3,-8(fp)
 20102d0:	e0bff617 	ldw	r2,-40(fp)
 20102d4:	1885c83a 	sub	r2,r3,r2
 20102d8:	e0bffe15 	stw	r2,-8(fp)

      sp->tx_in = (in + n) % ALTERA_AVALON_JTAG_UART_BUF_LEN;
 20102dc:	e0fff817 	ldw	r3,-32(fp)
 20102e0:	e0bff617 	ldw	r2,-40(fp)
 20102e4:	1885883a 	add	r2,r3,r2
 20102e8:	10c1ffcc 	andi	r3,r2,2047
 20102ec:	e0bffc17 	ldw	r2,-16(fp)
 20102f0:	10c00c15 	stw	r3,48(r2)
  ALT_SEM_PEND (sp->write_lock, 0);

  do
  {
    /* Copy as much as we can into the transmit buffer */
    while (count > 0)
 20102f4:	e0bffe17 	ldw	r2,-8(fp)
 20102f8:	00bfc616 	blt	zero,r2,2010214 <__reset+0xfe008a14>
static ALT_INLINE alt_irq_context ALT_ALWAYS_INLINE 
       alt_irq_disable_all (void)
{
  alt_irq_context context;

  NIOS2_READ_STATUS (context);
 20102fc:	0005303a 	rdctl	r2,status
 2010300:	e0bffa15 	stw	r2,-24(fp)

  NIOS2_WRITE_STATUS (context & ~NIOS2_STATUS_PIE_MSK);
 2010304:	e0fffa17 	ldw	r3,-24(fp)
 2010308:	00bfff84 	movi	r2,-2
 201030c:	1884703a 	and	r2,r3,r2
 2010310:	1001703a 	wrctl	status,r2
  
  return context;
 2010314:	e0bffa17 	ldw	r2,-24(fp)
     * to enable interrupts if there is no space left in the FIFO
     *
     * For now kick the interrupt routine every time to make it transmit 
     * the data 
     */
    context = alt_irq_disable_all();
 2010318:	e0bff915 	stw	r2,-28(fp)
    sp->irq_enable |= ALTERA_AVALON_JTAG_UART_CONTROL_WE_MSK;
 201031c:	e0bffc17 	ldw	r2,-16(fp)
 2010320:	10800817 	ldw	r2,32(r2)
 2010324:	10c00094 	ori	r3,r2,2
 2010328:	e0bffc17 	ldw	r2,-16(fp)
 201032c:	10c00815 	stw	r3,32(r2)
    IOWR_ALTERA_AVALON_JTAG_UART_CONTROL(sp->base, sp->irq_enable);
 2010330:	e0bffc17 	ldw	r2,-16(fp)
 2010334:	10800017 	ldw	r2,0(r2)
 2010338:	10800104 	addi	r2,r2,4
 201033c:	1007883a 	mov	r3,r2
 2010340:	e0bffc17 	ldw	r2,-16(fp)
 2010344:	10800817 	ldw	r2,32(r2)
 2010348:	18800035 	stwio	r2,0(r3)
 201034c:	e0bff917 	ldw	r2,-28(fp)
 2010350:	e0bffb15 	stw	r2,-20(fp)
  status &= ~NIOS2_STATUS_PIE_MSK;
  status |= (context & NIOS2_STATUS_PIE_MSK);
  
  NIOS2_WRITE_STATUS (status);
#else
  NIOS2_WRITE_STATUS (context);
 2010354:	e0bffb17 	ldw	r2,-20(fp)
 2010358:	1001703a 	wrctl	status,r2
    /* 
     * If there is any data left then either return now or block until 
     * some has been sent 
     */
    /* consider: test whether there is anything there while doing this and delay for at most 2s. */
    if (count > 0)
 201035c:	e0bffe17 	ldw	r2,-8(fp)
 2010360:	0080120e 	bge	zero,r2,20103ac <altera_avalon_jtag_uart_write+0x1c8>
    {
      if (flags & O_NONBLOCK)
 2010364:	e0bfff17 	ldw	r2,-4(fp)
 2010368:	1090000c 	andi	r2,r2,16384
 201036c:	10000126 	beq	r2,zero,2010374 <altera_avalon_jtag_uart_write+0x190>
        break;
 2010370:	00001006 	br	20103b4 <altera_avalon_jtag_uart_write+0x1d0>
      /*
       * No OS present: Always wait for data to be removed from buffer.  Once
       * the interrupt routine has removed some data then we will be able to
       * insert some more.
       */
      while (out == sp->tx_out && sp->host_inactive < sp->timeout)
 2010374:	0001883a 	nop
 2010378:	e0bffc17 	ldw	r2,-16(fp)
 201037c:	10c00d17 	ldw	r3,52(r2)
 2010380:	e0bff517 	ldw	r2,-44(fp)
 2010384:	1880051e 	bne	r3,r2,201039c <altera_avalon_jtag_uart_write+0x1b8>
 2010388:	e0bffc17 	ldw	r2,-16(fp)
 201038c:	10c00917 	ldw	r3,36(r2)
 2010390:	e0bffc17 	ldw	r2,-16(fp)
 2010394:	10800117 	ldw	r2,4(r2)
 2010398:	18bff736 	bltu	r3,r2,2010378 <__reset+0xfe008b78>
        ;
#endif /* __ucosii__ */

      if  (sp->host_inactive)
 201039c:	e0bffc17 	ldw	r2,-16(fp)
 20103a0:	10800917 	ldw	r2,36(r2)
 20103a4:	10000126 	beq	r2,zero,20103ac <altera_avalon_jtag_uart_write+0x1c8>
         break;
 20103a8:	00000206 	br	20103b4 <altera_avalon_jtag_uart_write+0x1d0>
    }
  }
  while (count > 0);
 20103ac:	e0bffe17 	ldw	r2,-8(fp)
 20103b0:	00bf9716 	blt	zero,r2,2010210 <__reset+0xfe008a10>
   * Now that access to the circular buffer is complete, release the write
   * semaphore so that other threads can access the buffer.
   */
  ALT_SEM_POST (sp->write_lock);

  if (ptr != start)
 20103b4:	e0fffd17 	ldw	r3,-12(fp)
 20103b8:	e0bff717 	ldw	r2,-36(fp)
 20103bc:	18800426 	beq	r3,r2,20103d0 <altera_avalon_jtag_uart_write+0x1ec>
    return ptr - start;
 20103c0:	e0fffd17 	ldw	r3,-12(fp)
 20103c4:	e0bff717 	ldw	r2,-36(fp)
 20103c8:	1885c83a 	sub	r2,r3,r2
 20103cc:	00000606 	br	20103e8 <altera_avalon_jtag_uart_write+0x204>
  else if (flags & O_NONBLOCK)
 20103d0:	e0bfff17 	ldw	r2,-4(fp)
 20103d4:	1090000c 	andi	r2,r2,16384
 20103d8:	10000226 	beq	r2,zero,20103e4 <altera_avalon_jtag_uart_write+0x200>
    return -EWOULDBLOCK;
 20103dc:	00bffd44 	movi	r2,-11
 20103e0:	00000106 	br	20103e8 <altera_avalon_jtag_uart_write+0x204>
    sp->tx_out = sp->tx_in = 0;
    return ptr - start + count;
  }
#endif
  else
    return -EIO; /* Host not connected */
 20103e4:	00bffec4 	movi	r2,-5
}
 20103e8:	e037883a 	mov	sp,fp
 20103ec:	dfc00117 	ldw	ra,4(sp)
 20103f0:	df000017 	ldw	fp,0(sp)
 20103f4:	dec00204 	addi	sp,sp,8
 20103f8:	f800283a 	ret

020103fc <alt_avalon_spi_command>:

int alt_avalon_spi_command(alt_u32 base, alt_u32 slave,
                           alt_u32 write_length, const alt_u8 * write_data,
                           alt_u32 read_length, alt_u8 * read_data,
                           alt_u32 flags)
{
 20103fc:	defff404 	addi	sp,sp,-48
 2010400:	df000b15 	stw	fp,44(sp)
 2010404:	df000b04 	addi	fp,sp,44
 2010408:	e13ffc15 	stw	r4,-16(fp)
 201040c:	e17ffd15 	stw	r5,-12(fp)
 2010410:	e1bffe15 	stw	r6,-8(fp)
 2010414:	e1ffff15 	stw	r7,-4(fp)
  const alt_u8 * write_end = write_data + write_length;
 2010418:	e0ffff17 	ldw	r3,-4(fp)
 201041c:	e0bffe17 	ldw	r2,-8(fp)
 2010420:	1885883a 	add	r2,r3,r2
 2010424:	e0bff815 	stw	r2,-32(fp)
  alt_u8 * read_end = read_data + read_length;
 2010428:	e0c00217 	ldw	r3,8(fp)
 201042c:	e0800117 	ldw	r2,4(fp)
 2010430:	1885883a 	add	r2,r3,r2
 2010434:	e0bff915 	stw	r2,-28(fp)

  alt_u32 write_zeros = read_length;
 2010438:	e0800117 	ldw	r2,4(fp)
 201043c:	e0bff515 	stw	r2,-44(fp)
  alt_u32 read_ignore = write_length;
 2010440:	e0bffe17 	ldw	r2,-8(fp)
 2010444:	e0bff615 	stw	r2,-40(fp)

  /* We must not send more than two bytes to the target before it has
   * returned any as otherwise it will overflow. */
  /* Unfortunately the hardware does not seem to work with credits > 1,
   * leave it at 1 for now. */
  alt_32 credits = 1;
 2010448:	00800044 	movi	r2,1
 201044c:	e0bff715 	stw	r2,-36(fp)
  /* Warning: this function is not currently safe if called in a multi-threaded
   * environment, something above must perform locking to make it safe if more
   * than one thread intends to use it.
   */

  IOWR_ALTERA_AVALON_SPI_SLAVE_SEL(base, 1 << slave);
 2010450:	e0bffc17 	ldw	r2,-16(fp)
 2010454:	10800504 	addi	r2,r2,20
 2010458:	1009883a 	mov	r4,r2
 201045c:	e0bffd17 	ldw	r2,-12(fp)
 2010460:	00c00044 	movi	r3,1
 2010464:	1884983a 	sll	r2,r3,r2
 2010468:	20800035 	stwio	r2,0(r4)
  
  /* Set the SSO bit (force chipselect) only if the toggle flag is not set */
  if ((flags & ALT_AVALON_SPI_COMMAND_TOGGLE_SS_N) == 0) {
 201046c:	e0800317 	ldw	r2,12(fp)
 2010470:	1080008c 	andi	r2,r2,2
 2010474:	1000051e 	bne	r2,zero,201048c <alt_avalon_spi_command+0x90>
    IOWR_ALTERA_AVALON_SPI_CONTROL(base, ALTERA_AVALON_SPI_CONTROL_SSO_MSK);
 2010478:	e0bffc17 	ldw	r2,-16(fp)
 201047c:	10800304 	addi	r2,r2,12
 2010480:	1007883a 	mov	r3,r2
 2010484:	00810004 	movi	r2,1024
 2010488:	18800035 	stwio	r2,0(r3)
  /*
   * Discard any stale data present in the RXDATA register, in case
   * previous communication was interrupted and stale data was left
   * behind.
   */
  IORD_ALTERA_AVALON_SPI_RXDATA(base);
 201048c:	e0bffc17 	ldw	r2,-16(fp)
 2010490:	10800037 	ldwio	r2,0(r2)
  for ( ; ; )
  {
    
    do
    {
      status = IORD_ALTERA_AVALON_SPI_STATUS(base);
 2010494:	e0bffc17 	ldw	r2,-16(fp)
 2010498:	10800204 	addi	r2,r2,8
 201049c:	10800037 	ldwio	r2,0(r2)
 20104a0:	e0bffa15 	stw	r2,-24(fp)
    }
    while (((status & ALTERA_AVALON_SPI_STATUS_TRDY_MSK) == 0 || credits == 0) &&
 20104a4:	e0bffa17 	ldw	r2,-24(fp)
 20104a8:	1080100c 	andi	r2,r2,64
            (status & ALTERA_AVALON_SPI_STATUS_RRDY_MSK) == 0);
 20104ac:	10000226 	beq	r2,zero,20104b8 <alt_avalon_spi_command+0xbc>
    
    do
    {
      status = IORD_ALTERA_AVALON_SPI_STATUS(base);
    }
    while (((status & ALTERA_AVALON_SPI_STATUS_TRDY_MSK) == 0 || credits == 0) &&
 20104b0:	e0bff717 	ldw	r2,-36(fp)
 20104b4:	1000031e 	bne	r2,zero,20104c4 <alt_avalon_spi_command+0xc8>
            (status & ALTERA_AVALON_SPI_STATUS_RRDY_MSK) == 0);
 20104b8:	e0bffa17 	ldw	r2,-24(fp)
 20104bc:	1080200c 	andi	r2,r2,128
    
    do
    {
      status = IORD_ALTERA_AVALON_SPI_STATUS(base);
    }
    while (((status & ALTERA_AVALON_SPI_STATUS_TRDY_MSK) == 0 || credits == 0) &&
 20104c0:	103ff426 	beq	r2,zero,2010494 <__reset+0xfe008c94>
            (status & ALTERA_AVALON_SPI_STATUS_RRDY_MSK) == 0);

    if ((status & ALTERA_AVALON_SPI_STATUS_TRDY_MSK) != 0 && credits > 0)
 20104c4:	e0bffa17 	ldw	r2,-24(fp)
 20104c8:	1080100c 	andi	r2,r2,64
 20104cc:	10001e26 	beq	r2,zero,2010548 <alt_avalon_spi_command+0x14c>
 20104d0:	e0bff717 	ldw	r2,-36(fp)
 20104d4:	00801c0e 	bge	zero,r2,2010548 <alt_avalon_spi_command+0x14c>
    {
      credits--;
 20104d8:	e0bff717 	ldw	r2,-36(fp)
 20104dc:	10bfffc4 	addi	r2,r2,-1
 20104e0:	e0bff715 	stw	r2,-36(fp)

      if (write_data < write_end)
 20104e4:	e0ffff17 	ldw	r3,-4(fp)
 20104e8:	e0bff817 	ldw	r2,-32(fp)
 20104ec:	18800a2e 	bgeu	r3,r2,2010518 <alt_avalon_spi_command+0x11c>
        IOWR_ALTERA_AVALON_SPI_TXDATA(base, *write_data++);
 20104f0:	e0bffc17 	ldw	r2,-16(fp)
 20104f4:	10800104 	addi	r2,r2,4
 20104f8:	1009883a 	mov	r4,r2
 20104fc:	e0bfff17 	ldw	r2,-4(fp)
 2010500:	10c00044 	addi	r3,r2,1
 2010504:	e0ffff15 	stw	r3,-4(fp)
 2010508:	10800003 	ldbu	r2,0(r2)
 201050c:	10803fcc 	andi	r2,r2,255
 2010510:	20800035 	stwio	r2,0(r4)
 2010514:	00000c06 	br	2010548 <alt_avalon_spi_command+0x14c>
      else if (write_zeros > 0)
 2010518:	e0bff517 	ldw	r2,-44(fp)
 201051c:	10000826 	beq	r2,zero,2010540 <alt_avalon_spi_command+0x144>
      {
        write_zeros--;
 2010520:	e0bff517 	ldw	r2,-44(fp)
 2010524:	10bfffc4 	addi	r2,r2,-1
 2010528:	e0bff515 	stw	r2,-44(fp)
        IOWR_ALTERA_AVALON_SPI_TXDATA(base, 0);
 201052c:	e0bffc17 	ldw	r2,-16(fp)
 2010530:	10800104 	addi	r2,r2,4
 2010534:	0007883a 	mov	r3,zero
 2010538:	10c00035 	stwio	r3,0(r2)
 201053c:	00000206 	br	2010548 <alt_avalon_spi_command+0x14c>
      }
      else
        credits = -1024;
 2010540:	00bf0004 	movi	r2,-1024
 2010544:	e0bff715 	stw	r2,-36(fp)
    };

    if ((status & ALTERA_AVALON_SPI_STATUS_RRDY_MSK) != 0)
 2010548:	e0bffa17 	ldw	r2,-24(fp)
 201054c:	1080200c 	andi	r2,r2,128
 2010550:	10001726 	beq	r2,zero,20105b0 <alt_avalon_spi_command+0x1b4>
    {
      alt_u32 rxdata = IORD_ALTERA_AVALON_SPI_RXDATA(base);
 2010554:	e0bffc17 	ldw	r2,-16(fp)
 2010558:	10800037 	ldwio	r2,0(r2)
 201055c:	e0bffb15 	stw	r2,-20(fp)

      if (read_ignore > 0)
 2010560:	e0bff617 	ldw	r2,-40(fp)
 2010564:	10000426 	beq	r2,zero,2010578 <alt_avalon_spi_command+0x17c>
        read_ignore--;
 2010568:	e0bff617 	ldw	r2,-40(fp)
 201056c:	10bfffc4 	addi	r2,r2,-1
 2010570:	e0bff615 	stw	r2,-40(fp)
 2010574:	00000506 	br	201058c <alt_avalon_spi_command+0x190>
      else
        *read_data++ = (alt_u8)rxdata;
 2010578:	e0800217 	ldw	r2,8(fp)
 201057c:	10c00044 	addi	r3,r2,1
 2010580:	e0c00215 	stw	r3,8(fp)
 2010584:	e0fffb17 	ldw	r3,-20(fp)
 2010588:	10c00005 	stb	r3,0(r2)
      credits++;
 201058c:	e0bff717 	ldw	r2,-36(fp)
 2010590:	10800044 	addi	r2,r2,1
 2010594:	e0bff715 	stw	r2,-36(fp)

      if (read_ignore == 0 && read_data == read_end)
 2010598:	e0bff617 	ldw	r2,-40(fp)
 201059c:	1000041e 	bne	r2,zero,20105b0 <alt_avalon_spi_command+0x1b4>
 20105a0:	e0c00217 	ldw	r3,8(fp)
 20105a4:	e0bff917 	ldw	r2,-28(fp)
 20105a8:	1880011e 	bne	r3,r2,20105b0 <alt_avalon_spi_command+0x1b4>
        break;
 20105ac:	00000106 	br	20105b4 <alt_avalon_spi_command+0x1b8>
    }
    
  }
 20105b0:	003fb806 	br	2010494 <__reset+0xfe008c94>

  /* Wait until the interface has finished transmitting */
  do
  {
    status = IORD_ALTERA_AVALON_SPI_STATUS(base);
 20105b4:	e0bffc17 	ldw	r2,-16(fp)
 20105b8:	10800204 	addi	r2,r2,8
 20105bc:	10800037 	ldwio	r2,0(r2)
 20105c0:	e0bffa15 	stw	r2,-24(fp)
  }
  while ((status & ALTERA_AVALON_SPI_STATUS_TMT_MSK) == 0);
 20105c4:	e0bffa17 	ldw	r2,-24(fp)
 20105c8:	1080080c 	andi	r2,r2,32
 20105cc:	103ff926 	beq	r2,zero,20105b4 <__reset+0xfe008db4>

  /* Clear SSO (release chipselect) unless the caller is going to
   * keep using this chip
   */
  if ((flags & ALT_AVALON_SPI_COMMAND_MERGE) == 0)
 20105d0:	e0800317 	ldw	r2,12(fp)
 20105d4:	1080004c 	andi	r2,r2,1
 20105d8:	1000041e 	bne	r2,zero,20105ec <alt_avalon_spi_command+0x1f0>
    IOWR_ALTERA_AVALON_SPI_CONTROL(base, 0);
 20105dc:	e0bffc17 	ldw	r2,-16(fp)
 20105e0:	10800304 	addi	r2,r2,12
 20105e4:	0007883a 	mov	r3,zero
 20105e8:	10c00035 	stwio	r3,0(r2)

  return read_length;
 20105ec:	e0800117 	ldw	r2,4(fp)
}
 20105f0:	e037883a 	mov	sp,fp
 20105f4:	df000017 	ldw	fp,0(sp)
 20105f8:	dec00104 	addi	sp,sp,4
 20105fc:	f800283a 	ret

02010600 <alt_avalon_timer_sc_irq>:
#ifdef ALT_ENHANCED_INTERRUPT_API_PRESENT
static void alt_avalon_timer_sc_irq (void* base)
#else
static void alt_avalon_timer_sc_irq (void* base, alt_u32 id)
#endif
{
 2010600:	defffa04 	addi	sp,sp,-24
 2010604:	dfc00515 	stw	ra,20(sp)
 2010608:	df000415 	stw	fp,16(sp)
 201060c:	df000404 	addi	fp,sp,16
 2010610:	e13fff15 	stw	r4,-4(fp)
  alt_irq_context cpu_sr;
  
  /* clear the interrupt */
  IOWR_ALTERA_AVALON_TIMER_STATUS (base, 0);
 2010614:	0007883a 	mov	r3,zero
 2010618:	e0bfff17 	ldw	r2,-4(fp)
 201061c:	10c00035 	stwio	r3,0(r2)
  /* 
   * Dummy read to ensure IRQ is negated before the ISR returns.
   * The control register is read because reading the status
   * register has side-effects per the register map documentation.
   */
  IORD_ALTERA_AVALON_TIMER_CONTROL (base);
 2010620:	e0bfff17 	ldw	r2,-4(fp)
 2010624:	10800104 	addi	r2,r2,4
 2010628:	10800037 	ldwio	r2,0(r2)
static ALT_INLINE alt_irq_context ALT_ALWAYS_INLINE 
       alt_irq_disable_all (void)
{
  alt_irq_context context;

  NIOS2_READ_STATUS (context);
 201062c:	0005303a 	rdctl	r2,status
 2010630:	e0bffd15 	stw	r2,-12(fp)

  NIOS2_WRITE_STATUS (context & ~NIOS2_STATUS_PIE_MSK);
 2010634:	e0fffd17 	ldw	r3,-12(fp)
 2010638:	00bfff84 	movi	r2,-2
 201063c:	1884703a 	and	r2,r3,r2
 2010640:	1001703a 	wrctl	status,r2
  
  return context;
 2010644:	e0bffd17 	ldw	r2,-12(fp)

  /* 
   * Notify the system of a clock tick. disable interrupts 
   * during this time to safely support ISR preemption
   */
  cpu_sr = alt_irq_disable_all();
 2010648:	e0bffc15 	stw	r2,-16(fp)
  alt_tick ();
 201064c:	200eb640 	call	200eb64 <alt_tick>
 2010650:	e0bffc17 	ldw	r2,-16(fp)
 2010654:	e0bffe15 	stw	r2,-8(fp)
  status &= ~NIOS2_STATUS_PIE_MSK;
  status |= (context & NIOS2_STATUS_PIE_MSK);
  
  NIOS2_WRITE_STATUS (status);
#else
  NIOS2_WRITE_STATUS (context);
 2010658:	e0bffe17 	ldw	r2,-8(fp)
 201065c:	1001703a 	wrctl	status,r2
  alt_irq_enable_all(cpu_sr);
}
 2010660:	e037883a 	mov	sp,fp
 2010664:	dfc00117 	ldw	ra,4(sp)
 2010668:	df000017 	ldw	fp,0(sp)
 201066c:	dec00204 	addi	sp,sp,8
 2010670:	f800283a 	ret

02010674 <alt_avalon_timer_sc_init>:
 * auto-generated alt_sys_init() function.
 */

void alt_avalon_timer_sc_init (void* base, alt_u32 irq_controller_id, 
                                alt_u32 irq, alt_u32 freq)
{
 2010674:	defff804 	addi	sp,sp,-32
 2010678:	dfc00715 	stw	ra,28(sp)
 201067c:	df000615 	stw	fp,24(sp)
 2010680:	df000604 	addi	fp,sp,24
 2010684:	e13ffc15 	stw	r4,-16(fp)
 2010688:	e17ffd15 	stw	r5,-12(fp)
 201068c:	e1bffe15 	stw	r6,-8(fp)
 2010690:	e1ffff15 	stw	r7,-4(fp)
 2010694:	e0bfff17 	ldw	r2,-4(fp)
 2010698:	e0bffb15 	stw	r2,-20(fp)
 * in order to initialise the value of the clock frequency.
 */

static ALT_INLINE int ALT_ALWAYS_INLINE alt_sysclk_init (alt_u32 nticks)
{
  if (! _alt_tick_rate)
 201069c:	008080f4 	movhi	r2,515
 20106a0:	10896e04 	addi	r2,r2,9656
 20106a4:	10800017 	ldw	r2,0(r2)
 20106a8:	1000041e 	bne	r2,zero,20106bc <alt_avalon_timer_sc_init+0x48>
  {
    _alt_tick_rate = nticks;
 20106ac:	008080f4 	movhi	r2,515
 20106b0:	10896e04 	addi	r2,r2,9656
 20106b4:	e0fffb17 	ldw	r3,-20(fp)
 20106b8:	10c00015 	stw	r3,0(r2)
  
  alt_sysclk_init (freq);
  
  /* set to free running mode */
  
  IOWR_ALTERA_AVALON_TIMER_CONTROL (base, 
 20106bc:	e0bffc17 	ldw	r2,-16(fp)
 20106c0:	10800104 	addi	r2,r2,4
 20106c4:	00c001c4 	movi	r3,7
 20106c8:	10c00035 	stwio	r3,0(r2)
            ALTERA_AVALON_TIMER_CONTROL_CONT_MSK |
            ALTERA_AVALON_TIMER_CONTROL_START_MSK);

  /* register the interrupt handler, and enable the interrupt */
#ifdef ALT_ENHANCED_INTERRUPT_API_PRESENT
  alt_ic_isr_register(irq_controller_id, irq, alt_avalon_timer_sc_irq, 
 20106cc:	d8000015 	stw	zero,0(sp)
 20106d0:	e13ffd17 	ldw	r4,-12(fp)
 20106d4:	e17ffe17 	ldw	r5,-8(fp)
 20106d8:	01808074 	movhi	r6,513
 20106dc:	31818004 	addi	r6,r6,1536
 20106e0:	e1fffc17 	ldw	r7,-16(fp)
 20106e4:	200e5b00 	call	200e5b0 <alt_ic_isr_register>
                      base, NULL);
#else
  alt_irq_register (irq, base, alt_avalon_timer_sc_irq);
#endif  
}
 20106e8:	e037883a 	mov	sp,fp
 20106ec:	dfc00117 	ldw	ra,4(sp)
 20106f0:	df000017 	ldw	fp,0(sp)
 20106f4:	dec00204 	addi	sp,sp,8
 20106f8:	f800283a 	ret

020106fc <epcs_read_status_register>:
#include "alt_types.h"
#include "epcs_commands.h"
#include "altera_avalon_spi.h"

alt_u8 epcs_read_status_register(alt_u32 base)
{
 20106fc:	defff904 	addi	sp,sp,-28
 2010700:	dfc00615 	stw	ra,24(sp)
 2010704:	df000515 	stw	fp,20(sp)
 2010708:	df000504 	addi	fp,sp,20
 201070c:	e13fff15 	stw	r4,-4(fp)
  const alt_u8 rdsr = epcs_rdsr;
 2010710:	00800144 	movi	r2,5
 2010714:	e0bffe05 	stb	r2,-8(fp)
  alt_u8 status;
  alt_avalon_spi_command(
 2010718:	00800044 	movi	r2,1
 201071c:	d8800015 	stw	r2,0(sp)
 2010720:	e0bffe44 	addi	r2,fp,-7
 2010724:	d8800115 	stw	r2,4(sp)
 2010728:	d8000215 	stw	zero,8(sp)
 201072c:	e13fff17 	ldw	r4,-4(fp)
 2010730:	000b883a 	mov	r5,zero
 2010734:	01800044 	movi	r6,1
 2010738:	e1fffe04 	addi	r7,fp,-8
 201073c:	20103fc0 	call	20103fc <alt_avalon_spi_command>
    1,
    &status,
    0
  );

  return status;
 2010740:	e0bffe43 	ldbu	r2,-7(fp)
}
 2010744:	e037883a 	mov	sp,fp
 2010748:	dfc00117 	ldw	ra,4(sp)
 201074c:	df000017 	ldw	fp,0(sp)
 2010750:	dec00204 	addi	sp,sp,8
 2010754:	f800283a 	ret

02010758 <epcs_test_wip>:

static ALT_INLINE int epcs_test_wip(alt_u32 base)
{
 2010758:	defffd04 	addi	sp,sp,-12
 201075c:	dfc00215 	stw	ra,8(sp)
 2010760:	df000115 	stw	fp,4(sp)
 2010764:	df000104 	addi	fp,sp,4
 2010768:	e13fff15 	stw	r4,-4(fp)
  return epcs_read_status_register(base) & 1;
 201076c:	e13fff17 	ldw	r4,-4(fp)
 2010770:	20106fc0 	call	20106fc <epcs_read_status_register>
 2010774:	10803fcc 	andi	r2,r2,255
 2010778:	1080004c 	andi	r2,r2,1
}
 201077c:	e037883a 	mov	sp,fp
 2010780:	dfc00117 	ldw	ra,4(sp)
 2010784:	df000017 	ldw	fp,0(sp)
 2010788:	dec00204 	addi	sp,sp,8
 201078c:	f800283a 	ret

02010790 <epcs_await_wip_released>:

static ALT_INLINE void epcs_await_wip_released(alt_u32 base)
{
 2010790:	defffd04 	addi	sp,sp,-12
 2010794:	dfc00215 	stw	ra,8(sp)
 2010798:	df000115 	stw	fp,4(sp)
 201079c:	df000104 	addi	fp,sp,4
 20107a0:	e13fff15 	stw	r4,-4(fp)
  /* Wait until the WIP bit goes low. */
  while (epcs_test_wip(base))
 20107a4:	0001883a 	nop
 20107a8:	e13fff17 	ldw	r4,-4(fp)
 20107ac:	20107580 	call	2010758 <epcs_test_wip>
 20107b0:	103ffd1e 	bne	r2,zero,20107a8 <__reset+0xfe008fa8>
  {
  }
}
 20107b4:	e037883a 	mov	sp,fp
 20107b8:	dfc00117 	ldw	ra,4(sp)
 20107bc:	df000017 	ldw	fp,0(sp)
 20107c0:	dec00204 	addi	sp,sp,8
 20107c4:	f800283a 	ret

020107c8 <epcs_sector_erase>:

void epcs_sector_erase(alt_u32 base, alt_u32 offset, alt_u32 four_bytes_mode)
{
 20107c8:	defff604 	addi	sp,sp,-40
 20107cc:	dfc00915 	stw	ra,36(sp)
 20107d0:	df000815 	stw	fp,32(sp)
 20107d4:	df000804 	addi	fp,sp,32
 20107d8:	e13ffd15 	stw	r4,-12(fp)
 20107dc:	e17ffe15 	stw	r5,-8(fp)
 20107e0:	e1bfff15 	stw	r6,-4(fp)
  alt_u8 se[5];
  alt_u8 len;
  
  if(four_bytes_mode)
 20107e4:	e0bfff17 	ldw	r2,-4(fp)
 20107e8:	10001226 	beq	r2,zero,2010834 <epcs_sector_erase+0x6c>
  {
      se[0] = epcs_se;  /* Note: Use epcs_se for Micron EPCS256 */
 20107ec:	00bff604 	movi	r2,-40
 20107f0:	e0bffb45 	stb	r2,-19(fp)
      se[1] = (offset >> 24) & 0xFF;
 20107f4:	e0bffe17 	ldw	r2,-8(fp)
 20107f8:	1004d63a 	srli	r2,r2,24
 20107fc:	e0bffb85 	stb	r2,-18(fp)
      se[2] = (offset >> 16) & 0xFF;
 2010800:	e0bffe17 	ldw	r2,-8(fp)
 2010804:	1004d43a 	srli	r2,r2,16
 2010808:	e0bffbc5 	stb	r2,-17(fp)
      se[3] = (offset >> 8) & 0xFF;
 201080c:	e0bffe17 	ldw	r2,-8(fp)
 2010810:	1004d23a 	srli	r2,r2,8
 2010814:	e0bffc05 	stb	r2,-16(fp)
      se[4] = offset & 0xFF;
 2010818:	e0bffe17 	ldw	r2,-8(fp)
 201081c:	e0bffc45 	stb	r2,-15(fp)
      len   = 5;
 2010820:	00800144 	movi	r2,5
 2010824:	e0bffb05 	stb	r2,-20(fp)
      epcs_enter_4_bytes_mode(base);
 2010828:	e13ffd17 	ldw	r4,-12(fp)
 201082c:	2010c700 	call	2010c70 <epcs_enter_4_bytes_mode>
 2010830:	00000c06 	br	2010864 <epcs_sector_erase+0x9c>
  }
  else
  {
      se[0] = epcs_se;
 2010834:	00bff604 	movi	r2,-40
 2010838:	e0bffb45 	stb	r2,-19(fp)
      se[1] = (offset >> 16) & 0xFF;
 201083c:	e0bffe17 	ldw	r2,-8(fp)
 2010840:	1004d43a 	srli	r2,r2,16
 2010844:	e0bffb85 	stb	r2,-18(fp)
      se[2] = (offset >> 8) & 0xFF;
 2010848:	e0bffe17 	ldw	r2,-8(fp)
 201084c:	1004d23a 	srli	r2,r2,8
 2010850:	e0bffbc5 	stb	r2,-17(fp)
      se[3] = offset & 0xFF;
 2010854:	e0bffe17 	ldw	r2,-8(fp)
 2010858:	e0bffc05 	stb	r2,-16(fp)
      len   = 4;
 201085c:	00800104 	movi	r2,4
 2010860:	e0bffb05 	stb	r2,-20(fp)
  }

  /* Execute a WREN instruction */
  epcs_write_enable(base);
 2010864:	e13ffd17 	ldw	r4,-12(fp)
 2010868:	20109b40 	call	20109b4 <epcs_write_enable>

  alt_avalon_spi_command(
 201086c:	e0fffb03 	ldbu	r3,-20(fp)
 2010870:	e0bffb44 	addi	r2,fp,-19
 2010874:	d8000015 	stw	zero,0(sp)
 2010878:	d8000115 	stw	zero,4(sp)
 201087c:	d8000215 	stw	zero,8(sp)
 2010880:	e13ffd17 	ldw	r4,-12(fp)
 2010884:	000b883a 	mov	r5,zero
 2010888:	180d883a 	mov	r6,r3
 201088c:	100f883a 	mov	r7,r2
 2010890:	20103fc0 	call	20103fc <alt_avalon_spi_command>
    0,
    (alt_u8*)0,
    0
  );

  epcs_await_wip_released(base);
 2010894:	e13ffd17 	ldw	r4,-12(fp)
 2010898:	20107900 	call	2010790 <epcs_await_wip_released>

  if(four_bytes_mode)
 201089c:	e0bfff17 	ldw	r2,-4(fp)
 20108a0:	10000226 	beq	r2,zero,20108ac <epcs_sector_erase+0xe4>
  {
    epcs_exit_4_bytes_mode(base);
 20108a4:	e13ffd17 	ldw	r4,-12(fp)
 20108a8:	2010ccc0 	call	2010ccc <epcs_exit_4_bytes_mode>
  }
}
 20108ac:	e037883a 	mov	sp,fp
 20108b0:	dfc00117 	ldw	ra,4(sp)
 20108b4:	df000017 	ldw	fp,0(sp)
 20108b8:	dec00204 	addi	sp,sp,8
 20108bc:	f800283a 	ret

020108c0 <epcs_read_buffer>:

alt_32 epcs_read_buffer(alt_u32 base, int offset, alt_u8 *dest_addr, int length,
                        alt_u32 four_bytes_mode)
{
 20108c0:	defff404 	addi	sp,sp,-48
 20108c4:	dfc00b15 	stw	ra,44(sp)
 20108c8:	df000a15 	stw	fp,40(sp)
 20108cc:	df000a04 	addi	fp,sp,40
 20108d0:	e13ffc15 	stw	r4,-16(fp)
 20108d4:	e17ffd15 	stw	r5,-12(fp)
 20108d8:	e1bffe15 	stw	r6,-8(fp)
 20108dc:	e1ffff15 	stw	r7,-4(fp)
  alt_u8 read_command[5];
  alt_u32 cmd_len;

  read_command[0] = epcs_read;
 20108e0:	008000c4 	movi	r2,3
 20108e4:	e0bffa05 	stb	r2,-24(fp)
  
  if(four_bytes_mode)
 20108e8:	e0800217 	ldw	r2,8(fp)
 20108ec:	10001026 	beq	r2,zero,2010930 <epcs_read_buffer+0x70>
  {
        read_command[1] = (offset >> 24) & 0xFF;
 20108f0:	e0bffd17 	ldw	r2,-12(fp)
 20108f4:	1004d63a 	srli	r2,r2,24
 20108f8:	e0bffa45 	stb	r2,-23(fp)
        read_command[2] = (offset >> 16) & 0xFF;
 20108fc:	e0bffd17 	ldw	r2,-12(fp)
 2010900:	1005d43a 	srai	r2,r2,16
 2010904:	e0bffa85 	stb	r2,-22(fp)
        read_command[3] = (offset >> 8) & 0xFF;
 2010908:	e0bffd17 	ldw	r2,-12(fp)
 201090c:	1005d23a 	srai	r2,r2,8
 2010910:	e0bffac5 	stb	r2,-21(fp)
        read_command[4] = offset & 0xFF;
 2010914:	e0bffd17 	ldw	r2,-12(fp)
 2010918:	e0bffb05 	stb	r2,-20(fp)
        cmd_len = 5;
 201091c:	00800144 	movi	r2,5
 2010920:	e0bff915 	stw	r2,-28(fp)
        epcs_enter_4_bytes_mode(base);
 2010924:	e13ffc17 	ldw	r4,-16(fp)
 2010928:	2010c700 	call	2010c70 <epcs_enter_4_bytes_mode>
 201092c:	00000a06 	br	2010958 <epcs_read_buffer+0x98>
  }
  else
  {
        read_command[1] = (offset >> 16) & 0xFF;
 2010930:	e0bffd17 	ldw	r2,-12(fp)
 2010934:	1005d43a 	srai	r2,r2,16
 2010938:	e0bffa45 	stb	r2,-23(fp)
        read_command[2] = (offset >> 8) & 0xFF;
 201093c:	e0bffd17 	ldw	r2,-12(fp)
 2010940:	1005d23a 	srai	r2,r2,8
 2010944:	e0bffa85 	stb	r2,-22(fp)
        read_command[3] = offset & 0xFF;
 2010948:	e0bffd17 	ldw	r2,-12(fp)
 201094c:	e0bffac5 	stb	r2,-21(fp)
        cmd_len = 4;
 2010950:	00800104 	movi	r2,4
 2010954:	e0bff915 	stw	r2,-28(fp)
  }

  epcs_await_wip_released(base);
 2010958:	e13ffc17 	ldw	r4,-16(fp)
 201095c:	20107900 	call	2010790 <epcs_await_wip_released>

  alt_avalon_spi_command(
 2010960:	e0bfff17 	ldw	r2,-4(fp)
 2010964:	e0fffa04 	addi	r3,fp,-24
 2010968:	d8800015 	stw	r2,0(sp)
 201096c:	e0bffe17 	ldw	r2,-8(fp)
 2010970:	d8800115 	stw	r2,4(sp)
 2010974:	d8000215 	stw	zero,8(sp)
 2010978:	e13ffc17 	ldw	r4,-16(fp)
 201097c:	000b883a 	mov	r5,zero
 2010980:	e1bff917 	ldw	r6,-28(fp)
 2010984:	180f883a 	mov	r7,r3
 2010988:	20103fc0 	call	20103fc <alt_avalon_spi_command>
    length,
    (alt_u8*)dest_addr,
    0
  );

  if(four_bytes_mode)
 201098c:	e0800217 	ldw	r2,8(fp)
 2010990:	10000226 	beq	r2,zero,201099c <epcs_read_buffer+0xdc>
  {
    epcs_exit_4_bytes_mode(base);
 2010994:	e13ffc17 	ldw	r4,-16(fp)
 2010998:	2010ccc0 	call	2010ccc <epcs_exit_4_bytes_mode>
  }

  return length;
 201099c:	e0bfff17 	ldw	r2,-4(fp)
}
 20109a0:	e037883a 	mov	sp,fp
 20109a4:	dfc00117 	ldw	ra,4(sp)
 20109a8:	df000017 	ldw	fp,0(sp)
 20109ac:	dec00204 	addi	sp,sp,8
 20109b0:	f800283a 	ret

020109b4 <epcs_write_enable>:

void epcs_write_enable(alt_u32 base)
{
 20109b4:	defff904 	addi	sp,sp,-28
 20109b8:	dfc00615 	stw	ra,24(sp)
 20109bc:	df000515 	stw	fp,20(sp)
 20109c0:	df000504 	addi	fp,sp,20
 20109c4:	e13fff15 	stw	r4,-4(fp)
  const alt_u8 wren = epcs_wren;
 20109c8:	00800184 	movi	r2,6
 20109cc:	e0bffe05 	stb	r2,-8(fp)
  alt_avalon_spi_command(
 20109d0:	d8000015 	stw	zero,0(sp)
 20109d4:	d8000115 	stw	zero,4(sp)
 20109d8:	d8000215 	stw	zero,8(sp)
 20109dc:	e13fff17 	ldw	r4,-4(fp)
 20109e0:	000b883a 	mov	r5,zero
 20109e4:	01800044 	movi	r6,1
 20109e8:	e1fffe04 	addi	r7,fp,-8
 20109ec:	20103fc0 	call	20103fc <alt_avalon_spi_command>
    &wren,
    0,
    (alt_u8*)0,
    0
  );
}
 20109f0:	e037883a 	mov	sp,fp
 20109f4:	dfc00117 	ldw	ra,4(sp)
 20109f8:	df000017 	ldw	fp,0(sp)
 20109fc:	dec00204 	addi	sp,sp,8
 2010a00:	f800283a 	ret

02010a04 <epcs_write_status_register>:

void epcs_write_status_register(alt_u32 base, alt_u8 value)
{
 2010a04:	defff804 	addi	sp,sp,-32
 2010a08:	dfc00715 	stw	ra,28(sp)
 2010a0c:	df000615 	stw	fp,24(sp)
 2010a10:	df000604 	addi	fp,sp,24
 2010a14:	e13ffe15 	stw	r4,-8(fp)
 2010a18:	2805883a 	mov	r2,r5
 2010a1c:	e0bfff05 	stb	r2,-4(fp)
  alt_u8 wrsr[2];
  
  wrsr[0] = epcs_wrsr;
 2010a20:	00800044 	movi	r2,1
 2010a24:	e0bffd05 	stb	r2,-12(fp)
  wrsr[1] = value;
 2010a28:	e0bfff03 	ldbu	r2,-4(fp)
 2010a2c:	e0bffd45 	stb	r2,-11(fp)

  alt_avalon_spi_command(
 2010a30:	d8000015 	stw	zero,0(sp)
 2010a34:	d8000115 	stw	zero,4(sp)
 2010a38:	d8000215 	stw	zero,8(sp)
 2010a3c:	e13ffe17 	ldw	r4,-8(fp)
 2010a40:	000b883a 	mov	r5,zero
 2010a44:	01800084 	movi	r6,2
 2010a48:	e1fffd04 	addi	r7,fp,-12
 2010a4c:	20103fc0 	call	20103fc <alt_avalon_spi_command>
    0,
    (alt_u8*)0,
    0
  );

  epcs_await_wip_released(base);
 2010a50:	e13ffe17 	ldw	r4,-8(fp)
 2010a54:	20107900 	call	2010790 <epcs_await_wip_released>
}
 2010a58:	e037883a 	mov	sp,fp
 2010a5c:	dfc00117 	ldw	ra,4(sp)
 2010a60:	df000017 	ldw	fp,0(sp)
 2010a64:	dec00204 	addi	sp,sp,8
 2010a68:	f800283a 	ret

02010a6c <epcs_write_buffer>:

/* Write a partial or full page, assuming that page has been erased */
alt_32 epcs_write_buffer(alt_u32 base, int offset, const alt_u8* src_addr, 
                         int length, alt_u32 four_bytes_mode)
{
 2010a6c:	defff404 	addi	sp,sp,-48
 2010a70:	dfc00b15 	stw	ra,44(sp)
 2010a74:	df000a15 	stw	fp,40(sp)
 2010a78:	df000a04 	addi	fp,sp,40
 2010a7c:	e13ffc15 	stw	r4,-16(fp)
 2010a80:	e17ffd15 	stw	r5,-12(fp)
 2010a84:	e1bffe15 	stw	r6,-8(fp)
 2010a88:	e1ffff15 	stw	r7,-4(fp)
  alt_u8 pp[5];
  alt_u32 cmd_len;
  
  pp[0] = epcs_pp;
 2010a8c:	00800084 	movi	r2,2
 2010a90:	e0bffa05 	stb	r2,-24(fp)
  
  if(four_bytes_mode)
 2010a94:	e0800217 	ldw	r2,8(fp)
 2010a98:	10001026 	beq	r2,zero,2010adc <epcs_write_buffer+0x70>
  {
      pp[1] = (offset >> 24) & 0xFF;
 2010a9c:	e0bffd17 	ldw	r2,-12(fp)
 2010aa0:	1004d63a 	srli	r2,r2,24
 2010aa4:	e0bffa45 	stb	r2,-23(fp)
      pp[2] = (offset >> 16) & 0xFF;
 2010aa8:	e0bffd17 	ldw	r2,-12(fp)
 2010aac:	1005d43a 	srai	r2,r2,16
 2010ab0:	e0bffa85 	stb	r2,-22(fp)
      pp[3] = (offset >> 8) & 0xFF;
 2010ab4:	e0bffd17 	ldw	r2,-12(fp)
 2010ab8:	1005d23a 	srai	r2,r2,8
 2010abc:	e0bffac5 	stb	r2,-21(fp)
      pp[4] = offset & 0xFF;
 2010ac0:	e0bffd17 	ldw	r2,-12(fp)
 2010ac4:	e0bffb05 	stb	r2,-20(fp)
      cmd_len = 5;
 2010ac8:	00800144 	movi	r2,5
 2010acc:	e0bff915 	stw	r2,-28(fp)
      epcs_enter_4_bytes_mode(base);
 2010ad0:	e13ffc17 	ldw	r4,-16(fp)
 2010ad4:	2010c700 	call	2010c70 <epcs_enter_4_bytes_mode>
 2010ad8:	00000a06 	br	2010b04 <epcs_write_buffer+0x98>
  }
  else
  {
      pp[1] = (offset >> 16) & 0xFF;
 2010adc:	e0bffd17 	ldw	r2,-12(fp)
 2010ae0:	1005d43a 	srai	r2,r2,16
 2010ae4:	e0bffa45 	stb	r2,-23(fp)
      pp[2] = (offset >> 8) & 0xFF;
 2010ae8:	e0bffd17 	ldw	r2,-12(fp)
 2010aec:	1005d23a 	srai	r2,r2,8
 2010af0:	e0bffa85 	stb	r2,-22(fp)
      pp[3] = offset & 0xFF;
 2010af4:	e0bffd17 	ldw	r2,-12(fp)
 2010af8:	e0bffac5 	stb	r2,-21(fp)
      cmd_len = 4;
 2010afc:	00800104 	movi	r2,4
 2010b00:	e0bff915 	stw	r2,-28(fp)
  }

  /* First, WREN */
  epcs_write_enable(base);
 2010b04:	e13ffc17 	ldw	r4,-16(fp)
 2010b08:	20109b40 	call	20109b4 <epcs_write_enable>

  /* Send the PP command */
  alt_avalon_spi_command(
 2010b0c:	e0fffa04 	addi	r3,fp,-24
 2010b10:	d8000015 	stw	zero,0(sp)
 2010b14:	d8000115 	stw	zero,4(sp)
 2010b18:	00800044 	movi	r2,1
 2010b1c:	d8800215 	stw	r2,8(sp)
 2010b20:	e13ffc17 	ldw	r4,-16(fp)
 2010b24:	000b883a 	mov	r5,zero
 2010b28:	e1bff917 	ldw	r6,-28(fp)
 2010b2c:	180f883a 	mov	r7,r3
 2010b30:	20103fc0 	call	20103fc <alt_avalon_spi_command>
    (alt_u8*)0,
    ALT_AVALON_SPI_COMMAND_MERGE
  );

  /* Send the user's buffer */
  alt_avalon_spi_command(
 2010b34:	e0bfff17 	ldw	r2,-4(fp)
 2010b38:	d8000015 	stw	zero,0(sp)
 2010b3c:	d8000115 	stw	zero,4(sp)
 2010b40:	d8000215 	stw	zero,8(sp)
 2010b44:	e13ffc17 	ldw	r4,-16(fp)
 2010b48:	000b883a 	mov	r5,zero
 2010b4c:	100d883a 	mov	r6,r2
 2010b50:	e1fffe17 	ldw	r7,-8(fp)
 2010b54:	20103fc0 	call	20103fc <alt_avalon_spi_command>
   * if the user's going to go off and ignore the flash for
   * a while, its writes could occur in parallel with user code
   * execution.  Unfortunately, I have to guard all reads/writes
   * with wip-tests, to make that happen.
   */
  epcs_await_wip_released(base);
 2010b58:	e13ffc17 	ldw	r4,-16(fp)
 2010b5c:	20107900 	call	2010790 <epcs_await_wip_released>

  if(four_bytes_mode)
 2010b60:	e0800217 	ldw	r2,8(fp)
 2010b64:	10000226 	beq	r2,zero,2010b70 <epcs_write_buffer+0x104>
  {
    epcs_exit_4_bytes_mode(base);
 2010b68:	e13ffc17 	ldw	r4,-16(fp)
 2010b6c:	2010ccc0 	call	2010ccc <epcs_exit_4_bytes_mode>
  }

  return length;
 2010b70:	e0bfff17 	ldw	r2,-4(fp)
}
 2010b74:	e037883a 	mov	sp,fp
 2010b78:	dfc00117 	ldw	ra,4(sp)
 2010b7c:	df000017 	ldw	fp,0(sp)
 2010b80:	dec00204 	addi	sp,sp,8
 2010b84:	f800283a 	ret

02010b88 <epcs_read_electronic_signature>:


alt_u8 epcs_read_electronic_signature(alt_u32 base)
{
 2010b88:	defff804 	addi	sp,sp,-32
 2010b8c:	dfc00715 	stw	ra,28(sp)
 2010b90:	df000615 	stw	fp,24(sp)
 2010b94:	df000604 	addi	fp,sp,24
 2010b98:	e13fff15 	stw	r4,-4(fp)
  const alt_u8 res_cmd[] = {epcs_res, 0, 0, 0};
 2010b9c:	00bfeac4 	movi	r2,-85
 2010ba0:	e0bffd05 	stb	r2,-12(fp)
 2010ba4:	e03ffd45 	stb	zero,-11(fp)
 2010ba8:	e03ffd85 	stb	zero,-10(fp)
 2010bac:	e03ffdc5 	stb	zero,-9(fp)
  alt_u8 res;

  alt_avalon_spi_command(
 2010bb0:	00800044 	movi	r2,1
 2010bb4:	d8800015 	stw	r2,0(sp)
 2010bb8:	e0bffe04 	addi	r2,fp,-8
 2010bbc:	d8800115 	stw	r2,4(sp)
 2010bc0:	d8000215 	stw	zero,8(sp)
 2010bc4:	e13fff17 	ldw	r4,-4(fp)
 2010bc8:	000b883a 	mov	r5,zero
 2010bcc:	01800104 	movi	r6,4
 2010bd0:	e1fffd04 	addi	r7,fp,-12
 2010bd4:	20103fc0 	call	20103fc <alt_avalon_spi_command>
    1,
    &res,
    0
  );

  return res;
 2010bd8:	e0bffe03 	ldbu	r2,-8(fp)
}
 2010bdc:	e037883a 	mov	sp,fp
 2010be0:	dfc00117 	ldw	ra,4(sp)
 2010be4:	df000017 	ldw	fp,0(sp)
 2010be8:	dec00204 	addi	sp,sp,8
 2010bec:	f800283a 	ret

02010bf0 <epcs_read_device_id>:

alt_u32 epcs_read_device_id(alt_u32 base)
{
 2010bf0:	defff904 	addi	sp,sp,-28
 2010bf4:	dfc00615 	stw	ra,24(sp)
 2010bf8:	df000515 	stw	fp,20(sp)
 2010bfc:	df000504 	addi	fp,sp,20
 2010c00:	e13fff15 	stw	r4,-4(fp)
  const alt_u8 rd_id_cmd[] = {epcs_rdid};
 2010c04:	00bfe7c4 	movi	r2,-97
 2010c08:	e0bffe05 	stb	r2,-8(fp)
  alt_u8 id[3];

  alt_avalon_spi_command(
 2010c0c:	008000c4 	movi	r2,3
 2010c10:	d8800015 	stw	r2,0(sp)
 2010c14:	e0bffe44 	addi	r2,fp,-7
 2010c18:	d8800115 	stw	r2,4(sp)
 2010c1c:	d8000215 	stw	zero,8(sp)
 2010c20:	e13fff17 	ldw	r4,-4(fp)
 2010c24:	000b883a 	mov	r5,zero
 2010c28:	01800044 	movi	r6,1
 2010c2c:	e1fffe04 	addi	r7,fp,-8
 2010c30:	20103fc0 	call	20103fc <alt_avalon_spi_command>
    3,
    id,
    0
  );

  return (alt_u32) ((id[0] << 16) | (id[1] << 8) | id[2]);
 2010c34:	e0bffe43 	ldbu	r2,-7(fp)
 2010c38:	10803fcc 	andi	r2,r2,255
 2010c3c:	1006943a 	slli	r3,r2,16
 2010c40:	e0bffe83 	ldbu	r2,-6(fp)
 2010c44:	10803fcc 	andi	r2,r2,255
 2010c48:	1004923a 	slli	r2,r2,8
 2010c4c:	1886b03a 	or	r3,r3,r2
 2010c50:	e0bffec3 	ldbu	r2,-5(fp)
 2010c54:	10803fcc 	andi	r2,r2,255
 2010c58:	1884b03a 	or	r2,r3,r2
}
 2010c5c:	e037883a 	mov	sp,fp
 2010c60:	dfc00117 	ldw	ra,4(sp)
 2010c64:	df000017 	ldw	fp,0(sp)
 2010c68:	dec00204 	addi	sp,sp,8
 2010c6c:	f800283a 	ret

02010c70 <epcs_enter_4_bytes_mode>:

void epcs_enter_4_bytes_mode(alt_u32 base)
{
 2010c70:	defff904 	addi	sp,sp,-28
 2010c74:	dfc00615 	stw	ra,24(sp)
 2010c78:	df000515 	stw	fp,20(sp)
 2010c7c:	df000504 	addi	fp,sp,20
 2010c80:	e13fff15 	stw	r4,-4(fp)
  const alt_u8 en4b_cmd = epcs_en4b;
 2010c84:	00bfedc4 	movi	r2,-73
 2010c88:	e0bffe05 	stb	r2,-8(fp)

  /* First, WREN */
  epcs_write_enable(base);
 2010c8c:	e13fff17 	ldw	r4,-4(fp)
 2010c90:	20109b40 	call	20109b4 <epcs_write_enable>

  alt_avalon_spi_command(
 2010c94:	d8000015 	stw	zero,0(sp)
 2010c98:	d8000115 	stw	zero,4(sp)
 2010c9c:	d8000215 	stw	zero,8(sp)
 2010ca0:	e13fff17 	ldw	r4,-4(fp)
 2010ca4:	000b883a 	mov	r5,zero
 2010ca8:	01800044 	movi	r6,1
 2010cac:	e1fffe04 	addi	r7,fp,-8
 2010cb0:	20103fc0 	call	20103fc <alt_avalon_spi_command>
    0,
    (alt_u8*)0,
    0
  );

  return;
 2010cb4:	0001883a 	nop
}
 2010cb8:	e037883a 	mov	sp,fp
 2010cbc:	dfc00117 	ldw	ra,4(sp)
 2010cc0:	df000017 	ldw	fp,0(sp)
 2010cc4:	dec00204 	addi	sp,sp,8
 2010cc8:	f800283a 	ret

02010ccc <epcs_exit_4_bytes_mode>:

void epcs_exit_4_bytes_mode(alt_u32 base)
{
 2010ccc:	defff904 	addi	sp,sp,-28
 2010cd0:	dfc00615 	stw	ra,24(sp)
 2010cd4:	df000515 	stw	fp,20(sp)
 2010cd8:	df000504 	addi	fp,sp,20
 2010cdc:	e13fff15 	stw	r4,-4(fp)
  const alt_u8 exit4b_cmd = epcs_dis4b;
 2010ce0:	00bffa44 	movi	r2,-23
 2010ce4:	e0bffe05 	stb	r2,-8(fp)

  /* First, WREN */
  epcs_write_enable(base);
 2010ce8:	e13fff17 	ldw	r4,-4(fp)
 2010cec:	20109b40 	call	20109b4 <epcs_write_enable>

  alt_avalon_spi_command(
 2010cf0:	d8000015 	stw	zero,0(sp)
 2010cf4:	d8000115 	stw	zero,4(sp)
 2010cf8:	d8000215 	stw	zero,8(sp)
 2010cfc:	e13fff17 	ldw	r4,-4(fp)
 2010d00:	000b883a 	mov	r5,zero
 2010d04:	01800044 	movi	r6,1
 2010d08:	e1fffe04 	addi	r7,fp,-8
 2010d0c:	20103fc0 	call	20103fc <alt_avalon_spi_command>
    0,
    (alt_u8*)0,
    0
  );

  return;
 2010d10:	0001883a 	nop
}
 2010d14:	e037883a 	mov	sp,fp
 2010d18:	dfc00117 	ldw	ra,4(sp)
 2010d1c:	df000017 	ldw	fp,0(sp)
 2010d20:	dec00204 	addi	sp,sp,8
 2010d24:	f800283a 	ret

02010d28 <alt_busy_sleep>:
#include "alt_types.h"

#include "priv/alt_busy_sleep.h"

unsigned int alt_busy_sleep (unsigned int us)
{
 2010d28:	defffa04 	addi	sp,sp,-24
 2010d2c:	dfc00515 	stw	ra,20(sp)
 2010d30:	df000415 	stw	fp,16(sp)
 2010d34:	df000404 	addi	fp,sp,16
 2010d38:	e13fff15 	stw	r4,-4(fp)
  {
    cycles_per_loop = 9;
  }
  else  
  {
    cycles_per_loop = 3;
 2010d3c:	008000c4 	movi	r2,3
 2010d40:	e0bffd15 	stw	r2,-12(fp)
  }
  

  big_loops = us / (INT_MAX/
  (ALT_CPU_FREQ/(cycles_per_loop * 1000000)));
 2010d44:	e0fffd17 	ldw	r3,-12(fp)
 2010d48:	008003f4 	movhi	r2,15
 2010d4c:	10909004 	addi	r2,r2,16960
 2010d50:	1885383a 	mul	r2,r3,r2
 2010d54:	0100bef4 	movhi	r4,763
 2010d58:	213c2004 	addi	r4,r4,-3968
 2010d5c:	100b883a 	mov	r5,r2
 2010d60:	200a5800 	call	200a580 <__udivsi3>
  {
    cycles_per_loop = 3;
  }
  

  big_loops = us / (INT_MAX/
 2010d64:	01200034 	movhi	r4,32768
 2010d68:	213fffc4 	addi	r4,r4,-1
 2010d6c:	100b883a 	mov	r5,r2
 2010d70:	200a5800 	call	200a580 <__udivsi3>
 2010d74:	e13fff17 	ldw	r4,-4(fp)
 2010d78:	100b883a 	mov	r5,r2
 2010d7c:	200a5800 	call	200a580 <__udivsi3>
 2010d80:	e0bffe15 	stw	r2,-8(fp)
  (ALT_CPU_FREQ/(cycles_per_loop * 1000000)));

  if (big_loops)
 2010d84:	e0bffe17 	ldw	r2,-8(fp)
 2010d88:	10002a26 	beq	r2,zero,2010e34 <alt_busy_sleep+0x10c>
  {
    for(i=0;i<big_loops;i++)
 2010d8c:	e03ffc15 	stw	zero,-16(fp)
 2010d90:	00001706 	br	2010df0 <alt_busy_sleep+0xc8>
      /*
      * Do NOT Try to single step the asm statement below 
      * (single step will never return)
      * Step out of this function or set a breakpoint after the asm statements
      */
      __asm__ volatile (
 2010d94:	00a00034 	movhi	r2,32768
 2010d98:	10bfffc4 	addi	r2,r2,-1
 2010d9c:	10bfffc4 	addi	r2,r2,-1
 2010da0:	103ffe1e 	bne	r2,zero,2010d9c <__reset+0xfe00959c>
        "\n\t.pushsection .debug_alt_sim_info"
        "\n\t.int 4, 0, 0b, 1b"
        "\n\t.popsection"
        :: "r" (INT_MAX));
      us -= (INT_MAX/(ALT_CPU_FREQ/
      (cycles_per_loop * 1000000)));
 2010da4:	e0fffd17 	ldw	r3,-12(fp)
 2010da8:	008003f4 	movhi	r2,15
 2010dac:	10909004 	addi	r2,r2,16960
 2010db0:	1885383a 	mul	r2,r3,r2
        "\n1:"
        "\n\t.pushsection .debug_alt_sim_info"
        "\n\t.int 4, 0, 0b, 1b"
        "\n\t.popsection"
        :: "r" (INT_MAX));
      us -= (INT_MAX/(ALT_CPU_FREQ/
 2010db4:	0100bef4 	movhi	r4,763
 2010db8:	213c2004 	addi	r4,r4,-3968
 2010dbc:	100b883a 	mov	r5,r2
 2010dc0:	200a5800 	call	200a580 <__udivsi3>
 2010dc4:	01200034 	movhi	r4,32768
 2010dc8:	213fffc4 	addi	r4,r4,-1
 2010dcc:	100b883a 	mov	r5,r2
 2010dd0:	200a5800 	call	200a580 <__udivsi3>
 2010dd4:	1007883a 	mov	r3,r2
 2010dd8:	e0bfff17 	ldw	r2,-4(fp)
 2010ddc:	10c5c83a 	sub	r2,r2,r3
 2010de0:	e0bfff15 	stw	r2,-4(fp)
  big_loops = us / (INT_MAX/
  (ALT_CPU_FREQ/(cycles_per_loop * 1000000)));

  if (big_loops)
  {
    for(i=0;i<big_loops;i++)
 2010de4:	e0bffc17 	ldw	r2,-16(fp)
 2010de8:	10800044 	addi	r2,r2,1
 2010dec:	e0bffc15 	stw	r2,-16(fp)
 2010df0:	e0fffc17 	ldw	r3,-16(fp)
 2010df4:	e0bffe17 	ldw	r2,-8(fp)
 2010df8:	18bfe616 	blt	r3,r2,2010d94 <__reset+0xfe009594>
      "\n\tbne %0,zero,0b"
      "\n1:"
      "\n\t.pushsection .debug_alt_sim_info"
      "\n\t.int 4, 0, 0b, 1b"
      "\n\t.popsection"
      :: "r" (us*(ALT_CPU_FREQ/(cycles_per_loop * 1000000))));
 2010dfc:	e0fffd17 	ldw	r3,-12(fp)
 2010e00:	008003f4 	movhi	r2,15
 2010e04:	10909004 	addi	r2,r2,16960
 2010e08:	1885383a 	mul	r2,r3,r2
 2010e0c:	0100bef4 	movhi	r4,763
 2010e10:	213c2004 	addi	r4,r4,-3968
 2010e14:	100b883a 	mov	r5,r2
 2010e18:	200a5800 	call	200a580 <__udivsi3>
 2010e1c:	1007883a 	mov	r3,r2
 2010e20:	e0bfff17 	ldw	r2,-4(fp)
 2010e24:	1885383a 	mul	r2,r3,r2
    /*
    * Do NOT Try to single step the asm statement below 
    * (single step will never return)
    * Step out of this function or set a breakpoint after the asm statements
    */
    __asm__ volatile (
 2010e28:	10bfffc4 	addi	r2,r2,-1
 2010e2c:	103ffe1e 	bne	r2,zero,2010e28 <__reset+0xfe009628>
 2010e30:	00000d06 	br	2010e68 <alt_busy_sleep+0x140>
      "\n\tbgt %0,zero,0b"
      "\n1:"
      "\n\t.pushsection .debug_alt_sim_info"
      "\n\t.int 4, 0, 0b, 1b"
      "\n\t.popsection"
      :: "r" (us*(ALT_CPU_FREQ/(cycles_per_loop * 1000000))));
 2010e34:	e0fffd17 	ldw	r3,-12(fp)
 2010e38:	008003f4 	movhi	r2,15
 2010e3c:	10909004 	addi	r2,r2,16960
 2010e40:	1885383a 	mul	r2,r3,r2
 2010e44:	0100bef4 	movhi	r4,763
 2010e48:	213c2004 	addi	r4,r4,-3968
 2010e4c:	100b883a 	mov	r5,r2
 2010e50:	200a5800 	call	200a580 <__udivsi3>
 2010e54:	1007883a 	mov	r3,r2
 2010e58:	e0bfff17 	ldw	r2,-4(fp)
 2010e5c:	1885383a 	mul	r2,r3,r2
    /*
    * Do NOT Try to single step the asm statement below 
    * (single step will never return)
    * Step out of this function or set a breakpoint after the asm statements
    */
    __asm__ volatile (
 2010e60:	10bfffc4 	addi	r2,r2,-1
 2010e64:	00bffe16 	blt	zero,r2,2010e60 <__reset+0xfe009660>
      "\n\t.int 4, 0, 0b, 1b"
      "\n\t.popsection"
      :: "r" (us*(ALT_CPU_FREQ/(cycles_per_loop * 1000000))));
  }
#endif /* #ifndef ALT_SIM_OPTIMIZE */
  return 0;
 2010e68:	0005883a 	mov	r2,zero
}
 2010e6c:	e037883a 	mov	sp,fp
 2010e70:	dfc00117 	ldw	ra,4(sp)
 2010e74:	df000017 	ldw	fp,0(sp)
 2010e78:	dec00204 	addi	sp,sp,8
 2010e7c:	f800283a 	ret

02010e80 <alt_get_errno>:
#undef errno

extern int errno;

static ALT_INLINE int* alt_get_errno(void)
{
 2010e80:	defffe04 	addi	sp,sp,-8
 2010e84:	dfc00115 	stw	ra,4(sp)
 2010e88:	df000015 	stw	fp,0(sp)
 2010e8c:	d839883a 	mov	fp,sp
  return ((alt_errno) ? alt_errno() : &errno);
 2010e90:	008080f4 	movhi	r2,515
 2010e94:	10bc7904 	addi	r2,r2,-3612
 2010e98:	10800017 	ldw	r2,0(r2)
 2010e9c:	10000526 	beq	r2,zero,2010eb4 <alt_get_errno+0x34>
 2010ea0:	008080f4 	movhi	r2,515
 2010ea4:	10bc7904 	addi	r2,r2,-3612
 2010ea8:	10800017 	ldw	r2,0(r2)
 2010eac:	103ee83a 	callr	r2
 2010eb0:	00000206 	br	2010ebc <alt_get_errno+0x3c>
 2010eb4:	008080f4 	movhi	r2,515
 2010eb8:	10896904 	addi	r2,r2,9636
}
 2010ebc:	e037883a 	mov	sp,fp
 2010ec0:	dfc00117 	ldw	ra,4(sp)
 2010ec4:	df000017 	ldw	fp,0(sp)
 2010ec8:	dec00204 	addi	sp,sp,8
 2010ecc:	f800283a 	ret

02010ed0 <close>:
 *
 * ALT_CLOSE is mapped onto the close() system call in alt_syscall.h
 */
 
int ALT_CLOSE (int fildes)
{
 2010ed0:	defffb04 	addi	sp,sp,-20
 2010ed4:	dfc00415 	stw	ra,16(sp)
 2010ed8:	df000315 	stw	fp,12(sp)
 2010edc:	df000304 	addi	fp,sp,12
 2010ee0:	e13fff15 	stw	r4,-4(fp)
   * A common error case is that when the file descriptor was created, the call
   * to open() failed resulting in a negative file descriptor. This is trapped
   * below so that we don't try and process an invalid file descriptor.
   */

  fd = (fildes < 0) ? NULL : &alt_fd_list[fildes];
 2010ee4:	e0bfff17 	ldw	r2,-4(fp)
 2010ee8:	10000616 	blt	r2,zero,2010f04 <close+0x34>
 2010eec:	e0bfff17 	ldw	r2,-4(fp)
 2010ef0:	10c00324 	muli	r3,r2,12
 2010ef4:	008080f4 	movhi	r2,515
 2010ef8:	10bc0a04 	addi	r2,r2,-4056
 2010efc:	1885883a 	add	r2,r3,r2
 2010f00:	00000106 	br	2010f08 <close+0x38>
 2010f04:	0005883a 	mov	r2,zero
 2010f08:	e0bffd15 	stw	r2,-12(fp)

  if (fd)
 2010f0c:	e0bffd17 	ldw	r2,-12(fp)
 2010f10:	10001926 	beq	r2,zero,2010f78 <close+0xa8>
    /*
     * If the associated file system/device has a close function, call it so 
     * that any necessary cleanup code can run.
     */

    rval = (fd->dev->close) ? fd->dev->close(fd) : 0;
 2010f14:	e0bffd17 	ldw	r2,-12(fp)
 2010f18:	10800017 	ldw	r2,0(r2)
 2010f1c:	10800417 	ldw	r2,16(r2)
 2010f20:	10000626 	beq	r2,zero,2010f3c <close+0x6c>
 2010f24:	e0bffd17 	ldw	r2,-12(fp)
 2010f28:	10800017 	ldw	r2,0(r2)
 2010f2c:	10800417 	ldw	r2,16(r2)
 2010f30:	e13ffd17 	ldw	r4,-12(fp)
 2010f34:	103ee83a 	callr	r2
 2010f38:	00000106 	br	2010f40 <close+0x70>
 2010f3c:	0005883a 	mov	r2,zero
 2010f40:	e0bffe15 	stw	r2,-8(fp)

    /* Free the file descriptor structure and return. */

    alt_release_fd (fildes);
 2010f44:	e13fff17 	ldw	r4,-4(fp)
 2010f48:	20116500 	call	2011650 <alt_release_fd>
    if (rval < 0)
 2010f4c:	e0bffe17 	ldw	r2,-8(fp)
 2010f50:	1000070e 	bge	r2,zero,2010f70 <close+0xa0>
    {
      ALT_ERRNO = -rval;
 2010f54:	2010e800 	call	2010e80 <alt_get_errno>
 2010f58:	1007883a 	mov	r3,r2
 2010f5c:	e0bffe17 	ldw	r2,-8(fp)
 2010f60:	0085c83a 	sub	r2,zero,r2
 2010f64:	18800015 	stw	r2,0(r3)
      return -1;
 2010f68:	00bfffc4 	movi	r2,-1
 2010f6c:	00000706 	br	2010f8c <close+0xbc>
    }
    return 0;
 2010f70:	0005883a 	mov	r2,zero
 2010f74:	00000506 	br	2010f8c <close+0xbc>
  }
  else
  {
    ALT_ERRNO = EBADFD;
 2010f78:	2010e800 	call	2010e80 <alt_get_errno>
 2010f7c:	1007883a 	mov	r3,r2
 2010f80:	00801444 	movi	r2,81
 2010f84:	18800015 	stw	r2,0(r3)
    return -1;
 2010f88:	00bfffc4 	movi	r2,-1
  }
}
 2010f8c:	e037883a 	mov	sp,fp
 2010f90:	dfc00117 	ldw	ra,4(sp)
 2010f94:	df000017 	ldw	fp,0(sp)
 2010f98:	dec00204 	addi	sp,sp,8
 2010f9c:	f800283a 	ret

02010fa0 <alt_dcache_flush_all>:
/*
 * alt_dcache_flush_all() is called to flush the entire data cache.
 */

void alt_dcache_flush_all (void)
{
 2010fa0:	defffe04 	addi	sp,sp,-8
 2010fa4:	df000115 	stw	fp,4(sp)
 2010fa8:	df000104 	addi	fp,sp,4
#if NIOS2_DCACHE_SIZE > 0
  char* i;
  
  for (i = (char*) 0; i < (char*) NIOS2_DCACHE_SIZE; i+= NIOS2_DCACHE_LINE_SIZE)
 2010fac:	e03fff15 	stw	zero,-4(fp)
 2010fb0:	00000506 	br	2010fc8 <alt_dcache_flush_all+0x28>
  { 
    __asm__ volatile ("flushd (%0)" :: "r" (i));
 2010fb4:	e0bfff17 	ldw	r2,-4(fp)
 2010fb8:	1000003b 	flushd	0(r2)
void alt_dcache_flush_all (void)
{
#if NIOS2_DCACHE_SIZE > 0
  char* i;
  
  for (i = (char*) 0; i < (char*) NIOS2_DCACHE_SIZE; i+= NIOS2_DCACHE_LINE_SIZE)
 2010fbc:	e0bfff17 	ldw	r2,-4(fp)
 2010fc0:	10800804 	addi	r2,r2,32
 2010fc4:	e0bfff15 	stw	r2,-4(fp)
 2010fc8:	e0bfff17 	ldw	r2,-4(fp)
 2010fcc:	10880030 	cmpltui	r2,r2,8192
 2010fd0:	103ff81e 	bne	r2,zero,2010fb4 <__reset+0xfe0097b4>
  { 
    __asm__ volatile ("flushd (%0)" :: "r" (i));
  }
#endif /* NIOS2_DCACHE_SIZE > 0 */
}
 2010fd4:	e037883a 	mov	sp,fp
 2010fd8:	df000017 	ldw	fp,0(sp)
 2010fdc:	dec00104 	addi	sp,sp,4
 2010fe0:	f800283a 	ret

02010fe4 <alt_dev_null_write>:
 * by the alt_dev_null device. It simple discards all data passed to it, and
 * indicates that the data has been successfully transmitted.
 */

static int alt_dev_null_write (alt_fd* fd, const char* ptr, int len)
{
 2010fe4:	defffc04 	addi	sp,sp,-16
 2010fe8:	df000315 	stw	fp,12(sp)
 2010fec:	df000304 	addi	fp,sp,12
 2010ff0:	e13ffd15 	stw	r4,-12(fp)
 2010ff4:	e17ffe15 	stw	r5,-8(fp)
 2010ff8:	e1bfff15 	stw	r6,-4(fp)
  return len;
 2010ffc:	e0bfff17 	ldw	r2,-4(fp)
}
 2011000:	e037883a 	mov	sp,fp
 2011004:	df000017 	ldw	fp,0(sp)
 2011008:	dec00104 	addi	sp,sp,4
 201100c:	f800283a 	ret

02011010 <alt_get_errno>:
#undef errno

extern int errno;

static ALT_INLINE int* alt_get_errno(void)
{
 2011010:	defffe04 	addi	sp,sp,-8
 2011014:	dfc00115 	stw	ra,4(sp)
 2011018:	df000015 	stw	fp,0(sp)
 201101c:	d839883a 	mov	fp,sp
  return ((alt_errno) ? alt_errno() : &errno);
 2011020:	008080f4 	movhi	r2,515
 2011024:	10bc7904 	addi	r2,r2,-3612
 2011028:	10800017 	ldw	r2,0(r2)
 201102c:	10000526 	beq	r2,zero,2011044 <alt_get_errno+0x34>
 2011030:	008080f4 	movhi	r2,515
 2011034:	10bc7904 	addi	r2,r2,-3612
 2011038:	10800017 	ldw	r2,0(r2)
 201103c:	103ee83a 	callr	r2
 2011040:	00000206 	br	201104c <alt_get_errno+0x3c>
 2011044:	008080f4 	movhi	r2,515
 2011048:	10896904 	addi	r2,r2,9636
}
 201104c:	e037883a 	mov	sp,fp
 2011050:	dfc00117 	ldw	ra,4(sp)
 2011054:	df000017 	ldw	fp,0(sp)
 2011058:	dec00204 	addi	sp,sp,8
 201105c:	f800283a 	ret

02011060 <alt_dev_llist_insert>:
/*
 *
 */

int alt_dev_llist_insert (alt_dev_llist* dev, alt_llist* list)
{
 2011060:	defffa04 	addi	sp,sp,-24
 2011064:	dfc00515 	stw	ra,20(sp)
 2011068:	df000415 	stw	fp,16(sp)
 201106c:	df000404 	addi	fp,sp,16
 2011070:	e13ffe15 	stw	r4,-8(fp)
 2011074:	e17fff15 	stw	r5,-4(fp)
  /*
   * check that the device exists, and that it has a valid name.
   */

  if (!dev || !dev->name)
 2011078:	e0bffe17 	ldw	r2,-8(fp)
 201107c:	10000326 	beq	r2,zero,201108c <alt_dev_llist_insert+0x2c>
 2011080:	e0bffe17 	ldw	r2,-8(fp)
 2011084:	10800217 	ldw	r2,8(r2)
 2011088:	1000061e 	bne	r2,zero,20110a4 <alt_dev_llist_insert+0x44>
  {
    ALT_ERRNO = EINVAL;
 201108c:	20110100 	call	2011010 <alt_get_errno>
 2011090:	1007883a 	mov	r3,r2
 2011094:	00800584 	movi	r2,22
 2011098:	18800015 	stw	r2,0(r3)
    return -EINVAL;
 201109c:	00bffa84 	movi	r2,-22
 20110a0:	00001306 	br	20110f0 <alt_dev_llist_insert+0x90>
  
  /*
   * register the device.
   */
  
  alt_llist_insert(list, &dev->llist);
 20110a4:	e0bffe17 	ldw	r2,-8(fp)
 20110a8:	e0ffff17 	ldw	r3,-4(fp)
 20110ac:	e0fffc15 	stw	r3,-16(fp)
 20110b0:	e0bffd15 	stw	r2,-12(fp)
 */

static ALT_INLINE void ALT_ALWAYS_INLINE alt_llist_insert(alt_llist* list, 
                alt_llist* entry)
{
  entry->previous = list;
 20110b4:	e0bffd17 	ldw	r2,-12(fp)
 20110b8:	e0fffc17 	ldw	r3,-16(fp)
 20110bc:	10c00115 	stw	r3,4(r2)
  entry->next     = list->next;
 20110c0:	e0bffc17 	ldw	r2,-16(fp)
 20110c4:	10c00017 	ldw	r3,0(r2)
 20110c8:	e0bffd17 	ldw	r2,-12(fp)
 20110cc:	10c00015 	stw	r3,0(r2)

  list->next->previous = entry;
 20110d0:	e0bffc17 	ldw	r2,-16(fp)
 20110d4:	10800017 	ldw	r2,0(r2)
 20110d8:	e0fffd17 	ldw	r3,-12(fp)
 20110dc:	10c00115 	stw	r3,4(r2)
  list->next           = entry;
 20110e0:	e0bffc17 	ldw	r2,-16(fp)
 20110e4:	e0fffd17 	ldw	r3,-12(fp)
 20110e8:	10c00015 	stw	r3,0(r2)

  return 0;  
 20110ec:	0005883a 	mov	r2,zero
}
 20110f0:	e037883a 	mov	sp,fp
 20110f4:	dfc00117 	ldw	ra,4(sp)
 20110f8:	df000017 	ldw	fp,0(sp)
 20110fc:	dec00204 	addi	sp,sp,8
 2011100:	f800283a 	ret

02011104 <_do_ctors>:
/*
 * Run the C++ static constructors.
 */

void _do_ctors(void)
{
 2011104:	defffd04 	addi	sp,sp,-12
 2011108:	dfc00215 	stw	ra,8(sp)
 201110c:	df000115 	stw	fp,4(sp)
 2011110:	df000104 	addi	fp,sp,4
  constructor* ctor;

  for (ctor = &__CTOR_END__[-1]; ctor >= __CTOR_LIST__; ctor--)
 2011114:	00808074 	movhi	r2,513
 2011118:	10874a04 	addi	r2,r2,7464
 201111c:	e0bfff15 	stw	r2,-4(fp)
 2011120:	00000606 	br	201113c <_do_ctors+0x38>
        (*ctor) (); 
 2011124:	e0bfff17 	ldw	r2,-4(fp)
 2011128:	10800017 	ldw	r2,0(r2)
 201112c:	103ee83a 	callr	r2

void _do_ctors(void)
{
  constructor* ctor;

  for (ctor = &__CTOR_END__[-1]; ctor >= __CTOR_LIST__; ctor--)
 2011130:	e0bfff17 	ldw	r2,-4(fp)
 2011134:	10bfff04 	addi	r2,r2,-4
 2011138:	e0bfff15 	stw	r2,-4(fp)
 201113c:	e0ffff17 	ldw	r3,-4(fp)
 2011140:	00808074 	movhi	r2,513
 2011144:	10874b04 	addi	r2,r2,7468
 2011148:	18bff62e 	bgeu	r3,r2,2011124 <__reset+0xfe009924>
        (*ctor) (); 
}
 201114c:	e037883a 	mov	sp,fp
 2011150:	dfc00117 	ldw	ra,4(sp)
 2011154:	df000017 	ldw	fp,0(sp)
 2011158:	dec00204 	addi	sp,sp,8
 201115c:	f800283a 	ret

02011160 <_do_dtors>:
/*
 * Run the C++ static destructors.
 */

void _do_dtors(void)
{
 2011160:	defffd04 	addi	sp,sp,-12
 2011164:	dfc00215 	stw	ra,8(sp)
 2011168:	df000115 	stw	fp,4(sp)
 201116c:	df000104 	addi	fp,sp,4
  destructor* dtor;

  for (dtor = &__DTOR_END__[-1]; dtor >= __DTOR_LIST__; dtor--)
 2011170:	00808074 	movhi	r2,513
 2011174:	10874a04 	addi	r2,r2,7464
 2011178:	e0bfff15 	stw	r2,-4(fp)
 201117c:	00000606 	br	2011198 <_do_dtors+0x38>
        (*dtor) (); 
 2011180:	e0bfff17 	ldw	r2,-4(fp)
 2011184:	10800017 	ldw	r2,0(r2)
 2011188:	103ee83a 	callr	r2

void _do_dtors(void)
{
  destructor* dtor;

  for (dtor = &__DTOR_END__[-1]; dtor >= __DTOR_LIST__; dtor--)
 201118c:	e0bfff17 	ldw	r2,-4(fp)
 2011190:	10bfff04 	addi	r2,r2,-4
 2011194:	e0bfff15 	stw	r2,-4(fp)
 2011198:	e0ffff17 	ldw	r3,-4(fp)
 201119c:	00808074 	movhi	r2,513
 20111a0:	10874b04 	addi	r2,r2,7468
 20111a4:	18bff62e 	bgeu	r3,r2,2011180 <__reset+0xfe009980>
        (*dtor) (); 
}
 20111a8:	e037883a 	mov	sp,fp
 20111ac:	dfc00117 	ldw	ra,4(sp)
 20111b0:	df000017 	ldw	fp,0(sp)
 20111b4:	dec00204 	addi	sp,sp,8
 20111b8:	f800283a 	ret

020111bc <alt_flash_open_dev>:
#include "priv/alt_file.h"

ALT_LLIST_HEAD(alt_flash_dev_list);

alt_flash_fd* alt_flash_open_dev(const char* name)
{
 20111bc:	defffc04 	addi	sp,sp,-16
 20111c0:	dfc00315 	stw	ra,12(sp)
 20111c4:	df000215 	stw	fp,8(sp)
 20111c8:	df000204 	addi	fp,sp,8
 20111cc:	e13fff15 	stw	r4,-4(fp)
  alt_flash_dev* dev = (alt_flash_dev*)alt_find_dev(name, &alt_flash_dev_list);
 20111d0:	e13fff17 	ldw	r4,-4(fp)
 20111d4:	d1601004 	addi	r5,gp,-32704
 20111d8:	20116d00 	call	20116d0 <alt_find_dev>
 20111dc:	e0bffe15 	stw	r2,-8(fp)

  if ((dev) && dev->open)
 20111e0:	e0bffe17 	ldw	r2,-8(fp)
 20111e4:	10000926 	beq	r2,zero,201120c <alt_flash_open_dev+0x50>
 20111e8:	e0bffe17 	ldw	r2,-8(fp)
 20111ec:	10800317 	ldw	r2,12(r2)
 20111f0:	10000626 	beq	r2,zero,201120c <alt_flash_open_dev+0x50>
  {
    return dev->open(dev, name);
 20111f4:	e0bffe17 	ldw	r2,-8(fp)
 20111f8:	10800317 	ldw	r2,12(r2)
 20111fc:	e13ffe17 	ldw	r4,-8(fp)
 2011200:	e17fff17 	ldw	r5,-4(fp)
 2011204:	103ee83a 	callr	r2
 2011208:	00000106 	br	2011210 <alt_flash_open_dev+0x54>
  }

  return dev;
 201120c:	e0bffe17 	ldw	r2,-8(fp)
}
 2011210:	e037883a 	mov	sp,fp
 2011214:	dfc00117 	ldw	ra,4(sp)
 2011218:	df000017 	ldw	fp,0(sp)
 201121c:	dec00204 	addi	sp,sp,8
 2011220:	f800283a 	ret

02011224 <alt_flash_close_dev>:

void alt_flash_close_dev(alt_flash_fd* fd)
{
 2011224:	defffd04 	addi	sp,sp,-12
 2011228:	dfc00215 	stw	ra,8(sp)
 201122c:	df000115 	stw	fp,4(sp)
 2011230:	df000104 	addi	fp,sp,4
 2011234:	e13fff15 	stw	r4,-4(fp)
  if (fd && fd->close)
 2011238:	e0bfff17 	ldw	r2,-4(fp)
 201123c:	10000726 	beq	r2,zero,201125c <alt_flash_close_dev+0x38>
 2011240:	e0bfff17 	ldw	r2,-4(fp)
 2011244:	10800417 	ldw	r2,16(r2)
 2011248:	10000426 	beq	r2,zero,201125c <alt_flash_close_dev+0x38>
  {
    fd->close(fd);
 201124c:	e0bfff17 	ldw	r2,-4(fp)
 2011250:	10800417 	ldw	r2,16(r2)
 2011254:	e13fff17 	ldw	r4,-4(fp)
 2011258:	103ee83a 	callr	r2
  }
  return;
 201125c:	0001883a 	nop
}
 2011260:	e037883a 	mov	sp,fp
 2011264:	dfc00117 	ldw	ra,4(sp)
 2011268:	df000017 	ldw	fp,0(sp)
 201126c:	dec00204 	addi	sp,sp,8
 2011270:	f800283a 	ret

02011274 <alt_icache_flush_all>:
/*
 * alt_icache_flush_all() is called to flush the entire instruction cache.
 */

void alt_icache_flush_all (void)
{
 2011274:	defffe04 	addi	sp,sp,-8
 2011278:	dfc00115 	stw	ra,4(sp)
 201127c:	df000015 	stw	fp,0(sp)
 2011280:	d839883a 	mov	fp,sp
#if NIOS2_ICACHE_SIZE > 0
  alt_icache_flush (0, NIOS2_ICACHE_SIZE);
 2011284:	0009883a 	mov	r4,zero
 2011288:	01500004 	movi	r5,16384
 201128c:	20119280 	call	2011928 <alt_icache_flush>
#endif
}
 2011290:	e037883a 	mov	sp,fp
 2011294:	dfc00117 	ldw	ra,4(sp)
 2011298:	df000017 	ldw	fp,0(sp)
 201129c:	dec00204 	addi	sp,sp,8
 20112a0:	f800283a 	ret

020112a4 <alt_open_fd>:
 * If the device can not be succesfully opened, then the input file descriptor
 * remains unchanged.
 */

static void alt_open_fd(alt_fd* fd, const char* name, int flags, int mode)
{
 20112a4:	defff904 	addi	sp,sp,-28
 20112a8:	dfc00615 	stw	ra,24(sp)
 20112ac:	df000515 	stw	fp,20(sp)
 20112b0:	df000504 	addi	fp,sp,20
 20112b4:	e13ffc15 	stw	r4,-16(fp)
 20112b8:	e17ffd15 	stw	r5,-12(fp)
 20112bc:	e1bffe15 	stw	r6,-8(fp)
 20112c0:	e1ffff15 	stw	r7,-4(fp)
  int old;

  old = open (name, flags, mode);
 20112c4:	e13ffd17 	ldw	r4,-12(fp)
 20112c8:	e17ffe17 	ldw	r5,-8(fp)
 20112cc:	e1bfff17 	ldw	r6,-4(fp)
 20112d0:	20114f80 	call	20114f8 <open>
 20112d4:	e0bffb15 	stw	r2,-20(fp)

  if (old >= 0)
 20112d8:	e0bffb17 	ldw	r2,-20(fp)
 20112dc:	10001c16 	blt	r2,zero,2011350 <alt_open_fd+0xac>
  {
    fd->dev      = alt_fd_list[old].dev;
 20112e0:	008080f4 	movhi	r2,515
 20112e4:	10bc0a04 	addi	r2,r2,-4056
 20112e8:	e0fffb17 	ldw	r3,-20(fp)
 20112ec:	18c00324 	muli	r3,r3,12
 20112f0:	10c5883a 	add	r2,r2,r3
 20112f4:	10c00017 	ldw	r3,0(r2)
 20112f8:	e0bffc17 	ldw	r2,-16(fp)
 20112fc:	10c00015 	stw	r3,0(r2)
    fd->priv     = alt_fd_list[old].priv;
 2011300:	008080f4 	movhi	r2,515
 2011304:	10bc0a04 	addi	r2,r2,-4056
 2011308:	e0fffb17 	ldw	r3,-20(fp)
 201130c:	18c00324 	muli	r3,r3,12
 2011310:	10c5883a 	add	r2,r2,r3
 2011314:	10800104 	addi	r2,r2,4
 2011318:	10c00017 	ldw	r3,0(r2)
 201131c:	e0bffc17 	ldw	r2,-16(fp)
 2011320:	10c00115 	stw	r3,4(r2)
    fd->fd_flags = alt_fd_list[old].fd_flags;
 2011324:	008080f4 	movhi	r2,515
 2011328:	10bc0a04 	addi	r2,r2,-4056
 201132c:	e0fffb17 	ldw	r3,-20(fp)
 2011330:	18c00324 	muli	r3,r3,12
 2011334:	10c5883a 	add	r2,r2,r3
 2011338:	10800204 	addi	r2,r2,8
 201133c:	10c00017 	ldw	r3,0(r2)
 2011340:	e0bffc17 	ldw	r2,-16(fp)
 2011344:	10c00215 	stw	r3,8(r2)

    alt_release_fd (old);
 2011348:	e13ffb17 	ldw	r4,-20(fp)
 201134c:	20116500 	call	2011650 <alt_release_fd>
  }
} 
 2011350:	e037883a 	mov	sp,fp
 2011354:	dfc00117 	ldw	ra,4(sp)
 2011358:	df000017 	ldw	fp,0(sp)
 201135c:	dec00204 	addi	sp,sp,8
 2011360:	f800283a 	ret

02011364 <alt_io_redirect>:
 */
 
void alt_io_redirect(const char* stdout_dev, 
                     const char* stdin_dev, 
                     const char* stderr_dev)
{
 2011364:	defffb04 	addi	sp,sp,-20
 2011368:	dfc00415 	stw	ra,16(sp)
 201136c:	df000315 	stw	fp,12(sp)
 2011370:	df000304 	addi	fp,sp,12
 2011374:	e13ffd15 	stw	r4,-12(fp)
 2011378:	e17ffe15 	stw	r5,-8(fp)
 201137c:	e1bfff15 	stw	r6,-4(fp)
  /* Redirect the channels */

  alt_open_fd (&alt_fd_list[STDOUT_FILENO], stdout_dev, O_WRONLY, 0777);
 2011380:	010080f4 	movhi	r4,515
 2011384:	213c0d04 	addi	r4,r4,-4044
 2011388:	e17ffd17 	ldw	r5,-12(fp)
 201138c:	01800044 	movi	r6,1
 2011390:	01c07fc4 	movi	r7,511
 2011394:	20112a40 	call	20112a4 <alt_open_fd>
  alt_open_fd (&alt_fd_list[STDIN_FILENO], stdin_dev, O_RDONLY, 0777);
 2011398:	010080f4 	movhi	r4,515
 201139c:	213c0a04 	addi	r4,r4,-4056
 20113a0:	e17ffe17 	ldw	r5,-8(fp)
 20113a4:	000d883a 	mov	r6,zero
 20113a8:	01c07fc4 	movi	r7,511
 20113ac:	20112a40 	call	20112a4 <alt_open_fd>
  alt_open_fd (&alt_fd_list[STDERR_FILENO], stderr_dev, O_WRONLY, 0777);
 20113b0:	010080f4 	movhi	r4,515
 20113b4:	213c1004 	addi	r4,r4,-4032
 20113b8:	e17fff17 	ldw	r5,-4(fp)
 20113bc:	01800044 	movi	r6,1
 20113c0:	01c07fc4 	movi	r7,511
 20113c4:	20112a40 	call	20112a4 <alt_open_fd>
}  
 20113c8:	e037883a 	mov	sp,fp
 20113cc:	dfc00117 	ldw	ra,4(sp)
 20113d0:	df000017 	ldw	fp,0(sp)
 20113d4:	dec00204 	addi	sp,sp,8
 20113d8:	f800283a 	ret

020113dc <alt_get_errno>:
#undef errno

extern int errno;

static ALT_INLINE int* alt_get_errno(void)
{
 20113dc:	defffe04 	addi	sp,sp,-8
 20113e0:	dfc00115 	stw	ra,4(sp)
 20113e4:	df000015 	stw	fp,0(sp)
 20113e8:	d839883a 	mov	fp,sp
  return ((alt_errno) ? alt_errno() : &errno);
 20113ec:	008080f4 	movhi	r2,515
 20113f0:	10bc7904 	addi	r2,r2,-3612
 20113f4:	10800017 	ldw	r2,0(r2)
 20113f8:	10000526 	beq	r2,zero,2011410 <alt_get_errno+0x34>
 20113fc:	008080f4 	movhi	r2,515
 2011400:	10bc7904 	addi	r2,r2,-3612
 2011404:	10800017 	ldw	r2,0(r2)
 2011408:	103ee83a 	callr	r2
 201140c:	00000206 	br	2011418 <alt_get_errno+0x3c>
 2011410:	008080f4 	movhi	r2,515
 2011414:	10896904 	addi	r2,r2,9636
}
 2011418:	e037883a 	mov	sp,fp
 201141c:	dfc00117 	ldw	ra,4(sp)
 2011420:	df000017 	ldw	fp,0(sp)
 2011424:	dec00204 	addi	sp,sp,8
 2011428:	f800283a 	ret

0201142c <alt_file_locked>:
 * performed for devices. Filesystems are required to handle the ioctl() call
 * themselves, and report the error from the filesystems open() function. 
 */ 

static int alt_file_locked (alt_fd* fd)
{
 201142c:	defffd04 	addi	sp,sp,-12
 2011430:	df000215 	stw	fp,8(sp)
 2011434:	df000204 	addi	fp,sp,8
 2011438:	e13fff15 	stw	r4,-4(fp)

  /*
   * Mark the file descriptor as belonging to a device.
   */

  fd->fd_flags |= ALT_FD_DEV;
 201143c:	e0bfff17 	ldw	r2,-4(fp)
 2011440:	10800217 	ldw	r2,8(r2)
 2011444:	10d00034 	orhi	r3,r2,16384
 2011448:	e0bfff17 	ldw	r2,-4(fp)
 201144c:	10c00215 	stw	r3,8(r2)
  /*
   * Loop through all current file descriptors searching for one that's locked
   * for exclusive access. If a match is found, generate an error.
   */

  for (i = 0; i <= alt_max_fd; i++)
 2011450:	e03ffe15 	stw	zero,-8(fp)
 2011454:	00001d06 	br	20114cc <alt_file_locked+0xa0>
  {
    if ((alt_fd_list[i].dev == fd->dev) &&
 2011458:	008080f4 	movhi	r2,515
 201145c:	10bc0a04 	addi	r2,r2,-4056
 2011460:	e0fffe17 	ldw	r3,-8(fp)
 2011464:	18c00324 	muli	r3,r3,12
 2011468:	10c5883a 	add	r2,r2,r3
 201146c:	10c00017 	ldw	r3,0(r2)
 2011470:	e0bfff17 	ldw	r2,-4(fp)
 2011474:	10800017 	ldw	r2,0(r2)
 2011478:	1880111e 	bne	r3,r2,20114c0 <alt_file_locked+0x94>
        (alt_fd_list[i].fd_flags & ALT_FD_EXCL) &&
 201147c:	008080f4 	movhi	r2,515
 2011480:	10bc0a04 	addi	r2,r2,-4056
 2011484:	e0fffe17 	ldw	r3,-8(fp)
 2011488:	18c00324 	muli	r3,r3,12
 201148c:	10c5883a 	add	r2,r2,r3
 2011490:	10800204 	addi	r2,r2,8
 2011494:	10800017 	ldw	r2,0(r2)
   * for exclusive access. If a match is found, generate an error.
   */

  for (i = 0; i <= alt_max_fd; i++)
  {
    if ((alt_fd_list[i].dev == fd->dev) &&
 2011498:	1000090e 	bge	r2,zero,20114c0 <alt_file_locked+0x94>
        (alt_fd_list[i].fd_flags & ALT_FD_EXCL) &&
        (&alt_fd_list[i] != fd))
 201149c:	e0bffe17 	ldw	r2,-8(fp)
 20114a0:	10c00324 	muli	r3,r2,12
 20114a4:	008080f4 	movhi	r2,515
 20114a8:	10bc0a04 	addi	r2,r2,-4056
 20114ac:	1887883a 	add	r3,r3,r2
   */

  for (i = 0; i <= alt_max_fd; i++)
  {
    if ((alt_fd_list[i].dev == fd->dev) &&
        (alt_fd_list[i].fd_flags & ALT_FD_EXCL) &&
 20114b0:	e0bfff17 	ldw	r2,-4(fp)
 20114b4:	18800226 	beq	r3,r2,20114c0 <alt_file_locked+0x94>
        (&alt_fd_list[i] != fd))
    {
      return -EACCES;
 20114b8:	00bffcc4 	movi	r2,-13
 20114bc:	00000a06 	br	20114e8 <alt_file_locked+0xbc>
  /*
   * Loop through all current file descriptors searching for one that's locked
   * for exclusive access. If a match is found, generate an error.
   */

  for (i = 0; i <= alt_max_fd; i++)
 20114c0:	e0bffe17 	ldw	r2,-8(fp)
 20114c4:	10800044 	addi	r2,r2,1
 20114c8:	e0bffe15 	stw	r2,-8(fp)
 20114cc:	008080f4 	movhi	r2,515
 20114d0:	10bc7804 	addi	r2,r2,-3616
 20114d4:	10800017 	ldw	r2,0(r2)
 20114d8:	1007883a 	mov	r3,r2
 20114dc:	e0bffe17 	ldw	r2,-8(fp)
 20114e0:	18bfdd2e 	bgeu	r3,r2,2011458 <__reset+0xfe009c58>
    }
  }
  
  /* The device is not locked */
 
  return 0;
 20114e4:	0005883a 	mov	r2,zero
}
 20114e8:	e037883a 	mov	sp,fp
 20114ec:	df000017 	ldw	fp,0(sp)
 20114f0:	dec00104 	addi	sp,sp,4
 20114f4:	f800283a 	ret

020114f8 <open>:
 *
 * ALT_OPEN is mapped onto the open() system call in alt_syscall.h
 */
 
int ALT_OPEN (const char* file, int flags, int mode)
{ 
 20114f8:	defff604 	addi	sp,sp,-40
 20114fc:	dfc00915 	stw	ra,36(sp)
 2011500:	df000815 	stw	fp,32(sp)
 2011504:	df000804 	addi	fp,sp,32
 2011508:	e13ffd15 	stw	r4,-12(fp)
 201150c:	e17ffe15 	stw	r5,-8(fp)
 2011510:	e1bfff15 	stw	r6,-4(fp)
  alt_dev* dev;
  alt_fd*  fd;
  int index  = -1;
 2011514:	00bfffc4 	movi	r2,-1
 2011518:	e0bff915 	stw	r2,-28(fp)
  int status = -ENODEV;
 201151c:	00bffb44 	movi	r2,-19
 2011520:	e0bffa15 	stw	r2,-24(fp)
  int isafs = 0;
 2011524:	e03ffb15 	stw	zero,-20(fp)
  /* 
   * Check the device list, to see if a device with a matching name is 
   * registered.
   */
  
  if (!(dev = alt_find_dev (file, &alt_dev_list)))
 2011528:	e13ffd17 	ldw	r4,-12(fp)
 201152c:	014080f4 	movhi	r5,515
 2011530:	297c7604 	addi	r5,r5,-3624
 2011534:	20116d00 	call	20116d0 <alt_find_dev>
 2011538:	e0bff815 	stw	r2,-32(fp)
 201153c:	e0bff817 	ldw	r2,-32(fp)
 2011540:	1000051e 	bne	r2,zero,2011558 <open+0x60>
  {
    /* No matching device, so try the filesystem list */

    dev   = alt_find_file (file);
 2011544:	e13ffd17 	ldw	r4,-12(fp)
 2011548:	20117600 	call	2011760 <alt_find_file>
 201154c:	e0bff815 	stw	r2,-32(fp)
    isafs = 1;
 2011550:	00800044 	movi	r2,1
 2011554:	e0bffb15 	stw	r2,-20(fp)

  /* 
   * If a matching device or filesystem is found, allocate a file descriptor. 
   */

  if (dev)
 2011558:	e0bff817 	ldw	r2,-32(fp)
 201155c:	10002926 	beq	r2,zero,2011604 <open+0x10c>
  {
    if ((index = alt_get_fd (dev)) < 0)
 2011560:	e13ff817 	ldw	r4,-32(fp)
 2011564:	20118740 	call	2011874 <alt_get_fd>
 2011568:	e0bff915 	stw	r2,-28(fp)
 201156c:	e0bff917 	ldw	r2,-28(fp)
 2011570:	1000030e 	bge	r2,zero,2011580 <open+0x88>
    {
      status = index;
 2011574:	e0bff917 	ldw	r2,-28(fp)
 2011578:	e0bffa15 	stw	r2,-24(fp)
 201157c:	00002306 	br	201160c <open+0x114>
    }
    else
    {
      fd = &alt_fd_list[index];
 2011580:	e0bff917 	ldw	r2,-28(fp)
 2011584:	10c00324 	muli	r3,r2,12
 2011588:	008080f4 	movhi	r2,515
 201158c:	10bc0a04 	addi	r2,r2,-4056
 2011590:	1885883a 	add	r2,r3,r2
 2011594:	e0bffc15 	stw	r2,-16(fp)
      fd->fd_flags = (flags & ~ALT_FD_FLAGS_MASK);
 2011598:	e0fffe17 	ldw	r3,-8(fp)
 201159c:	00900034 	movhi	r2,16384
 20115a0:	10bfffc4 	addi	r2,r2,-1
 20115a4:	1886703a 	and	r3,r3,r2
 20115a8:	e0bffc17 	ldw	r2,-16(fp)
 20115ac:	10c00215 	stw	r3,8(r2)
      
      /* If this is a device, ensure it isn't already locked */

      if (isafs || ((status = alt_file_locked (fd)) >= 0))
 20115b0:	e0bffb17 	ldw	r2,-20(fp)
 20115b4:	1000051e 	bne	r2,zero,20115cc <open+0xd4>
 20115b8:	e13ffc17 	ldw	r4,-16(fp)
 20115bc:	201142c0 	call	201142c <alt_file_locked>
 20115c0:	e0bffa15 	stw	r2,-24(fp)
 20115c4:	e0bffa17 	ldw	r2,-24(fp)
 20115c8:	10001016 	blt	r2,zero,201160c <open+0x114>
        /* 
         * If the device or filesystem provides an open() callback function,
         * call it now to perform any device/filesystem specific operations.
         */
    
        status = (dev->open) ? dev->open(fd, file, flags, mode): 0;
 20115cc:	e0bff817 	ldw	r2,-32(fp)
 20115d0:	10800317 	ldw	r2,12(r2)
 20115d4:	10000826 	beq	r2,zero,20115f8 <open+0x100>
 20115d8:	e0bff817 	ldw	r2,-32(fp)
 20115dc:	10800317 	ldw	r2,12(r2)
 20115e0:	e13ffc17 	ldw	r4,-16(fp)
 20115e4:	e17ffd17 	ldw	r5,-12(fp)
 20115e8:	e1bffe17 	ldw	r6,-8(fp)
 20115ec:	e1ffff17 	ldw	r7,-4(fp)
 20115f0:	103ee83a 	callr	r2
 20115f4:	00000106 	br	20115fc <open+0x104>
 20115f8:	0005883a 	mov	r2,zero
 20115fc:	e0bffa15 	stw	r2,-24(fp)
 2011600:	00000206 	br	201160c <open+0x114>
      }
    }
  }
  else
  {
    status = -ENODEV;
 2011604:	00bffb44 	movi	r2,-19
 2011608:	e0bffa15 	stw	r2,-24(fp)
  }

  /* Allocation failed, so clean up and return an error */ 

  if (status < 0)
 201160c:	e0bffa17 	ldw	r2,-24(fp)
 2011610:	1000090e 	bge	r2,zero,2011638 <open+0x140>
  {
    alt_release_fd (index);  
 2011614:	e13ff917 	ldw	r4,-28(fp)
 2011618:	20116500 	call	2011650 <alt_release_fd>
    ALT_ERRNO = -status;
 201161c:	20113dc0 	call	20113dc <alt_get_errno>
 2011620:	1007883a 	mov	r3,r2
 2011624:	e0bffa17 	ldw	r2,-24(fp)
 2011628:	0085c83a 	sub	r2,zero,r2
 201162c:	18800015 	stw	r2,0(r3)
    return -1;
 2011630:	00bfffc4 	movi	r2,-1
 2011634:	00000106 	br	201163c <open+0x144>
  }
  
  /* return the reference upon success */

  return index;
 2011638:	e0bff917 	ldw	r2,-28(fp)
}
 201163c:	e037883a 	mov	sp,fp
 2011640:	dfc00117 	ldw	ra,4(sp)
 2011644:	df000017 	ldw	fp,0(sp)
 2011648:	dec00204 	addi	sp,sp,8
 201164c:	f800283a 	ret

02011650 <alt_release_fd>:
 * File descriptors correcponding to standard in, standard out and standard 
 * error cannont be released backed to the pool. They are always reserved.
 */

void alt_release_fd (int fd)
{
 2011650:	defffe04 	addi	sp,sp,-8
 2011654:	df000115 	stw	fp,4(sp)
 2011658:	df000104 	addi	fp,sp,4
 201165c:	e13fff15 	stw	r4,-4(fp)
  if (fd > 2)
 2011660:	e0bfff17 	ldw	r2,-4(fp)
 2011664:	108000d0 	cmplti	r2,r2,3
 2011668:	10000d1e 	bne	r2,zero,20116a0 <alt_release_fd+0x50>
  {
    alt_fd_list[fd].fd_flags = 0;
 201166c:	008080f4 	movhi	r2,515
 2011670:	10bc0a04 	addi	r2,r2,-4056
 2011674:	e0ffff17 	ldw	r3,-4(fp)
 2011678:	18c00324 	muli	r3,r3,12
 201167c:	10c5883a 	add	r2,r2,r3
 2011680:	10800204 	addi	r2,r2,8
 2011684:	10000015 	stw	zero,0(r2)
    alt_fd_list[fd].dev      = 0;
 2011688:	008080f4 	movhi	r2,515
 201168c:	10bc0a04 	addi	r2,r2,-4056
 2011690:	e0ffff17 	ldw	r3,-4(fp)
 2011694:	18c00324 	muli	r3,r3,12
 2011698:	10c5883a 	add	r2,r2,r3
 201169c:	10000015 	stw	zero,0(r2)
  }
}
 20116a0:	e037883a 	mov	sp,fp
 20116a4:	df000017 	ldw	fp,0(sp)
 20116a8:	dec00104 	addi	sp,sp,4
 20116ac:	f800283a 	ret

020116b0 <altera_nios2_gen2_irq_init>:
/*
 * To initialize the internal interrupt controller, just clear the IENABLE
 * register so that all possible IRQs are disabled.
 */
void altera_nios2_gen2_irq_init(void) 
{
 20116b0:	deffff04 	addi	sp,sp,-4
 20116b4:	df000015 	stw	fp,0(sp)
 20116b8:	d839883a 	mov	fp,sp
    NIOS2_WRITE_IENABLE(0);
 20116bc:	000170fa 	wrctl	ienable,zero
}
 20116c0:	e037883a 	mov	sp,fp
 20116c4:	df000017 	ldw	fp,0(sp)
 20116c8:	dec00104 	addi	sp,sp,4
 20116cc:	f800283a 	ret

020116d0 <alt_find_dev>:
 * "name" must be an exact match for the devices registered name for a match to
 * be found.
 */
 
alt_dev* alt_find_dev(const char* name, alt_llist* llist)
{
 20116d0:	defffa04 	addi	sp,sp,-24
 20116d4:	dfc00515 	stw	ra,20(sp)
 20116d8:	df000415 	stw	fp,16(sp)
 20116dc:	df000404 	addi	fp,sp,16
 20116e0:	e13ffe15 	stw	r4,-8(fp)
 20116e4:	e17fff15 	stw	r5,-4(fp)
  alt_dev* next = (alt_dev*) llist->next;
 20116e8:	e0bfff17 	ldw	r2,-4(fp)
 20116ec:	10800017 	ldw	r2,0(r2)
 20116f0:	e0bffc15 	stw	r2,-16(fp)
  alt_32 len;

  len  = strlen(name) + 1;
 20116f4:	e13ffe17 	ldw	r4,-8(fp)
 20116f8:	200d3000 	call	200d300 <strlen>
 20116fc:	10800044 	addi	r2,r2,1
 2011700:	e0bffd15 	stw	r2,-12(fp)
  /*
   * Check each list entry in turn, until a match is found, or we reach the
   * end of the list (i.e. next winds up pointing back to the list head).
   */ 

  while (next != (alt_dev*) llist)
 2011704:	00000d06 	br	201173c <alt_find_dev+0x6c>
    /* 
     * memcmp() is used here rather than strcmp() in order to reduce the size
     * of the executable.
     */

    if (!memcmp (next->name, name, len))
 2011708:	e0bffc17 	ldw	r2,-16(fp)
 201170c:	10c00217 	ldw	r3,8(r2)
 2011710:	e0bffd17 	ldw	r2,-12(fp)
 2011714:	1809883a 	mov	r4,r3
 2011718:	e17ffe17 	ldw	r5,-8(fp)
 201171c:	100d883a 	mov	r6,r2
 2011720:	20119e80 	call	20119e8 <memcmp>
 2011724:	1000021e 	bne	r2,zero,2011730 <alt_find_dev+0x60>
    {
      /* match found */

      return next;
 2011728:	e0bffc17 	ldw	r2,-16(fp)
 201172c:	00000706 	br	201174c <alt_find_dev+0x7c>
    }
    next = (alt_dev*) next->llist.next;
 2011730:	e0bffc17 	ldw	r2,-16(fp)
 2011734:	10800017 	ldw	r2,0(r2)
 2011738:	e0bffc15 	stw	r2,-16(fp)
  /*
   * Check each list entry in turn, until a match is found, or we reach the
   * end of the list (i.e. next winds up pointing back to the list head).
   */ 

  while (next != (alt_dev*) llist)
 201173c:	e0fffc17 	ldw	r3,-16(fp)
 2011740:	e0bfff17 	ldw	r2,-4(fp)
 2011744:	18bff01e 	bne	r3,r2,2011708 <__reset+0xfe009f08>
    next = (alt_dev*) next->llist.next;
  }
  
  /* No match found */
  
  return NULL;
 2011748:	0005883a 	mov	r2,zero
}
 201174c:	e037883a 	mov	sp,fp
 2011750:	dfc00117 	ldw	ra,4(sp)
 2011754:	df000017 	ldw	fp,0(sp)
 2011758:	dec00204 	addi	sp,sp,8
 201175c:	f800283a 	ret

02011760 <alt_find_file>:
 * either '/' or '\0' is the prefix of the filename. For example the filename:
 * "/myfilesystem/junk.txt" would match: "/myfilesystem", but not: "/myfile". 
 */
 
alt_dev* alt_find_file (const char* name)
{
 2011760:	defffb04 	addi	sp,sp,-20
 2011764:	dfc00415 	stw	ra,16(sp)
 2011768:	df000315 	stw	fp,12(sp)
 201176c:	df000304 	addi	fp,sp,12
 2011770:	e13fff15 	stw	r4,-4(fp)
  alt_dev* next = (alt_dev*) alt_fs_list.next;   
 2011774:	008080f4 	movhi	r2,515
 2011778:	10bc7404 	addi	r2,r2,-3632
 201177c:	10800017 	ldw	r2,0(r2)
 2011780:	e0bffd15 	stw	r2,-12(fp)
  /*
   * Check each list entry in turn, until a match is found, or we reach the
   * end of the list (i.e. next winds up pointing back to the list head).
   */ 
 
  while (next != (alt_dev*) &alt_fs_list)
 2011784:	00003106 	br	201184c <alt_find_file+0xec>
  {
    len = strlen(next->name);
 2011788:	e0bffd17 	ldw	r2,-12(fp)
 201178c:	10800217 	ldw	r2,8(r2)
 2011790:	1009883a 	mov	r4,r2
 2011794:	200d3000 	call	200d300 <strlen>
 2011798:	e0bffe15 	stw	r2,-8(fp)
    
    if (next->name[len-1] == '/')
 201179c:	e0bffd17 	ldw	r2,-12(fp)
 20117a0:	10c00217 	ldw	r3,8(r2)
 20117a4:	e0bffe17 	ldw	r2,-8(fp)
 20117a8:	10bfffc4 	addi	r2,r2,-1
 20117ac:	1885883a 	add	r2,r3,r2
 20117b0:	10800003 	ldbu	r2,0(r2)
 20117b4:	10803fcc 	andi	r2,r2,255
 20117b8:	1080201c 	xori	r2,r2,128
 20117bc:	10bfe004 	addi	r2,r2,-128
 20117c0:	10800bd8 	cmpnei	r2,r2,47
 20117c4:	1000031e 	bne	r2,zero,20117d4 <alt_find_file+0x74>
    {
      len -= 1;
 20117c8:	e0bffe17 	ldw	r2,-8(fp)
 20117cc:	10bfffc4 	addi	r2,r2,-1
 20117d0:	e0bffe15 	stw	r2,-8(fp)
    }

    if (((name[len] == '/') || (name[len] == '\0')) && 
 20117d4:	e0bffe17 	ldw	r2,-8(fp)
 20117d8:	e0ffff17 	ldw	r3,-4(fp)
 20117dc:	1885883a 	add	r2,r3,r2
 20117e0:	10800003 	ldbu	r2,0(r2)
 20117e4:	10803fcc 	andi	r2,r2,255
 20117e8:	1080201c 	xori	r2,r2,128
 20117ec:	10bfe004 	addi	r2,r2,-128
 20117f0:	10800be0 	cmpeqi	r2,r2,47
 20117f4:	1000081e 	bne	r2,zero,2011818 <alt_find_file+0xb8>
 20117f8:	e0bffe17 	ldw	r2,-8(fp)
 20117fc:	e0ffff17 	ldw	r3,-4(fp)
 2011800:	1885883a 	add	r2,r3,r2
 2011804:	10800003 	ldbu	r2,0(r2)
 2011808:	10803fcc 	andi	r2,r2,255
 201180c:	1080201c 	xori	r2,r2,128
 2011810:	10bfe004 	addi	r2,r2,-128
 2011814:	10000a1e 	bne	r2,zero,2011840 <alt_find_file+0xe0>
        !memcmp (next->name, name, len))
 2011818:	e0bffd17 	ldw	r2,-12(fp)
 201181c:	10c00217 	ldw	r3,8(r2)
 2011820:	e0bffe17 	ldw	r2,-8(fp)
 2011824:	1809883a 	mov	r4,r3
 2011828:	e17fff17 	ldw	r5,-4(fp)
 201182c:	100d883a 	mov	r6,r2
 2011830:	20119e80 	call	20119e8 <memcmp>
    if (next->name[len-1] == '/')
    {
      len -= 1;
    }

    if (((name[len] == '/') || (name[len] == '\0')) && 
 2011834:	1000021e 	bne	r2,zero,2011840 <alt_find_file+0xe0>
        !memcmp (next->name, name, len))
    {
      /* match found */

      return next;
 2011838:	e0bffd17 	ldw	r2,-12(fp)
 201183c:	00000806 	br	2011860 <alt_find_file+0x100>
    }
    next = (alt_dev*) next->llist.next;
 2011840:	e0bffd17 	ldw	r2,-12(fp)
 2011844:	10800017 	ldw	r2,0(r2)
 2011848:	e0bffd15 	stw	r2,-12(fp)
  /*
   * Check each list entry in turn, until a match is found, or we reach the
   * end of the list (i.e. next winds up pointing back to the list head).
   */ 
 
  while (next != (alt_dev*) &alt_fs_list)
 201184c:	e0fffd17 	ldw	r3,-12(fp)
 2011850:	008080f4 	movhi	r2,515
 2011854:	10bc7404 	addi	r2,r2,-3632
 2011858:	18bfcb1e 	bne	r3,r2,2011788 <__reset+0xfe009f88>
    next = (alt_dev*) next->llist.next;
  }
  
  /* No match found */
  
  return NULL;     
 201185c:	0005883a 	mov	r2,zero
}
 2011860:	e037883a 	mov	sp,fp
 2011864:	dfc00117 	ldw	ra,4(sp)
 2011868:	df000017 	ldw	fp,0(sp)
 201186c:	dec00204 	addi	sp,sp,8
 2011870:	f800283a 	ret

02011874 <alt_get_fd>:
 * the offset of the file descriptor within the file descriptor array). A
 * negative value indicates failure.
 */

int alt_get_fd (alt_dev* dev)
{
 2011874:	defffc04 	addi	sp,sp,-16
 2011878:	df000315 	stw	fp,12(sp)
 201187c:	df000304 	addi	fp,sp,12
 2011880:	e13fff15 	stw	r4,-4(fp)
  alt_32 i;
  int rc = -EMFILE;
 2011884:	00bffa04 	movi	r2,-24
 2011888:	e0bffe15 	stw	r2,-8(fp)
   * indicates the highest file descriptor ever allocated. This is used to
   * improve efficency when searching the file descriptor list, and 
   * therefore reduce contention on the alt_fd_list_lock semaphore. 
   */

  for (i = 0; i < ALT_MAX_FD; i++)
 201188c:	e03ffd15 	stw	zero,-12(fp)
 2011890:	00001d06 	br	2011908 <alt_get_fd+0x94>
  {
    if (!alt_fd_list[i].dev)
 2011894:	008080f4 	movhi	r2,515
 2011898:	10bc0a04 	addi	r2,r2,-4056
 201189c:	e0fffd17 	ldw	r3,-12(fp)
 20118a0:	18c00324 	muli	r3,r3,12
 20118a4:	10c5883a 	add	r2,r2,r3
 20118a8:	10800017 	ldw	r2,0(r2)
 20118ac:	1000131e 	bne	r2,zero,20118fc <alt_get_fd+0x88>
    {
      alt_fd_list[i].dev = dev;
 20118b0:	008080f4 	movhi	r2,515
 20118b4:	10bc0a04 	addi	r2,r2,-4056
 20118b8:	e0fffd17 	ldw	r3,-12(fp)
 20118bc:	18c00324 	muli	r3,r3,12
 20118c0:	10c5883a 	add	r2,r2,r3
 20118c4:	e0ffff17 	ldw	r3,-4(fp)
 20118c8:	10c00015 	stw	r3,0(r2)
      if (i > alt_max_fd)
 20118cc:	008080f4 	movhi	r2,515
 20118d0:	10bc7804 	addi	r2,r2,-3616
 20118d4:	10c00017 	ldw	r3,0(r2)
 20118d8:	e0bffd17 	ldw	r2,-12(fp)
 20118dc:	1880040e 	bge	r3,r2,20118f0 <alt_get_fd+0x7c>
      {
        alt_max_fd = i;
 20118e0:	008080f4 	movhi	r2,515
 20118e4:	10bc7804 	addi	r2,r2,-3616
 20118e8:	e0fffd17 	ldw	r3,-12(fp)
 20118ec:	10c00015 	stw	r3,0(r2)
      }
      rc = i;
 20118f0:	e0bffd17 	ldw	r2,-12(fp)
 20118f4:	e0bffe15 	stw	r2,-8(fp)
      goto alt_get_fd_exit;
 20118f8:	00000606 	br	2011914 <alt_get_fd+0xa0>
   * indicates the highest file descriptor ever allocated. This is used to
   * improve efficency when searching the file descriptor list, and 
   * therefore reduce contention on the alt_fd_list_lock semaphore. 
   */

  for (i = 0; i < ALT_MAX_FD; i++)
 20118fc:	e0bffd17 	ldw	r2,-12(fp)
 2011900:	10800044 	addi	r2,r2,1
 2011904:	e0bffd15 	stw	r2,-12(fp)
 2011908:	e0bffd17 	ldw	r2,-12(fp)
 201190c:	10800810 	cmplti	r2,r2,32
 2011910:	103fe01e 	bne	r2,zero,2011894 <__reset+0xfe00a094>
   * file descriptor pool.
   */

  ALT_SEM_POST(alt_fd_list_lock);

  return rc;
 2011914:	e0bffe17 	ldw	r2,-8(fp)
}
 2011918:	e037883a 	mov	sp,fp
 201191c:	df000017 	ldw	fp,0(sp)
 2011920:	dec00104 	addi	sp,sp,4
 2011924:	f800283a 	ret

02011928 <alt_icache_flush>:
 * alt_icache_flush() is called to flush the instruction cache for a memory
 * region of length "len" bytes, starting at address "start".
 */

void alt_icache_flush (void* start, alt_u32 len)
{
 2011928:	defffb04 	addi	sp,sp,-20
 201192c:	df000415 	stw	fp,16(sp)
 2011930:	df000404 	addi	fp,sp,16
 2011934:	e13ffe15 	stw	r4,-8(fp)
 2011938:	e17fff15 	stw	r5,-4(fp)

  /*
   * This is the most we would ever need to flush.
   */
 
  if (len > NIOS2_ICACHE_SIZE)
 201193c:	e0bfff17 	ldw	r2,-4(fp)
 2011940:	10900070 	cmpltui	r2,r2,16385
 2011944:	1000021e 	bne	r2,zero,2011950 <alt_icache_flush+0x28>
  {
    len = NIOS2_ICACHE_SIZE;
 2011948:	00900004 	movi	r2,16384
 201194c:	e0bfff15 	stw	r2,-4(fp)
  }

  end = ((char*) start) + len;
 2011950:	e0fffe17 	ldw	r3,-8(fp)
 2011954:	e0bfff17 	ldw	r2,-4(fp)
 2011958:	1885883a 	add	r2,r3,r2
 201195c:	e0bffd15 	stw	r2,-12(fp)

  for (i = start; i < end; i+= NIOS2_ICACHE_LINE_SIZE)
 2011960:	e0bffe17 	ldw	r2,-8(fp)
 2011964:	e0bffc15 	stw	r2,-16(fp)
 2011968:	00000506 	br	2011980 <alt_icache_flush+0x58>
  { 
    __asm__ volatile ("flushi %0" :: "r" (i)); 
 201196c:	e0bffc17 	ldw	r2,-16(fp)
 2011970:	1000603a 	flushi	r2
    len = NIOS2_ICACHE_SIZE;
  }

  end = ((char*) start) + len;

  for (i = start; i < end; i+= NIOS2_ICACHE_LINE_SIZE)
 2011974:	e0bffc17 	ldw	r2,-16(fp)
 2011978:	10800804 	addi	r2,r2,32
 201197c:	e0bffc15 	stw	r2,-16(fp)
 2011980:	e0fffc17 	ldw	r3,-16(fp)
 2011984:	e0bffd17 	ldw	r2,-12(fp)
 2011988:	18bff836 	bltu	r3,r2,201196c <__reset+0xfe00a16c>
   * For an unaligned flush request, we've got one more line left.
   * Note that this is dependent on NIOS2_ICACHE_LINE_SIZE to be a 
   * multiple of 2 (which it always is).
   */

  if (((alt_u32) start) & (NIOS2_ICACHE_LINE_SIZE - 1))
 201198c:	e0bffe17 	ldw	r2,-8(fp)
 2011990:	108007cc 	andi	r2,r2,31
 2011994:	10000226 	beq	r2,zero,20119a0 <alt_icache_flush+0x78>
  {
    __asm__ volatile ("flushi %0" :: "r" (i));
 2011998:	e0bffc17 	ldw	r2,-16(fp)
 201199c:	1000603a 	flushi	r2
  /* 
   * Having flushed the cache, flush any stale instructions in the 
   * pipeline 
   */

  __asm__ volatile ("flushp");
 20119a0:	0000203a 	flushp

#endif /* NIOS2_ICACHE_SIZE > 0 */
}
 20119a4:	e037883a 	mov	sp,fp
 20119a8:	df000017 	ldw	fp,0(sp)
 20119ac:	dec00104 	addi	sp,sp,4
 20119b0:	f800283a 	ret

020119b4 <atexit>:
 20119b4:	200b883a 	mov	r5,r4
 20119b8:	000d883a 	mov	r6,zero
 20119bc:	0009883a 	mov	r4,zero
 20119c0:	000f883a 	mov	r7,zero
 20119c4:	2011a181 	jmpi	2011a18 <__register_exitproc>

020119c8 <exit>:
 20119c8:	defffe04 	addi	sp,sp,-8
 20119cc:	000b883a 	mov	r5,zero
 20119d0:	dc000015 	stw	r16,0(sp)
 20119d4:	dfc00115 	stw	ra,4(sp)
 20119d8:	2021883a 	mov	r16,r4
 20119dc:	2011b5c0 	call	2011b5c <__call_exitprocs>
 20119e0:	8009883a 	mov	r4,r16
 20119e4:	2011cf80 	call	2011cf8 <_exit>

020119e8 <memcmp>:
 20119e8:	218d883a 	add	r6,r4,r6
 20119ec:	21800826 	beq	r4,r6,2011a10 <memcmp+0x28>
 20119f0:	20800003 	ldbu	r2,0(r4)
 20119f4:	28c00003 	ldbu	r3,0(r5)
 20119f8:	10c00226 	beq	r2,r3,2011a04 <memcmp+0x1c>
 20119fc:	10c5c83a 	sub	r2,r2,r3
 2011a00:	f800283a 	ret
 2011a04:	21000044 	addi	r4,r4,1
 2011a08:	29400044 	addi	r5,r5,1
 2011a0c:	003ff706 	br	20119ec <__reset+0xfe00a1ec>
 2011a10:	0005883a 	mov	r2,zero
 2011a14:	f800283a 	ret

02011a18 <__register_exitproc>:
 2011a18:	008080f4 	movhi	r2,515
 2011a1c:	defff904 	addi	sp,sp,-28
 2011a20:	10bc6c04 	addi	r2,r2,-3664
 2011a24:	dd400515 	stw	r21,20(sp)
 2011a28:	15400017 	ldw	r21,0(r2)
 2011a2c:	dc000015 	stw	r16,0(sp)
 2011a30:	dd000415 	stw	r20,16(sp)
 2011a34:	ac000c17 	ldw	r16,48(r21)
 2011a38:	dcc00315 	stw	r19,12(sp)
 2011a3c:	dc800215 	stw	r18,8(sp)
 2011a40:	dc400115 	stw	r17,4(sp)
 2011a44:	dfc00615 	stw	ra,24(sp)
 2011a48:	2025883a 	mov	r18,r4
 2011a4c:	2823883a 	mov	r17,r5
 2011a50:	3029883a 	mov	r20,r6
 2011a54:	3827883a 	mov	r19,r7
 2011a58:	8000021e 	bne	r16,zero,2011a64 <__register_exitproc+0x4c>
 2011a5c:	ac000d04 	addi	r16,r21,52
 2011a60:	ac000c15 	stw	r16,48(r21)
 2011a64:	80800117 	ldw	r2,4(r16)
 2011a68:	00c007c4 	movi	r3,31
 2011a6c:	18800d0e 	bge	r3,r2,2011aa4 <__register_exitproc+0x8c>
 2011a70:	00808074 	movhi	r2,513
 2011a74:	10b26604 	addi	r2,r2,-13928
 2011a78:	1000021e 	bne	r2,zero,2011a84 <__register_exitproc+0x6c>
 2011a7c:	00bfffc4 	movi	r2,-1
 2011a80:	00002d06 	br	2011b38 <__register_exitproc+0x120>
 2011a84:	01002304 	movi	r4,140
 2011a88:	200c9980 	call	200c998 <malloc>
 2011a8c:	1021883a 	mov	r16,r2
 2011a90:	103ffa26 	beq	r2,zero,2011a7c <__reset+0xfe00a27c>
 2011a94:	10000115 	stw	zero,4(r2)
 2011a98:	a8800c17 	ldw	r2,48(r21)
 2011a9c:	80800015 	stw	r2,0(r16)
 2011aa0:	ac000c15 	stw	r16,48(r21)
 2011aa4:	90001b26 	beq	r18,zero,2011b14 <__register_exitproc+0xfc>
 2011aa8:	80802217 	ldw	r2,136(r16)
 2011aac:	1000091e 	bne	r2,zero,2011ad4 <__register_exitproc+0xbc>
 2011ab0:	00808074 	movhi	r2,513
 2011ab4:	10b26604 	addi	r2,r2,-13928
 2011ab8:	103ff026 	beq	r2,zero,2011a7c <__reset+0xfe00a27c>
 2011abc:	01004204 	movi	r4,264
 2011ac0:	200c9980 	call	200c998 <malloc>
 2011ac4:	103fed26 	beq	r2,zero,2011a7c <__reset+0xfe00a27c>
 2011ac8:	10004015 	stw	zero,256(r2)
 2011acc:	10004115 	stw	zero,260(r2)
 2011ad0:	80802215 	stw	r2,136(r16)
 2011ad4:	81400117 	ldw	r5,4(r16)
 2011ad8:	01000044 	movi	r4,1
 2011adc:	2947883a 	add	r3,r5,r5
 2011ae0:	18c7883a 	add	r3,r3,r3
 2011ae4:	10c7883a 	add	r3,r2,r3
 2011ae8:	1d000015 	stw	r20,0(r3)
 2011aec:	214a983a 	sll	r5,r4,r5
 2011af0:	11004017 	ldw	r4,256(r2)
 2011af4:	2148b03a 	or	r4,r4,r5
 2011af8:	11004015 	stw	r4,256(r2)
 2011afc:	1cc02015 	stw	r19,128(r3)
 2011b00:	00c00084 	movi	r3,2
 2011b04:	90c0031e 	bne	r18,r3,2011b14 <__register_exitproc+0xfc>
 2011b08:	10c04117 	ldw	r3,260(r2)
 2011b0c:	194ab03a 	or	r5,r3,r5
 2011b10:	11404115 	stw	r5,260(r2)
 2011b14:	80800117 	ldw	r2,4(r16)
 2011b18:	10c00044 	addi	r3,r2,1
 2011b1c:	10800084 	addi	r2,r2,2
 2011b20:	1085883a 	add	r2,r2,r2
 2011b24:	1085883a 	add	r2,r2,r2
 2011b28:	80c00115 	stw	r3,4(r16)
 2011b2c:	80a1883a 	add	r16,r16,r2
 2011b30:	84400015 	stw	r17,0(r16)
 2011b34:	0005883a 	mov	r2,zero
 2011b38:	dfc00617 	ldw	ra,24(sp)
 2011b3c:	dd400517 	ldw	r21,20(sp)
 2011b40:	dd000417 	ldw	r20,16(sp)
 2011b44:	dcc00317 	ldw	r19,12(sp)
 2011b48:	dc800217 	ldw	r18,8(sp)
 2011b4c:	dc400117 	ldw	r17,4(sp)
 2011b50:	dc000017 	ldw	r16,0(sp)
 2011b54:	dec00704 	addi	sp,sp,28
 2011b58:	f800283a 	ret

02011b5c <__call_exitprocs>:
 2011b5c:	008080f4 	movhi	r2,515
 2011b60:	10bc6c04 	addi	r2,r2,-3664
 2011b64:	10800017 	ldw	r2,0(r2)
 2011b68:	defff304 	addi	sp,sp,-52
 2011b6c:	ddc00a15 	stw	r23,40(sp)
 2011b70:	d8800015 	stw	r2,0(sp)
 2011b74:	05c08074 	movhi	r23,513
 2011b78:	10800c04 	addi	r2,r2,48
 2011b7c:	dc800515 	stw	r18,20(sp)
 2011b80:	dfc00c15 	stw	ra,48(sp)
 2011b84:	df000b15 	stw	fp,44(sp)
 2011b88:	dd800915 	stw	r22,36(sp)
 2011b8c:	dd400815 	stw	r21,32(sp)
 2011b90:	dd000715 	stw	r20,28(sp)
 2011b94:	dcc00615 	stw	r19,24(sp)
 2011b98:	dc400415 	stw	r17,16(sp)
 2011b9c:	dc000315 	stw	r16,12(sp)
 2011ba0:	d9000115 	stw	r4,4(sp)
 2011ba4:	2825883a 	mov	r18,r5
 2011ba8:	d8800215 	stw	r2,8(sp)
 2011bac:	bdf26b04 	addi	r23,r23,-13908
 2011bb0:	d8800017 	ldw	r2,0(sp)
 2011bb4:	dc400217 	ldw	r17,8(sp)
 2011bb8:	14c00c17 	ldw	r19,48(r2)
 2011bbc:	98004226 	beq	r19,zero,2011cc8 <__call_exitprocs+0x16c>
 2011bc0:	9c000117 	ldw	r16,4(r19)
 2011bc4:	00900034 	movhi	r2,16384
 2011bc8:	10bfffc4 	addi	r2,r2,-1
 2011bcc:	9d002217 	ldw	r20,136(r19)
 2011bd0:	857fffc4 	addi	r21,r16,-1
 2011bd4:	80a1883a 	add	r16,r16,r2
 2011bd8:	8421883a 	add	r16,r16,r16
 2011bdc:	8421883a 	add	r16,r16,r16
 2011be0:	a42d883a 	add	r22,r20,r16
 2011be4:	84000204 	addi	r16,r16,8
 2011be8:	9c21883a 	add	r16,r19,r16
 2011bec:	a8002616 	blt	r21,zero,2011c88 <__call_exitprocs+0x12c>
 2011bf0:	90000326 	beq	r18,zero,2011c00 <__call_exitprocs+0xa4>
 2011bf4:	a0002026 	beq	r20,zero,2011c78 <__call_exitprocs+0x11c>
 2011bf8:	b1002017 	ldw	r4,128(r22)
 2011bfc:	24801e1e 	bne	r4,r18,2011c78 <__call_exitprocs+0x11c>
 2011c00:	99000117 	ldw	r4,4(r19)
 2011c04:	82000017 	ldw	r8,0(r16)
 2011c08:	213fffc4 	addi	r4,r4,-1
 2011c0c:	a900021e 	bne	r21,r4,2011c18 <__call_exitprocs+0xbc>
 2011c10:	9d400115 	stw	r21,4(r19)
 2011c14:	00000106 	br	2011c1c <__call_exitprocs+0xc0>
 2011c18:	80000015 	stw	zero,0(r16)
 2011c1c:	40001626 	beq	r8,zero,2011c78 <__call_exitprocs+0x11c>
 2011c20:	9f000117 	ldw	fp,4(r19)
 2011c24:	a0000526 	beq	r20,zero,2011c3c <__call_exitprocs+0xe0>
 2011c28:	00800044 	movi	r2,1
 2011c2c:	1552983a 	sll	r9,r2,r21
 2011c30:	a1404017 	ldw	r5,256(r20)
 2011c34:	494a703a 	and	r5,r9,r5
 2011c38:	2800021e 	bne	r5,zero,2011c44 <__call_exitprocs+0xe8>
 2011c3c:	403ee83a 	callr	r8
 2011c40:	00000906 	br	2011c68 <__call_exitprocs+0x10c>
 2011c44:	a1004117 	ldw	r4,260(r20)
 2011c48:	4908703a 	and	r4,r9,r4
 2011c4c:	2000041e 	bne	r4,zero,2011c60 <__call_exitprocs+0x104>
 2011c50:	d9000117 	ldw	r4,4(sp)
 2011c54:	b1400017 	ldw	r5,0(r22)
 2011c58:	403ee83a 	callr	r8
 2011c5c:	00000206 	br	2011c68 <__call_exitprocs+0x10c>
 2011c60:	b1000017 	ldw	r4,0(r22)
 2011c64:	403ee83a 	callr	r8
 2011c68:	99000117 	ldw	r4,4(r19)
 2011c6c:	e13fd01e 	bne	fp,r4,2011bb0 <__reset+0xfe00a3b0>
 2011c70:	89000017 	ldw	r4,0(r17)
 2011c74:	24ffce1e 	bne	r4,r19,2011bb0 <__reset+0xfe00a3b0>
 2011c78:	ad7fffc4 	addi	r21,r21,-1
 2011c7c:	b5bfff04 	addi	r22,r22,-4
 2011c80:	843fff04 	addi	r16,r16,-4
 2011c84:	003fd906 	br	2011bec <__reset+0xfe00a3ec>
 2011c88:	b8000f26 	beq	r23,zero,2011cc8 <__call_exitprocs+0x16c>
 2011c8c:	99000117 	ldw	r4,4(r19)
 2011c90:	20000a1e 	bne	r4,zero,2011cbc <__call_exitprocs+0x160>
 2011c94:	99000017 	ldw	r4,0(r19)
 2011c98:	20000826 	beq	r4,zero,2011cbc <__call_exitprocs+0x160>
 2011c9c:	89000015 	stw	r4,0(r17)
 2011ca0:	a0000226 	beq	r20,zero,2011cac <__call_exitprocs+0x150>
 2011ca4:	a009883a 	mov	r4,r20
 2011ca8:	200c9ac0 	call	200c9ac <free>
 2011cac:	9809883a 	mov	r4,r19
 2011cb0:	200c9ac0 	call	200c9ac <free>
 2011cb4:	8cc00017 	ldw	r19,0(r17)
 2011cb8:	003fc006 	br	2011bbc <__reset+0xfe00a3bc>
 2011cbc:	9823883a 	mov	r17,r19
 2011cc0:	9cc00017 	ldw	r19,0(r19)
 2011cc4:	003fbd06 	br	2011bbc <__reset+0xfe00a3bc>
 2011cc8:	dfc00c17 	ldw	ra,48(sp)
 2011ccc:	df000b17 	ldw	fp,44(sp)
 2011cd0:	ddc00a17 	ldw	r23,40(sp)
 2011cd4:	dd800917 	ldw	r22,36(sp)
 2011cd8:	dd400817 	ldw	r21,32(sp)
 2011cdc:	dd000717 	ldw	r20,28(sp)
 2011ce0:	dcc00617 	ldw	r19,24(sp)
 2011ce4:	dc800517 	ldw	r18,20(sp)
 2011ce8:	dc400417 	ldw	r17,16(sp)
 2011cec:	dc000317 	ldw	r16,12(sp)
 2011cf0:	dec00d04 	addi	sp,sp,52
 2011cf4:	f800283a 	ret

02011cf8 <_exit>:
 *
 * ALT_EXIT is mapped onto the _exit() system call in alt_syscall.h
 */

void ALT_EXIT (int exit_code)
{
 2011cf8:	defffd04 	addi	sp,sp,-12
 2011cfc:	df000215 	stw	fp,8(sp)
 2011d00:	df000204 	addi	fp,sp,8
 2011d04:	e13fff15 	stw	r4,-4(fp)
  ALT_LOG_PRINT_BOOT("[alt_exit.c] Entering _exit() function.\r\n");
  ALT_LOG_PRINT_BOOT("[alt_exit.c] Exit code from main was %d.\r\n",exit_code);
  /* Stop all other threads */

  ALT_LOG_PRINT_BOOT("[alt_exit.c] Calling ALT_OS_STOP().\r\n");
  ALT_OS_STOP();
 2011d08:	0001883a 	nop
 2011d0c:	e0bfff17 	ldw	r2,-4(fp)
 2011d10:	e0bffe15 	stw	r2,-8(fp)
/*
 * Routine called on exit.
 */
static ALT_INLINE ALT_ALWAYS_INLINE void alt_sim_halt(int exit_code)
{
  register int r2 asm ("r2") = exit_code;
 2011d14:	e0bffe17 	ldw	r2,-8(fp)
  __asm__ volatile ("\n0:\n\taddi %0,%0, -1\n\tbgt %0,zero,0b" : : "r" (ALT_CPU_FREQ/100) ); /* Delay for >30ms */

  __asm__ volatile ("break 2" : : "r"(r2), "r"(r3) ALT_GMON_DATA );

#else /* !DEBUG_STUB */
  if (r2) {
 2011d18:	10000226 	beq	r2,zero,2011d24 <_exit+0x2c>
    ALT_SIM_FAIL();
 2011d1c:	002af070 	cmpltui	zero,zero,43969
 2011d20:	00000106 	br	2011d28 <_exit+0x30>
  } else {
    ALT_SIM_PASS();
 2011d24:	002af0b0 	cmpltui	zero,zero,43970
  ALT_SIM_HALT(exit_code);

  /* spin forever, since there's no where to go back to */

  ALT_LOG_PRINT_BOOT("[alt_exit.c] Spinning forever.\r\n");
  while (1);
 2011d28:	003fff06 	br	2011d28 <__reset+0xfe00a528>
